ARM GAS  /tmp/ccSqa4tb.s 			page 1


   1              		.syntax unified
   2              		.cpu cortex-m3
   3              		.fpu softvfp
   4              		.eabi_attribute 20, 1
   5              		.eabi_attribute 21, 1
   6              		.eabi_attribute 23, 3
   7              		.eabi_attribute 24, 1
   8              		.eabi_attribute 25, 1
   9              		.eabi_attribute 26, 1
  10              		.eabi_attribute 30, 4
  11              		.eabi_attribute 18, 4
  12              		.thumb
  13              		.file	"amx.c"
  14              		.section	.debug_abbrev,"",%progbits
  15              	.Ldebug_abbrev0:
  16              		.section	.debug_info,"",%progbits
  17              	.Ldebug_info0:
  18              		.section	.debug_line,"",%progbits
  19              	.Ldebug_line0:
  20 0000 2B0F0000 		.text
  20      02000A01 
  20      00000201 
  20      FB0E0D00 
  20      01010101 
  21              	.Ltext0:
  22              		.cfi_sections	.debug_frame
  23              		.section	.text.amx_Callback,"ax",%progbits
  24              		.align	1
  25              		.global	amx_Callback
  26              		.thumb
  27              		.thumb_func
  28              		.type	amx_Callback, %function
  29              	amx_Callback:
  30              	.LFB4:
  31              		.file 1 "pawn/amx.c"
  32              		.loc 1 522 0
  33              		.cfi_startproc
  34              		@ args = 0, pretend = 0, frame = 0
  35              		@ frame_needed = 0, uses_anonymous_args = 0
  36              	.LVL0:
  37 0000 70B5     		push	{r4, r5, r6, lr}
  38              	.LCFI0:
  39              		.cfi_def_cfa_offset 16
  40              		.loc 1 536 0
  41 0002 0029     		cmp	r1, #0
  42              		.loc 1 522 0
  43 0004 1546     		mov	r5, r2
  44              		.cfi_offset 14, -4
  45              		.cfi_offset 6, -8
  46              		.cfi_offset 5, -12
  47              		.cfi_offset 4, -16
  48 0006 0446     		mov	r4, r0
  49              		.loc 1 531 0
  50 0008 0268     		ldr	r2, [r0, #0]	@ unaligned
  51              	.LVL1:
  52              		.loc 1 536 0
  53 000a 04DA     		bge	.L2
ARM GAS  /tmp/ccSqa4tb.s 			page 2


  54              		.loc 1 538 0
  55 000c 1348     		ldr	r0, .L6
  56              	.LVL2:
  57 000e C943     		mvns	r1, r1
  58              	.LVL3:
  59 0010 50F82120 		ldr	r2, [r0, r1, lsl #2]
  60              	.LVL4:
  61 0014 05E0     		b	.L3
  62              	.LVL5:
  63              	.L2:
  64              		.loc 1 542 0
  65 0016 B2F90A60 		ldrsh	r6, [r2, #10]	@ unaligned
  66 001a 506A     		ldr	r0, [r2, #36]	@ unaligned
  67              		.loc 1 543 0
  68 001c 06FB0122 		mla	r2, r6, r1, r2
  69              	.LVL6:
  70 0020 1258     		ldr	r2, [r2, r0]	@ unaligned
  71              	.LVL7:
  72              	.L3:
  73              		.loc 1 556 0
  74 0022 E06E     		ldr	r0, [r4, #108]	@ unaligned
  75 0024 58B1     		cbz	r0, .L4
  76              	.LBB7:
  77              		.loc 1 560 0
  78 0026 A169     		ldr	r1, [r4, #24]	@ unaligned
  79 0028 6668     		ldr	r6, [r4, #4]	@ unaligned
  80 002a 0439     		subs	r1, r1, #4
  81 002c 7118     		adds	r1, r6, r1
  82              	.LVL8:
  83              		.loc 1 561 0
  84 002e 266B     		ldr	r6, [r4, #48]	@ unaligned
  85 0030 16F4006F 		tst	r6, #2048
  86              		.loc 1 562 0
  87 0034 18BF     		it	ne
  88 0036 0439     		subne	r1, r1, #4
  89              	.LVL9:
  90              		.loc 1 571 0
  91 0038 41F8040C 		str	r0, [r1, #-4]
  92              		.loc 1 572 0
  93 003c 0A60     		str	r2, [r1, #0]
  94              	.LVL10:
  95              	.L4:
  96              	.LBE7:
  97              		.loc 1 581 0
  98 003e 0021     		movs	r1, #0
  99 0040 84F85410 		strb	r1, [r4, #84]
 100 0044 84F85510 		strb	r1, [r4, #85]
 101 0048 84F85610 		strb	r1, [r4, #86]
 102 004c 84F85710 		strb	r1, [r4, #87]
 103              		.loc 1 582 0
 104 0050 2046     		mov	r0, r4
 105 0052 1946     		mov	r1, r3
 106 0054 9047     		blx	r2
 107              	.LVL11:
 108 0056 2860     		str	r0, [r5, #0]
 109              		.loc 1 584 0
 110 0058 606D     		ldr	r0, [r4, #84]	@ unaligned
ARM GAS  /tmp/ccSqa4tb.s 			page 3


 111 005a 70BD     		pop	{r4, r5, r6, pc}
 112              	.L7:
 113              		.align	2
 114              	.L6:
 115 005c 00000000 		.word	g_nativetable
 116              		.cfi_endproc
 117              	.LFE4:
 118              		.size	amx_Callback, .-amx_Callback
 119              		.section	.text.amx_Swap32,"ax",%progbits
 120              		.align	1
 121              		.global	amx_Swap32
 122              		.thumb
 123              		.thumb_func
 124              		.type	amx_Swap32, %function
 125              	amx_Swap32:
 126              	.LFB0:
 127              		.loc 1 426 0
 128              		.cfi_startproc
 129              		@ args = 0, pretend = 0, frame = 0
 130              		@ frame_needed = 0, uses_anonymous_args = 0
 131              		@ link register save eliminated.
 132              	.LVL12:
 133              		.loc 1 432 0
 134 0000 0378     		ldrb	r3, [r0, #0]	@ zero_extendqisi2
 135              	.LVL13:
 136              		.loc 1 433 0
 137 0002 C278     		ldrb	r2, [r0, #3]	@ zero_extendqisi2
 138              		.loc 1 434 0
 139 0004 C370     		strb	r3, [r0, #3]
 140              		.loc 1 433 0
 141 0006 0270     		strb	r2, [r0, #0]
 142              		.loc 1 436 0
 143 0008 4378     		ldrb	r3, [r0, #1]	@ zero_extendqisi2
 144              	.LVL14:
 145              		.loc 1 437 0
 146 000a 8278     		ldrb	r2, [r0, #2]	@ zero_extendqisi2
 147              		.loc 1 438 0
 148 000c 8370     		strb	r3, [r0, #2]
 149              		.loc 1 437 0
 150 000e 4270     		strb	r2, [r0, #1]
 151              		.loc 1 439 0
 152 0010 7047     		bx	lr
 153              		.cfi_endproc
 154              	.LFE0:
 155              		.size	amx_Swap32, .-amx_Swap32
 156              		.section	.text.amx_Align16,"ax",%progbits
 157              		.align	1
 158              		.global	amx_Align16
 159              		.thumb
 160              		.thumb_func
 161              		.type	amx_Align16, %function
 162              	amx_Align16:
 163              	.LFB1:
 164              		.loc 1 470 0
 165              		.cfi_startproc
 166              		@ args = 0, pretend = 0, frame = 0
 167              		@ frame_needed = 0, uses_anonymous_args = 0
ARM GAS  /tmp/ccSqa4tb.s 			page 4


 168              		@ link register save eliminated.
 169              	.LVL15:
 170              		.loc 1 477 0
 171 0000 7047     		bx	lr
 172              		.cfi_endproc
 173              	.LFE1:
 174              		.size	amx_Align16, .-amx_Align16
 175              		.section	.text.amx_Align32,"ax",%progbits
 176              		.align	1
 177              		.global	amx_Align32
 178              		.thumb
 179              		.thumb_func
 180              		.type	amx_Align32, %function
 181              	amx_Align32:
 182              	.LFB2:
 183              		.loc 1 480 0
 184              		.cfi_startproc
 185              		@ args = 0, pretend = 0, frame = 0
 186              		@ frame_needed = 0, uses_anonymous_args = 0
 187              		@ link register save eliminated.
 188              	.LVL16:
 189              		.loc 1 487 0
 190 0000 7047     		bx	lr
 191              		.cfi_endproc
 192              	.LFE2:
 193              		.size	amx_Align32, .-amx_Align32
 194              		.section	.text.amx_Flags,"ax",%progbits
 195              		.align	1
 196              		.global	amx_Flags
 197              		.thumb
 198              		.thumb_func
 199              		.type	amx_Flags, %function
 200              	amx_Flags:
 201              	.LFB3:
 202              		.loc 1 504 0
 203              		.cfi_startproc
 204              		@ args = 0, pretend = 0, frame = 0
 205              		@ frame_needed = 0, uses_anonymous_args = 0
 206              		@ link register save eliminated.
 207              	.LVL17:
 208              		.loc 1 507 0
 209 0000 0023     		movs	r3, #0
 210 0002 0B80     		strh	r3, [r1, #0]	@ movhi
 211              		.loc 1 508 0
 212 0004 90B1     		cbz	r0, .L14
 213              		.loc 1 510 0
 214 0006 0368     		ldr	r3, [r0, #0]	@ unaligned
 215              	.LVL18:
 216              		.loc 1 511 0
 217 0008 4FF2E012 		movw	r2, #61920
 218 000c 9888     		ldrh	r0, [r3, #4]	@ unaligned
 219              	.LVL19:
 220 000e 9042     		cmp	r0, r2
 221 0010 0CD1     		bne	.L14
 222              		.loc 1 513 0
 223 0012 9A79     		ldrb	r2, [r3, #6]	@ zero_extendqisi2
 224 0014 0B2A     		cmp	r2, #11
ARM GAS  /tmp/ccSqa4tb.s 			page 5


 225 0016 0BD8     		bhi	.L15
 226              		.loc 1 513 0 is_stmt 0 discriminator 1
 227 0018 DA79     		ldrb	r2, [r3, #7]	@ zero_extendqisi2
 228 001a 0A2A     		cmp	r2, #10
 229 001c 0AD9     		bls	.L16
 230              		.loc 1 515 0 is_stmt 1
 231 001e 1A7A     		ldrb	r2, [r3, #8]	@ zero_extendqisi2
 232 0020 5B7A     		ldrb	r3, [r3, #9]	@ zero_extendqisi2
 233              	.LVL20:
 234              		.loc 1 516 0
 235 0022 0020     		movs	r0, #0
 236              		.loc 1 515 0
 237 0024 42EA0323 		orr	r3, r2, r3, lsl #8
 238 0028 0B80     		strh	r3, [r1, #0]	@ movhi
 239              		.loc 1 516 0
 240 002a 7047     		bx	lr
 241              	.L14:
 242              		.loc 1 512 0
 243 002c 1120     		movs	r0, #17
 244 002e 7047     		bx	lr
 245              	.LVL21:
 246              	.L15:
 247              		.loc 1 514 0
 248 0030 1220     		movs	r0, #18
 249 0032 7047     		bx	lr
 250              	.L16:
 251 0034 1220     		movs	r0, #18
 252              		.loc 1 517 0
 253 0036 7047     		bx	lr
 254              		.cfi_endproc
 255              	.LFE3:
 256              		.size	amx_Flags, .-amx_Flags
 257              		.section	.text.amx_InitJIT,"ax",%progbits
 258              		.align	1
 259              		.global	amx_InitJIT
 260              		.thumb
 261              		.thumb_func
 262              		.type	amx_InitJIT, %function
 263              	amx_InitJIT:
 264              	.LFB7:
 265              		.loc 1 1427 0
 266              		.cfi_startproc
 267              		@ args = 0, pretend = 0, frame = 0
 268              		@ frame_needed = 0, uses_anonymous_args = 0
 269              		@ link register save eliminated.
 270              	.LVL22:
 271              		.loc 1 1432 0
 272 0000 1820     		movs	r0, #24
 273              	.LVL23:
 274 0002 7047     		bx	lr
 275              		.cfi_endproc
 276              	.LFE7:
 277              		.size	amx_InitJIT, .-amx_InitJIT
 278              		.section	.text.amx_Cleanup,"ax",%progbits
 279              		.align	1
 280              		.global	amx_Cleanup
 281              		.thumb
ARM GAS  /tmp/ccSqa4tb.s 			page 6


 282              		.thumb_func
 283              		.type	amx_Cleanup, %function
 284              	amx_Cleanup:
 285              	.LFB8:
 286              		.loc 1 1440 0
 287              		.cfi_startproc
 288              		@ args = 0, pretend = 0, frame = 0
 289              		@ frame_needed = 0, uses_anonymous_args = 0
 290              		@ link register save eliminated.
 291              	.LVL24:
 292              		.loc 1 1478 0
 293 0000 0020     		movs	r0, #0
 294              	.LVL25:
 295 0002 7047     		bx	lr
 296              		.cfi_endproc
 297              	.LFE8:
 298              		.size	amx_Cleanup, .-amx_Cleanup
 299              		.section	.text.amx_Clone,"ax",%progbits
 300              		.align	1
 301              		.global	amx_Clone
 302              		.thumb
 303              		.thumb_func
 304              		.type	amx_Clone, %function
 305              	amx_Clone:
 306              	.LFB9:
 307              		.loc 1 1483 0
 308              		.cfi_startproc
 309              		@ args = 0, pretend = 0, frame = 0
 310              		@ frame_needed = 0, uses_anonymous_args = 0
 311              	.LVL26:
 312 0000 70B5     		push	{r4, r5, r6, lr}
 313              	.LCFI1:
 314              		.cfi_def_cfa_offset 16
 315              		.loc 1 1487 0
 316 0002 0B46     		mov	r3, r1
 317              		.loc 1 1483 0
 318 0004 0446     		mov	r4, r0
 319              		.cfi_offset 14, -4
 320              		.cfi_offset 6, -8
 321              		.cfi_offset 5, -12
 322              		.cfi_offset 4, -16
 323 0006 1046     		mov	r0, r2
 324              	.LVL27:
 325              		.loc 1 1487 0
 326 0008 0029     		cmp	r1, #0
 327 000a 39D0     		beq	.L27
 328              	.LVL28:
 329              		.loc 1 1489 0
 330 000c 002C     		cmp	r4, #0
 331 000e 33D0     		beq	.L25
 332              		.loc 1 1491 0
 333 0010 0D6B     		ldr	r5, [r1, #48]	@ unaligned
 334 0012 15F4004F 		tst	r5, #32768
 335 0016 31D0     		beq	.L26
 336              		.loc 1 1493 0
 337 0018 0968     		ldr	r1, [r1, #0]	@ unaligned
 338              	.LVL29:
ARM GAS  /tmp/ccSqa4tb.s 			page 7


 339              		.loc 1 1494 0
 340 001a 4FF2E012 		movw	r2, #61920
 341 001e 8E88     		ldrh	r6, [r1, #4]	@ unaligned
 342 0020 9642     		cmp	r6, r2
 343 0022 2DD1     		bne	.L27
 344              		.loc 1 1496 0
 345 0024 8A79     		ldrb	r2, [r1, #6]	@ zero_extendqisi2
 346 0026 0B2A     		cmp	r2, #11
 347 0028 2CD8     		bhi	.L28
 348              		.loc 1 1496 0 is_stmt 0 discriminator 1
 349 002a CA79     		ldrb	r2, [r1, #7]	@ zero_extendqisi2
 350 002c 0A2A     		cmp	r2, #10
 351 002e 2BD9     		bls	.L29
 352              		.loc 1 1500 0 is_stmt 1
 353 0030 2160     		str	r1, [r4, #0]	@ unaligned
 354              		.loc 1 1501 0
 355 0032 5A68     		ldr	r2, [r3, #4]	@ unaligned
 356 0034 6260     		str	r2, [r4, #4]	@ unaligned
 357              		.loc 1 1502 0
 358 0036 5A6F     		ldr	r2, [r3, #116]	@ unaligned
 359 0038 6267     		str	r2, [r4, #116]	@ unaligned
 360              		.loc 1 1503 0
 361 003a 0E69     		ldr	r6, [r1, #16]	@ unaligned
 362 003c 4A69     		ldr	r2, [r1, #20]	@ unaligned
 363 003e 921B     		subs	r2, r2, r6
 364 0040 6262     		str	r2, [r4, #36]	@ unaligned
 365              		.loc 1 1504 0
 366 0042 8969     		ldr	r1, [r1, #24]	@ unaligned
 367              	.LVL30:
 368              		.loc 1 1505 0
 369 0044 2262     		str	r2, [r4, #32]	@ unaligned
 370              		.loc 1 1504 0
 371 0046 891B     		subs	r1, r1, r6
 372 0048 0439     		subs	r1, r1, #4
 373 004a E162     		str	r1, [r4, #44]	@ unaligned
 374              		.loc 1 1506 0
 375 004c A162     		str	r1, [r4, #40]	@ unaligned
 376              		.loc 1 1507 0
 377 004e E168     		ldr	r1, [r4, #12]	@ unaligned
 378 0050 09B9     		cbnz	r1, .L21
 379              		.loc 1 1508 0
 380 0052 D968     		ldr	r1, [r3, #12]	@ unaligned
 381 0054 E160     		str	r1, [r4, #12]	@ unaligned
 382              	.L21:
 383              		.loc 1 1509 0
 384 0056 2169     		ldr	r1, [r4, #16]	@ unaligned
 385 0058 09B9     		cbnz	r1, .L22
 386              		.loc 1 1510 0
 387 005a 1969     		ldr	r1, [r3, #16]	@ unaligned
 388 005c 2161     		str	r1, [r4, #16]	@ unaligned
 389              	.L22:
 390              		.loc 1 1511 0
 391 005e 2563     		str	r5, [r4, #48]	@ unaligned
 392              		.loc 1 1515 0
 393 0060 A060     		str	r0, [r4, #8]	@ unaligned
 394              		.loc 1 1516 0
 395 0062 9968     		ldr	r1, [r3, #8]	@ unaligned
ARM GAS  /tmp/ccSqa4tb.s 			page 8


 396 0064 09B9     		cbnz	r1, .L23
 397              		.loc 1 1516 0 is_stmt 0 discriminator 2
 398 0066 1968     		ldr	r1, [r3, #0]	@ unaligned
 399 0068 8919     		adds	r1, r1, r6
 400              	.L23:
 401              	.LVL31:
 402              		.loc 1 1517 0 is_stmt 1 discriminator 3
 403 006a FFF7FEFF 		bl	memcpy
 404              	.LVL32:
 405              		.loc 1 1522 0 discriminator 3
 406 006e A268     		ldr	r2, [r4, #8]	@ unaligned
 407 0070 E36A     		ldr	r3, [r4, #44]	@ unaligned
 408 0072 0020     		movs	r0, #0
 409 0074 D050     		str	r0, [r2, r3]
 410              		.loc 1 1524 0 discriminator 3
 411 0076 70BD     		pop	{r4, r5, r6, pc}
 412              	.LVL33:
 413              	.L25:
 414              		.loc 1 1490 0
 415 0078 1920     		movs	r0, #25
 416              	.LVL34:
 417 007a 70BD     		pop	{r4, r5, r6, pc}
 418              	.L26:
 419              		.loc 1 1492 0
 420 007c 1620     		movs	r0, #22
 421 007e 70BD     		pop	{r4, r5, r6, pc}
 422              	.LVL35:
 423              	.L27:
 424              		.loc 1 1495 0
 425 0080 1120     		movs	r0, #17
 426              	.LVL36:
 427 0082 70BD     		pop	{r4, r5, r6, pc}
 428              	.LVL37:
 429              	.L28:
 430              		.loc 1 1497 0
 431 0084 1220     		movs	r0, #18
 432              	.LVL38:
 433 0086 70BD     		pop	{r4, r5, r6, pc}
 434              	.LVL39:
 435              	.L29:
 436 0088 1220     		movs	r0, #18
 437              	.LVL40:
 438              		.loc 1 1525 0
 439 008a 70BD     		pop	{r4, r5, r6, pc}
 440              		.cfi_endproc
 441              	.LFE9:
 442              		.size	amx_Clone, .-amx_Clone
 443              		.section	.text.amx_MemInfo,"ax",%progbits
 444              		.align	1
 445              		.global	amx_MemInfo
 446              		.thumb
 447              		.thumb_func
 448              		.type	amx_MemInfo, %function
 449              	amx_MemInfo:
 450              	.LFB10:
 451              		.loc 1 1530 0
 452              		.cfi_startproc
ARM GAS  /tmp/ccSqa4tb.s 			page 9


 453              		@ args = 0, pretend = 0, frame = 0
 454              		@ frame_needed = 0, uses_anonymous_args = 0
 455              	.LVL41:
 456 0000 70B5     		push	{r4, r5, r6, lr}
 457              	.LCFI2:
 458              		.cfi_def_cfa_offset 16
 459              		.loc 1 1533 0
 460 0002 D0B1     		cbz	r0, .L35
 461              		.cfi_offset 14, -4
 462              		.cfi_offset 6, -8
 463              		.cfi_offset 5, -12
 464              		.cfi_offset 4, -16
 465              		.loc 1 1535 0
 466 0004 0468     		ldr	r4, [r0, #0]	@ unaligned
 467              	.LVL42:
 468              		.loc 1 1536 0
 469 0006 4FF2E015 		movw	r5, #61920
 470 000a A688     		ldrh	r6, [r4, #4]	@ unaligned
 471 000c AE42     		cmp	r6, r5
 472 000e 14D1     		bne	.L35
 473              		.loc 1 1538 0
 474 0010 A579     		ldrb	r5, [r4, #6]	@ zero_extendqisi2
 475 0012 0B2D     		cmp	r5, #11
 476 0014 13D8     		bhi	.L37
 477              		.loc 1 1538 0 is_stmt 0 discriminator 1
 478 0016 E579     		ldrb	r5, [r4, #7]	@ zero_extendqisi2
 479 0018 0A2D     		cmp	r5, #10
 480 001a 10D9     		bls	.L37
 481              		.loc 1 1541 0 is_stmt 1
 482 001c 09B1     		cbz	r1, .L32
 483              		.loc 1 1542 0
 484 001e 406F     		ldr	r0, [r0, #116]	@ unaligned
 485              	.LVL43:
 486 0020 0860     		str	r0, [r1, #0]
 487              	.L32:
 488              		.loc 1 1543 0
 489 0022 1AB1     		cbz	r2, .L33
 490              		.loc 1 1544 0
 491 0024 6069     		ldr	r0, [r4, #20]	@ unaligned
 492 0026 2169     		ldr	r1, [r4, #16]	@ unaligned
 493              	.LVL44:
 494 0028 411A     		subs	r1, r0, r1
 495 002a 1160     		str	r1, [r2, #0]
 496              	.L33:
 497              		.loc 1 1545 0
 498 002c 4BB1     		cbz	r3, .L38
 499              		.loc 1 1546 0
 500 002e A169     		ldr	r1, [r4, #24]	@ unaligned
 501 0030 6269     		ldr	r2, [r4, #20]	@ unaligned
 502              	.LVL45:
 503              		.loc 1 1548 0
 504 0032 0020     		movs	r0, #0
 505              		.loc 1 1546 0
 506 0034 8A1A     		subs	r2, r1, r2
 507 0036 1A60     		str	r2, [r3, #0]
 508 0038 70BD     		pop	{r4, r5, r6, pc}
 509              	.LVL46:
ARM GAS  /tmp/ccSqa4tb.s 			page 10


 510              	.L35:
 511              		.loc 1 1537 0
 512 003a 1120     		movs	r0, #17
 513              	.LVL47:
 514 003c 70BD     		pop	{r4, r5, r6, pc}
 515              	.LVL48:
 516              	.L37:
 517              		.loc 1 1539 0
 518 003e 1220     		movs	r0, #18
 519              	.LVL49:
 520 0040 70BD     		pop	{r4, r5, r6, pc}
 521              	.LVL50:
 522              	.L38:
 523              		.loc 1 1548 0
 524 0042 1846     		mov	r0, r3
 525              		.loc 1 1549 0
 526 0044 70BD     		pop	{r4, r5, r6, pc}
 527              		.cfi_endproc
 528              	.LFE10:
 529              		.size	amx_MemInfo, .-amx_MemInfo
 530              		.section	.text.amx_NameLength,"ax",%progbits
 531              		.align	1
 532              		.global	amx_NameLength
 533              		.thumb
 534              		.thumb_func
 535              		.type	amx_NameLength, %function
 536              	amx_NameLength:
 537              	.LFB11:
 538              		.loc 1 1554 0
 539              		.cfi_startproc
 540              		@ args = 0, pretend = 0, frame = 0
 541              		@ frame_needed = 0, uses_anonymous_args = 0
 542              		@ link register save eliminated.
 543              	.LVL51:
 544              		.loc 1 1559 0
 545 0000 0368     		ldr	r3, [r0, #0]	@ unaligned
 546              	.LVL52:
 547              		.loc 1 1565 0
 548 0002 0020     		movs	r0, #0
 549              	.LVL53:
 550              		.loc 1 1562 0
 551 0004 5A6B     		ldr	r2, [r3, #52]	@ unaligned
 552              		.loc 1 1563 0
 553 0006 9B5A     		ldrh	r3, [r3, r2]
 554              	.LVL54:
 555 0008 0B60     		str	r3, [r1, #0]
 556              		.loc 1 1565 0
 557 000a 7047     		bx	lr
 558              		.cfi_endproc
 559              	.LFE11:
 560              		.size	amx_NameLength, .-amx_NameLength
 561              		.section	.text.amx_NumNatives,"ax",%progbits
 562              		.align	1
 563              		.global	amx_NumNatives
 564              		.thumb
 565              		.thumb_func
 566              		.type	amx_NumNatives, %function
ARM GAS  /tmp/ccSqa4tb.s 			page 11


 567              	amx_NumNatives:
 568              	.LFB12:
 569              		.loc 1 1570 0
 570              		.cfi_startproc
 571              		@ args = 0, pretend = 0, frame = 0
 572              		@ frame_needed = 0, uses_anonymous_args = 0
 573              		@ link register save eliminated.
 574              	.LVL55:
 575              		.loc 1 1571 0
 576 0000 0368     		ldr	r3, [r0, #0]	@ unaligned
 577              	.LVL56:
 578              		.loc 1 1575 0
 579 0002 5A6A     		ldr	r2, [r3, #36]	@ unaligned
 580 0004 986A     		ldr	r0, [r3, #40]	@ unaligned
 581              	.LVL57:
 582 0006 801A     		subs	r0, r0, r2
 583 0008 B3F90A20 		ldrsh	r2, [r3, #10]	@ unaligned
 584 000c 90FBF2F3 		sdiv	r3, r0, r2
 585              	.LVL58:
 586 0010 0B60     		str	r3, [r1, #0]
 587              		.loc 1 1577 0
 588 0012 0020     		movs	r0, #0
 589 0014 7047     		bx	lr
 590              		.cfi_endproc
 591              	.LFE12:
 592              		.size	amx_NumNatives, .-amx_NumNatives
 593              		.section	.text.amx_GetNative,"ax",%progbits
 594              		.align	1
 595              		.global	amx_GetNative
 596              		.thumb
 597              		.thumb_func
 598              		.type	amx_GetNative, %function
 599              	amx_GetNative:
 600              	.LFB13:
 601              		.loc 1 1580 0
 602              		.cfi_startproc
 603              		@ args = 0, pretend = 0, frame = 0
 604              		@ frame_needed = 0, uses_anonymous_args = 0
 605              	.LVL59:
 606 0000 38B5     		push	{r3, r4, r5, lr}
 607              	.LCFI3:
 608              		.cfi_def_cfa_offset 16
 609              		.loc 1 1584 0
 610 0002 0368     		ldr	r3, [r0, #0]	@ unaligned
 611              		.cfi_offset 14, -4
 612              		.cfi_offset 5, -8
 613              		.cfi_offset 4, -12
 614              		.cfi_offset 3, -16
 615              	.LVL60:
 616              		.loc 1 1588 0
 617 0004 5C6A     		ldr	r4, [r3, #36]	@ unaligned
 618 0006 9D6A     		ldr	r5, [r3, #40]	@ unaligned
 619 0008 B3F90A00 		ldrsh	r0, [r3, #10]	@ unaligned
 620              	.LVL61:
 621 000c 2D1B     		subs	r5, r5, r4
 622 000e 95FBF0F5 		sdiv	r5, r5, r0
 623 0012 A942     		cmp	r1, r5
ARM GAS  /tmp/ccSqa4tb.s 			page 12


 624 0014 09DA     		bge	.L43
 625              		.loc 1 1592 0
 626 0016 1C19     		adds	r4, r3, r4
 627 0018 00FB0141 		mla	r1, r0, r1, r4
 628              	.LVL62:
 629 001c 4968     		ldr	r1, [r1, #4]	@ unaligned
 630 001e 1046     		mov	r0, r2
 631 0020 5918     		adds	r1, r3, r1
 632 0022 FFF7FEFF 		bl	strcpy
 633              	.LVL63:
 634              		.loc 1 1593 0
 635 0026 0020     		movs	r0, #0
 636 0028 38BD     		pop	{r3, r4, r5, pc}
 637              	.LVL64:
 638              	.L43:
 639              		.loc 1 1589 0
 640 002a 1420     		movs	r0, #20
 641              		.loc 1 1594 0
 642 002c 38BD     		pop	{r3, r4, r5, pc}
 643              		.cfi_endproc
 644              	.LFE13:
 645              		.size	amx_GetNative, .-amx_GetNative
 646              		.section	.text.amx_FindNative,"ax",%progbits
 647              		.align	1
 648              		.global	amx_FindNative
 649              		.thumb
 650              		.thumb_func
 651              		.type	amx_FindNative, %function
 652              	amx_FindNative:
 653              	.LFB14:
 654              		.loc 1 1597 0
 655              		.cfi_startproc
 656              		@ args = 0, pretend = 0, frame = 40
 657              		@ frame_needed = 0, uses_anonymous_args = 0
 658              	.LVL65:
 659 0000 F0B5     		push	{r4, r5, r6, r7, lr}
 660              	.LCFI4:
 661              		.cfi_def_cfa_offset 20
 662 0002 8BB0     		sub	sp, sp, #44
 663              	.LCFI5:
 664              		.cfi_def_cfa_offset 64
 665              		.loc 1 1597 0
 666 0004 0E46     		mov	r6, r1
 667              		.cfi_offset 14, -4
 668              		.cfi_offset 7, -8
 669              		.cfi_offset 6, -12
 670              		.cfi_offset 5, -16
 671              		.cfi_offset 4, -20
 672              		.loc 1 1601 0
 673 0006 09A9     		add	r1, sp, #36
 674              	.LVL66:
 675              		.loc 1 1597 0
 676 0008 0746     		mov	r7, r0
 677 000a 1546     		mov	r5, r2
 678              		.loc 1 1603 0
 679 000c 0024     		movs	r4, #0
 680              		.loc 1 1601 0
ARM GAS  /tmp/ccSqa4tb.s 			page 13


 681 000e FFF7FEFF 		bl	amx_NumNatives
 682              	.LVL67:
 683              		.loc 1 1603 0
 684 0012 0CE0     		b	.L45
 685              	.LVL68:
 686              	.L48:
 687              		.loc 1 1604 0
 688 0014 2146     		mov	r1, r4
 689 0016 3846     		mov	r0, r7
 690 0018 01AA     		add	r2, sp, #4
 691 001a FFF7FEFF 		bl	amx_GetNative
 692              	.LVL69:
 693              		.loc 1 1605 0
 694 001e 01A8     		add	r0, sp, #4
 695 0020 3146     		mov	r1, r6
 696 0022 FFF7FEFF 		bl	strcmp
 697 0026 08B9     		cbnz	r0, .L46
 698              		.loc 1 1606 0
 699 0028 2C60     		str	r4, [r5, #0]
 700              		.loc 1 1607 0
 701 002a 07E0     		b	.L47
 702              	.L46:
 703              		.loc 1 1603 0
 704 002c 0134     		adds	r4, r4, #1
 705              	.LVL70:
 706              	.L45:
 707              		.loc 1 1603 0 is_stmt 0 discriminator 1
 708 002e 099B     		ldr	r3, [sp, #36]
 709 0030 9C42     		cmp	r4, r3
 710 0032 EFDB     		blt	.L48
 711              		.loc 1 1610 0 is_stmt 1
 712 0034 6FF00043 		mvn	r3, #-2147483648
 713 0038 2B60     		str	r3, [r5, #0]
 714              		.loc 1 1611 0
 715 003a 1320     		movs	r0, #19
 716              	.L47:
 717              		.loc 1 1612 0
 718 003c 0BB0     		add	sp, sp, #44
 719 003e F0BD     		pop	{r4, r5, r6, r7, pc}
 720              		.cfi_endproc
 721              	.LFE14:
 722              		.size	amx_FindNative, .-amx_FindNative
 723              		.section	.text.amx_NumPublics,"ax",%progbits
 724              		.align	1
 725              		.global	amx_NumPublics
 726              		.thumb
 727              		.thumb_func
 728              		.type	amx_NumPublics, %function
 729              	amx_NumPublics:
 730              	.LFB15:
 731              		.loc 1 1617 0
 732              		.cfi_startproc
 733              		@ args = 0, pretend = 0, frame = 0
 734              		@ frame_needed = 0, uses_anonymous_args = 0
 735              		@ link register save eliminated.
 736              	.LVL71:
 737              		.loc 1 1618 0
ARM GAS  /tmp/ccSqa4tb.s 			page 14


 738 0000 0368     		ldr	r3, [r0, #0]	@ unaligned
 739              	.LVL72:
 740              		.loc 1 1622 0
 741 0002 1A6A     		ldr	r2, [r3, #32]	@ unaligned
 742 0004 586A     		ldr	r0, [r3, #36]	@ unaligned
 743              	.LVL73:
 744 0006 801A     		subs	r0, r0, r2
 745 0008 B3F90A20 		ldrsh	r2, [r3, #10]	@ unaligned
 746 000c 90FBF2F3 		sdiv	r3, r0, r2
 747              	.LVL74:
 748 0010 0B60     		str	r3, [r1, #0]
 749              		.loc 1 1624 0
 750 0012 0020     		movs	r0, #0
 751 0014 7047     		bx	lr
 752              		.cfi_endproc
 753              	.LFE15:
 754              		.size	amx_NumPublics, .-amx_NumPublics
 755              		.section	.text.amx_GetPublic,"ax",%progbits
 756              		.align	1
 757              		.global	amx_GetPublic
 758              		.thumb
 759              		.thumb_func
 760              		.type	amx_GetPublic, %function
 761              	amx_GetPublic:
 762              	.LFB16:
 763              		.loc 1 1627 0
 764              		.cfi_startproc
 765              		@ args = 0, pretend = 0, frame = 0
 766              		@ frame_needed = 0, uses_anonymous_args = 0
 767              	.LVL75:
 768 0000 70B5     		push	{r4, r5, r6, lr}
 769              	.LCFI6:
 770              		.cfi_def_cfa_offset 16
 771              		.loc 1 1627 0
 772 0002 1C46     		mov	r4, r3
 773              		.cfi_offset 14, -4
 774              		.cfi_offset 6, -8
 775              		.cfi_offset 5, -12
 776              		.cfi_offset 4, -16
 777              		.loc 1 1631 0
 778 0004 0368     		ldr	r3, [r0, #0]	@ unaligned
 779              	.LVL76:
 780              		.loc 1 1635 0
 781 0006 186A     		ldr	r0, [r3, #32]	@ unaligned
 782              	.LVL77:
 783 0008 5E6A     		ldr	r6, [r3, #36]	@ unaligned
 784 000a B3F90A50 		ldrsh	r5, [r3, #10]	@ unaligned
 785 000e 361A     		subs	r6, r6, r0
 786 0010 96FBF5F6 		sdiv	r6, r6, r5
 787 0014 B142     		cmp	r1, r6
 788 0016 0DDA     		bge	.L53
 789              		.loc 1 1638 0
 790 0018 05FB0105 		mla	r5, r5, r1, r0
 791 001c 5D19     		adds	r5, r3, r5
 792              	.LVL78:
 793              		.loc 1 1639 0
 794 001e 22B1     		cbz	r2, .L52
ARM GAS  /tmp/ccSqa4tb.s 			page 15


 795              		.loc 1 1640 0
 796 0020 6968     		ldr	r1, [r5, #4]	@ unaligned
 797              	.LVL79:
 798 0022 1046     		mov	r0, r2
 799 0024 5918     		adds	r1, r3, r1
 800 0026 FFF7FEFF 		bl	strcpy
 801              	.LVL80:
 802              	.L52:
 803              		.loc 1 1641 0
 804 002a 2CB1     		cbz	r4, .L54
 805              		.loc 1 1642 0
 806 002c 2B68     		ldr	r3, [r5, #0]	@ unaligned
 807              		.loc 1 1643 0
 808 002e 0020     		movs	r0, #0
 809              		.loc 1 1642 0
 810 0030 2360     		str	r3, [r4, #0]
 811 0032 70BD     		pop	{r4, r5, r6, pc}
 812              	.LVL81:
 813              	.L53:
 814              		.loc 1 1636 0
 815 0034 1420     		movs	r0, #20
 816 0036 70BD     		pop	{r4, r5, r6, pc}
 817              	.LVL82:
 818              	.L54:
 819              		.loc 1 1643 0
 820 0038 2046     		mov	r0, r4
 821              		.loc 1 1644 0
 822 003a 70BD     		pop	{r4, r5, r6, pc}
 823              		.cfi_endproc
 824              	.LFE16:
 825              		.size	amx_GetPublic, .-amx_GetPublic
 826              		.section	.text.amx_FindPublic,"ax",%progbits
 827              		.align	1
 828              		.global	amx_FindPublic
 829              		.thumb
 830              		.thumb_func
 831              		.type	amx_FindPublic, %function
 832              	amx_FindPublic:
 833              	.LFB17:
 834              		.loc 1 1647 0
 835              		.cfi_startproc
 836              		@ args = 0, pretend = 0, frame = 40
 837              		@ frame_needed = 0, uses_anonymous_args = 0
 838              	.LVL83:
 839 0000 2DE9F041 		push	{r4, r5, r6, r7, r8, lr}
 840              	.LCFI7:
 841              		.cfi_def_cfa_offset 24
 842 0004 8AB0     		sub	sp, sp, #40
 843              	.LCFI8:
 844              		.cfi_def_cfa_offset 64
 845              		.loc 1 1647 0
 846 0006 8846     		mov	r8, r1
 847              		.cfi_offset 14, -4
 848              		.cfi_offset 8, -8
 849              		.cfi_offset 7, -12
 850              		.cfi_offset 6, -16
 851              		.cfi_offset 5, -20
ARM GAS  /tmp/ccSqa4tb.s 			page 16


 852              		.cfi_offset 4, -24
 853              		.loc 1 1651 0
 854 0008 09A9     		add	r1, sp, #36
 855              	.LVL84:
 856              		.loc 1 1647 0
 857 000a 0746     		mov	r7, r0
 858 000c 1646     		mov	r6, r2
 859              		.loc 1 1651 0
 860 000e FFF7FEFF 		bl	amx_NumPublics
 861              	.LVL85:
 862              		.loc 1 1652 0
 863 0012 099B     		ldr	r3, [sp, #36]
 864              		.loc 1 1653 0
 865 0014 0025     		movs	r5, #0
 866              		.loc 1 1652 0
 867 0016 013B     		subs	r3, r3, #1
 868 0018 0993     		str	r3, [sp, #36]
 869              	.LVL86:
 870              		.loc 1 1655 0
 871 001a 17E0     		b	.L62
 872              	.LVL87:
 873              	.L61:
 874              		.loc 1 1656 0
 875 001c 2C19     		adds	r4, r5, r4
 876 001e 04EBD474 		add	r4, r4, r4, lsr #31
 877 0022 6410     		asrs	r4, r4, #1
 878              	.LVL88:
 879              		.loc 1 1657 0
 880 0024 0023     		movs	r3, #0
 881 0026 2146     		mov	r1, r4
 882 0028 01AA     		add	r2, sp, #4
 883 002a 3846     		mov	r0, r7
 884 002c FFF7FEFF 		bl	amx_GetPublic
 885              		.loc 1 1658 0
 886 0030 01A8     		add	r0, sp, #4
 887 0032 4146     		mov	r1, r8
 888 0034 FFF7FEFF 		bl	strcmp
 889              	.LVL89:
 890              		.loc 1 1659 0
 891 0038 0028     		cmp	r0, #0
 892 003a 02DD     		ble	.L57
 893              		.loc 1 1660 0
 894 003c 013C     		subs	r4, r4, #1
 895              	.LVL90:
 896 003e 0994     		str	r4, [sp, #36]
 897 0040 04E0     		b	.L62
 898              	.LVL91:
 899              	.L57:
 900              		.loc 1 1661 0
 901 0042 01D0     		beq	.L59
 902              		.loc 1 1662 0
 903 0044 651C     		adds	r5, r4, #1
 904              	.LVL92:
 905 0046 01E0     		b	.L62
 906              	.L59:
 907              		.loc 1 1664 0
 908 0048 3460     		str	r4, [r6, #0]
ARM GAS  /tmp/ccSqa4tb.s 			page 17


 909              		.loc 1 1665 0
 910 004a 06E0     		b	.L60
 911              	.LVL93:
 912              	.L62:
 913              		.loc 1 1655 0 discriminator 1
 914 004c 099C     		ldr	r4, [sp, #36]
 915 004e A542     		cmp	r5, r4
 916 0050 E4DD     		ble	.L61
 917              		.loc 1 1671 0
 918 0052 6FF00043 		mvn	r3, #-2147483648
 919 0056 3360     		str	r3, [r6, #0]
 920              		.loc 1 1672 0
 921 0058 1320     		movs	r0, #19
 922              	.L60:
 923              		.loc 1 1673 0
 924 005a 0AB0     		add	sp, sp, #40
 925 005c BDE8F081 		pop	{r4, r5, r6, r7, r8, pc}
 926              		.cfi_endproc
 927              	.LFE17:
 928              		.size	amx_FindPublic, .-amx_FindPublic
 929              		.section	.text.amx_NumPubVars,"ax",%progbits
 930              		.align	1
 931              		.global	amx_NumPubVars
 932              		.thumb
 933              		.thumb_func
 934              		.type	amx_NumPubVars, %function
 935              	amx_NumPubVars:
 936              	.LFB18:
 937              		.loc 1 1678 0
 938              		.cfi_startproc
 939              		@ args = 0, pretend = 0, frame = 0
 940              		@ frame_needed = 0, uses_anonymous_args = 0
 941              		@ link register save eliminated.
 942              	.LVL94:
 943              		.loc 1 1682 0
 944 0000 0368     		ldr	r3, [r0, #0]	@ unaligned
 945              	.LVL95:
 946              		.loc 1 1686 0
 947 0002 DA6A     		ldr	r2, [r3, #44]	@ unaligned
 948 0004 186B     		ldr	r0, [r3, #48]	@ unaligned
 949              	.LVL96:
 950 0006 801A     		subs	r0, r0, r2
 951 0008 B3F90A20 		ldrsh	r2, [r3, #10]	@ unaligned
 952 000c 90FBF2F3 		sdiv	r3, r0, r2
 953              	.LVL97:
 954 0010 0B60     		str	r3, [r1, #0]
 955              		.loc 1 1688 0
 956 0012 0020     		movs	r0, #0
 957 0014 7047     		bx	lr
 958              		.cfi_endproc
 959              	.LFE18:
 960              		.size	amx_NumPubVars, .-amx_NumPubVars
 961              		.section	.text.amx_GetPubVar,"ax",%progbits
 962              		.align	1
 963              		.global	amx_GetPubVar
 964              		.thumb
 965              		.thumb_func
ARM GAS  /tmp/ccSqa4tb.s 			page 18


 966              		.type	amx_GetPubVar, %function
 967              	amx_GetPubVar:
 968              	.LFB19:
 969              		.loc 1 1691 0
 970              		.cfi_startproc
 971              		@ args = 0, pretend = 0, frame = 0
 972              		@ frame_needed = 0, uses_anonymous_args = 0
 973              	.LVL98:
 974 0000 F8B5     		push	{r3, r4, r5, r6, r7, lr}
 975              	.LCFI9:
 976              		.cfi_def_cfa_offset 24
 977              		.loc 1 1697 0
 978 0002 0568     		ldr	r5, [r0, #0]	@ unaligned
 979              		.cfi_offset 14, -4
 980              		.cfi_offset 7, -8
 981              		.cfi_offset 6, -12
 982              		.cfi_offset 5, -16
 983              		.cfi_offset 4, -20
 984              		.cfi_offset 3, -24
 985              	.LVL99:
 986              		.loc 1 1691 0
 987 0004 0446     		mov	r4, r0
 988 0006 1F46     		mov	r7, r3
 989              		.loc 1 1701 0
 990 0008 286B     		ldr	r0, [r5, #48]	@ unaligned
 991              	.LVL100:
 992 000a EB6A     		ldr	r3, [r5, #44]	@ unaligned
 993              	.LVL101:
 994 000c B5F90A60 		ldrsh	r6, [r5, #10]	@ unaligned
 995 0010 C01A     		subs	r0, r0, r3
 996 0012 90FBF6F0 		sdiv	r0, r0, r6
 997 0016 8142     		cmp	r1, r0
 998 0018 11DA     		bge	.L67
 999              		.loc 1 1704 0
 1000 001a 06FB0136 		mla	r6, r6, r1, r3
 1001 001e AE19     		adds	r6, r5, r6
 1002              	.LVL102:
 1003              		.loc 1 1705 0
 1004 0020 7168     		ldr	r1, [r6, #4]	@ unaligned
 1005              	.LVL103:
 1006 0022 1046     		mov	r0, r2
 1007 0024 6918     		adds	r1, r5, r1
 1008 0026 FFF7FEFF 		bl	strcpy
 1009              	.LVL104:
 1010              		.loc 1 1706 0
 1011 002a A368     		ldr	r3, [r4, #8]	@ unaligned
 1012 002c 13B9     		cbnz	r3, .L66
 1013              		.loc 1 1706 0 is_stmt 0 discriminator 2
 1014 002e 2268     		ldr	r2, [r4, #0]	@ unaligned
 1015 0030 2B69     		ldr	r3, [r5, #16]	@ unaligned
 1016 0032 D318     		adds	r3, r2, r3
 1017              	.L66:
 1018              	.LVL105:
 1019              		.loc 1 1708 0 is_stmt 1 discriminator 3
 1020 0034 3268     		ldr	r2, [r6, #0]	@ unaligned
 1021              		.loc 1 1709 0 discriminator 3
 1022 0036 0020     		movs	r0, #0
ARM GAS  /tmp/ccSqa4tb.s 			page 19


 1023              		.loc 1 1708 0 discriminator 3
 1024 0038 9B18     		adds	r3, r3, r2
 1025              	.LVL106:
 1026 003a 3B60     		str	r3, [r7, #0]
 1027              		.loc 1 1709 0 discriminator 3
 1028 003c F8BD     		pop	{r3, r4, r5, r6, r7, pc}
 1029              	.LVL107:
 1030              	.L67:
 1031              		.loc 1 1702 0
 1032 003e 1420     		movs	r0, #20
 1033              		.loc 1 1710 0
 1034 0040 F8BD     		pop	{r3, r4, r5, r6, r7, pc}
 1035              		.cfi_endproc
 1036              	.LFE19:
 1037              		.size	amx_GetPubVar, .-amx_GetPubVar
 1038              		.section	.text.amx_FindPubVar,"ax",%progbits
 1039              		.align	1
 1040              		.global	amx_FindPubVar
 1041              		.thumb
 1042              		.thumb_func
 1043              		.type	amx_FindPubVar, %function
 1044              	amx_FindPubVar:
 1045              	.LFB20:
 1046              		.loc 1 1713 0
 1047              		.cfi_startproc
 1048              		@ args = 0, pretend = 0, frame = 40
 1049              		@ frame_needed = 0, uses_anonymous_args = 0
 1050              	.LVL108:
 1051 0000 2DE9F041 		push	{r4, r5, r6, r7, r8, lr}
 1052              	.LCFI10:
 1053              		.cfi_def_cfa_offset 24
 1054 0004 8AB0     		sub	sp, sp, #40
 1055              	.LCFI11:
 1056              		.cfi_def_cfa_offset 64
 1057              		.loc 1 1713 0
 1058 0006 8846     		mov	r8, r1
 1059              		.cfi_offset 14, -4
 1060              		.cfi_offset 8, -8
 1061              		.cfi_offset 7, -12
 1062              		.cfi_offset 6, -16
 1063              		.cfi_offset 5, -20
 1064              		.cfi_offset 4, -24
 1065              		.loc 1 1717 0
 1066 0008 09A9     		add	r1, sp, #36
 1067              	.LVL109:
 1068              		.loc 1 1713 0
 1069 000a 0746     		mov	r7, r0
 1070 000c 1646     		mov	r6, r2
 1071              		.loc 1 1717 0
 1072 000e FFF7FEFF 		bl	amx_NumPubVars
 1073              	.LVL110:
 1074              		.loc 1 1718 0
 1075 0012 099B     		ldr	r3, [sp, #36]
 1076              		.loc 1 1719 0
 1077 0014 0024     		movs	r4, #0
 1078              		.loc 1 1718 0
 1079 0016 013B     		subs	r3, r3, #1
ARM GAS  /tmp/ccSqa4tb.s 			page 20


 1080 0018 0993     		str	r3, [sp, #36]
 1081              	.LVL111:
 1082              		.loc 1 1721 0
 1083 001a 14E0     		b	.L75
 1084              	.LVL112:
 1085              	.L73:
 1086              		.loc 1 1722 0
 1087 001c 6519     		adds	r5, r4, r5
 1088 001e 05EBD575 		add	r5, r5, r5, lsr #31
 1089 0022 6D10     		asrs	r5, r5, #1
 1090              	.LVL113:
 1091              		.loc 1 1723 0
 1092 0024 2946     		mov	r1, r5
 1093 0026 01AA     		add	r2, sp, #4
 1094 0028 3346     		mov	r3, r6
 1095 002a 3846     		mov	r0, r7
 1096 002c FFF7FEFF 		bl	amx_GetPubVar
 1097              		.loc 1 1724 0
 1098 0030 01A8     		add	r0, sp, #4
 1099 0032 4146     		mov	r1, r8
 1100 0034 FFF7FEFF 		bl	strcmp
 1101              	.LVL114:
 1102              		.loc 1 1725 0
 1103 0038 0028     		cmp	r0, #0
 1104 003a 02DD     		ble	.L70
 1105              		.loc 1 1726 0
 1106 003c 013D     		subs	r5, r5, #1
 1107              	.LVL115:
 1108 003e 0995     		str	r5, [sp, #36]
 1109 0040 01E0     		b	.L75
 1110              	.LVL116:
 1111              	.L70:
 1112              		.loc 1 1727 0
 1113 0042 06D0     		beq	.L72
 1114              		.loc 1 1728 0
 1115 0044 6C1C     		adds	r4, r5, #1
 1116              	.LVL117:
 1117              	.L75:
 1118              		.loc 1 1721 0 discriminator 1
 1119 0046 099D     		ldr	r5, [sp, #36]
 1120 0048 AC42     		cmp	r4, r5
 1121 004a E7DD     		ble	.L73
 1122              		.loc 1 1734 0
 1123 004c 0023     		movs	r3, #0
 1124 004e 3360     		str	r3, [r6, #0]
 1125              		.loc 1 1735 0
 1126 0050 1320     		movs	r0, #19
 1127              	.L72:
 1128              		.loc 1 1736 0
 1129 0052 0AB0     		add	sp, sp, #40
 1130 0054 BDE8F081 		pop	{r4, r5, r6, r7, r8, pc}
 1131              		.cfi_endproc
 1132              	.LFE20:
 1133              		.size	amx_FindPubVar, .-amx_FindPubVar
 1134              		.section	.text.amx_NumTags,"ax",%progbits
 1135              		.align	1
 1136              		.global	amx_NumTags
ARM GAS  /tmp/ccSqa4tb.s 			page 21


 1137              		.thumb
 1138              		.thumb_func
 1139              		.type	amx_NumTags, %function
 1140              	amx_NumTags:
 1141              	.LFB21:
 1142              		.loc 1 1741 0
 1143              		.cfi_startproc
 1144              		@ args = 0, pretend = 0, frame = 0
 1145              		@ frame_needed = 0, uses_anonymous_args = 0
 1146              		@ link register save eliminated.
 1147              	.LVL118:
 1148              		.loc 1 1742 0
 1149 0000 0368     		ldr	r3, [r0, #0]	@ unaligned
 1150              	.LVL119:
 1151              		.loc 1 1745 0
 1152 0002 9A79     		ldrb	r2, [r3, #6]	@ zero_extendqisi2
 1153 0004 042A     		cmp	r2, #4
 1154 0006 03D8     		bhi	.L77
 1155              		.loc 1 1746 0
 1156 0008 0023     		movs	r3, #0
 1157              	.LVL120:
 1158 000a 0B60     		str	r3, [r1, #0]
 1159              		.loc 1 1747 0
 1160 000c 1220     		movs	r0, #18
 1161              	.LVL121:
 1162 000e 7047     		bx	lr
 1163              	.LVL122:
 1164              	.L77:
 1165              		.loc 1 1749 0
 1166 0010 062A     		cmp	r2, #6
 1167 0012 186B     		ldr	r0, [r3, #48]	@ unaligned
 1168              	.LVL123:
 1169 0014 B3F90A20 		ldrsh	r2, [r3, #10]	@ unaligned
 1170 0018 06D8     		bhi	.L79
 1171              		.loc 1 1751 0
 1172 001a DB68     		ldr	r3, [r3, #12]	@ unaligned
 1173              	.LVL124:
 1174 001c 181A     		subs	r0, r3, r0
 1175 001e 90FBF2F2 		sdiv	r2, r0, r2
 1176 0022 0A60     		str	r2, [r1, #0]
 1177              		.loc 1 1756 0
 1178 0024 0020     		movs	r0, #0
 1179 0026 7047     		bx	lr
 1180              	.LVL125:
 1181              	.L79:
 1182              		.loc 1 1754 0
 1183 0028 5B6B     		ldr	r3, [r3, #52]	@ unaligned
 1184              	.LVL126:
 1185 002a 181A     		subs	r0, r3, r0
 1186 002c 90FBF2F2 		sdiv	r2, r0, r2
 1187 0030 0A60     		str	r2, [r1, #0]
 1188              		.loc 1 1756 0
 1189 0032 0020     		movs	r0, #0
 1190              		.loc 1 1757 0
 1191 0034 7047     		bx	lr
 1192              		.cfi_endproc
 1193              	.LFE21:
ARM GAS  /tmp/ccSqa4tb.s 			page 22


 1194              		.size	amx_NumTags, .-amx_NumTags
 1195              		.section	.text.amx_GetTag,"ax",%progbits
 1196              		.align	1
 1197              		.global	amx_GetTag
 1198              		.thumb
 1199              		.thumb_func
 1200              		.type	amx_GetTag, %function
 1201              	amx_GetTag:
 1202              	.LFB22:
 1203              		.loc 1 1760 0
 1204              		.cfi_startproc
 1205              		@ args = 0, pretend = 0, frame = 0
 1206              		@ frame_needed = 0, uses_anonymous_args = 0
 1207              	.LVL127:
 1208 0000 70B5     		push	{r4, r5, r6, lr}
 1209              	.LCFI12:
 1210              		.cfi_def_cfa_offset 16
 1211              		.loc 1 1760 0
 1212 0002 1C46     		mov	r4, r3
 1213              		.cfi_offset 14, -4
 1214              		.cfi_offset 6, -8
 1215              		.cfi_offset 5, -12
 1216              		.cfi_offset 4, -16
 1217              		.loc 1 1764 0
 1218 0004 0368     		ldr	r3, [r0, #0]	@ unaligned
 1219              	.LVL128:
 1220              		.loc 1 1767 0
 1221 0006 9879     		ldrb	r0, [r3, #6]	@ zero_extendqisi2
 1222              	.LVL129:
 1223 0008 0428     		cmp	r0, #4
 1224 000a 04D8     		bhi	.L81
 1225              		.loc 1 1768 0
 1226 000c 0023     		movs	r3, #0
 1227              	.LVL130:
 1228 000e 1370     		strb	r3, [r2, #0]
 1229              		.loc 1 1770 0
 1230 0010 1220     		movs	r0, #18
 1231              		.loc 1 1769 0
 1232 0012 2360     		str	r3, [r4, #0]
 1233              		.loc 1 1770 0
 1234 0014 70BD     		pop	{r4, r5, r6, pc}
 1235              	.LVL131:
 1236              	.L81:
 1237              		.loc 1 1773 0
 1238 0016 0628     		cmp	r0, #6
 1239 0018 1D6B     		ldr	r5, [r3, #48]	@ unaligned
 1240 001a B3F90A00 		ldrsh	r0, [r3, #10]	@ unaligned
 1241 001e 06D8     		bhi	.L83
 1242              		.loc 1 1775 0
 1243 0020 DE68     		ldr	r6, [r3, #12]	@ unaligned
 1244 0022 751B     		subs	r5, r6, r5
 1245 0024 95FBF0F5 		sdiv	r5, r5, r0
 1246 0028 A942     		cmp	r1, r5
 1247 002a 06DB     		blt	.L84
 1248 002c 12E0     		b	.L87
 1249              	.L83:
 1250              		.loc 1 1779 0
ARM GAS  /tmp/ccSqa4tb.s 			page 23


 1251 002e 5E6B     		ldr	r6, [r3, #52]	@ unaligned
 1252 0030 751B     		subs	r5, r6, r5
 1253 0032 95FBF0F5 		sdiv	r5, r5, r0
 1254 0036 A942     		cmp	r1, r5
 1255 0038 0EDA     		bge	.L86
 1256              	.L84:
 1257              		.loc 1 1783 0
 1258 003a 1D6B     		ldr	r5, [r3, #48]	@ unaligned
 1259 003c 00FB0151 		mla	r1, r0, r1, r5
 1260              	.LVL132:
 1261 0040 5D18     		adds	r5, r3, r1
 1262              	.LVL133:
 1263              		.loc 1 1784 0
 1264 0042 6968     		ldr	r1, [r5, #4]	@ unaligned
 1265 0044 1046     		mov	r0, r2
 1266 0046 5918     		adds	r1, r3, r1
 1267 0048 FFF7FEFF 		bl	strcpy
 1268              	.LVL134:
 1269              		.loc 1 1785 0
 1270 004c 2B68     		ldr	r3, [r5, #0]	@ unaligned
 1271              		.loc 1 1787 0
 1272 004e 0020     		movs	r0, #0
 1273              		.loc 1 1785 0
 1274 0050 2360     		str	r3, [r4, #0]
 1275              		.loc 1 1787 0
 1276 0052 70BD     		pop	{r4, r5, r6, pc}
 1277              	.LVL135:
 1278              	.L87:
 1279              		.loc 1 1776 0
 1280 0054 1420     		movs	r0, #20
 1281 0056 70BD     		pop	{r4, r5, r6, pc}
 1282              	.L86:
 1283              		.loc 1 1780 0
 1284 0058 1420     		movs	r0, #20
 1285              		.loc 1 1788 0
 1286 005a 70BD     		pop	{r4, r5, r6, pc}
 1287              		.cfi_endproc
 1288              	.LFE22:
 1289              		.size	amx_GetTag, .-amx_GetTag
 1290              		.section	.text.amx_FindTagId,"ax",%progbits
 1291              		.align	1
 1292              		.global	amx_FindTagId
 1293              		.thumb
 1294              		.thumb_func
 1295              		.type	amx_FindTagId, %function
 1296              	amx_FindTagId:
 1297              	.LFB23:
 1298              		.loc 1 1791 0
 1299              		.cfi_startproc
 1300              		@ args = 0, pretend = 0, frame = 8
 1301              		@ frame_needed = 0, uses_anonymous_args = 0
 1302              	.LVL136:
 1303 0000 2DE9F341 		push	{r0, r1, r4, r5, r6, r7, r8, lr}
 1304              	.LCFI13:
 1305              		.cfi_def_cfa_offset 32
 1306              		.loc 1 1791 0
 1307 0004 8846     		mov	r8, r1
ARM GAS  /tmp/ccSqa4tb.s 			page 24


 1308              		.cfi_offset 14, -4
 1309              		.cfi_offset 8, -8
 1310              		.cfi_offset 7, -12
 1311              		.cfi_offset 6, -16
 1312              		.cfi_offset 5, -20
 1313              		.cfi_offset 4, -24
 1314              		.cfi_offset 1, -28
 1315              		.cfi_offset 0, -32
 1316              		.loc 1 1809 0
 1317 0006 01A9     		add	r1, sp, #4
 1318              	.LVL137:
 1319              		.loc 1 1791 0
 1320 0008 0746     		mov	r7, r0
 1321 000a 1646     		mov	r6, r2
 1322              		.loc 1 1809 0
 1323 000c FFF7FEFF 		bl	amx_NumTags
 1324              	.LVL138:
 1325              		.loc 1 1810 0
 1326 0010 019B     		ldr	r3, [sp, #4]
 1327              		.loc 1 1811 0
 1328 0012 0024     		movs	r4, #0
 1329              		.loc 1 1810 0
 1330 0014 013B     		subs	r3, r3, #1
 1331 0016 0193     		str	r3, [sp, #4]
 1332              	.LVL139:
 1333              		.loc 1 1813 0
 1334 0018 11E0     		b	.L95
 1335              	.LVL140:
 1336              	.L93:
 1337              		.loc 1 1814 0
 1338 001a 6519     		adds	r5, r4, r5
 1339 001c 05EBD575 		add	r5, r5, r5, lsr #31
 1340 0020 6D10     		asrs	r5, r5, #1
 1341              	.LVL141:
 1342              		.loc 1 1815 0
 1343 0022 6B46     		mov	r3, sp
 1344 0024 3846     		mov	r0, r7
 1345 0026 2946     		mov	r1, r5
 1346 0028 3246     		mov	r2, r6
 1347 002a FFF7FEFF 		bl	amx_GetTag
 1348              		.loc 1 1816 0
 1349 002e 009B     		ldr	r3, [sp, #0]
 1350 0030 4345     		cmp	r3, r8
 1351 0032 02DD     		ble	.L90
 1352              		.loc 1 1817 0
 1353 0034 013D     		subs	r5, r5, #1
 1354              	.LVL142:
 1355 0036 0195     		str	r5, [sp, #4]
 1356 0038 01E0     		b	.L95
 1357              	.LVL143:
 1358              	.L90:
 1359              		.loc 1 1818 0
 1360 003a 07DA     		bge	.L94
 1361              		.loc 1 1819 0
 1362 003c 6C1C     		adds	r4, r5, #1
 1363              	.LVL144:
 1364              	.L95:
ARM GAS  /tmp/ccSqa4tb.s 			page 25


 1365              		.loc 1 1813 0 discriminator 1
 1366 003e 019D     		ldr	r5, [sp, #4]
 1367 0040 AC42     		cmp	r4, r5
 1368 0042 EADD     		ble	.L93
 1369              		.loc 1 1824 0
 1370 0044 0023     		movs	r3, #0
 1371 0046 3370     		strb	r3, [r6, #0]
 1372              		.loc 1 1825 0
 1373 0048 1320     		movs	r0, #19
 1374 004a 00E0     		b	.L92
 1375              	.LVL145:
 1376              	.L94:
 1377              		.loc 1 1821 0
 1378 004c 0020     		movs	r0, #0
 1379              	.LVL146:
 1380              	.L92:
 1381              		.loc 1 1826 0
 1382 004e BDE8FC81 		pop	{r2, r3, r4, r5, r6, r7, r8, pc}
 1383              		.cfi_endproc
 1384              	.LFE23:
 1385              		.size	amx_FindTagId, .-amx_FindTagId
 1386              		.section	.text.amx_GetUserData,"ax",%progbits
 1387              		.align	1
 1388              		.global	amx_GetUserData
 1389              		.thumb
 1390              		.thumb_func
 1391              		.type	amx_GetUserData, %function
 1392              	amx_GetUserData:
 1393              	.LFB24:
 1394              		.loc 1 1831 0
 1395              		.cfi_startproc
 1396              		@ args = 0, pretend = 0, frame = 0
 1397              		@ frame_needed = 0, uses_anonymous_args = 0
 1398              	.LVL147:
 1399 0000 10B5     		push	{r4, lr}
 1400              	.LCFI14:
 1401              		.cfi_def_cfa_offset 8
 1402              		.loc 1 1836 0
 1403 0002 0023     		movs	r3, #0
 1404 0004 02E0     		b	.L97
 1405              		.cfi_offset 14, -4
 1406              		.cfi_offset 4, -8
 1407              	.LVL148:
 1408              	.L99:
 1409              		.loc 1 1836 0 is_stmt 0 discriminator 1
 1410 0006 0133     		adds	r3, r3, #1
 1411              	.LVL149:
 1412 0008 042B     		cmp	r3, #4
 1413 000a 07D0     		beq	.L101
 1414              	.LVL150:
 1415              	.L97:
 1416              		.loc 1 1836 0 discriminator 2
 1417 000c 03F10C04 		add	r4, r3, #12
 1418 0010 00EB8404 		add	r4, r0, r4, lsl #2
 1419 0014 6468     		ldr	r4, [r4, #4]	@ unaligned
 1420 0016 8C42     		cmp	r4, r1
 1421 0018 F5D1     		bne	.L99
ARM GAS  /tmp/ccSqa4tb.s 			page 26


 1422 001a 01E0     		b	.L103
 1423              	.LVL151:
 1424              	.L101:
 1425              		.loc 1 1839 0 is_stmt 1
 1426 001c 1720     		movs	r0, #23
 1427              	.LVL152:
 1428              		.loc 1 1842 0
 1429 001e 10BD     		pop	{r4, pc}
 1430              	.LVL153:
 1431              	.L103:
 1432              		.loc 1 1840 0
 1433 0020 1033     		adds	r3, r3, #16
 1434 0022 00EB8300 		add	r0, r0, r3, lsl #2
 1435              	.LVL154:
 1436 0026 4368     		ldr	r3, [r0, #4]	@ unaligned
 1437              		.loc 1 1841 0
 1438 0028 0020     		movs	r0, #0
 1439              		.loc 1 1840 0
 1440 002a 1360     		str	r3, [r2, #0]
 1441              		.loc 1 1841 0
 1442 002c 10BD     		pop	{r4, pc}
 1443              		.cfi_endproc
 1444              	.LFE24:
 1445              		.size	amx_GetUserData, .-amx_GetUserData
 1446              		.section	.text.amx_SetUserData,"ax",%progbits
 1447              		.align	1
 1448              		.global	amx_SetUserData
 1449              		.thumb
 1450              		.thumb_func
 1451              		.type	amx_SetUserData, %function
 1452              	amx_SetUserData:
 1453              	.LFB25:
 1454              		.loc 1 1845 0
 1455              		.cfi_startproc
 1456              		@ args = 0, pretend = 0, frame = 0
 1457              		@ frame_needed = 0, uses_anonymous_args = 0
 1458              	.LVL155:
 1459 0000 10B5     		push	{r4, lr}
 1460              	.LCFI15:
 1461              		.cfi_def_cfa_offset 8
 1462              		.loc 1 1851 0
 1463 0002 0023     		movs	r3, #0
 1464 0004 02E0     		b	.L105
 1465              		.cfi_offset 14, -4
 1466              		.cfi_offset 4, -8
 1467              	.LVL156:
 1468              	.L107:
 1469              		.loc 1 1851 0 is_stmt 0 discriminator 1
 1470 0006 0133     		adds	r3, r3, #1
 1471              	.LVL157:
 1472 0008 042B     		cmp	r3, #4
 1473 000a 0CD0     		beq	.L106
 1474              	.LVL158:
 1475              	.L105:
 1476              		.loc 1 1851 0 discriminator 2
 1477 000c 03F10C04 		add	r4, r3, #12
 1478 0010 00EB8404 		add	r4, r0, r4, lsl #2
ARM GAS  /tmp/ccSqa4tb.s 			page 27


 1479 0014 6468     		ldr	r4, [r4, #4]	@ unaligned
 1480 0016 8C42     		cmp	r4, r1
 1481 0018 F5D1     		bne	.L107
 1482 001a 0CE0     		b	.L108
 1483              	.L111:
 1484              		.loc 1 1855 0 is_stmt 1 discriminator 1
 1485 001c 0133     		adds	r3, r3, #1
 1486              	.LVL159:
 1487 001e 042B     		cmp	r3, #4
 1488 0020 02D1     		bne	.L109
 1489              		.loc 1 1859 0
 1490 0022 1420     		movs	r0, #20
 1491              	.LVL160:
 1492 0024 10BD     		pop	{r4, pc}
 1493              	.LVL161:
 1494              	.L106:
 1495              		.loc 1 1851 0 discriminator 2
 1496 0026 0023     		movs	r3, #0
 1497              	.LVL162:
 1498              	.L109:
 1499              		.loc 1 1855 0 discriminator 2
 1500 0028 03F10C04 		add	r4, r3, #12
 1501 002c 00EB8404 		add	r4, r0, r4, lsl #2
 1502 0030 6468     		ldr	r4, [r4, #4]	@ unaligned
 1503 0032 002C     		cmp	r4, #0
 1504 0034 F2D1     		bne	.L111
 1505              	.L108:
 1506              	.LVL163:
 1507              		.loc 1 1861 0
 1508 0036 00EB8304 		add	r4, r0, r3, lsl #2
 1509 003a 6163     		str	r1, [r4, #52]	@ unaligned
 1510              		.loc 1 1862 0
 1511 003c 6264     		str	r2, [r4, #68]	@ unaligned
 1512              		.loc 1 1863 0
 1513 003e 0020     		movs	r0, #0
 1514              	.LVL164:
 1515              		.loc 1 1864 0
 1516 0040 10BD     		pop	{r4, pc}
 1517              		.cfi_endproc
 1518              	.LFE25:
 1519              		.size	amx_SetUserData, .-amx_SetUserData
 1520              		.section	.text.amx_Register,"ax",%progbits
 1521              		.align	1
 1522              		.global	amx_Register
 1523              		.thumb
 1524              		.thumb_func
 1525              		.type	amx_Register, %function
 1526              	amx_Register:
 1527              	.LFB27:
 1528              		.loc 1 1880 0
 1529              		.cfi_startproc
 1530              		@ args = 0, pretend = 0, frame = 16
 1531              		@ frame_needed = 0, uses_anonymous_args = 0
 1532              	.LVL165:
 1533 0000 2DE9F04F 		push	{r4, r5, r6, r7, r8, r9, sl, fp, lr}
 1534              	.LCFI16:
 1535              		.cfi_def_cfa_offset 36
ARM GAS  /tmp/ccSqa4tb.s 			page 28


 1536              		.loc 1 1887 0
 1537 0004 0668     		ldr	r6, [r0, #0]	@ unaligned
 1538              		.cfi_offset 14, -4
 1539              		.cfi_offset 11, -8
 1540              		.cfi_offset 10, -12
 1541              		.cfi_offset 9, -16
 1542              		.cfi_offset 8, -20
 1543              		.cfi_offset 7, -24
 1544              		.cfi_offset 6, -28
 1545              		.cfi_offset 5, -32
 1546              		.cfi_offset 4, -36
 1547              	.LVL166:
 1548              		.loc 1 1880 0
 1549 0006 9346     		mov	fp, r2
 1550              		.loc 1 1891 0
 1551 0008 776A     		ldr	r7, [r6, #36]	@ unaligned
 1552 000a D6F828C0 		ldr	ip, [r6, #40]	@ unaligned
 1553 000e B6F90A20 		ldrsh	r2, [r6, #10]	@ unaligned
 1554              	.LVL167:
 1555 0012 C7EB0C0C 		rsb	ip, r7, ip
 1556              		.loc 1 1880 0
 1557 0016 85B0     		sub	sp, sp, #20
 1558              	.LCFI17:
 1559              		.cfi_def_cfa_offset 56
 1560              		.loc 1 1891 0
 1561 0018 9CFBF2FC 		sdiv	ip, ip, r2
 1562              	.LVL168:
 1563              		.loc 1 1893 0
 1564 001c 0025     		movs	r5, #0
 1565              		.loc 1 1894 0
 1566 001e F719     		adds	r7, r6, r7
 1567              	.LVL169:
 1568              		.loc 1 1895 0
 1569 0020 A946     		mov	r9, r5
 1570 0022 E246     		mov	sl, ip
 1571 0024 0390     		str	r0, [sp, #12]
 1572 0026 8846     		mov	r8, r1
 1573 0028 33E0     		b	.L113
 1574              	.LVL170:
 1575              	.L119:
 1576              		.loc 1 1896 0
 1577 002a 3B68     		ldr	r3, [r7, #0]	@ unaligned
 1578 002c 002B     		cmp	r3, #0
 1579 002e 2BD1     		bne	.L114
 1580              		.loc 1 1898 0
 1581 0030 B8F1000F 		cmp	r8, #0
 1582 0034 27D0     		beq	.L123
 1583              		.loc 1 1898 0 is_stmt 0 discriminator 1
 1584 0036 D7F804C0 		ldr	ip, [r7, #4]	@ unaligned
 1585 003a 3A46     		mov	r2, r7
 1586 003c B444     		add	ip, r6, ip
 1587              	.LVL171:
 1588 003e CDF80890 		str	r9, [sp, #8]
 1589 0042 4446     		mov	r4, r8
 1590 0044 E146     		mov	r9, ip
 1591              	.LVL172:
 1592 0046 1F46     		mov	r7, r3
ARM GAS  /tmp/ccSqa4tb.s 			page 29


 1593              	.LVL173:
 1594 0048 0FE0     		b	.L115
 1595              	.LVL174:
 1596              	.L118:
 1597              	.LBB10:
 1598              	.LBB12:
 1599              		.loc 1 1874 0 is_stmt 1
 1600 004a 4846     		mov	r0, r9
 1601 004c 0092     		str	r2, [sp, #0]
 1602 004e 0193     		str	r3, [sp, #4]
 1603 0050 FFF7FEFF 		bl	strcmp
 1604              	.LVL175:
 1605 0054 0834     		adds	r4, r4, #8
 1606 0056 009A     		ldr	r2, [sp, #0]
 1607              	.LVL176:
 1608 0058 019B     		ldr	r3, [sp, #4]
 1609 005a 28B9     		cbnz	r0, .L116
 1610              		.loc 1 1875 0
 1611 005c 5B68     		ldr	r3, [r3, #4]	@ unaligned
 1612              	.LVL177:
 1613 005e 1746     		mov	r7, r2
 1614              	.LVL178:
 1615 0060 DDF80890 		ldr	r9, [sp, #8]
 1616              	.LVL179:
 1617              	.LBE12:
 1618              	.LBE10:
 1619              		.loc 1 1899 0
 1620 0064 53B9     		cbnz	r3, .L117
 1621 0066 0EE0     		b	.L123
 1622              	.LVL180:
 1623              	.L116:
 1624              	.LBB14:
 1625              	.LBB11:
 1626              		.loc 1 1873 0
 1627 0068 0137     		adds	r7, r7, #1
 1628              	.LVL181:
 1629              	.L115:
 1630 006a 2168     		ldr	r1, [r4, #0]	@ unaligned
 1631 006c 2346     		mov	r3, r4
 1632 006e 39B1     		cbz	r1, .L122
 1633 0070 5F45     		cmp	r7, fp
 1634 0072 EADB     		blt	.L118
 1635 0074 BBF1FF3F 		cmp	fp, #-1
 1636 0078 E7D0     		beq	.L118
 1637 007a 01E0     		b	.L122
 1638              	.LVL182:
 1639              	.L117:
 1640              	.LBE11:
 1641              	.LBE14:
 1642              		.loc 1 1900 0
 1643 007c 1360     		str	r3, [r2, #0]	@ unaligned
 1644 007e 03E0     		b	.L114
 1645              	.LVL183:
 1646              	.L122:
 1647 0080 DDF80890 		ldr	r9, [sp, #8]
 1648              	.LVL184:
 1649 0084 1746     		mov	r7, r2
ARM GAS  /tmp/ccSqa4tb.s 			page 30


 1650              	.LVL185:
 1651              	.L123:
 1652              	.LBB15:
 1653              	.LBB13:
 1654              		.loc 1 1902 0
 1655 0086 1325     		movs	r5, #19
 1656              	.LVL186:
 1657              	.L114:
 1658              	.LBE13:
 1659              	.LBE15:
 1660              		.loc 1 1904 0
 1661 0088 B6F90A30 		ldrsh	r3, [r6, #10]	@ unaligned
 1662              		.loc 1 1895 0
 1663 008c 09F10109 		add	r9, r9, #1
 1664              		.loc 1 1904 0
 1665 0090 FF18     		adds	r7, r7, r3
 1666              	.LVL187:
 1667              	.L113:
 1668              		.loc 1 1895 0 discriminator 1
 1669 0092 D145     		cmp	r9, sl
 1670 0094 C9DB     		blt	.L119
 1671 0096 039C     		ldr	r4, [sp, #12]
 1672              		.loc 1 1906 0
 1673 0098 1DB9     		cbnz	r5, .L120
 1674              		.loc 1 1907 0
 1675 009a 236B     		ldr	r3, [r4, #48]	@ unaligned
 1676 009c 43F48053 		orr	r3, r3, #4096
 1677 00a0 2363     		str	r3, [r4, #48]	@ unaligned
 1678              	.L120:
 1679              		.loc 1 1909 0
 1680 00a2 2846     		mov	r0, r5
 1681 00a4 05B0     		add	sp, sp, #20
 1682 00a6 BDE8F08F 		pop	{r4, r5, r6, r7, r8, r9, sl, fp, pc}
 1683              		.cfi_endproc
 1684              	.LFE27:
 1685              		.size	amx_Register, .-amx_Register
 1686              		.section	.text.amx_NativeInfo,"ax",%progbits
 1687              		.align	1
 1688              		.global	amx_NativeInfo
 1689              		.thumb
 1690              		.thumb_func
 1691              		.type	amx_NativeInfo, %function
 1692              	amx_NativeInfo:
 1693              	.LFB28:
 1694              		.loc 1 1914 0
 1695              		.cfi_startproc
 1696              		@ args = 0, pretend = 0, frame = 0
 1697              		@ frame_needed = 0, uses_anonymous_args = 0
 1698              		@ link register save eliminated.
 1699              	.LVL188:
 1700              		.loc 1 1916 0
 1701 0000 024B     		ldr	r3, .L125
 1702 0002 1860     		str	r0, [r3, #0]	@ unaligned
 1703              		.loc 1 1917 0
 1704 0004 5960     		str	r1, [r3, #4]	@ unaligned
 1705              		.loc 1 1919 0
 1706 0006 1846     		mov	r0, r3
ARM GAS  /tmp/ccSqa4tb.s 			page 31


 1707              	.LVL189:
 1708 0008 7047     		bx	lr
 1709              	.L126:
 1710 000a 00BF     		.align	2
 1711              	.L125:
 1712 000c 00000000 		.word	.LANCHOR0
 1713              		.cfi_endproc
 1714              	.LFE28:
 1715              		.size	amx_NativeInfo, .-amx_NativeInfo
 1716              		.section	.text.amx_Push,"ax",%progbits
 1717              		.align	1
 1718              		.global	amx_Push
 1719              		.thumb
 1720              		.thumb_func
 1721              		.type	amx_Push, %function
 1722              	amx_Push:
 1723              	.LFB29:
 1724              		.loc 1 1928 0
 1725              		.cfi_startproc
 1726              		@ args = 0, pretend = 0, frame = 0
 1727              		@ frame_needed = 0, uses_anonymous_args = 0
 1728              	.LVL190:
 1729 0000 10B5     		push	{r4, lr}
 1730              	.LCFI18:
 1731              		.cfi_def_cfa_offset 8
 1732              		.loc 1 1932 0
 1733 0002 036A     		ldr	r3, [r0, #32]	@ unaligned
 1734 0004 826A     		ldr	r2, [r0, #40]	@ unaligned
 1735 0006 3F33     		adds	r3, r3, #63
 1736 0008 9342     		cmp	r3, r2
 1737 000a 0CDA     		bge	.L130
 1738              		.cfi_offset 14, -4
 1739              		.cfi_offset 4, -8
 1740              		.loc 1 1935 0
 1741 000c 8368     		ldr	r3, [r0, #8]	@ unaligned
 1742              		.loc 1 1934 0
 1743 000e 0468     		ldr	r4, [r0, #0]	@ unaligned
 1744              	.LVL191:
 1745              		.loc 1 1935 0
 1746 0010 0BB9     		cbnz	r3, .L129
 1747              		.loc 1 1935 0 is_stmt 0 discriminator 2
 1748 0012 2369     		ldr	r3, [r4, #16]	@ unaligned
 1749 0014 E318     		adds	r3, r4, r3
 1750              	.L129:
 1751              	.LVL192:
 1752              		.loc 1 1937 0 is_stmt 1 discriminator 3
 1753 0016 846D     		ldr	r4, [r0, #88]	@ unaligned
 1754              	.LVL193:
 1755              		.loc 1 1936 0 discriminator 3
 1756 0018 043A     		subs	r2, r2, #4
 1757              		.loc 1 1937 0 discriminator 3
 1758 001a 0134     		adds	r4, r4, #1
 1759              		.loc 1 1936 0 discriminator 3
 1760 001c 8262     		str	r2, [r0, #40]	@ unaligned
 1761              		.loc 1 1937 0 discriminator 3
 1762 001e 8465     		str	r4, [r0, #88]	@ unaligned
 1763              		.loc 1 1938 0 discriminator 3
ARM GAS  /tmp/ccSqa4tb.s 			page 32


 1764 0020 9950     		str	r1, [r3, r2]
 1765              		.loc 1 1939 0 discriminator 3
 1766 0022 0020     		movs	r0, #0
 1767              	.LVL194:
 1768 0024 10BD     		pop	{r4, pc}
 1769              	.LVL195:
 1770              	.L130:
 1771              		.loc 1 1933 0
 1772 0026 0320     		movs	r0, #3
 1773              	.LVL196:
 1774              		.loc 1 1940 0
 1775 0028 10BD     		pop	{r4, pc}
 1776              		.cfi_endproc
 1777              	.LFE29:
 1778              		.size	amx_Push, .-amx_Push
 1779              		.section	.text.amx_PushAddress,"ax",%progbits
 1780              		.align	1
 1781              		.global	amx_PushAddress
 1782              		.thumb
 1783              		.thumb_func
 1784              		.type	amx_PushAddress, %function
 1785              	amx_PushAddress:
 1786              	.LFB30:
 1787              		.loc 1 1943 0
 1788              		.cfi_startproc
 1789              		@ args = 0, pretend = 0, frame = 0
 1790              		@ frame_needed = 0, uses_anonymous_args = 0
 1791              		@ link register save eliminated.
 1792              	.LVL197:
 1793              		.loc 1 1953 0
 1794 0000 8368     		ldr	r3, [r0, #8]	@ unaligned
 1795              		.loc 1 1950 0
 1796 0002 0268     		ldr	r2, [r0, #0]	@ unaligned
 1797              	.LVL198:
 1798              		.loc 1 1953 0
 1799 0004 0BB9     		cbnz	r3, .L132
 1800              		.loc 1 1953 0 is_stmt 0 discriminator 2
 1801 0006 1369     		ldr	r3, [r2, #16]	@ unaligned
 1802 0008 D318     		adds	r3, r2, r3
 1803              	.L132:
 1804              	.LVL199:
 1805              		.loc 1 1954 0 is_stmt 1 discriminator 3
 1806 000a C91A     		subs	r1, r1, r3
 1807              	.LVL200:
 1808              		.loc 1 1955 0 discriminator 3
 1809 000c C36A     		ldr	r3, [r0, #44]	@ unaligned
 1810              	.LVL201:
 1811 000e 9942     		cmp	r1, r3
 1812 0010 01D2     		bcs	.L133
 1813              		.loc 1 1958 0
 1814              		.loc 1 1957 0
 1815 0012 FFF7FEBF 		b	amx_Push
 1816              	.LVL202:
 1817              	.L133:
 1818              		.loc 1 1958 0
 1819 0016 0520     		movs	r0, #5
 1820              	.LVL203:
ARM GAS  /tmp/ccSqa4tb.s 			page 33


 1821 0018 7047     		bx	lr
 1822              		.cfi_endproc
 1823              	.LFE30:
 1824              		.size	amx_PushAddress, .-amx_PushAddress
 1825              		.section	.text.amx_exec_list,"ax",%progbits
 1826              		.align	1
 1827              		.global	amx_exec_list
 1828              		.thumb
 1829              		.thumb_func
 1830              		.type	amx_exec_list, %function
 1831              	amx_exec_list:
 1832              	.LFB33:
 1833              		.loc 1 2054 0
 1834              		.cfi_startproc
 1835              		@ args = 0, pretend = 0, frame = 0
 1836              		@ frame_needed = 0, uses_anonymous_args = 0
 1837              		@ link register save eliminated.
 1838              	.LVL204:
 1839              		.loc 1 2057 0
 1840 0000 0020     		movs	r0, #0
 1841              	.LVL205:
 1842              		.loc 1 2059 0
 1843 0002 AF23     		movs	r3, #175
 1844              		.loc 1 2057 0
 1845 0004 0860     		str	r0, [r1, #0]
 1846              		.loc 1 2059 0
 1847 0006 1360     		str	r3, [r2, #0]
 1848              		.loc 1 2061 0
 1849 0008 7047     		bx	lr
 1850              		.cfi_endproc
 1851              	.LFE33:
 1852              		.size	amx_exec_list, .-amx_exec_list
 1853              		.section	.text.VerifyPcode,"ax",%progbits
 1854              		.align	1
 1855              		.thumb
 1856              		.thumb_func
 1857              		.type	VerifyPcode, %function
 1858              	VerifyPcode:
 1859              	.LFB5:
 1860              		.loc 1 616 0
 1861              		.cfi_startproc
 1862              		@ args = 0, pretend = 0, frame = 8
 1863              		@ frame_needed = 0, uses_anonymous_args = 0
 1864              	.LVL206:
 1865 0000 2DE9F347 		push	{r0, r1, r4, r5, r6, r7, r8, r9, sl, lr}
 1866              	.LCFI19:
 1867              		.cfi_def_cfa_offset 40
 1868              		.loc 1 632 0
 1869 0004 026B     		ldr	r2, [r0, #48]	@ unaligned
 1870              		.loc 1 629 0
 1871 0006 0368     		ldr	r3, [r0, #0]	@ unaligned
 1872              	.LVL207:
 1873              		.loc 1 632 0
 1874 0008 42F48042 		orr	r2, r2, #16384
 1875 000c 0263     		str	r2, [r0, #48]	@ unaligned
 1876              		.loc 1 633 0
 1877 000e 5A69     		ldr	r2, [r3, #20]	@ unaligned
ARM GAS  /tmp/ccSqa4tb.s 			page 34


 1878 0010 1E69     		ldr	r6, [r3, #16]	@ unaligned
 1879              		.cfi_offset 14, -4
 1880              		.cfi_offset 10, -8
 1881              		.cfi_offset 9, -12
 1882              		.cfi_offset 8, -16
 1883              		.cfi_offset 7, -20
 1884              		.cfi_offset 6, -24
 1885              		.cfi_offset 5, -28
 1886              		.cfi_offset 4, -32
 1887              		.cfi_offset 1, -36
 1888              		.cfi_offset 0, -40
 1889              		.loc 1 634 0
 1890 0012 9D69     		ldr	r5, [r3, #24]	@ unaligned
 1891              		.loc 1 616 0
 1892 0014 0446     		mov	r4, r0
 1893              		.loc 1 633 0
 1894 0016 961B     		subs	r6, r2, r6
 1895              	.LVL208:
 1896              		.loc 1 634 0
 1897 0018 AD1A     		subs	r5, r5, r2
 1898              	.LVL209:
 1899              		.loc 1 644 0
 1900 001a 6946     		mov	r1, sp
 1901 001c 01AA     		add	r2, sp, #4
 1902 001e FFF7FEFF 		bl	amx_exec_list
 1903              	.LVL210:
 1904              		.loc 1 677 0
 1905 0022 E06E     		ldr	r0, [r4, #108]	@ unaligned
 1906              		.loc 1 647 0
 1907 0024 0023     		movs	r3, #0
 1908              		.loc 1 677 0
 1909 0026 4B28     		cmp	r0, #75
 1910              		.loc 1 647 0
 1911 0028 0093     		str	r3, [sp, #0]
 1912              	.LVL211:
 1913              		.loc 1 677 0
 1914 002a 04D0     		beq	.L188
 1915              		.loc 1 670 0
 1916 002c 4C28     		cmp	r0, #76
 1917 002e 0CBF     		ite	eq
 1918 0030 0220     		moveq	r0, #2
 1919 0032 1846     		movne	r0, r3
 1920 0034 00E0     		b	.L136
 1921              	.L188:
 1922              		.loc 1 678 0
 1923 0036 0120     		movs	r0, #1
 1924              	.L136:
 1925              	.LVL212:
 1926              		.loc 1 682 0
 1927 0038 84F86C30 		strb	r3, [r4, #108]
 1928 003c 84F86D30 		strb	r3, [r4, #109]
 1929 0040 84F86E30 		strb	r3, [r4, #110]
 1930 0044 84F86F30 		strb	r3, [r4, #111]
 1931              	.LVL213:
 1932              		.loc 1 686 0
 1933 0048 676F     		ldr	r7, [r4, #116]	@ unaligned
 1934              	.LVL214:
ARM GAS  /tmp/ccSqa4tb.s 			page 35


 1935              		.loc 1 688 0
 1936 004a DDF80480 		ldr	r8, [sp, #4]
 1937              		.loc 1 686 0
 1938 004e 0023     		movs	r3, #0
 1939 0050 44E1     		b	.L194
 1940              	.LVL215:
 1941              	.L187:
 1942              		.loc 1 687 0
 1943 0052 6268     		ldr	r2, [r4, #4]	@ unaligned
 1944 0054 9A46     		mov	sl, r3
 1945 0056 D158     		ldr	r1, [r2, r3]
 1946              	.LVL216:
 1947              		.loc 1 688 0
 1948 0058 1FFA81FC 		uxth	ip, r1
 1949 005c C445     		cmp	ip, r8
 1950 005e 80F23781 		bge	.L140
 1951              	.LVL217:
 1952              	.L138:
 1953              		.loc 1 709 0
 1954 0062 0433     		adds	r3, r3, #4
 1955              	.LVL218:
 1956              		.loc 1 710 0
 1957 0064 BCF1AE0F 		cmp	ip, #174
 1958 0068 00F23281 		bhi	.L140
 1959 006c DFE81CF0 		tbh	[pc, ip, lsl #1]
 1960              	.L161:
 1961 0070 3601     		.2byte	(.L194-.L161)/2
 1962 0072 E300     		.2byte	(.L142-.L161)/2
 1963 0074 E300     		.2byte	(.L142-.L161)/2
 1964 0076 E900     		.2byte	(.L143-.L161)/2
 1965 0078 E900     		.2byte	(.L143-.L161)/2
 1966 007a E900     		.2byte	(.L143-.L161)/2
 1967 007c E900     		.2byte	(.L143-.L161)/2
 1968 007e 3601     		.2byte	(.L194-.L161)/2
 1969 0080 2E01     		.2byte	(.L196-.L161)/2
 1970 0082 2E01     		.2byte	(.L196-.L161)/2
 1971 0084 2E01     		.2byte	(.L196-.L161)/2
 1972 0086 2E01     		.2byte	(.L196-.L161)/2
 1973 0088 2E01     		.2byte	(.L196-.L161)/2
 1974 008a E300     		.2byte	(.L142-.L161)/2
 1975 008c E900     		.2byte	(.L143-.L161)/2
 1976 008e E900     		.2byte	(.L143-.L161)/2
 1977 0090 3601     		.2byte	(.L194-.L161)/2
 1978 0092 2E01     		.2byte	(.L196-.L161)/2
 1979 0094 2E01     		.2byte	(.L196-.L161)/2
 1980 0096 2E01     		.2byte	(.L196-.L161)/2
 1981 0098 2E01     		.2byte	(.L196-.L161)/2
 1982 009a 3601     		.2byte	(.L194-.L161)/2
 1983 009c 3601     		.2byte	(.L194-.L161)/2
 1984 009e 3601     		.2byte	(.L194-.L161)/2
 1985 00a0 3601     		.2byte	(.L194-.L161)/2
 1986 00a2 3601     		.2byte	(.L194-.L161)/2
 1987 00a4 3601     		.2byte	(.L194-.L161)/2
 1988 00a6 2E01     		.2byte	(.L196-.L161)/2
 1989 00a8 2E01     		.2byte	(.L196-.L161)/2
 1990 00aa 2E01     		.2byte	(.L196-.L161)/2
 1991 00ac 3601     		.2byte	(.L194-.L161)/2
ARM GAS  /tmp/ccSqa4tb.s 			page 36


 1992 00ae 3601     		.2byte	(.L194-.L161)/2
 1993 00b0 3601     		.2byte	(.L194-.L161)/2
 1994 00b2 EF00     		.2byte	(.L145-.L161)/2
 1995 00b4 EF00     		.2byte	(.L145-.L161)/2
 1996 00b6 EF00     		.2byte	(.L145-.L161)/2
 1997 00b8 EF00     		.2byte	(.L145-.L161)/2
 1998 00ba 3601     		.2byte	(.L194-.L161)/2
 1999 00bc 3601     		.2byte	(.L194-.L161)/2
 2000 00be 3601     		.2byte	(.L194-.L161)/2
 2001 00c0 2E01     		.2byte	(.L196-.L161)/2
 2002 00c2 2E01     		.2byte	(.L196-.L161)/2
 2003 00c4 3601     		.2byte	(.L194-.L161)/2
 2004 00c6 3601     		.2byte	(.L194-.L161)/2
 2005 00c8 3601     		.2byte	(.L194-.L161)/2
 2006 00ca 3601     		.2byte	(.L194-.L161)/2
 2007 00cc 3601     		.2byte	(.L194-.L161)/2
 2008 00ce 3601     		.2byte	(.L194-.L161)/2
 2009 00d0 3601     		.2byte	(.L194-.L161)/2
 2010 00d2 3601     		.2byte	(.L194-.L161)/2
 2011 00d4 3601     		.2byte	(.L194-.L161)/2
 2012 00d6 3601     		.2byte	(.L194-.L161)/2
 2013 00d8 3601     		.2byte	(.L194-.L161)/2
 2014 00da 3601     		.2byte	(.L194-.L161)/2
 2015 00dc 3601     		.2byte	(.L194-.L161)/2
 2016 00de 3601     		.2byte	(.L194-.L161)/2
 2017 00e0 3601     		.2byte	(.L194-.L161)/2
 2018 00e2 3601     		.2byte	(.L194-.L161)/2
 2019 00e4 3601     		.2byte	(.L194-.L161)/2
 2020 00e6 3601     		.2byte	(.L194-.L161)/2
 2021 00e8 3601     		.2byte	(.L194-.L161)/2
 2022 00ea 3601     		.2byte	(.L194-.L161)/2
 2023 00ec 3601     		.2byte	(.L194-.L161)/2
 2024 00ee 3601     		.2byte	(.L194-.L161)/2
 2025 00f0 2E01     		.2byte	(.L196-.L161)/2
 2026 00f2 2E01     		.2byte	(.L196-.L161)/2
 2027 00f4 2E01     		.2byte	(.L196-.L161)/2
 2028 00f6 2E01     		.2byte	(.L196-.L161)/2
 2029 00f8 2E01     		.2byte	(.L196-.L161)/2
 2030 00fa 0901     		.2byte	(.L146-.L161)/2
 2031 00fc EF00     		.2byte	(.L145-.L161)/2
 2032 00fe 3601     		.2byte	(.L194-.L161)/2
 2033 0100 3601     		.2byte	(.L194-.L161)/2
 2034 0102 3601     		.2byte	(.L194-.L161)/2
 2035 0104 1101     		.2byte	(.L147-.L161)/2
 2036 0106 3001     		.2byte	(.L140-.L161)/2
 2037 0108 3001     		.2byte	(.L140-.L161)/2
 2038 010a FC00     		.2byte	(.L148-.L161)/2
 2039 010c FD00     		.2byte	(.L149-.L161)/2
 2040 010e F600     		.2byte	(.L150-.L161)/2
 2041 0110 0101     		.2byte	(.L151-.L161)/2
 2042 0112 3601     		.2byte	(.L194-.L161)/2
 2043 0114 2E01     		.2byte	(.L196-.L161)/2
 2044 0116 3601     		.2byte	(.L194-.L161)/2
 2045 0118 2E01     		.2byte	(.L196-.L161)/2
 2046 011a 2E01     		.2byte	(.L196-.L161)/2
 2047 011c E300     		.2byte	(.L142-.L161)/2
 2048 011e E900     		.2byte	(.L143-.L161)/2
ARM GAS  /tmp/ccSqa4tb.s 			page 37


 2049 0120 2E01     		.2byte	(.L196-.L161)/2
 2050 0122 2E01     		.2byte	(.L196-.L161)/2
 2051 0124 E900     		.2byte	(.L143-.L161)/2
 2052 0126 2E01     		.2byte	(.L196-.L161)/2
 2053 0128 EF00     		.2byte	(.L145-.L161)/2
 2054 012a EF00     		.2byte	(.L145-.L161)/2
 2055 012c EF00     		.2byte	(.L145-.L161)/2
 2056 012e EF00     		.2byte	(.L145-.L161)/2
 2057 0130 EF00     		.2byte	(.L145-.L161)/2
 2058 0132 EF00     		.2byte	(.L145-.L161)/2
 2059 0134 3601     		.2byte	(.L194-.L161)/2
 2060 0136 3601     		.2byte	(.L194-.L161)/2
 2061 0138 2E01     		.2byte	(.L196-.L161)/2
 2062 013a 2E01     		.2byte	(.L196-.L161)/2
 2063 013c 3601     		.2byte	(.L194-.L161)/2
 2064 013e 3601     		.2byte	(.L194-.L161)/2
 2065 0140 2E01     		.2byte	(.L196-.L161)/2
 2066 0142 2E01     		.2byte	(.L196-.L161)/2
 2067 0144 2E01     		.2byte	(.L196-.L161)/2
 2068 0146 2E01     		.2byte	(.L196-.L161)/2
 2069 0148 E300     		.2byte	(.L142-.L161)/2
 2070 014a E900     		.2byte	(.L143-.L161)/2
 2071 014c E300     		.2byte	(.L142-.L161)/2
 2072 014e E900     		.2byte	(.L143-.L161)/2
 2073 0150 0D01     		.2byte	(.L152-.L161)/2
 2074 0152 AF00     		.2byte	(.L153-.L161)/2
 2075 0154 AF00     		.2byte	(.L153-.L161)/2
 2076 0156 AF00     		.2byte	(.L153-.L161)/2
 2077 0158 AF00     		.2byte	(.L153-.L161)/2
 2078 015a AF00     		.2byte	(.L153-.L161)/2
 2079 015c AF00     		.2byte	(.L153-.L161)/2
 2080 015e AF00     		.2byte	(.L153-.L161)/2
 2081 0160 B400     		.2byte	(.L154-.L161)/2
 2082 0162 BC00     		.2byte	(.L155-.L161)/2
 2083 0164 C600     		.2byte	(.L156-.L161)/2
 2084 0166 CC00     		.2byte	(.L157-.L161)/2
 2085 0168 D300     		.2byte	(.L158-.L161)/2
 2086 016a D300     		.2byte	(.L158-.L161)/2
 2087 016c D800     		.2byte	(.L159-.L161)/2
 2088 016e D800     		.2byte	(.L159-.L161)/2
 2089 0170 D800     		.2byte	(.L159-.L161)/2
 2090 0172 D800     		.2byte	(.L159-.L161)/2
 2091 0174 3601     		.2byte	(.L194-.L161)/2
 2092 0176 3601     		.2byte	(.L194-.L161)/2
 2093 0178 3601     		.2byte	(.L194-.L161)/2
 2094 017a 3601     		.2byte	(.L194-.L161)/2
 2095 017c 3601     		.2byte	(.L194-.L161)/2
 2096 017e D300     		.2byte	(.L158-.L161)/2
 2097 0180 D800     		.2byte	(.L159-.L161)/2
 2098 0182 D800     		.2byte	(.L159-.L161)/2
 2099 0184 3601     		.2byte	(.L194-.L161)/2
 2100 0186 3601     		.2byte	(.L194-.L161)/2
 2101 0188 3601     		.2byte	(.L194-.L161)/2
 2102 018a 3601     		.2byte	(.L194-.L161)/2
 2103 018c 3601     		.2byte	(.L194-.L161)/2
 2104 018e 3601     		.2byte	(.L194-.L161)/2
 2105 0190 3601     		.2byte	(.L194-.L161)/2
ARM GAS  /tmp/ccSqa4tb.s 			page 38


 2106 0192 3601     		.2byte	(.L194-.L161)/2
 2107 0194 3601     		.2byte	(.L194-.L161)/2
 2108 0196 3601     		.2byte	(.L194-.L161)/2
 2109 0198 3601     		.2byte	(.L194-.L161)/2
 2110 019a DF00     		.2byte	(.L160-.L161)/2
 2111 019c DF00     		.2byte	(.L160-.L161)/2
 2112 019e DF00     		.2byte	(.L160-.L161)/2
 2113 01a0 DF00     		.2byte	(.L160-.L161)/2
 2114 01a2 DF00     		.2byte	(.L160-.L161)/2
 2115 01a4 DF00     		.2byte	(.L160-.L161)/2
 2116 01a6 DF00     		.2byte	(.L160-.L161)/2
 2117 01a8 3601     		.2byte	(.L194-.L161)/2
 2118 01aa 3601     		.2byte	(.L194-.L161)/2
 2119 01ac 3601     		.2byte	(.L194-.L161)/2
 2120 01ae 3601     		.2byte	(.L194-.L161)/2
 2121 01b0 3601     		.2byte	(.L194-.L161)/2
 2122 01b2 3601     		.2byte	(.L194-.L161)/2
 2123 01b4 3601     		.2byte	(.L194-.L161)/2
 2124 01b6 3601     		.2byte	(.L194-.L161)/2
 2125 01b8 3601     		.2byte	(.L194-.L161)/2
 2126 01ba 3601     		.2byte	(.L194-.L161)/2
 2127 01bc D300     		.2byte	(.L158-.L161)/2
 2128 01be D800     		.2byte	(.L159-.L161)/2
 2129 01c0 D300     		.2byte	(.L158-.L161)/2
 2130 01c2 D800     		.2byte	(.L159-.L161)/2
 2131 01c4 3601     		.2byte	(.L194-.L161)/2
 2132 01c6 3601     		.2byte	(.L194-.L161)/2
 2133 01c8 3601     		.2byte	(.L194-.L161)/2
 2134 01ca 3601     		.2byte	(.L194-.L161)/2
 2135 01cc 3601     		.2byte	(.L194-.L161)/2
 2136              	.L153:
 2137              	.LVL219:
 2138              		.loc 1 720 0
 2139 01ce D258     		ldr	r2, [r2, r3]
 2140              	.LVL220:
 2141 01d0 0132     		adds	r2, r2, #1
 2142              	.LVL221:
 2143 01d2 03EB8203 		add	r3, r3, r2, lsl #2
 2144              	.LVL222:
 2145              		.loc 1 721 0
 2146 01d6 81E0     		b	.L194
 2147              	.LVL223:
 2148              	.L154:
 2149              		.loc 1 724 0
 2150 01d8 D158     		ldr	r1, [r2, r3]
 2151              	.LVL224:
 2152              		.loc 1 725 0
 2153 01da 0029     		cmp	r1, #0
 2154 01dc 6ADB     		blt	.L184
 2155              		.loc 1 725 0 is_stmt 0 discriminator 1
 2156 01de B142     		cmp	r1, r6
 2157 01e0 68DA     		bge	.L184
 2158              	.L163:
 2159              		.loc 1 729 0 is_stmt 1
 2160 01e2 D218     		adds	r2, r2, r3
 2161              	.LVL225:
 2162 01e4 5268     		ldr	r2, [r2, #4]
ARM GAS  /tmp/ccSqa4tb.s 			page 39


 2163              	.LVL226:
 2164 01e6 0AE0     		b	.L203
 2165              	.LVL227:
 2166              	.L155:
 2167              		.loc 1 738 0
 2168 01e8 52F803C0 		ldr	ip, [r2, r3]
 2169              	.LVL228:
 2170              		.loc 1 739 0
 2171 01ec 6942     		negs	r1, r5
 2172              	.LVL229:
 2173 01ee 8C45     		cmp	ip, r1
 2174 01f0 60DB     		blt	.L184
 2175              		.loc 1 739 0 is_stmt 0 discriminator 1
 2176 01f2 AC45     		cmp	ip, r5
 2177 01f4 5EDC     		bgt	.L184
 2178              	.L167:
 2179              		.loc 1 743 0 is_stmt 1
 2180 01f6 D218     		adds	r2, r2, r3
 2181              	.LVL230:
 2182 01f8 5268     		ldr	r2, [r2, #4]
 2183              	.LVL231:
 2184 01fa 07E0     		b	.L204
 2185              	.LVL232:
 2186              	.L156:
 2187              		.loc 1 752 0
 2188 01fc D258     		ldr	r2, [r2, r3]
 2189              	.LVL233:
 2190              	.L203:
 2191              		.loc 1 753 0
 2192 01fe 002A     		cmp	r2, #0
 2193 0200 58DB     		blt	.L184
 2194              		.loc 1 753 0 is_stmt 0 discriminator 1
 2195 0202 B242     		cmp	r2, r6
 2196 0204 3BDB     		blt	.L195
 2197 0206 55E0     		b	.L184
 2198              	.LVL234:
 2199              	.L157:
 2200              		.loc 1 761 0 is_stmt 1
 2201 0208 D258     		ldr	r2, [r2, r3]
 2202              	.LVL235:
 2203              		.loc 1 762 0
 2204 020a 6942     		negs	r1, r5
 2205              	.LVL236:
 2206              	.L204:
 2207 020c 8A42     		cmp	r2, r1
 2208 020e 51DB     		blt	.L184
 2209              		.loc 1 762 0 is_stmt 0 discriminator 1
 2210 0210 AA42     		cmp	r2, r5
 2211 0212 34DD     		ble	.L195
 2212 0214 4EE0     		b	.L184
 2213              	.LVL237:
 2214              	.L158:
 2215              		.loc 1 810 0 is_stmt 1
 2216 0216 0914     		asrs	r1, r1, #16
 2217              	.LVL238:
 2218 0218 4CD4     		bmi	.L184
 2219              		.loc 1 810 0 is_stmt 0 discriminator 1
ARM GAS  /tmp/ccSqa4tb.s 			page 40


 2220 021a B142     		cmp	r1, r6
 2221 021c 5EDB     		blt	.L194
 2222 021e 49E0     		b	.L184
 2223              	.LVL239:
 2224              	.L159:
 2225              		.loc 1 824 0 is_stmt 1
 2226 0220 0914     		asrs	r1, r1, #16
 2227              	.LVL240:
 2228              		.loc 1 825 0
 2229 0222 6A42     		negs	r2, r5
 2230              	.LVL241:
 2231 0224 9142     		cmp	r1, r2
 2232 0226 45DB     		blt	.L184
 2233              		.loc 1 825 0 is_stmt 0 discriminator 1
 2234 0228 A942     		cmp	r1, r5
 2235 022a 57DD     		ble	.L194
 2236 022c 42E0     		b	.L184
 2237              	.LVL242:
 2238              	.L160:
 2239              		.loc 1 838 0 is_stmt 1
 2240 022e 0914     		asrs	r1, r1, #16
 2241              	.LVL243:
 2242              		.loc 1 839 0
 2243 0230 03EB8103 		add	r3, r3, r1, lsl #2
 2244              	.LVL244:
 2245              		.loc 1 840 0
 2246 0234 52E0     		b	.L194
 2247              	.LVL245:
 2248              	.L142:
 2249              		.loc 1 887 0
 2250 0236 D258     		ldr	r2, [r2, r3]
 2251              	.LVL246:
 2252              		.loc 1 888 0
 2253 0238 002A     		cmp	r2, #0
 2254 023a 3BDB     		blt	.L184
 2255              		.loc 1 888 0 is_stmt 0 discriminator 1
 2256 023c B242     		cmp	r2, r6
 2257 023e 45DB     		blt	.L196
 2258 0240 38E0     		b	.L184
 2259              	.LVL247:
 2260              	.L143:
 2261              		.loc 1 907 0 is_stmt 1
 2262 0242 D258     		ldr	r2, [r2, r3]
 2263              	.LVL248:
 2264              		.loc 1 908 0
 2265 0244 6942     		negs	r1, r5
 2266              	.LVL249:
 2267 0246 8A42     		cmp	r2, r1
 2268 0248 34DB     		blt	.L184
 2269              		.loc 1 908 0 is_stmt 0 discriminator 1
 2270 024a AA42     		cmp	r2, r5
 2271 024c 04E0     		b	.L200
 2272              	.LVL250:
 2273              	.L145:
 2274              		.loc 1 978 0 is_stmt 1
 2275 024e D258     		ldr	r2, [r2, r3]
 2276 0250 9A18     		adds	r2, r3, r2
ARM GAS  /tmp/ccSqa4tb.s 			page 41


 2277              	.LVL251:
 2278              		.loc 1 979 0
 2279 0252 043A     		subs	r2, r2, #4
 2280              	.LVL252:
 2281 0254 2ED4     		bmi	.L184
 2282              		.loc 1 979 0 is_stmt 0 discriminator 1
 2283 0256 BA42     		cmp	r2, r7
 2284              	.LVL253:
 2285              	.L200:
 2286 0258 38DD     		ble	.L196
 2287 025a 2BE0     		b	.L184
 2288              	.LVL254:
 2289              	.L150:
 2290              		.loc 1 994 0 is_stmt 1
 2291 025c D258     		ldr	r2, [r2, r3]
 2292 025e 9A18     		adds	r2, r3, r2
 2293              	.LVL255:
 2294              		.loc 1 995 0
 2295 0260 043A     		subs	r2, r2, #4
 2296              	.LVL256:
 2297 0262 27D4     		bmi	.L184
 2298              		.loc 1 995 0 is_stmt 0 discriminator 1
 2299 0264 BA42     		cmp	r2, r7
 2300 0266 25DC     		bgt	.L184
 2301              	.LVL257:
 2302              	.L148:
 2303              		.loc 1 1001 0 is_stmt 1
 2304 0268 0433     		adds	r3, r3, #4
 2305              	.LVL258:
 2306              	.L149:
 2307              		.loc 1 1009 0
 2308 026a 6269     		ldr	r2, [r4, #20]	@ unaligned
 2309 026c 002A     		cmp	r2, #0
 2310 026e 35D1     		bne	.L194
 2311 0270 45E0     		b	.L191
 2312              	.L151:
 2313              	.LBB16:
 2314              		.loc 1 1016 0
 2315 0272 6169     		ldr	r1, [r4, #20]	@ unaligned
 2316              	.LVL259:
 2317              		.loc 1 1014 0
 2318 0274 D258     		ldr	r2, [r2, r3]
 2319              	.LVL260:
 2320              		.loc 1 1016 0
 2321 0276 0029     		cmp	r1, #0
 2322 0278 41D0     		beq	.L191
 2323              		.loc 1 1015 0
 2324 027a 03EBC203 		add	r3, r3, r2, lsl #3
 2325              	.LVL261:
 2326              	.L195:
 2327 027e 0833     		adds	r3, r3, #8
 2328 0280 2CE0     		b	.L194
 2329              	.LVL262:
 2330              	.L146:
 2331              	.LBE16:
 2332              		.loc 1 1023 0
 2333 0282 0433     		adds	r3, r3, #4
ARM GAS  /tmp/ccSqa4tb.s 			page 42


 2334              	.LVL263:
 2335              		.loc 1 1024 0
 2336 0284 40F00100 		orr	r0, r0, #1
 2337              	.LVL264:
 2338              		.loc 1 1025 0
 2339 0288 28E0     		b	.L194
 2340              	.L152:
 2341              		.loc 1 1028 0
 2342 028a 0833     		adds	r3, r3, #8
 2343              	.LVL265:
 2344              		.loc 1 1029 0
 2345 028c 40F00200 		orr	r0, r0, #2
 2346              	.LVL266:
 2347              		.loc 1 1030 0
 2348 0290 24E0     		b	.L194
 2349              	.L147:
 2350              	.LBB17:
 2351              		.loc 1 1036 0
 2352 0292 52F80390 		ldr	r9, [r2, r3]
 2353              	.LVL267:
 2354 0296 0AF10801 		add	r1, sl, #8
 2355              	.LVL268:
 2356 029a 0433     		adds	r3, r3, #4
 2357              	.LVL269:
 2358              		.loc 1 1037 0
 2359 029c 4FF0000C 		mov	ip, #0
 2360 02a0 10E0     		b	.L183
 2361              	.LVL270:
 2362              	.L186:
 2363              		.loc 1 1039 0
 2364 02a2 52F801A0 		ldr	sl, [r2, r1]
 2365 02a6 8A44     		add	sl, r1, sl
 2366              	.LVL271:
 2367              		.loc 1 1040 0
 2368 02a8 BAF1040A 		subs	sl, sl, #4
 2369              	.LVL272:
 2370 02ac 02D4     		bmi	.L184
 2371              		.loc 1 1040 0 is_stmt 0 discriminator 1
 2372 02ae 0831     		adds	r1, r1, #8
 2373              	.LVL273:
 2374 02b0 BA45     		cmp	sl, r7
 2375 02b2 05DD     		ble	.L185
 2376              	.LVL274:
 2377              	.L184:
 2378              		.loc 1 1041 0 is_stmt 1
 2379 02b4 236B     		ldr	r3, [r4, #48]	@ unaligned
 2380              	.LVL275:
 2381              		.loc 1 1042 0
 2382 02b6 0420     		movs	r0, #4
 2383              	.LVL276:
 2384              		.loc 1 1041 0
 2385 02b8 23F48043 		bic	r3, r3, #16384
 2386 02bc 2363     		str	r3, [r4, #48]	@ unaligned
 2387              		.loc 1 1042 0
 2388 02be 1FE0     		b	.L139
 2389              	.LVL277:
 2390              	.L185:
ARM GAS  /tmp/ccSqa4tb.s 			page 43


 2391              		.loc 1 1037 0
 2392 02c0 0CF1010C 		add	ip, ip, #1
 2393              	.LVL278:
 2394              	.L183:
 2395              		.loc 1 1037 0 is_stmt 0 discriminator 1
 2396 02c4 CC45     		cmp	ip, r9
 2397 02c6 ECDD     		ble	.L186
 2398              		.loc 1 1049 0 is_stmt 1
 2399 02c8 03EBC903 		add	r3, r3, r9, lsl #3
 2400              	.LVL279:
 2401              	.L196:
 2402 02cc 0433     		adds	r3, r3, #4
 2403              	.LVL280:
 2404 02ce 05E0     		b	.L194
 2405              	.LVL281:
 2406              	.L140:
 2407              	.LBE17:
 2408              		.loc 1 1054 0
 2409 02d0 236B     		ldr	r3, [r4, #48]	@ unaligned
 2410              	.LVL282:
 2411              		.loc 1 1055 0
 2412 02d2 0620     		movs	r0, #6
 2413              	.LVL283:
 2414              		.loc 1 1054 0
 2415 02d4 23F48043 		bic	r3, r3, #16384
 2416 02d8 2363     		str	r3, [r4, #48]	@ unaligned
 2417              		.loc 1 1055 0
 2418 02da 11E0     		b	.L139
 2419              	.LVL284:
 2420              	.L194:
 2421              		.loc 1 686 0 discriminator 1
 2422 02dc BB42     		cmp	r3, r7
 2423 02de FFF6B8AE 		blt	.L187
 2424              		.loc 1 1085 0
 2425 02e2 236B     		ldr	r3, [r4, #48]	@ unaligned
 2426              	.LVL285:
 2427              		.loc 1 1087 0
 2428 02e4 10F00200 		ands	r0, r0, #2
 2429              	.LVL286:
 2430              		.loc 1 1085 0
 2431 02e8 23F48043 		bic	r3, r3, #16384
 2432              		.loc 1 1086 0
 2433 02ec 43F40042 		orr	r2, r3, #32768
 2434 02f0 2263     		str	r2, [r4, #48]	@ unaligned
 2435              		.loc 1 1087 0
 2436 02f2 05D0     		beq	.L139
 2437              		.loc 1 1088 0
 2438 02f4 43F40843 		orr	r3, r3, #34816
 2439 02f8 2363     		str	r3, [r4, #48]	@ unaligned
 2440              		.loc 1 1090 0
 2441 02fa 0020     		movs	r0, #0
 2442 02fc 00E0     		b	.L139
 2443              	.LVL287:
 2444              	.L191:
 2445              	.LBB18:
 2446              		.loc 1 1017 0
 2447 02fe 1C20     		movs	r0, #28
ARM GAS  /tmp/ccSqa4tb.s 			page 44


 2448              	.LVL288:
 2449              	.L139:
 2450              	.LBE18:
 2451              		.loc 1 1091 0
 2452 0300 BDE8FC87 		pop	{r2, r3, r4, r5, r6, r7, r8, r9, sl, pc}
 2453              		.cfi_endproc
 2454              	.LFE5:
 2455              		.size	VerifyPcode, .-VerifyPcode
 2456              		.section	.text.amx_Init,"ax",%progbits
 2457              		.align	1
 2458              		.global	amx_Init
 2459              		.thumb
 2460              		.thumb_func
 2461              		.type	amx_Init, %function
 2462              	amx_Init:
 2463              	.LFB6:
 2464              		.loc 1 1099 0
 2465              		.cfi_startproc
 2466              		@ args = 0, pretend = 0, frame = 0
 2467              		@ frame_needed = 0, uses_anonymous_args = 0
 2468              	.LVL289:
 2469 0000 70B5     		push	{r4, r5, r6, lr}
 2470              	.LCFI20:
 2471              		.cfi_def_cfa_offset 16
 2472              		.loc 1 1121 0
 2473 0002 036B     		ldr	r3, [r0, #48]	@ unaligned
 2474              		.loc 1 1099 0
 2475 0004 0546     		mov	r5, r0
 2476              		.cfi_offset 14, -4
 2477              		.cfi_offset 6, -8
 2478              		.cfi_offset 5, -12
 2479              		.cfi_offset 4, -16
 2480              		.loc 1 1121 0
 2481 0006 13F4004F 		tst	r3, #32768
 2482              		.loc 1 1099 0
 2483 000a 0C46     		mov	r4, r1
 2484              		.loc 1 1121 0
 2485 000c 61D1     		bne	.L217
 2486              	.LVL290:
 2487              		.loc 1 1148 0
 2488 000e 8988     		ldrh	r1, [r1, #4]	@ unaligned
 2489              	.LVL291:
 2490 0010 4FF2E012 		movw	r2, #61920
 2491 0014 9142     		cmp	r1, r2
 2492 0016 60D1     		bne	.L222
 2493              		.loc 1 1150 0
 2494 0018 A279     		ldrb	r2, [r4, #6]	@ zero_extendqisi2
 2495 001a 0B2A     		cmp	r2, #11
 2496 001c 5BD8     		bhi	.L220
 2497              		.loc 1 1150 0 is_stmt 0 discriminator 1
 2498 001e E279     		ldrb	r2, [r4, #7]	@ zero_extendqisi2
 2499 0020 0A2A     		cmp	r2, #10
 2500 0022 58D9     		bls	.L220
 2501              		.loc 1 1152 0 is_stmt 1
 2502 0024 B4F90A20 		ldrsh	r2, [r4, #10]	@ unaligned
 2503 0028 082A     		cmp	r2, #8
 2504 002a 56D1     		bne	.L222
ARM GAS  /tmp/ccSqa4tb.s 			page 45


 2505              	.LVL292:
 2506              		.loc 1 1156 0
 2507 002c 626B     		ldr	r2, [r4, #52]	@ unaligned
 2508              		.loc 1 1158 0
 2509 002e A25A     		ldrh	r2, [r4, r2]
 2510 0030 1F2A     		cmp	r2, #31
 2511 0032 52D8     		bhi	.L222
 2512              		.loc 1 1160 0
 2513 0034 A069     		ldr	r0, [r4, #24]	@ unaligned
 2514              	.LVL293:
 2515 0036 0028     		cmp	r0, #0
 2516 0038 51DD     		ble	.L223
 2517              		.loc 1 1171 0
 2518 003a 2C60     		str	r4, [r5, #0]	@ unaligned
 2519              		.loc 1 1174 0
 2520 003c 2169     		ldr	r1, [r4, #16]	@ unaligned
 2521 003e 6269     		ldr	r2, [r4, #20]	@ unaligned
 2522              		.loc 1 1175 0
 2523 0040 401A     		subs	r0, r0, r1
 2524 0042 0438     		subs	r0, r0, #4
 2525 0044 E862     		str	r0, [r5, #44]	@ unaligned
 2526              		.loc 1 1177 0
 2527 0046 A862     		str	r0, [r5, #40]	@ unaligned
 2528              		.loc 1 1179 0
 2529 0048 E868     		ldr	r0, [r5, #12]	@ unaligned
 2530              		.loc 1 1174 0
 2531 004a 521A     		subs	r2, r2, r1
 2532 004c 6A62     		str	r2, [r5, #36]	@ unaligned
 2533              		.loc 1 1176 0
 2534 004e 2A62     		str	r2, [r5, #32]	@ unaligned
 2535              		.loc 1 1179 0
 2536 0050 08B9     		cbnz	r0, .L207
 2537              		.loc 1 1180 0
 2538 0052 2448     		ldr	r0, .L225
 2539 0054 E860     		str	r0, [r5, #12]	@ unaligned
 2540              	.L207:
 2541              		.loc 1 1188 0
 2542 0056 6868     		ldr	r0, [r5, #4]	@ unaligned
 2543 0058 10B9     		cbnz	r0, .L208
 2544              		.loc 1 1189 0
 2545 005a E068     		ldr	r0, [r4, #12]	@ unaligned
 2546 005c 2018     		adds	r0, r4, r0
 2547 005e 6860     		str	r0, [r5, #4]	@ unaligned
 2548              	.L208:
 2549              		.loc 1 1190 0
 2550 0060 686F     		ldr	r0, [r5, #116]	@ unaligned
 2551 0062 10B9     		cbnz	r0, .L209
 2552              		.loc 1 1191 0
 2553 0064 E068     		ldr	r0, [r4, #12]	@ unaligned
 2554 0066 081A     		subs	r0, r1, r0
 2555 0068 6867     		str	r0, [r5, #116]	@ unaligned
 2556              	.L209:
 2557              		.loc 1 1198 0
 2558 006a AE68     		ldr	r6, [r5, #8]	@ unaligned
 2559 006c 4EB1     		cbz	r6, .L210
 2560              	.LVL294:
 2561              		.loc 1 1200 0
ARM GAS  /tmp/ccSqa4tb.s 			page 46


 2562 006e 13F0200F 		tst	r3, #32
 2563 0072 07D1     		bne	.L211
 2564              		.loc 1 1200 0 is_stmt 0 discriminator 1
 2565 0074 6B69     		ldr	r3, [r5, #20]	@ unaligned
 2566 0076 2BB9     		cbnz	r3, .L211
 2567              		.loc 1 1201 0 is_stmt 1
 2568 0078 3046     		mov	r0, r6
 2569 007a 6118     		adds	r1, r4, r1
 2570 007c FFF7FEFF 		bl	memcpy
 2571              	.LVL295:
 2572 0080 00E0     		b	.L211
 2573              	.LVL296:
 2574              	.L210:
 2575              		.loc 1 1203 0
 2576 0082 6618     		adds	r6, r4, r1
 2577              	.LVL297:
 2578              	.L211:
 2579              		.loc 1 1209 0
 2580 0084 A269     		ldr	r2, [r4, #24]	@ unaligned
 2581 0086 2369     		ldr	r3, [r4, #16]	@ unaligned
 2582 0088 D31A     		subs	r3, r2, r3
 2583 008a F318     		adds	r3, r6, r3
 2584 008c 0026     		movs	r6, #0
 2585              	.LVL298:
 2586 008e 43F8046C 		str	r6, [r3, #-4]
 2587              		.loc 1 1263 0
 2588 0092 2389     		ldrh	r3, [r4, #8]	@ unaligned
 2589 0094 13F0010F 		tst	r3, #1
 2590 0098 04D1     		bne	.L212
 2591              		.loc 1 1264 0
 2592 009a 2846     		mov	r0, r5
 2593              		.loc 1 1336 0
 2594 009c BDE87040 		pop	{r4, r5, r6, lr}
 2595              		.loc 1 1264 0
 2596 00a0 FFF7FEBF 		b	VerifyPcode
 2597              	.L212:
 2598              	.LBB19:
 2599              		.loc 1 1267 0
 2600 00a4 6869     		ldr	r0, [r5, #20]	@ unaligned
 2601 00a6 0028     		cmp	r0, #0
 2602 00a8 0CBF     		ite	eq
 2603 00aa 1C20     		moveq	r0, #28
 2604 00ac 0020     		movne	r0, #0
 2605 00ae 08E0     		b	.L214
 2606              	.LVL299:
 2607              	.L216:
 2608              		.loc 1 1272 0
 2609 00b0 6B69     		ldr	r3, [r5, #20]	@ unaligned
 2610 00b2 2846     		mov	r0, r5
 2611              	.LVL300:
 2612 00b4 3146     		mov	r1, r6
 2613 00b6 9847     		blx	r3
 2614              	.LVL301:
 2615              		.loc 1 1273 0
 2616 00b8 10B9     		cbnz	r0, .L215
 2617              		.loc 1 1274 0
 2618 00ba 2846     		mov	r0, r5
ARM GAS  /tmp/ccSqa4tb.s 			page 47


 2619              	.LVL302:
 2620 00bc FFF7FEFF 		bl	VerifyPcode
 2621              	.LVL303:
 2622              	.L215:
 2623              		.loc 1 1271 0
 2624 00c0 0136     		adds	r6, r6, #1
 2625              	.LVL304:
 2626              	.L214:
 2627              		.loc 1 1271 0 is_stmt 0 discriminator 1
 2628 00c2 68B9     		cbnz	r0, .L206
 2629              		.loc 1 1271 0 discriminator 2
 2630 00c4 626B     		ldr	r2, [r4, #52]	@ unaligned
 2631 00c6 A36B     		ldr	r3, [r4, #56]	@ unaligned
 2632 00c8 D31A     		subs	r3, r2, r3
 2633 00ca B6EBD30F 		cmp	r6, r3, lsr #3
 2634 00ce EFDB     		blt	.L216
 2635 00d0 70BD     		pop	{r4, r5, r6, pc}
 2636              	.LVL305:
 2637              	.L217:
 2638              	.LBE19:
 2639              		.loc 1 1122 0 is_stmt 1
 2640 00d2 1620     		movs	r0, #22
 2641 00d4 70BD     		pop	{r4, r5, r6, pc}
 2642              	.LVL306:
 2643              	.L220:
 2644              		.loc 1 1151 0
 2645 00d6 1220     		movs	r0, #18
 2646 00d8 70BD     		pop	{r4, r5, r6, pc}
 2647              	.L222:
 2648              		.loc 1 1159 0
 2649 00da 1120     		movs	r0, #17
 2650 00dc 70BD     		pop	{r4, r5, r6, pc}
 2651              	.LVL307:
 2652              	.L223:
 2653              		.loc 1 1161 0
 2654 00de 1120     		movs	r0, #17
 2655              	.LVL308:
 2656              	.L206:
 2657              		.loc 1 1336 0
 2658 00e0 70BD     		pop	{r4, r5, r6, pc}
 2659              	.L226:
 2660 00e2 00BF     		.align	2
 2661              	.L225:
 2662 00e4 00000000 		.word	amx_Callback
 2663              		.cfi_endproc
 2664              	.LFE6:
 2665              		.size	amx_Init, .-amx_Init
 2666              		.section	.text.amx_Exec,"ax",%progbits
 2667              		.align	1
 2668              		.global	amx_Exec
 2669              		.thumb
 2670              		.thumb_func
 2671              		.type	amx_Exec, %function
 2672              	amx_Exec:
 2673              	.LFB34:
 2674              		.loc 1 2065 0
 2675              		.cfi_startproc
ARM GAS  /tmp/ccSqa4tb.s 			page 48


 2676              		@ args = 0, pretend = 0, frame = 32
 2677              		@ frame_needed = 0, uses_anonymous_args = 0
 2678              	.LVL309:
 2679 0000 2DE9F04F 		push	{r4, r5, r6, r7, r8, r9, sl, fp, lr}
 2680              	.LCFI21:
 2681              		.cfi_def_cfa_offset 36
 2682 0004 89B0     		sub	sp, sp, #36
 2683              	.LCFI22:
 2684              		.cfi_def_cfa_offset 72
 2685              		.loc 1 2065 0
 2686 0006 0591     		str	r1, [sp, #20]
 2687              		.loc 1 2077 0
 2688 0008 036B     		ldr	r3, [r0, #48]	@ unaligned
 2689              		.loc 1 2065 0
 2690 000a 0546     		mov	r5, r0
 2691              		.cfi_offset 14, -4
 2692              		.cfi_offset 11, -8
 2693              		.cfi_offset 10, -12
 2694              		.cfi_offset 9, -16
 2695              		.cfi_offset 8, -20
 2696              		.cfi_offset 7, -24
 2697              		.cfi_offset 6, -28
 2698              		.cfi_offset 5, -32
 2699              		.cfi_offset 4, -36
 2700              		.loc 1 2077 0
 2701 000c 13F4004F 		tst	r3, #32768
 2702              		.loc 1 2065 0
 2703 0010 1446     		mov	r4, r2
 2704              		.loc 1 2077 0
 2705 0012 01F0A481 		beq	.L546
 2706              		.loc 1 2079 0
 2707 0016 C268     		ldr	r2, [r0, #12]	@ unaligned
 2708              	.LVL310:
 2709 0018 002A     		cmp	r2, #0
 2710 001a 01F0A281 		beq	.L547
 2711              		.loc 1 2082 0
 2712 001e 0068     		ldr	r0, [r0, #0]	@ unaligned
 2713              	.LVL311:
 2714              		.loc 1 2086 0
 2715 0020 13F4805C 		ands	ip, r3, #4096
 2716              		.loc 1 2082 0
 2717 0024 0390     		str	r0, [sp, #12]
 2718              	.LVL312:
 2719              		.loc 1 2086 0
 2720 0026 1AD1     		bne	.L229
 2721              	.LBB20:
 2722              		.loc 1 2092 0
 2723 0028 039A     		ldr	r2, [sp, #12]
 2724 002a 416A     		ldr	r1, [r0, #36]	@ unaligned
 2725              	.LVL313:
 2726 002c 976A     		ldr	r7, [r2, #40]	@ unaligned
 2727 002e B0F90A00 		ldrsh	r0, [r0, #10]	@ unaligned
 2728              	.LVL314:
 2729 0032 7F1A     		subs	r7, r7, r1
 2730 0034 0646     		mov	r6, r0	@ movhi
 2731 0036 00B2     		sxth	r0, r0
 2732              		.loc 1 2093 0
ARM GAS  /tmp/ccSqa4tb.s 			page 49


 2733 0038 5118     		adds	r1, r2, r1
 2734              		.loc 1 2092 0
 2735 003a 97FBF0F0 		sdiv	r0, r7, r0
 2736              	.LVL315:
 2737              		.loc 1 2094 0
 2738 003e 6246     		mov	r2, ip
 2739              	.LVL316:
 2740 0040 02E0     		b	.L230
 2741              	.LVL317:
 2742              	.L232:
 2743              		.loc 1 2095 0 discriminator 1
 2744 0042 37B2     		sxth	r7, r6
 2745              		.loc 1 2064 0 discriminator 1
 2746 0044 C919     		adds	r1, r1, r7
 2747              	.LVL318:
 2748              		.loc 1 2094 0 discriminator 1
 2749 0046 0132     		adds	r2, r2, #1
 2750              	.LVL319:
 2751              	.L230:
 2752 0048 8242     		cmp	r2, r0
 2753 004a 05DA     		bge	.L231
 2754              		.loc 1 2094 0 is_stmt 0 discriminator 2
 2755 004c 0F68     		ldr	r7, [r1, #0]	@ unaligned
 2756 004e 002F     		cmp	r7, #0
 2757 0050 F7D1     		bne	.L232
 2758              		.loc 1 2097 0 is_stmt 1
 2759 0052 1320     		movs	r0, #19
 2760              	.LVL320:
 2761 0054 01F08EB9 		b	.L228
 2762              	.LVL321:
 2763              	.L231:
 2764              		.loc 1 2098 0
 2765 0058 43F48053 		orr	r3, r3, #4096
 2766 005c 2B63     		str	r3, [r5, #48]	@ unaligned
 2767              	.LVL322:
 2768              	.L229:
 2769              	.LBE20:
 2770              		.loc 1 2105 0
 2771 005e AE68     		ldr	r6, [r5, #8]	@ unaligned
 2772 0060 16B9     		cbnz	r6, .L233
 2773              		.loc 1 2105 0 is_stmt 0 discriminator 2
 2774 0062 039B     		ldr	r3, [sp, #12]
 2775 0064 1E69     		ldr	r6, [r3, #16]	@ unaligned
 2776 0066 9E19     		adds	r6, r3, r6
 2777              	.L233:
 2778              	.LVL323:
 2779              		.loc 1 2108 0 is_stmt 1 discriminator 3
 2780 0068 0023     		movs	r3, #0
 2781              		.loc 1 2111 0 discriminator 3
 2782 006a B4F1FF3F 		cmp	r4, #-1
 2783              		.loc 1 2106 0 discriminator 3
 2784 006e D5F828B0 		ldr	fp, [r5, #40]	@ unaligned
 2785              	.LVL324:
 2786              		.loc 1 2107 0 discriminator 3
 2787 0072 D5F820C0 		ldr	ip, [r5, #32]	@ unaligned
 2788              	.LVL325:
 2789              		.loc 1 2108 0 discriminator 3
ARM GAS  /tmp/ccSqa4tb.s 			page 50


 2790 0076 85F85430 		strb	r3, [r5, #84]
 2791 007a 85F85530 		strb	r3, [r5, #85]
 2792 007e 85F85630 		strb	r3, [r5, #86]
 2793 0082 85F85730 		strb	r3, [r5, #87]
 2794              		.loc 1 2111 0 discriminator 3
 2795 0086 05D1     		bne	.L234
 2796              		.loc 1 2112 0
 2797 0088 0398     		ldr	r0, [sp, #12]
 2798 008a C169     		ldr	r1, [r0, #28]	@ unaligned
 2799 008c 9942     		cmp	r1, r3
 2800 008e 2BDA     		bge	.L575
 2801 0090 01F069B9 		b	.L550
 2802              	.L234:
 2803              		.loc 1 2123 0
 2804 0094 14F1020F 		cmn	r4, #2
 2805 0098 13D1     		bne	.L236
 2806              		.loc 1 2127 0
 2807 009a 0399     		ldr	r1, [sp, #12]
 2808              		.loc 1 2125 0
 2809 009c D5F864B0 		ldr	fp, [r5, #100]	@ unaligned
 2810              	.LVL326:
 2811              		.loc 1 2127 0
 2812 00a0 8A6B     		ldr	r2, [r1, #56]	@ unaligned
 2813 00a2 4B6B     		ldr	r3, [r1, #52]	@ unaligned
 2814              		.loc 1 2126 0
 2815 00a4 D5F868C0 		ldr	ip, [r5, #104]	@ unaligned
 2816              	.LVL327:
 2817              		.loc 1 2127 0
 2818 00a8 9A42     		cmp	r2, r3
 2819 00aa 31D0     		beq	.L235
 2820              		.loc 1 2130 0
 2821 00ac 6B69     		ldr	r3, [r5, #20]	@ unaligned
 2822 00ae 296F     		ldr	r1, [r5, #112]	@ unaligned
 2823 00b0 2846     		mov	r0, r5
 2824 00b2 CDF800C0 		str	ip, [sp, #0]
 2825 00b6 9847     		blx	r3
 2826              	.LVL328:
 2827 00b8 DDF800C0 		ldr	ip, [sp, #0]
 2828 00bc 40B3     		cbz	r0, .L235
 2829 00be 01F059B9 		b	.L228
 2830              	.LVL329:
 2831              	.L236:
 2832              		.loc 1 2133 0
 2833 00c2 002C     		cmp	r4, #0
 2834 00c4 C1F24F81 		blt	.L550
 2835              		.loc 1 2136 0
 2836 00c8 039B     		ldr	r3, [sp, #12]
 2837 00ca 1A6A     		ldr	r2, [r3, #32]	@ unaligned
 2838 00cc 596A     		ldr	r1, [r3, #36]	@ unaligned
 2839 00ce B3F90A30 		ldrsh	r3, [r3, #10]	@ unaligned
 2840 00d2 891A     		subs	r1, r1, r2
 2841 00d4 91FBF3F1 		sdiv	r1, r1, r3
 2842 00d8 8C42     		cmp	r4, r1
 2843 00da 81F24481 		bge	.L550
 2844              		.loc 1 2139 0
 2845 00de 0398     		ldr	r0, [sp, #12]
 2846 00e0 8218     		adds	r2, r0, r2
ARM GAS  /tmp/ccSqa4tb.s 			page 51


 2847 00e2 03FB0423 		mla	r3, r3, r4, r2
 2848 00e6 1968     		ldr	r1, [r3, #0]	@ unaligned
 2849              	.L575:
 2850 00e8 A961     		str	r1, [r5, #24]	@ unaligned
 2851              		.loc 1 2140 0
 2852 00ea 826B     		ldr	r2, [r0, #56]	@ unaligned
 2853 00ec 436B     		ldr	r3, [r0, #52]	@ unaligned
 2854 00ee 9A42     		cmp	r2, r3
 2855 00f0 0ED0     		beq	.L235
 2856              		.loc 1 2143 0
 2857 00f2 2967     		str	r1, [r5, #112]	@ unaligned
 2858              		.loc 1 2144 0
 2859 00f4 6B69     		ldr	r3, [r5, #20]	@ unaligned
 2860 00f6 2846     		mov	r0, r5
 2861 00f8 CDF800C0 		str	ip, [sp, #0]
 2862 00fc 9847     		blx	r3
 2863              	.LVL330:
 2864 00fe DDF800C0 		ldr	ip, [sp, #0]
 2865 0102 0028     		cmp	r0, #0
 2866 0104 41F03681 		bne	.L228
 2867              		.loc 1 2146 0
 2868 0108 2876     		strb	r0, [r5, #24]
 2869 010a 6876     		strb	r0, [r5, #25]
 2870 010c A876     		strb	r0, [r5, #26]
 2871 010e E876     		strb	r0, [r5, #27]
 2872              	.LVL331:
 2873              	.L235:
 2874              		.loc 1 2150 0
 2875 0110 AB6A     		ldr	r3, [r5, #40]	@ unaligned
 2876 0112 EA6A     		ldr	r2, [r5, #44]	@ unaligned
 2877 0114 9342     		cmp	r3, r2
 2878 0116 01F32881 		bgt	.L563
 2879              		.loc 1 2152 0
 2880 011a 296A     		ldr	r1, [r5, #32]	@ unaligned
 2881 011c 6A6A     		ldr	r2, [r5, #36]	@ unaligned
 2882 011e 9142     		cmp	r1, r2
 2883 0120 C1F22781 		blt	.L565
 2884              		.loc 1 2180 0
 2885 0124 14F1020F 		cmn	r4, #2
 2886 0128 12D0     		beq	.L237
 2887              		.loc 1 2181 0
 2888 012a AA6D     		ldr	r2, [r5, #88]	@ unaligned
 2889              		.loc 1 2182 0
 2890 012c 043B     		subs	r3, r3, #4
 2891              		.loc 1 2181 0
 2892 012e 9200     		lsls	r2, r2, #2
 2893              		.loc 1 2182 0
 2894 0130 AB62     		str	r3, [r5, #40]	@ unaligned
 2895 0132 F250     		str	r2, [r6, r3]
 2896              		.loc 1 2181 0
 2897 0134 9344     		add	fp, fp, r2
 2898              	.LVL332:
 2899              		.loc 1 2184 0
 2900 0136 AA6A     		ldr	r2, [r5, #40]	@ unaligned
 2901              		.loc 1 2183 0
 2902 0138 0023     		movs	r3, #0
 2903              		.loc 1 2184 0
ARM GAS  /tmp/ccSqa4tb.s 			page 52


 2904 013a 043A     		subs	r2, r2, #4
 2905              		.loc 1 2183 0
 2906 013c 85F85830 		strb	r3, [r5, #88]
 2907 0140 85F85930 		strb	r3, [r5, #89]
 2908 0144 85F85A30 		strb	r3, [r5, #90]
 2909 0148 85F85B30 		strb	r3, [r5, #91]
 2910              		.loc 1 2184 0
 2911 014c AA62     		str	r2, [r5, #40]	@ unaligned
 2912 014e B350     		str	r3, [r6, r2]
 2913              	.L237:
 2914              		.loc 1 2187 0
 2915 0150 296A     		ldr	r1, [r5, #32]	@ unaligned
 2916 0152 0491     		str	r1, [sp, #16]
 2917 0154 D5F82880 		ldr	r8, [r5, #40]	@ unaligned
 2918 0158 01F13F03 		add	r3, r1, #63
 2919 015c 4345     		cmp	r3, r8
 2920 015e 81F20681 		bge	.L564
 2921              		.loc 1 2228 0
 2922 0162 EB6D     		ldr	r3, [r5, #92]	@ unaligned
 2923 0164 0793     		str	r3, [sp, #28]
 2924              	.LVL333:
 2925              		.loc 1 2229 0
 2926 0166 D5F86090 		ldr	r9, [r5, #96]	@ unaligned
 2927              	.LVL334:
 2928              		.loc 1 2231 0
 2929 016a 6A68     		ldr	r2, [r5, #4]	@ unaligned
 2930 016c AB69     		ldr	r3, [r5, #24]	@ unaligned
 2931              		.loc 1 2230 0
 2932 016e D5F81CA0 		ldr	sl, [r5, #28]	@ unaligned
 2933              	.LVL335:
 2934 0172 4F46     		mov	r7, r9
 2935 0174 CDF804B0 		str	fp, [sp, #4]
 2936              		.loc 1 2231 0
 2937 0178 D218     		adds	r2, r2, r3
 2938              	.LVL336:
 2939 017a CDF808C0 		str	ip, [sp, #8]
 2940 017e 8B46     		mov	fp, r1
 2941              	.LVL337:
 2942 0180 A946     		mov	r9, r5
 2943              	.LVL338:
 2944 0182 05E0     		b	.L238
 2945              	.LVL339:
 2946              	.L554:
 2947              		.loc 1 2951 0
 2948 0184 0027     		movs	r7, #0
 2949              	.LVL340:
 2950 0186 02E0     		b	.L240
 2951              	.LVL341:
 2952              	.L560:
 2953              		.loc 1 2931 0
 2954 0188 1F46     		mov	r7, r3
 2955              	.LVL342:
 2956 018a 00E0     		b	.L240
 2957              	.LVL343:
 2958              	.L561:
 2959 018c 1F46     		mov	r7, r3
 2960              	.LVL344:
ARM GAS  /tmp/ccSqa4tb.s 			page 53


 2961              	.L240:
 2962 018e 2246     		mov	r2, r4
 2963              	.L238:
 2964              	.LVL345:
 2965              		.loc 1 2237 0
 2966 0190 1446     		mov	r4, r2
 2967 0192 54F8041B 		ldr	r1, [r4], #4
 2968              	.LVL346:
 2969              		.loc 1 2238 0
 2970 0196 CBB2     		uxtb	r3, r1
 2971 0198 AE2B     		cmp	r3, #174
 2972 019a 01F2D580 		bhi	.L241
 2973 019e 01A0     		adr	r0, .L411
 2974 01a0 50F823F0 		ldr	pc, [r0, r3, lsl #2]
 2975              		.align	2
 2976              	.L411:
 2977 01a4 8F010000 		.word	.L240+1
 2978 01a8 61040000 		.word	.L242+1
 2979 01ac 6B040000 		.word	.L243+1
 2980 01b0 73040000 		.word	.L244+1
 2981 01b4 81040000 		.word	.L245+1
 2982 01b8 8D040000 		.word	.L246+1
 2983 01bc 9B040000 		.word	.L247+1
 2984 01c0 A7040000 		.word	.L248+1
 2985 01c4 C3040000 		.word	.L249+1
 2986 01c8 FD040000 		.word	.L250+1
 2987 01cc 05050000 		.word	.L251+1
 2988 01d0 0B050000 		.word	.L252+1
 2989 01d4 15050000 		.word	.L253+1
 2990 01d8 1D050000 		.word	.L254+1
 2991 01dc 27050000 		.word	.L255+1
 2992 01e0 35050000 		.word	.L256+1
 2993 01e4 43050000 		.word	.L257+1
 2994 01e8 5D050000 		.word	.L258+1
 2995 01ec 97050000 		.word	.L259+1
 2996 01f0 AF050000 		.word	.L260+1
 2997 01f4 F9050000 		.word	.L261+1
 2998 01f8 3D060000 		.word	.L262+1
 2999 01fc 45060000 		.word	.L263+1
 3000 0200 51060000 		.word	.L264+1
 3001 0204 5B060000 		.word	.L265+1
 3002 0208 69060000 		.word	.L266+1
 3003 020c 75060000 		.word	.L267+1
 3004 0210 7F060000 		.word	.L268+1
 3005 0214 8D060000 		.word	.L269+1
 3006 0218 AD060000 		.word	.L270+1
 3007 021c CD060000 		.word	.L271+1
 3008 0220 E3060000 		.word	.L272+1
 3009 0224 05070000 		.word	.L273+1
 3010 0228 31070000 		.word	.L274+1
 3011 022c 49070000 		.word	.L275+1
 3012 0230 51070000 		.word	.L276+1
 3013 0234 61070000 		.word	.L277+1
 3014 0238 71070000 		.word	.L278+1
 3015 023c 79070000 		.word	.L279+1
 3016 0240 81070000 		.word	.L280+1
 3017 0244 89070000 		.word	.L281+1
ARM GAS  /tmp/ccSqa4tb.s 			page 54


 3018 0248 97070000 		.word	.L282+1
 3019 024c 9F070000 		.word	.L283+1
 3020 0250 A7070000 		.word	.L284+1
 3021 0254 CF070000 		.word	.L285+1
 3022 0258 D7070000 		.word	.L286+1
 3023 025c DF070000 		.word	.L287+1
 3024 0260 E7070000 		.word	.L288+1
 3025 0264 EF070000 		.word	.L289+1
 3026 0268 F7070000 		.word	.L290+1
 3027 026c 05080000 		.word	.L291+1
 3028 0270 0D080000 		.word	.L292+1
 3029 0274 15080000 		.word	.L293+1
 3030 0278 23080000 		.word	.L294+1
 3031 027c 2F080000 		.word	.L295+1
 3032 0280 3D080000 		.word	.L296+1
 3033 0284 4B080000 		.word	.L297+1
 3034 0288 59080000 		.word	.L298+1
 3035 028c 67080000 		.word	.L299+1
 3036 0290 6F080000 		.word	.L300+1
 3037 0294 73080000 		.word	.L301+1
 3038 0298 7D080000 		.word	.L302+1
 3039 029c 85080000 		.word	.L303+1
 3040 02a0 89080000 		.word	.L304+1
 3041 02a4 93080000 		.word	.L305+1
 3042 02a8 EB080000 		.word	.L306+1
 3043 02ac 45090000 		.word	.L307+1
 3044 02b0 81090000 		.word	.L308+1
 3045 02b4 BF090000 		.word	.L309+1
 3046 02b8 CF090000 		.word	.L310+1
 3047 02bc F9090000 		.word	.L311+1
 3048 02c0 290A0000 		.word	.L312+1
 3049 02c4 390A0000 		.word	.L313+1
 3050 02c8 470A0000 		.word	.L314+1
 3051 02cc 49130000 		.word	.L241+1
 3052 02d0 49130000 		.word	.L241+1
 3053 02d4 49130000 		.word	.L241+1
 3054 02d8 890A0000 		.word	.L315+1
 3055 02dc BB0A0000 		.word	.L316+1
 3056 02e0 FF0A0000 		.word	.L317+1
 3057 02e4 49130000 		.word	.L241+1
 3058 02e8 470B0000 		.word	.L318+1
 3059 02ec 690B0000 		.word	.L319+1
 3060 02f0 910B0000 		.word	.L320+1
 3061 02f4 9D0B0000 		.word	.L321+1
 3062 02f8 AF0B0000 		.word	.L322+1
 3063 02fc BF0B0000 		.word	.L323+1
 3064 0300 D10B0000 		.word	.L324+1
 3065 0304 E70B0000 		.word	.L325+1
 3066 0308 F90B0000 		.word	.L326+1
 3067 030c 0B0C0000 		.word	.L327+1
 3068 0310 230C0000 		.word	.L328+1
 3069 0314 390C0000 		.word	.L329+1
 3070 0318 4F0C0000 		.word	.L330+1
 3071 031c 650C0000 		.word	.L331+1
 3072 0320 7B0C0000 		.word	.L332+1
 3073 0324 910C0000 		.word	.L333+1
 3074 0328 A70C0000 		.word	.L334+1
ARM GAS  /tmp/ccSqa4tb.s 			page 55


 3075 032c BD0C0000 		.word	.L335+1
 3076 0330 FD0C0000 		.word	.L336+1
 3077 0334 070D0000 		.word	.L337+1
 3078 0338 150D0000 		.word	.L338+1
 3079 033c 230D0000 		.word	.L339+1
 3080 0340 85010000 		.word	.L554+1
 3081 0344 2B0D0000 		.word	.L340+1
 3082 0348 370D0000 		.word	.L341+1
 3083 034c 470D0000 		.word	.L342+1
 3084 0350 5B0D0000 		.word	.L343+1
 3085 0354 6D0D0000 		.word	.L344+1
 3086 0358 7B0D0000 		.word	.L345+1
 3087 035c 8B0D0000 		.word	.L346+1
 3088 0360 990D0000 		.word	.L347+1
 3089 0364 A90D0000 		.word	.L348+1
 3090 0368 1D0E0000 		.word	.L349+1
 3091 036c 450E0000 		.word	.L350+1
 3092 0370 6F0E0000 		.word	.L351+1
 3093 0374 A10E0000 		.word	.L352+1
 3094 0378 CB0E0000 		.word	.L353+1
 3095 037c F50E0000 		.word	.L354+1
 3096 0380 290F0000 		.word	.L355+1
 3097 0384 550F0000 		.word	.L356+1
 3098 0388 670F0000 		.word	.L357+1
 3099 038c 810F0000 		.word	.L358+1
 3100 0390 8F0F0000 		.word	.L359+1
 3101 0394 A10F0000 		.word	.L360+1
 3102 0398 AB0F0000 		.word	.L361+1
 3103 039c B30F0000 		.word	.L362+1
 3104 03a0 C10F0000 		.word	.L363+1
 3105 03a4 CD0F0000 		.word	.L364+1
 3106 03a8 DB0F0000 		.word	.L365+1
 3107 03ac E70F0000 		.word	.L366+1
 3108 03b0 ED0F0000 		.word	.L367+1
 3109 03b4 F50F0000 		.word	.L368+1
 3110 03b8 FB0F0000 		.word	.L369+1
 3111 03bc 05100000 		.word	.L370+1
 3112 03c0 0D100000 		.word	.L371+1
 3113 03c4 17100000 		.word	.L372+1
 3114 03c8 25100000 		.word	.L373+1
 3115 03cc 33100000 		.word	.L374+1
 3116 03d0 39100000 		.word	.L375+1
 3117 03d4 71100000 		.word	.L376+1
 3118 03d8 81100000 		.word	.L377+1
 3119 03dc 99100000 		.word	.L378+1
 3120 03e0 A7100000 		.word	.L379+1
 3121 03e4 B7100000 		.word	.L380+1
 3122 03e8 CB100000 		.word	.L381+1
 3123 03ec DB100000 		.word	.L382+1
 3124 03f0 EB100000 		.word	.L383+1
 3125 03f4 01110000 		.word	.L384+1
 3126 03f8 63110000 		.word	.L385+1
 3127 03fc 15110000 		.word	.L386+1
 3128 0400 39110000 		.word	.L387+1
 3129 0404 85110000 		.word	.L388+1
 3130 0408 A9110000 		.word	.L389+1
 3131 040c CD110000 		.word	.L390+1
ARM GAS  /tmp/ccSqa4tb.s 			page 56


 3132 0410 F9110000 		.word	.L391+1
 3133 0414 1F120000 		.word	.L392+1
 3134 0418 3F120000 		.word	.L393+1
 3135 041c 5F120000 		.word	.L394+1
 3136 0420 6D120000 		.word	.L395+1
 3137 0424 75120000 		.word	.L396+1
 3138 0428 81120000 		.word	.L397+1
 3139 042c 8D120000 		.word	.L398+1
 3140 0430 97120000 		.word	.L399+1
 3141 0434 A5120000 		.word	.L400+1
 3142 0438 B7120000 		.word	.L401+1
 3143 043c C7120000 		.word	.L402+1
 3144 0440 D3120000 		.word	.L403+1
 3145 0444 E1120000 		.word	.L404+1
 3146 0448 ED120000 		.word	.L405+1
 3147 044c FB120000 		.word	.L406+1
 3148 0450 01130000 		.word	.L407+1
 3149 0454 07130000 		.word	.L408+1
 3150 0458 0D130000 		.word	.L409+1
 3151 045c 23130000 		.word	.L410+1
 3152              	.L242:
 3153              		.loc 1 2243 0
 3154 0460 5368     		ldr	r3, [r2, #4]
 3155              	.LVL347:
 3156 0462 0434     		adds	r4, r4, #4
 3157              	.LVL348:
 3158              		.loc 1 2244 0
 3159 0464 F358     		ldr	r3, [r6, r3]
 3160 0466 0793     		str	r3, [sp, #28]
 3161              		.loc 1 2245 0
 3162 0468 91E6     		b	.L240
 3163              	.LVL349:
 3164              	.L243:
 3165              		.loc 1 2247 0
 3166 046a 5368     		ldr	r3, [r2, #4]
 3167              	.LVL350:
 3168 046c 0434     		adds	r4, r4, #4
 3169              	.LVL351:
 3170              		.loc 1 2248 0
 3171 046e F758     		ldr	r7, [r6, r3]
 3172              	.LVL352:
 3173              		.loc 1 2249 0
 3174 0470 8DE6     		b	.L240
 3175              	.LVL353:
 3176              	.L244:
 3177              		.loc 1 2251 0
 3178 0472 5368     		ldr	r3, [r2, #4]
 3179              	.LVL354:
 3180              		.loc 1 2252 0
 3181 0474 06EB0A02 		add	r2, r6, sl
 3182              	.LVL355:
 3183 0478 D358     		ldr	r3, [r2, r3]
 3184              	.LVL356:
 3185              		.loc 1 2251 0
 3186 047a 0434     		adds	r4, r4, #4
 3187              	.LVL357:
 3188              		.loc 1 2252 0
ARM GAS  /tmp/ccSqa4tb.s 			page 57


 3189 047c 0793     		str	r3, [sp, #28]
 3190              		.loc 1 2253 0
 3191 047e 86E6     		b	.L240
 3192              	.LVL358:
 3193              	.L245:
 3194              		.loc 1 2255 0
 3195 0480 5368     		ldr	r3, [r2, #4]
 3196              	.LVL359:
 3197              		.loc 1 2256 0
 3198 0482 06EB0A02 		add	r2, r6, sl
 3199              		.loc 1 2255 0
 3200 0486 0434     		adds	r4, r4, #4
 3201              	.LVL360:
 3202              		.loc 1 2256 0
 3203 0488 D758     		ldr	r7, [r2, r3]
 3204              	.LVL361:
 3205              		.loc 1 2257 0
 3206 048a 80E6     		b	.L240
 3207              	.LVL362:
 3208              	.L246:
 3209              		.loc 1 2259 0
 3210 048c 5368     		ldr	r3, [r2, #4]
 3211              	.LVL363:
 3212 048e 0434     		adds	r4, r4, #4
 3213              	.LVL364:
 3214              		.loc 1 2260 0
 3215 0490 5344     		add	r3, r3, sl
 3216              	.LVL365:
 3217              		.loc 1 2261 0
 3218 0492 F358     		ldr	r3, [r6, r3]
 3219              	.LVL366:
 3220 0494 F358     		ldr	r3, [r6, r3]
 3221              	.LVL367:
 3222 0496 0793     		str	r3, [sp, #28]
 3223              		.loc 1 2262 0
 3224 0498 79E6     		b	.L240
 3225              	.LVL368:
 3226              	.L247:
 3227              		.loc 1 2264 0
 3228 049a 5368     		ldr	r3, [r2, #4]
 3229              	.LVL369:
 3230 049c 0434     		adds	r4, r4, #4
 3231              	.LVL370:
 3232              		.loc 1 2265 0
 3233 049e 5344     		add	r3, r3, sl
 3234              	.LVL371:
 3235              		.loc 1 2266 0
 3236 04a0 F358     		ldr	r3, [r6, r3]
 3237              	.LVL372:
 3238 04a2 F758     		ldr	r7, [r6, r3]
 3239              	.LVL373:
 3240              		.loc 1 2267 0
 3241 04a4 73E6     		b	.L240
 3242              	.LVL374:
 3243              	.L248:
 3244              		.loc 1 2270 0
 3245 04a6 079B     		ldr	r3, [sp, #28]
ARM GAS  /tmp/ccSqa4tb.s 			page 58


 3246 04a8 5B45     		cmp	r3, fp
 3247 04aa 02DB     		blt	.L412
 3248              		.loc 1 2270 0 is_stmt 0 discriminator 1
 3249 04ac 4345     		cmp	r3, r8
 3250 04ae C0F2D085 		blt	.L530
 3251              	.L412:
 3252              		.loc 1 2270 0 discriminator 2
 3253 04b2 D9F82C20 		ldr	r2, [r9, #44]	@ unaligned
 3254 04b6 9342     		cmp	r3, r2
 3255 04b8 80F0CB85 		bcs	.L530
 3256              	.L414:
 3257              		.loc 1 2272 0 is_stmt 1
 3258 04bc F358     		ldr	r3, [r6, r3]
 3259 04be 0793     		str	r3, [sp, #28]
 3260              		.loc 1 2273 0
 3261 04c0 65E6     		b	.L240
 3262              	.L249:
 3263              		.loc 1 2275 0
 3264 04c2 5168     		ldr	r1, [r2, #4]
 3265              	.LVL375:
 3266 04c4 0434     		adds	r4, r4, #4
 3267              	.LVL376:
 3268              	.L415:
 3269              		.loc 1 2278 0
 3270 04c6 079B     		ldr	r3, [sp, #28]
 3271 04c8 5B45     		cmp	r3, fp
 3272 04ca 02DB     		blt	.L416
 3273              		.loc 1 2278 0 is_stmt 0 discriminator 1
 3274 04cc 4345     		cmp	r3, r8
 3275 04ce C0F2C085 		blt	.L530
 3276              	.L416:
 3277              		.loc 1 2278 0 discriminator 2
 3278 04d2 D9F82C20 		ldr	r2, [r9, #44]	@ unaligned
 3279              	.LVL377:
 3280 04d6 9342     		cmp	r3, r2
 3281 04d8 80F0BB85 		bcs	.L530
 3282              	.L418:
 3283              		.loc 1 2280 0 is_stmt 1
 3284 04dc 0229     		cmp	r1, #2
 3285 04de 07D0     		beq	.L420
 3286 04e0 0429     		cmp	r1, #4
 3287 04e2 08D0     		beq	.L421
 3288 04e4 0129     		cmp	r1, #1
 3289 04e6 7FF452AE 		bne	.L240
 3290              		.loc 1 2282 0
 3291 04ea F35C     		ldrb	r3, [r6, r3]	@ zero_extendqisi2
 3292 04ec 0793     		str	r3, [sp, #28]
 3293              		.loc 1 2283 0
 3294 04ee 4EE6     		b	.L240
 3295              	.L420:
 3296              		.loc 1 2285 0
 3297 04f0 F35A     		ldrh	r3, [r6, r3]
 3298 04f2 0793     		str	r3, [sp, #28]
 3299              		.loc 1 2286 0
 3300 04f4 4BE6     		b	.L240
 3301              	.L421:
 3302              		.loc 1 2288 0
ARM GAS  /tmp/ccSqa4tb.s 			page 59


 3303 04f6 F358     		ldr	r3, [r6, r3]
 3304 04f8 0793     		str	r3, [sp, #28]
 3305              		.loc 1 2289 0
 3306 04fa 48E6     		b	.L240
 3307              	.LVL378:
 3308              	.L250:
 3309              		.loc 1 2293 0
 3310 04fc 5368     		ldr	r3, [r2, #4]
 3311 04fe 0434     		adds	r4, r4, #4
 3312              	.LVL379:
 3313 0500 0793     		str	r3, [sp, #28]
 3314              		.loc 1 2294 0
 3315 0502 44E6     		b	.L240
 3316              	.L251:
 3317              		.loc 1 2296 0
 3318 0504 5768     		ldr	r7, [r2, #4]
 3319              	.LVL380:
 3320 0506 0434     		adds	r4, r4, #4
 3321              	.LVL381:
 3322              		.loc 1 2297 0
 3323 0508 41E6     		b	.L240
 3324              	.LVL382:
 3325              	.L252:
 3326              		.loc 1 2299 0
 3327 050a 5368     		ldr	r3, [r2, #4]
 3328 050c 0434     		adds	r4, r4, #4
 3329              	.LVL383:
 3330              		.loc 1 2300 0
 3331 050e 5344     		add	r3, r3, sl
 3332 0510 0793     		str	r3, [sp, #28]
 3333              		.loc 1 2301 0
 3334 0512 3CE6     		b	.L240
 3335              	.L253:
 3336              		.loc 1 2303 0
 3337 0514 5768     		ldr	r7, [r2, #4]
 3338              	.LVL384:
 3339 0516 0434     		adds	r4, r4, #4
 3340              	.LVL385:
 3341              		.loc 1 2304 0
 3342 0518 5744     		add	r7, r7, sl
 3343              	.LVL386:
 3344              		.loc 1 2305 0
 3345 051a 38E6     		b	.L240
 3346              	.L254:
 3347              		.loc 1 2307 0
 3348 051c 5368     		ldr	r3, [r2, #4]
 3349              	.LVL387:
 3350              		.loc 1 2308 0
 3351 051e 079A     		ldr	r2, [sp, #28]
 3352              	.LVL388:
 3353              		.loc 1 2307 0
 3354 0520 0434     		adds	r4, r4, #4
 3355              	.LVL389:
 3356              		.loc 1 2308 0
 3357 0522 F250     		str	r2, [r6, r3]
 3358              		.loc 1 2309 0
 3359 0524 33E6     		b	.L240
ARM GAS  /tmp/ccSqa4tb.s 			page 60


 3360              	.LVL390:
 3361              	.L255:
 3362              		.loc 1 2311 0
 3363 0526 5368     		ldr	r3, [r2, #4]
 3364              	.LVL391:
 3365              		.loc 1 2312 0
 3366 0528 0799     		ldr	r1, [sp, #28]
 3367              	.LVL392:
 3368 052a 06EB0A02 		add	r2, r6, sl
 3369              		.loc 1 2311 0
 3370 052e 0434     		adds	r4, r4, #4
 3371              	.LVL393:
 3372              		.loc 1 2312 0
 3373 0530 D150     		str	r1, [r2, r3]
 3374              		.loc 1 2313 0
 3375 0532 2CE6     		b	.L240
 3376              	.LVL394:
 3377              	.L256:
 3378              		.loc 1 2315 0
 3379 0534 5368     		ldr	r3, [r2, #4]
 3380              	.LVL395:
 3381              		.loc 1 2317 0
 3382 0536 079A     		ldr	r2, [sp, #28]
 3383              		.loc 1 2316 0
 3384 0538 5344     		add	r3, r3, sl
 3385              		.loc 1 2317 0
 3386 053a F358     		ldr	r3, [r6, r3]
 3387              		.loc 1 2315 0
 3388 053c 0434     		adds	r4, r4, #4
 3389              	.LVL396:
 3390              		.loc 1 2317 0
 3391 053e F250     		str	r2, [r6, r3]
 3392              		.loc 1 2318 0
 3393 0540 25E6     		b	.L240
 3394              	.LVL397:
 3395              	.L257:
 3396              		.loc 1 2321 0
 3397 0542 5F45     		cmp	r7, fp
 3398 0544 02DB     		blt	.L422
 3399              		.loc 1 2321 0 is_stmt 0 discriminator 1
 3400 0546 4745     		cmp	r7, r8
 3401 0548 C0F28385 		blt	.L530
 3402              	.L422:
 3403              		.loc 1 2321 0 discriminator 2
 3404 054c D9F82C30 		ldr	r3, [r9, #44]	@ unaligned
 3405 0550 9F42     		cmp	r7, r3
 3406 0552 80F07E85 		bcs	.L530
 3407              	.L424:
 3408              		.loc 1 2323 0 is_stmt 1
 3409 0556 079B     		ldr	r3, [sp, #28]
 3410 0558 F351     		str	r3, [r6, r7]
 3411              		.loc 1 2324 0
 3412 055a 18E6     		b	.L240
 3413              	.L258:
 3414              		.loc 1 2326 0
 3415 055c 5168     		ldr	r1, [r2, #4]
 3416              	.LVL398:
ARM GAS  /tmp/ccSqa4tb.s 			page 61


 3417 055e 0434     		adds	r4, r4, #4
 3418              	.LVL399:
 3419              	.L425:
 3420              		.loc 1 2329 0
 3421 0560 5F45     		cmp	r7, fp
 3422 0562 02DB     		blt	.L426
 3423              		.loc 1 2329 0 is_stmt 0 discriminator 1
 3424 0564 4745     		cmp	r7, r8
 3425 0566 C0F27485 		blt	.L530
 3426              	.L426:
 3427              		.loc 1 2329 0 discriminator 2
 3428 056a D9F82C30 		ldr	r3, [r9, #44]	@ unaligned
 3429 056e 9F42     		cmp	r7, r3
 3430 0570 80F06F85 		bcs	.L530
 3431              	.L428:
 3432              		.loc 1 2331 0 is_stmt 1
 3433 0574 0229     		cmp	r1, #2
 3434 0576 07D0     		beq	.L430
 3435 0578 0429     		cmp	r1, #4
 3436 057a 09D0     		beq	.L431
 3437 057c 0129     		cmp	r1, #1
 3438 057e 7FF406AE 		bne	.L240
 3439              		.loc 1 2333 0
 3440 0582 079B     		ldr	r3, [sp, #28]
 3441 0584 F355     		strb	r3, [r6, r7]
 3442              		.loc 1 2334 0
 3443 0586 02E6     		b	.L240
 3444              	.L430:
 3445              		.loc 1 2336 0
 3446 0588 BDF81C10 		ldrh	r1, [sp, #28]
 3447              	.LVL400:
 3448 058c F153     		strh	r1, [r6, r7]	@ movhi
 3449              		.loc 1 2337 0
 3450 058e FEE5     		b	.L240
 3451              	.LVL401:
 3452              	.L431:
 3453              		.loc 1 2339 0
 3454 0590 079B     		ldr	r3, [sp, #28]
 3455 0592 F351     		str	r3, [r6, r7]
 3456              		.loc 1 2340 0
 3457 0594 FBE5     		b	.L240
 3458              	.LVL402:
 3459              	.L259:
 3460              		.loc 1 2344 0
 3461 0596 5368     		ldr	r3, [r2, #4]
 3462              	.LVL403:
 3463 0598 0434     		adds	r4, r4, #4
 3464              	.LVL404:
 3465              		.loc 1 2346 0
 3466 059a 032B     		cmp	r3, #3
 3467 059c 3FF6F7AD 		bhi	.L240
 3468              		.loc 1 2347 0
 3469 05a0 079A     		ldr	r2, [sp, #28]
 3470              	.LVL405:
 3471 05a2 C3F10403 		rsb	r3, r3, #4
 3472              	.LVL406:
 3473 05a6 82EA0303 		eor	r3, r2, r3
ARM GAS  /tmp/ccSqa4tb.s 			page 62


 3474 05aa 0793     		str	r3, [sp, #28]
 3475 05ac EFE5     		b	.L240
 3476              	.LVL407:
 3477              	.L260:
 3478              		.loc 1 2351 0
 3479 05ae 5368     		ldr	r3, [r2, #4]
 3480              	.LVL408:
 3481 05b0 0434     		adds	r4, r4, #4
 3482              	.LVL409:
 3483              		.loc 1 2352 0
 3484 05b2 062B     		cmp	r3, #6
 3485 05b4 3FF6EBAD 		bhi	.L240
 3486 05b8 DFE803F0 		tbb	[pc, r3]
 3487              	.L439:
 3488 05bc 04       		.byte	(.L432-.L439)/2
 3489 05bd 08       		.byte	(.L433-.L439)/2
 3490 05be 0C       		.byte	(.L434-.L439)/2
 3491 05bf 0F       		.byte	(.L435-.L439)/2
 3492 05c0 13       		.byte	(.L436-.L439)/2
 3493 05c1 16       		.byte	(.L437-.L439)/2
 3494 05c2 19       		.byte	(.L438-.L439)/2
 3495 05c3 00       		.align	1
 3496              	.L432:
 3497              		.loc 1 2354 0
 3498 05c4 0398     		ldr	r0, [sp, #12]
 3499 05c6 C368     		ldr	r3, [r0, #12]	@ unaligned
 3500 05c8 0793     		str	r3, [sp, #28]
 3501              		.loc 1 2355 0
 3502 05ca E0E5     		b	.L240
 3503              	.L433:
 3504              		.loc 1 2357 0
 3505 05cc 0399     		ldr	r1, [sp, #12]
 3506 05ce 0B69     		ldr	r3, [r1, #16]	@ unaligned
 3507 05d0 0793     		str	r3, [sp, #28]
 3508              		.loc 1 2358 0
 3509 05d2 DCE5     		b	.L240
 3510              	.L434:
 3511              		.loc 1 2360 0
 3512 05d4 CDF81CB0 		str	fp, [sp, #28]
 3513              		.loc 1 2361 0
 3514 05d8 D9E5     		b	.L240
 3515              	.L435:
 3516              		.loc 1 2363 0
 3517 05da D9F82C30 		ldr	r3, [r9, #44]	@ unaligned
 3518 05de 0793     		str	r3, [sp, #28]
 3519              		.loc 1 2364 0
 3520 05e0 D5E5     		b	.L240
 3521              	.L436:
 3522              		.loc 1 2366 0
 3523 05e2 CDF81C80 		str	r8, [sp, #28]
 3524              		.loc 1 2367 0
 3525 05e6 D2E5     		b	.L240
 3526              	.L437:
 3527              		.loc 1 2369 0
 3528 05e8 CDF81CA0 		str	sl, [sp, #28]
 3529              		.loc 1 2370 0
 3530 05ec CFE5     		b	.L240
ARM GAS  /tmp/ccSqa4tb.s 			page 63


 3531              	.L438:
 3532              		.loc 1 2372 0
 3533 05ee D9F80430 		ldr	r3, [r9, #4]	@ unaligned
 3534 05f2 E31A     		subs	r3, r4, r3
 3535 05f4 0793     		str	r3, [sp, #28]
 3536              		.loc 1 2373 0
 3537 05f6 CAE5     		b	.L240
 3538              	.LVL410:
 3539              	.L261:
 3540              		.loc 1 2377 0
 3541 05f8 5368     		ldr	r3, [r2, #4]
 3542              	.LVL411:
 3543 05fa 0434     		adds	r4, r4, #4
 3544              	.LVL412:
 3545              		.loc 1 2378 0
 3546 05fc 023B     		subs	r3, r3, #2
 3547 05fe 042B     		cmp	r3, #4
 3548 0600 3FF6C5AD 		bhi	.L240
 3549 0604 01A2     		adr	r2, .L444
 3550 0606 52F823F0 		ldr	pc, [r2, r3, lsl #2]
 3551 060a 00BF     		.align	2
 3552              	.L444:
 3553 060c 21060000 		.word	.L440+1
 3554 0610 8F010000 		.word	.L240+1
 3555 0614 27060000 		.word	.L441+1
 3556 0618 2D060000 		.word	.L442+1
 3557 061c 33060000 		.word	.L443+1
 3558              	.L440:
 3559              		.loc 1 2385 0
 3560 0620 DDF81CB0 		ldr	fp, [sp, #28]
 3561              	.LVL413:
 3562              		.loc 1 2386 0
 3563 0624 B3E5     		b	.L240
 3564              	.LVL414:
 3565              	.L441:
 3566              		.loc 1 2388 0
 3567 0626 DDF81C80 		ldr	r8, [sp, #28]
 3568              	.LVL415:
 3569              		.loc 1 2389 0
 3570 062a B0E5     		b	.L240
 3571              	.LVL416:
 3572              	.L442:
 3573              		.loc 1 2391 0
 3574 062c DDF81CA0 		ldr	sl, [sp, #28]
 3575              	.LVL417:
 3576              		.loc 1 2392 0
 3577 0630 ADE5     		b	.L240
 3578              	.LVL418:
 3579              	.L443:
 3580              		.loc 1 2394 0
 3581 0632 D9F80440 		ldr	r4, [r9, #4]	@ unaligned
 3582              	.LVL419:
 3583 0636 079B     		ldr	r3, [sp, #28]
 3584              	.LVL420:
 3585 0638 E418     		adds	r4, r4, r3
 3586              	.LVL421:
 3587              		.loc 1 2395 0
ARM GAS  /tmp/ccSqa4tb.s 			page 64


 3588 063a A8E5     		b	.L240
 3589              	.L262:
 3590              		.loc 1 2399 0
 3591 063c 079B     		ldr	r3, [sp, #28]
 3592              	.LVL422:
 3593              		.loc 1 2400 0
 3594 063e 0797     		str	r7, [sp, #28]
 3595              	.LVL423:
 3596              		.loc 1 2401 0
 3597 0640 1F46     		mov	r7, r3
 3598              		.loc 1 2402 0
 3599 0642 A4E5     		b	.L240
 3600              	.LVL424:
 3601              	.L263:
 3602              		.loc 1 2404 0
 3603 0644 079B     		ldr	r3, [sp, #28]
 3604 0646 A8F10408 		sub	r8, r8, #4
 3605              	.LVL425:
 3606 064a 46F80830 		str	r3, [r6, r8]
 3607              		.loc 1 2405 0
 3608 064e 9EE5     		b	.L240
 3609              	.L264:
 3610              		.loc 1 2407 0
 3611 0650 A8F10408 		sub	r8, r8, #4
 3612              	.LVL426:
 3613 0654 46F80870 		str	r7, [r6, r8]
 3614              		.loc 1 2408 0
 3615 0658 99E5     		b	.L240
 3616              	.L265:
 3617              		.loc 1 2410 0
 3618 065a 079B     		ldr	r3, [sp, #28]
 3619 065c A8F10408 		sub	r8, r8, #4
 3620              	.LVL427:
 3621 0660 F318     		adds	r3, r6, r3
 3622 0662 46F80830 		str	r3, [r6, r8]
 3623              		.loc 1 2411 0
 3624 0666 92E5     		b	.L240
 3625              	.L266:
 3626              		.loc 1 2413 0
 3627 0668 56F80830 		ldr	r3, [r6, r8]
 3628 066c 08F10408 		add	r8, r8, #4
 3629              	.LVL428:
 3630 0670 0793     		str	r3, [sp, #28]
 3631              		.loc 1 2414 0
 3632 0672 8CE5     		b	.L240
 3633              	.L267:
 3634              		.loc 1 2416 0
 3635 0674 56F80870 		ldr	r7, [r6, r8]
 3636              	.LVL429:
 3637 0678 08F10408 		add	r8, r8, #4
 3638              	.LVL430:
 3639              		.loc 1 2417 0
 3640 067c 87E5     		b	.L240
 3641              	.LVL431:
 3642              	.L268:
 3643              		.loc 1 2419 0
 3644 067e 5368     		ldr	r3, [r2, #4]
ARM GAS  /tmp/ccSqa4tb.s 			page 65


 3645              	.LVL432:
 3646              		.loc 1 2420 0
 3647 0680 06EB0802 		add	r2, r6, r8
 3648              	.LVL433:
 3649 0684 D358     		ldr	r3, [r2, r3]
 3650              		.loc 1 2419 0
 3651 0686 0434     		adds	r4, r4, #4
 3652              	.LVL434:
 3653              		.loc 1 2420 0
 3654 0688 0793     		str	r3, [sp, #28]
 3655              		.loc 1 2421 0
 3656 068a 80E5     		b	.L240
 3657              	.LVL435:
 3658              	.L269:
 3659              		.loc 1 2425 0
 3660 068c 5368     		ldr	r3, [r2, #4]
 3661              		.loc 1 2426 0
 3662 068e 0BF13F02 		add	r2, fp, #63
 3663              		.loc 1 2425 0
 3664 0692 4344     		add	r3, r8, r3
 3665              	.LVL436:
 3666              		.loc 1 2426 0
 3667 0694 9A42     		cmp	r2, r3
 3668 0696 80F26A86 		bge	.L564
 3669              		.loc 1 2427 0
 3670 069a D9F82C20 		ldr	r2, [r9, #44]	@ unaligned
 3671 069e 9342     		cmp	r3, r2
 3672 06a0 00F36386 		bgt	.L563
 3673              		.loc 1 2423 0
 3674 06a4 4746     		mov	r7, r8
 3675 06a6 0434     		adds	r4, r4, #4
 3676              	.LVL437:
 3677 06a8 9846     		mov	r8, r3
 3678              	.LVL438:
 3679 06aa 70E5     		b	.L240
 3680              	.LVL439:
 3681              	.L270:
 3682              		.loc 1 2432 0
 3683 06ac 5368     		ldr	r3, [r2, #4]
 3684 06ae 5B44     		add	r3, fp, r3
 3685              	.LVL440:
 3686              		.loc 1 2433 0
 3687 06b0 03F13F02 		add	r2, r3, #63
 3688              	.LVL441:
 3689 06b4 4245     		cmp	r2, r8
 3690 06b6 80F25A86 		bge	.L564
 3691              		.loc 1 2434 0
 3692 06ba D9F82420 		ldr	r2, [r9, #36]	@ unaligned
 3693 06be 9342     		cmp	r3, r2
 3694 06c0 C0F25786 		blt	.L565
 3695              		.loc 1 2430 0
 3696 06c4 5F46     		mov	r7, fp
 3697 06c6 0434     		adds	r4, r4, #4
 3698              	.LVL442:
 3699 06c8 9B46     		mov	fp, r3
 3700              	.LVL443:
 3701 06ca 60E5     		b	.L240
ARM GAS  /tmp/ccSqa4tb.s 			page 66


 3702              	.LVL444:
 3703              	.L271:
 3704              		.loc 1 2437 0
 3705 06cc A8F10408 		sub	r8, r8, #4
 3706              	.LVL445:
 3707              		.loc 1 2439 0
 3708 06d0 0BF13F03 		add	r3, fp, #63
 3709 06d4 4345     		cmp	r3, r8
 3710              		.loc 1 2437 0
 3711 06d6 46F808A0 		str	sl, [r6, r8]
 3712              	.LVL446:
 3713              		.loc 1 2439 0
 3714 06da 80F24886 		bge	.L564
 3715 06de C246     		mov	sl, r8
 3716 06e0 55E5     		b	.L240
 3717              	.LVL447:
 3718              	.L272:
 3719              		.loc 1 2442 0
 3720 06e2 56F808A0 		ldr	sl, [r6, r8]
 3721              	.LVL448:
 3722 06e6 08F10408 		add	r8, r8, #4
 3723              	.LVL449:
 3724              		.loc 1 2443 0
 3725 06ea 56F80830 		ldr	r3, [r6, r8]
 3726              	.LVL450:
 3727              		.loc 1 2445 0
 3728 06ee D9F87420 		ldr	r2, [r9, #116]	@ unaligned
 3729 06f2 9342     		cmp	r3, r2
 3730 06f4 80F2AD84 		bge	.L530
 3731              	.L445:
 3732              		.loc 1 2447 0
 3733 06f8 D9F80440 		ldr	r4, [r9, #4]	@ unaligned
 3734              	.LVL451:
 3735              		.loc 1 2443 0
 3736 06fc 08F10408 		add	r8, r8, #4
 3737              	.LVL452:
 3738              		.loc 1 2447 0
 3739 0700 E418     		adds	r4, r4, r3
 3740              	.LVL453:
 3741              		.loc 1 2448 0
 3742 0702 44E5     		b	.L240
 3743              	.LVL454:
 3744              	.L273:
 3745              		.loc 1 2450 0
 3746 0704 56F808A0 		ldr	sl, [r6, r8]
 3747              	.LVL455:
 3748 0708 08F10408 		add	r8, r8, #4
 3749              	.LVL456:
 3750              		.loc 1 2451 0
 3751 070c 56F80820 		ldr	r2, [r6, r8]
 3752              	.LVL457:
 3753              		.loc 1 2453 0
 3754 0710 D9F87430 		ldr	r3, [r9, #116]	@ unaligned
 3755 0714 9A42     		cmp	r2, r3
 3756 0716 80F29C84 		bge	.L530
 3757              	.L446:
 3758              		.loc 1 2451 0
ARM GAS  /tmp/ccSqa4tb.s 			page 67


 3759 071a 08F10403 		add	r3, r8, #4
 3760              		.loc 1 2455 0
 3761 071e D9F80440 		ldr	r4, [r9, #4]	@ unaligned
 3762              	.LVL458:
 3763              		.loc 1 2456 0
 3764 0722 F358     		ldr	r3, [r6, r3]
 3765              		.loc 1 2455 0
 3766 0724 A418     		adds	r4, r4, r2
 3767              	.LVL459:
 3768              		.loc 1 2456 0
 3769 0726 08F10802 		add	r2, r8, #8
 3770 072a 02EB0308 		add	r8, r2, r3
 3771              	.LVL460:
 3772              		.loc 1 2457 0
 3773 072e 2EE5     		b	.L240
 3774              	.LVL461:
 3775              	.L274:
 3776              		.loc 1 2459 0
 3777 0730 D9F80430 		ldr	r3, [r9, #4]	@ unaligned
 3778 0734 A8F10408 		sub	r8, r8, #4
 3779              	.LVL462:
 3780 0738 E31A     		subs	r3, r4, r3
 3781 073a 0433     		adds	r3, r3, #4
 3782 073c 46F80830 		str	r3, [r6, r8]
 3783              		.loc 1 2460 0
 3784 0740 5368     		ldr	r3, [r2, #4]
 3785 0742 E418     		adds	r4, r4, r3
 3786              	.LVL463:
 3787 0744 043C     		subs	r4, r4, #4
 3788              	.LVL464:
 3789              		.loc 1 2461 0
 3790 0746 22E5     		b	.L240
 3791              	.L275:
 3792              		.loc 1 2465 0
 3793 0748 5368     		ldr	r3, [r2, #4]
 3794 074a E418     		adds	r4, r4, r3
 3795              	.LVL465:
 3796 074c 043C     		subs	r4, r4, #4
 3797              	.LVL466:
 3798              		.loc 1 2466 0
 3799 074e 1EE5     		b	.L240
 3800              	.L276:
 3801              		.loc 1 2468 0
 3802 0750 079B     		ldr	r3, [sp, #28]
 3803 0752 1BB9     		cbnz	r3, .L447
 3804              		.loc 1 2469 0
 3805 0754 2368     		ldr	r3, [r4, #0]
 3806 0756 E418     		adds	r4, r4, r3
 3807              	.LVL467:
 3808 0758 043C     		subs	r4, r4, #4
 3809              	.LVL468:
 3810 075a 18E5     		b	.L240
 3811              	.L447:
 3812              		.loc 1 2471 0
 3813 075c 0434     		adds	r4, r4, #4
 3814              	.LVL469:
 3815 075e 16E5     		b	.L240
ARM GAS  /tmp/ccSqa4tb.s 			page 68


 3816              	.L277:
 3817              		.loc 1 2474 0
 3818 0760 079B     		ldr	r3, [sp, #28]
 3819 0762 1BB1     		cbz	r3, .L448
 3820              		.loc 1 2475 0
 3821 0764 2368     		ldr	r3, [r4, #0]
 3822 0766 E418     		adds	r4, r4, r3
 3823              	.LVL470:
 3824 0768 043C     		subs	r4, r4, #4
 3825              	.LVL471:
 3826 076a 10E5     		b	.L240
 3827              	.L448:
 3828              		.loc 1 2477 0
 3829 076c 0434     		adds	r4, r4, #4
 3830              	.LVL472:
 3831 076e 0EE5     		b	.L240
 3832              	.L278:
 3833              		.loc 1 2480 0
 3834 0770 079B     		ldr	r3, [sp, #28]
 3835 0772 BB40     		lsls	r3, r3, r7
 3836 0774 0793     		str	r3, [sp, #28]
 3837              		.loc 1 2481 0
 3838 0776 0AE5     		b	.L240
 3839              	.L279:
 3840              		.loc 1 2483 0
 3841 0778 079B     		ldr	r3, [sp, #28]
 3842 077a FB40     		lsrs	r3, r3, r7
 3843 077c 0793     		str	r3, [sp, #28]
 3844              		.loc 1 2484 0
 3845 077e 06E5     		b	.L240
 3846              	.L280:
 3847              		.loc 1 2486 0
 3848 0780 079B     		ldr	r3, [sp, #28]
 3849 0782 3B41     		asrs	r3, r3, r7
 3850 0784 0793     		str	r3, [sp, #28]
 3851              		.loc 1 2487 0
 3852 0786 02E5     		b	.L240
 3853              	.L281:
 3854              		.loc 1 2489 0
 3855 0788 5368     		ldr	r3, [r2, #4]
 3856              	.LVL473:
 3857              		.loc 1 2490 0
 3858 078a 079A     		ldr	r2, [sp, #28]
 3859              	.LVL474:
 3860              		.loc 1 2489 0
 3861 078c 0434     		adds	r4, r4, #4
 3862              	.LVL475:
 3863              		.loc 1 2490 0
 3864 078e 12FA03F3 		lsls	r3, r2, r3
 3865 0792 0793     		str	r3, [sp, #28]
 3866              		.loc 1 2491 0
 3867 0794 FBE4     		b	.L240
 3868              	.LVL476:
 3869              	.L282:
 3870              		.loc 1 2493 0
 3871 0796 5368     		ldr	r3, [r2, #4]
 3872              	.LVL477:
ARM GAS  /tmp/ccSqa4tb.s 			page 69


 3873 0798 0434     		adds	r4, r4, #4
 3874              	.LVL478:
 3875              		.loc 1 2494 0
 3876 079a 9F40     		lsls	r7, r7, r3
 3877              	.LVL479:
 3878              		.loc 1 2495 0
 3879 079c F7E4     		b	.L240
 3880              	.LVL480:
 3881              	.L283:
 3882              		.loc 1 2497 0
 3883 079e 079B     		ldr	r3, [sp, #28]
 3884 07a0 7B43     		muls	r3, r7, r3
 3885 07a2 0793     		str	r3, [sp, #28]
 3886              		.loc 1 2498 0
 3887 07a4 F3E4     		b	.L240
 3888              	.L284:
 3889              		.loc 1 2500 0
 3890 07a6 079B     		ldr	r3, [sp, #28]
 3891 07a8 002B     		cmp	r3, #0
 3892 07aa 00F08882 		beq	.L573
 3893              	.L449:
 3894              	.LVL481:
 3895              		.loc 1 2505 0
 3896 07ae 97FBF3F2 		sdiv	r2, r7, r3
 3897              	.LVL482:
 3898              		.loc 1 2506 0
 3899 07b2 03FB1277 		mls	r7, r3, r2, r7
 3900              	.LVL483:
 3901              		.loc 1 2505 0
 3902 07b6 0792     		str	r2, [sp, #28]
 3903              		.loc 1 2515 0
 3904 07b8 002F     		cmp	r7, #0
 3905 07ba 3FF4E8AC 		beq	.L240
 3906              		.loc 1 2515 0 is_stmt 0 discriminator 1
 3907 07be 97EA030F 		teq	r7, r3
 3908 07c2 7FF5E4AC 		bpl	.L240
 3909              		.loc 1 2516 0 is_stmt 1
 3910 07c6 013A     		subs	r2, r2, #1
 3911              	.LVL484:
 3912 07c8 0792     		str	r2, [sp, #28]
 3913              	.LVL485:
 3914              		.loc 1 2517 0
 3915 07ca FF18     		adds	r7, r7, r3
 3916              	.LVL486:
 3917 07cc DFE4     		b	.L240
 3918              	.LVL487:
 3919              	.L285:
 3920              		.loc 1 2521 0
 3921 07ce 079B     		ldr	r3, [sp, #28]
 3922 07d0 DB19     		adds	r3, r3, r7
 3923 07d2 0793     		str	r3, [sp, #28]
 3924              		.loc 1 2522 0
 3925 07d4 DBE4     		b	.L240
 3926              	.L286:
 3927              		.loc 1 2524 0
 3928 07d6 079B     		ldr	r3, [sp, #28]
 3929 07d8 FB1A     		subs	r3, r7, r3
ARM GAS  /tmp/ccSqa4tb.s 			page 70


 3930 07da 0793     		str	r3, [sp, #28]
 3931              		.loc 1 2525 0
 3932 07dc D7E4     		b	.L240
 3933              	.L287:
 3934              		.loc 1 2527 0
 3935 07de 079B     		ldr	r3, [sp, #28]
 3936 07e0 3B40     		ands	r3, r3, r7
 3937 07e2 0793     		str	r3, [sp, #28]
 3938              		.loc 1 2528 0
 3939 07e4 D3E4     		b	.L240
 3940              	.L288:
 3941              		.loc 1 2530 0
 3942 07e6 079B     		ldr	r3, [sp, #28]
 3943 07e8 3B43     		orrs	r3, r3, r7
 3944 07ea 0793     		str	r3, [sp, #28]
 3945              		.loc 1 2531 0
 3946 07ec CFE4     		b	.L240
 3947              	.L289:
 3948              		.loc 1 2533 0
 3949 07ee 079B     		ldr	r3, [sp, #28]
 3950 07f0 7B40     		eors	r3, r3, r7
 3951 07f2 0793     		str	r3, [sp, #28]
 3952              		.loc 1 2534 0
 3953 07f4 CBE4     		b	.L240
 3954              	.L290:
 3955              		.loc 1 2536 0
 3956 07f6 079B     		ldr	r3, [sp, #28]
 3957 07f8 D3F10103 		rsbs	r3, r3, #1
 3958 07fc 38BF     		it	cc
 3959 07fe 0023     		movcc	r3, #0
 3960 0800 0793     		str	r3, [sp, #28]
 3961              		.loc 1 2537 0
 3962 0802 C4E4     		b	.L240
 3963              	.L291:
 3964              		.loc 1 2539 0
 3965 0804 079B     		ldr	r3, [sp, #28]
 3966 0806 5B42     		negs	r3, r3
 3967 0808 0793     		str	r3, [sp, #28]
 3968              		.loc 1 2540 0
 3969 080a C0E4     		b	.L240
 3970              	.L292:
 3971              		.loc 1 2542 0
 3972 080c 079B     		ldr	r3, [sp, #28]
 3973 080e DB43     		mvns	r3, r3
 3974 0810 0793     		str	r3, [sp, #28]
 3975              		.loc 1 2543 0
 3976 0812 BCE4     		b	.L240
 3977              	.L293:
 3978              		.loc 1 2545 0
 3979 0814 079B     		ldr	r3, [sp, #28]
 3980 0816 D81B     		subs	r0, r3, r7
 3981 0818 4342     		rsbs	r3, r0, #0
 3982 081a 43EB0003 		adc	r3, r3, r0
 3983 081e 0793     		str	r3, [sp, #28]
 3984              		.loc 1 2546 0
 3985 0820 B5E4     		b	.L240
 3986              	.L294:
ARM GAS  /tmp/ccSqa4tb.s 			page 71


 3987              		.loc 1 2548 0
 3988 0822 079B     		ldr	r3, [sp, #28]
 3989 0824 DB1B     		subs	r3, r3, r7
 3990 0826 18BF     		it	ne
 3991 0828 0123     		movne	r3, #1
 3992 082a 0793     		str	r3, [sp, #28]
 3993              		.loc 1 2549 0
 3994 082c AFE4     		b	.L240
 3995              	.L295:
 3996              		.loc 1 2551 0
 3997 082e 079B     		ldr	r3, [sp, #28]
 3998 0830 BB42     		cmp	r3, r7
 3999 0832 ACBF     		ite	ge
 4000 0834 0023     		movge	r3, #0
 4001 0836 0123     		movlt	r3, #1
 4002 0838 0793     		str	r3, [sp, #28]
 4003              		.loc 1 2552 0
 4004 083a A8E4     		b	.L240
 4005              	.L296:
 4006              		.loc 1 2554 0
 4007 083c 079B     		ldr	r3, [sp, #28]
 4008 083e BB42     		cmp	r3, r7
 4009 0840 CCBF     		ite	gt
 4010 0842 0023     		movgt	r3, #0
 4011 0844 0123     		movle	r3, #1
 4012 0846 0793     		str	r3, [sp, #28]
 4013              		.loc 1 2555 0
 4014 0848 A1E4     		b	.L240
 4015              	.L297:
 4016              		.loc 1 2557 0
 4017 084a 079B     		ldr	r3, [sp, #28]
 4018 084c BB42     		cmp	r3, r7
 4019 084e D4BF     		ite	le
 4020 0850 0023     		movle	r3, #0
 4021 0852 0123     		movgt	r3, #1
 4022 0854 0793     		str	r3, [sp, #28]
 4023              		.loc 1 2558 0
 4024 0856 9AE4     		b	.L240
 4025              	.L298:
 4026              		.loc 1 2560 0
 4027 0858 079B     		ldr	r3, [sp, #28]
 4028 085a BB42     		cmp	r3, r7
 4029 085c B4BF     		ite	lt
 4030 085e 0023     		movlt	r3, #0
 4031 0860 0123     		movge	r3, #1
 4032 0862 0793     		str	r3, [sp, #28]
 4033              		.loc 1 2561 0
 4034 0864 93E4     		b	.L240
 4035              	.L299:
 4036              		.loc 1 2563 0
 4037 0866 079B     		ldr	r3, [sp, #28]
 4038 0868 0133     		adds	r3, r3, #1
 4039 086a 0793     		str	r3, [sp, #28]
 4040              		.loc 1 2564 0
 4041 086c 8FE4     		b	.L240
 4042              	.L300:
 4043              		.loc 1 2566 0
ARM GAS  /tmp/ccSqa4tb.s 			page 72


 4044 086e 0137     		adds	r7, r7, #1
 4045              	.LVL488:
 4046              		.loc 1 2567 0
 4047 0870 8DE4     		b	.L240
 4048              	.L301:
 4049              		.loc 1 2570 0
 4050 0872 079B     		ldr	r3, [sp, #28]
 4051 0874 F258     		ldr	r2, [r6, r3]
 4052 0876 0132     		adds	r2, r2, #1
 4053 0878 F250     		str	r2, [r6, r3]
 4054              		.loc 1 2575 0
 4055 087a 88E4     		b	.L240
 4056              	.L302:
 4057              		.loc 1 2577 0
 4058 087c 079B     		ldr	r3, [sp, #28]
 4059 087e 013B     		subs	r3, r3, #1
 4060 0880 0793     		str	r3, [sp, #28]
 4061              		.loc 1 2578 0
 4062 0882 84E4     		b	.L240
 4063              	.L303:
 4064              		.loc 1 2580 0
 4065 0884 013F     		subs	r7, r7, #1
 4066              	.LVL489:
 4067              		.loc 1 2581 0
 4068 0886 82E4     		b	.L240
 4069              	.L304:
 4070              		.loc 1 2584 0
 4071 0888 079B     		ldr	r3, [sp, #28]
 4072 088a F258     		ldr	r2, [r6, r3]
 4073 088c 013A     		subs	r2, r2, #1
 4074 088e F250     		str	r2, [r6, r3]
 4075              		.loc 1 2589 0
 4076 0890 7DE4     		b	.L240
 4077              	.L305:
 4078              		.loc 1 2591 0
 4079 0892 5268     		ldr	r2, [r2, #4]
 4080              	.LVL490:
 4081 0894 0434     		adds	r4, r4, #4
 4082              	.LVL491:
 4083              	.L450:
 4084              		.loc 1 2596 0
 4085 0896 0799     		ldr	r1, [sp, #28]
 4086              	.LVL492:
 4087 0898 5945     		cmp	r1, fp
 4088 089a 02DB     		blt	.L451
 4089              		.loc 1 2596 0 is_stmt 0 discriminator 1
 4090 089c 4145     		cmp	r1, r8
 4091 089e C0F2D883 		blt	.L530
 4092              	.L451:
 4093              		.loc 1 2596 0 discriminator 2
 4094 08a2 D9F82C30 		ldr	r3, [r9, #44]	@ unaligned
 4095 08a6 9942     		cmp	r1, r3
 4096 08a8 80F0D383 		bcs	.L530
 4097              	.L453:
 4098              		.loc 1 2598 0 is_stmt 1
 4099 08ac 5018     		adds	r0, r2, r1
 4100 08ae 5845     		cmp	r0, fp
ARM GAS  /tmp/ccSqa4tb.s 			page 73


 4101 08b0 02DD     		ble	.L454
 4102              		.loc 1 2598 0 is_stmt 0 discriminator 1
 4103 08b2 4045     		cmp	r0, r8
 4104 08b4 C0F2CD83 		blt	.L530
 4105              	.L454:
 4106              		.loc 1 2598 0 discriminator 2
 4107 08b8 9842     		cmp	r0, r3
 4108 08ba 00F2CA83 		bhi	.L530
 4109              	.L456:
 4110              		.loc 1 2600 0 is_stmt 1
 4111 08be 5F45     		cmp	r7, fp
 4112 08c0 02DB     		blt	.L457
 4113              		.loc 1 2600 0 is_stmt 0 discriminator 1
 4114 08c2 4745     		cmp	r7, r8
 4115 08c4 C0F2C583 		blt	.L530
 4116              	.L457:
 4117              		.loc 1 2600 0 discriminator 2
 4118 08c8 9F42     		cmp	r7, r3
 4119 08ca 80F0C283 		bcs	.L530
 4120              	.L459:
 4121              		.loc 1 2602 0 is_stmt 1
 4122 08ce D019     		adds	r0, r2, r7
 4123 08d0 5845     		cmp	r0, fp
 4124 08d2 02DD     		ble	.L460
 4125              		.loc 1 2602 0 is_stmt 0 discriminator 1
 4126 08d4 4045     		cmp	r0, r8
 4127 08d6 C0F2BC83 		blt	.L530
 4128              	.L460:
 4129              		.loc 1 2602 0 discriminator 2
 4130 08da 9842     		cmp	r0, r3
 4131 08dc 00F2B983 		bhi	.L530
 4132              	.L462:
 4133              		.loc 1 2605 0 is_stmt 1
 4134 08e0 F019     		adds	r0, r6, r7
 4135 08e2 7118     		adds	r1, r6, r1
 4136 08e4 FFF7FEFF 		bl	memcpy
 4137              	.LVL493:
 4138              		.loc 1 2616 0
 4139 08e8 51E4     		b	.L240
 4140              	.LVL494:
 4141              	.L306:
 4142              		.loc 1 2618 0
 4143 08ea 5268     		ldr	r2, [r2, #4]
 4144              	.LVL495:
 4145 08ec 0434     		adds	r4, r4, #4
 4146              	.LVL496:
 4147              	.L463:
 4148              		.loc 1 2623 0
 4149 08ee 0799     		ldr	r1, [sp, #28]
 4150              	.LVL497:
 4151 08f0 5945     		cmp	r1, fp
 4152 08f2 02DB     		blt	.L464
 4153              		.loc 1 2623 0 is_stmt 0 discriminator 1
 4154 08f4 4145     		cmp	r1, r8
 4155 08f6 C0F2AC83 		blt	.L530
 4156              	.L464:
 4157              		.loc 1 2623 0 discriminator 2
ARM GAS  /tmp/ccSqa4tb.s 			page 74


 4158 08fa D9F82C30 		ldr	r3, [r9, #44]	@ unaligned
 4159 08fe 9942     		cmp	r1, r3
 4160 0900 80F0A783 		bcs	.L530
 4161              	.L466:
 4162              		.loc 1 2625 0 is_stmt 1
 4163 0904 5018     		adds	r0, r2, r1
 4164 0906 5845     		cmp	r0, fp
 4165 0908 02DD     		ble	.L467
 4166              		.loc 1 2625 0 is_stmt 0 discriminator 1
 4167 090a 4045     		cmp	r0, r8
 4168 090c C0F2A183 		blt	.L530
 4169              	.L467:
 4170              		.loc 1 2625 0 discriminator 2
 4171 0910 9842     		cmp	r0, r3
 4172 0912 00F29E83 		bhi	.L530
 4173              	.L469:
 4174              		.loc 1 2627 0 is_stmt 1
 4175 0916 5F45     		cmp	r7, fp
 4176 0918 02DB     		blt	.L470
 4177              		.loc 1 2627 0 is_stmt 0 discriminator 1
 4178 091a 4745     		cmp	r7, r8
 4179 091c C0F29983 		blt	.L530
 4180              	.L470:
 4181              		.loc 1 2627 0 discriminator 2
 4182 0920 9F42     		cmp	r7, r3
 4183 0922 80F09683 		bcs	.L530
 4184              	.L472:
 4185              		.loc 1 2629 0 is_stmt 1
 4186 0926 D019     		adds	r0, r2, r7
 4187 0928 5845     		cmp	r0, fp
 4188 092a 02DD     		ble	.L473
 4189              		.loc 1 2629 0 is_stmt 0 discriminator 1
 4190 092c 4045     		cmp	r0, r8
 4191 092e C0F29083 		blt	.L530
 4192              	.L473:
 4193              		.loc 1 2629 0 discriminator 2
 4194 0932 9842     		cmp	r0, r3
 4195 0934 00F28D83 		bhi	.L530
 4196              	.L475:
 4197              		.loc 1 2632 0 is_stmt 1
 4198 0938 F019     		adds	r0, r6, r7
 4199 093a 7118     		adds	r1, r6, r1
 4200 093c FFF7FEFF 		bl	memcmp
 4201              	.LVL498:
 4202 0940 0790     		str	r0, [sp, #28]
 4203              		.loc 1 2640 0
 4204 0942 24E4     		b	.L240
 4205              	.LVL499:
 4206              	.L307:
 4207              		.loc 1 2642 0
 4208 0944 5168     		ldr	r1, [r2, #4]
 4209              	.LVL500:
 4210 0946 0434     		adds	r4, r4, #4
 4211              	.LVL501:
 4212              	.L476:
 4213              		.loc 1 2645 0
 4214 0948 5F45     		cmp	r7, fp
ARM GAS  /tmp/ccSqa4tb.s 			page 75


 4215 094a 02DB     		blt	.L477
 4216              		.loc 1 2645 0 is_stmt 0 discriminator 1
 4217 094c 4745     		cmp	r7, r8
 4218 094e C0F28083 		blt	.L530
 4219              	.L477:
 4220              		.loc 1 2645 0 discriminator 2
 4221 0952 D9F82C20 		ldr	r2, [r9, #44]	@ unaligned
 4222              	.LVL502:
 4223 0956 9742     		cmp	r7, r2
 4224 0958 80F07B83 		bcs	.L530
 4225              	.L479:
 4226              		.loc 1 2647 0 is_stmt 1
 4227 095c CB19     		adds	r3, r1, r7
 4228 095e 5B45     		cmp	r3, fp
 4229 0960 02DD     		ble	.L480
 4230              		.loc 1 2647 0 is_stmt 0 discriminator 1
 4231 0962 4345     		cmp	r3, r8
 4232 0964 C0F27583 		blt	.L530
 4233              	.L480:
 4234              		.loc 1 2647 0 discriminator 2
 4235 0968 9342     		cmp	r3, r2
 4236 096a 00F27283 		bhi	.L530
 4237              		.loc 1 2647 0 discriminator 1
 4238 096e 3B46     		mov	r3, r7
 4239 0970 03E0     		b	.L482
 4240              	.LVL503:
 4241              	.L483:
 4242              		.loc 1 2650 0 is_stmt 1 discriminator 2
 4243 0972 079A     		ldr	r2, [sp, #28]
 4244              		.loc 1 2064 0 discriminator 2
 4245 0974 0439     		subs	r1, r1, #4
 4246              	.LVL504:
 4247              		.loc 1 2650 0 discriminator 2
 4248 0976 F250     		str	r2, [r6, r3]
 4249              		.loc 1 2064 0 discriminator 2
 4250 0978 0433     		adds	r3, r3, #4
 4251              	.LVL505:
 4252              	.L482:
 4253              		.loc 1 2649 0 discriminator 1
 4254 097a 0329     		cmp	r1, #3
 4255 097c F9D8     		bhi	.L483
 4256 097e 06E4     		b	.L240
 4257              	.LVL506:
 4258              	.L308:
 4259 0980 CDF810B0 		str	fp, [sp, #16]
 4260 0984 DDF808C0 		ldr	ip, [sp, #8]
 4261 0988 DDF804B0 		ldr	fp, [sp, #4]
 4262              	.LVL507:
 4263              		.loc 1 2653 0
 4264 098c 54F8040B 		ldr	r0, [r4], #4
 4265              	.LVL508:
 4266 0990 4D46     		mov	r5, r9
 4267 0992 B946     		mov	r9, r7
 4268              	.LVL509:
 4269              	.L484:
 4270              		.loc 1 2655 0
 4271 0994 059E     		ldr	r6, [sp, #20]
ARM GAS  /tmp/ccSqa4tb.s 			page 76


 4272              	.LVL510:
 4273 0996 079B     		ldr	r3, [sp, #28]
 4274 0998 06B1     		cbz	r6, .L485
 4275              		.loc 1 2656 0
 4276 099a 3360     		str	r3, [r6, #0]
 4277              	.L485:
 4278              		.loc 1 2659 0
 4279 099c EB65     		str	r3, [r5, #92]	@ unaligned
 4280              		.loc 1 2661 0
 4281 099e 6B68     		ldr	r3, [r5, #4]	@ unaligned
 4282              		.loc 1 2662 0
 4283 09a0 0C28     		cmp	r0, #12
 4284              		.loc 1 2661 0
 4285 09a2 C3EB0404 		rsb	r4, r3, r4
 4286              	.LVL511:
 4287              		.loc 1 2658 0
 4288 09a6 C5F81CA0 		str	sl, [r5, #28]	@ unaligned
 4289              		.loc 1 2660 0
 4290 09aa C5F86090 		str	r9, [r5, #96]	@ unaligned
 4291              		.loc 1 2661 0
 4292 09ae AC61     		str	r4, [r5, #24]	@ unaligned
 4293              		.loc 1 2662 0
 4294 09b0 40F02F82 		bne	.L514
 4295              		.loc 1 2663 0
 4296 09b4 C5F82880 		str	r8, [r5, #40]	@ unaligned
 4297              		.loc 1 2664 0
 4298 09b8 0499     		ldr	r1, [sp, #16]
 4299              	.LVL512:
 4300 09ba 2962     		str	r1, [r5, #32]	@ unaligned
 4301 09bc 24E2     		b	.L571
 4302              	.LVL513:
 4303              	.L309:
 4304              		.loc 1 2671 0
 4305 09be 5368     		ldr	r3, [r2, #4]
 4306              	.LVL514:
 4307              		.loc 1 2672 0
 4308 09c0 079A     		ldr	r2, [sp, #28]
 4309              	.LVL515:
 4310              		.loc 1 2671 0
 4311 09c2 0434     		adds	r4, r4, #4
 4312              	.LVL516:
 4313              		.loc 1 2672 0
 4314 09c4 9A42     		cmp	r2, r3
 4315 09c6 7FF6E2AB 		bls	.L240
 4316 09ca 00F0AFBC 		b	.L572
 4317              	.LVL517:
 4318              	.L310:
 4319              		.loc 1 2680 0
 4320 09ce D9F80430 		ldr	r3, [r9, #4]	@ unaligned
 4321              		.loc 1 2678 0
 4322 09d2 0434     		adds	r4, r4, #4
 4323              	.LVL518:
 4324              		.loc 1 2680 0
 4325 09d4 E31A     		subs	r3, r4, r3
 4326              		.loc 1 2678 0
 4327 09d6 5168     		ldr	r1, [r2, #4]
 4328              	.LVL519:
ARM GAS  /tmp/ccSqa4tb.s 			page 77


 4329              		.loc 1 2684 0
 4330 09d8 D9F80C50 		ldr	r5, [r9, #12]	@ unaligned
 4331              		.loc 1 2680 0
 4332 09dc C9F81830 		str	r3, [r9, #24]	@ unaligned
 4333              		.loc 1 2681 0
 4334 09e0 C9F820B0 		str	fp, [r9, #32]	@ unaligned
 4335              		.loc 1 2682 0
 4336 09e4 C9F81CA0 		str	sl, [r9, #28]	@ unaligned
 4337              		.loc 1 2683 0
 4338 09e8 C9F82880 		str	r8, [r9, #40]	@ unaligned
 4339              		.loc 1 2684 0
 4340 09ec 4846     		mov	r0, r9
 4341 09ee 07AA     		add	r2, sp, #28
 4342 09f0 06EB0803 		add	r3, r6, r8
 4343 09f4 A847     		blx	r5
 4344              	.LVL520:
 4345 09f6 38E0     		b	.L581
 4346              	.LVL521:
 4347              	.L311:
 4348              	.LBB21:
 4349              		.loc 1 2697 0
 4350 09f8 5268     		ldr	r2, [r2, #4]
 4351              		.loc 1 2701 0
 4352 09fa 0798     		ldr	r0, [sp, #28]
 4353              		.loc 1 2697 0
 4354 09fc A318     		adds	r3, r4, r2
 4355              	.LVL522:
 4356              		.loc 1 2699 0
 4357 09fe 191D     		adds	r1, r3, #4
 4358              	.LVL523:
 4359 0a00 D3F804C0 		ldr	ip, [r3, #4]
 4360              	.LVL524:
 4361              		.loc 1 2700 0
 4362 0a04 A258     		ldr	r2, [r4, r2]
 4363              	.LVL525:
 4364              		.loc 1 2701 0
 4365 0a06 01E0     		b	.L488
 4366              	.LVL526:
 4367              	.L490:
 4368              		.loc 1 2701 0 is_stmt 0 discriminator 1
 4369 0a08 013A     		subs	r2, r2, #1
 4370              	.LVL527:
 4371 0a0a 2B46     		mov	r3, r5
 4372              	.LVL528:
 4373              	.L488:
 4374 0a0c 002A     		cmp	r2, #0
 4375              		.loc 1 2064 0 is_stmt 1 discriminator 1
 4376 0a0e 03F10805 		add	r5, r3, #8
 4377              	.LVL529:
 4378              		.loc 1 2701 0 discriminator 1
 4379 0a12 04DC     		bgt	.L489
 4380              		.loc 1 2699 0
 4381 0a14 01EB0C04 		add	r4, r1, ip
 4382 0a18 043C     		subs	r4, r4, #4
 4383 0a1a FFF7B8BB 		b	.L240
 4384              	.L489:
 4385              		.loc 1 2701 0 discriminator 2
ARM GAS  /tmp/ccSqa4tb.s 			page 78


 4386 0a1e 9C68     		ldr	r4, [r3, #8]
 4387 0a20 8442     		cmp	r4, r0
 4388 0a22 F1D1     		bne	.L490
 4389 0a24 00F0A9BC 		b	.L582
 4390              	.LVL530:
 4391              	.L312:
 4392              	.LBE21:
 4393              		.loc 1 2708 0
 4394 0a28 56F80830 		ldr	r3, [r6, r8]
 4395              	.LVL531:
 4396              		.loc 1 2709 0
 4397 0a2c 079A     		ldr	r2, [sp, #28]
 4398 0a2e 46F80820 		str	r2, [r6, r8]
 4399              		.loc 1 2710 0
 4400 0a32 0793     		str	r3, [sp, #28]
 4401              		.loc 1 2711 0
 4402 0a34 FFF7ABBB 		b	.L240
 4403              	.LVL532:
 4404              	.L313:
 4405              		.loc 1 2713 0
 4406 0a38 56F80830 		ldr	r3, [r6, r8]
 4407              	.LVL533:
 4408              		.loc 1 2714 0
 4409 0a3c 46F80870 		str	r7, [r6, r8]
 4410              	.LVL534:
 4411              		.loc 1 2715 0
 4412 0a40 1F46     		mov	r7, r3
 4413              		.loc 1 2716 0
 4414 0a42 FFF7A4BB 		b	.L240
 4415              	.LVL535:
 4416              	.L314:
 4417              		.loc 1 2719 0
 4418 0a46 D9F81030 		ldr	r3, [r9, #16]	@ unaligned
 4419 0a4a 002B     		cmp	r3, #0
 4420 0a4c 3FF49FAB 		beq	.L240
 4421              		.loc 1 2724 0
 4422 0a50 D9F80420 		ldr	r2, [r9, #4]	@ unaligned
 4423              		.loc 1 2721 0
 4424 0a54 C9F81CA0 		str	sl, [r9, #28]	@ unaligned
 4425              		.loc 1 2724 0
 4426 0a58 A21A     		subs	r2, r4, r2
 4427              		.loc 1 2722 0
 4428 0a5a C9F82880 		str	r8, [r9, #40]	@ unaligned
 4429              		.loc 1 2723 0
 4430 0a5e C9F820B0 		str	fp, [r9, #32]	@ unaligned
 4431              		.loc 1 2724 0
 4432 0a62 C9F81820 		str	r2, [r9, #24]	@ unaligned
 4433              		.loc 1 2725 0
 4434 0a66 4846     		mov	r0, r9
 4435 0a68 9847     		blx	r3
 4436              	.LVL536:
 4437              	.L581:
 4438              		.loc 1 2726 0
 4439 0a6a 0028     		cmp	r0, #0
 4440 0a6c 3FF48FAB 		beq	.L240
 4441              		.loc 1 2727 0
 4442 0a70 0C28     		cmp	r0, #12
ARM GAS  /tmp/ccSqa4tb.s 			page 79


 4443 0a72 DDF804B0 		ldr	fp, [sp, #4]
 4444              	.LVL537:
 4445 0a76 DDF808C0 		ldr	ip, [sp, #8]
 4446 0a7a 4D46     		mov	r5, r9
 4447 0a7c 40F0C981 		bne	.L514
 4448              		.loc 1 2728 0
 4449 0a80 079B     		ldr	r3, [sp, #28]
 4450              		.loc 1 2729 0
 4451 0a82 2F66     		str	r7, [r5, #96]	@ unaligned
 4452              		.loc 1 2728 0
 4453 0a84 EB65     		str	r3, [r5, #92]	@ unaligned
 4454 0a86 BFE1     		b	.L571
 4455              	.LVL538:
 4456              	.L315:
 4457              		.loc 1 2788 0
 4458 0a88 D9F80430 		ldr	r3, [r9, #4]	@ unaligned
 4459              		.loc 1 2790 0
 4460 0a8c A8F10408 		sub	r8, r8, #4
 4461              	.LVL539:
 4462              		.loc 1 2788 0
 4463 0a90 E41A     		subs	r4, r4, r3
 4464              	.LVL540:
 4465              		.loc 1 2790 0
 4466 0a92 D9F87030 		ldr	r3, [r9, #112]	@ unaligned
 4467              		.loc 1 2788 0
 4468 0a96 0434     		adds	r4, r4, #4
 4469              		.loc 1 2790 0
 4470 0a98 43EA0444 		orr	r4, r3, r4, lsl #16
 4471 0a9c 46F80840 		str	r4, [r6, r8]
 4472              		.loc 1 2791 0
 4473 0aa0 5168     		ldr	r1, [r2, #4]
 4474              	.LVL541:
 4475              		.loc 1 2793 0
 4476 0aa2 D9F81430 		ldr	r3, [r9, #20]	@ unaligned
 4477              		.loc 1 2791 0
 4478 0aa6 C9F87010 		str	r1, [r9, #112]	@ unaligned
 4479              		.loc 1 2793 0
 4480 0aaa 4846     		mov	r0, r9
 4481 0aac 9847     		blx	r3
 4482              	.LVL542:
 4483 0aae 0028     		cmp	r0, #0
 4484 0ab0 3FD1     		bne	.L577
 4485              	.L493:
 4486              		.loc 1 2795 0
 4487 0ab2 D9F80440 		ldr	r4, [r9, #4]	@ unaligned
 4488              	.LVL543:
 4489              		.loc 1 2796 0
 4490 0ab6 FFF76ABB 		b	.L240
 4491              	.LVL544:
 4492              	.L316:
 4493              		.loc 1 2799 0
 4494 0aba 56F808A0 		ldr	sl, [r6, r8]
 4495              	.LVL545:
 4496 0abe 08F10408 		add	r8, r8, #4
 4497              	.LVL546:
 4498              		.loc 1 2800 0
 4499 0ac2 56F80840 		ldr	r4, [r6, r8]
ARM GAS  /tmp/ccSqa4tb.s 			page 80


 4500              	.LVL547:
 4501              		.loc 1 2805 0
 4502 0ac6 D9F81430 		ldr	r3, [r9, #20]	@ unaligned
 4503              		.loc 1 2801 0
 4504 0aca A1B2     		uxth	r1, r4
 4505              	.LVL548:
 4506              		.loc 1 2800 0
 4507 0acc 08F10408 		add	r8, r8, #4
 4508              	.LVL549:
 4509              		.loc 1 2801 0
 4510 0ad0 C9F87010 		str	r1, [r9, #112]	@ unaligned
 4511              	.LVL550:
 4512              		.loc 1 2805 0
 4513 0ad4 4846     		mov	r0, r9
 4514              		.loc 1 2804 0
 4515 0ad6 56F80850 		ldr	r5, [r6, r8]
 4516              	.LVL551:
 4517              		.loc 1 2805 0
 4518 0ada 9847     		blx	r3
 4519              	.LVL552:
 4520              		.loc 1 2806 0
 4521 0adc 0028     		cmp	r0, #0
 4522 0ade 40F0B882 		bne	.L530
 4523              		.loc 1 2806 0 is_stmt 0 discriminator 1
 4524 0ae2 D9F87430 		ldr	r3, [r9, #116]	@ unaligned
 4525              		.loc 1 2802 0 is_stmt 1 discriminator 1
 4526 0ae6 240C     		lsrs	r4, r4, #16
 4527              	.LVL553:
 4528              		.loc 1 2806 0 discriminator 1
 4529 0ae8 9C42     		cmp	r4, r3
 4530 0aea 80F2B282 		bge	.L530
 4531              	.L495:
 4532              		.loc 1 2808 0
 4533 0aee D9F80430 		ldr	r3, [r9, #4]	@ unaligned
 4534              		.loc 1 2804 0
 4535 0af2 08F10408 		add	r8, r8, #4
 4536              	.LVL554:
 4537 0af6 A844     		add	r8, r8, r5
 4538              	.LVL555:
 4539              		.loc 1 2808 0
 4540 0af8 1C19     		adds	r4, r3, r4
 4541              	.LVL556:
 4542              		.loc 1 2809 0
 4543 0afa FFF748BB 		b	.L240
 4544              	.LVL557:
 4545              	.L317:
 4546              	.LBB22:
 4547              		.loc 1 2811 0
 4548 0afe 5268     		ldr	r2, [r2, #4]
 4549 0b00 A318     		adds	r3, r4, r2
 4550              	.LVL558:
 4551              		.loc 1 2813 0
 4552 0b02 5968     		ldr	r1, [r3, #4]
 4553              	.LVL559:
 4554 0b04 C9F87010 		str	r1, [r9, #112]	@ unaligned
 4555              		.loc 1 2814 0
 4556 0b08 A258     		ldr	r2, [r4, r2]
ARM GAS  /tmp/ccSqa4tb.s 			page 81


 4557              	.LVL560:
 4558              		.loc 1 2815 0
 4559 0b0a 0798     		ldr	r0, [sp, #28]
 4560 0b0c 01E0     		b	.L496
 4561              	.LVL561:
 4562              	.L498:
 4563              		.loc 1 2815 0 is_stmt 0 discriminator 1
 4564 0b0e 013A     		subs	r2, r2, #1
 4565              	.LVL562:
 4566 0b10 0B46     		mov	r3, r1
 4567              	.LVL563:
 4568              	.L496:
 4569 0b12 002A     		cmp	r2, #0
 4570              		.loc 1 2064 0 is_stmt 1 discriminator 1
 4571 0b14 03F10801 		add	r1, r3, #8
 4572              	.LVL564:
 4573              		.loc 1 2815 0 discriminator 1
 4574 0b18 04DD     		ble	.L497
 4575              		.loc 1 2815 0 is_stmt 0 discriminator 2
 4576 0b1a 9B68     		ldr	r3, [r3, #8]
 4577 0b1c 8342     		cmp	r3, r0
 4578 0b1e F6D1     		bne	.L498
 4579 0b20 00F030BC 		b	.L583
 4580              	.L497:
 4581              		.loc 1 2820 0 is_stmt 1
 4582 0b24 D9F81430 		ldr	r3, [r9, #20]	@ unaligned
 4583 0b28 4846     		mov	r0, r9
 4584 0b2a D9F87010 		ldr	r1, [r9, #112]	@ unaligned
 4585              	.LVL565:
 4586 0b2e 9847     		blx	r3
 4587              	.LVL566:
 4588 0b30 28B1     		cbz	r0, .L500
 4589              	.LVL567:
 4590              	.L577:
 4591 0b32 DDF804B0 		ldr	fp, [sp, #4]
 4592              	.LVL568:
 4593 0b36 DDF808C0 		ldr	ip, [sp, #8]
 4594 0b3a 4D46     		mov	r5, r9
 4595 0b3c 69E1     		b	.L514
 4596              	.LVL569:
 4597              	.L500:
 4598              		.loc 1 2822 0
 4599 0b3e D9F80440 		ldr	r4, [r9, #4]	@ unaligned
 4600              	.LVL570:
 4601              		.loc 1 2823 0
 4602 0b42 FFF724BB 		b	.L240
 4603              	.LVL571:
 4604              	.L318:
 4605              	.LBE22:
 4606              		.loc 1 2830 0
 4607 0b46 079B     		ldr	r3, [sp, #28]
 4608 0b48 07EB8303 		add	r3, r7, r3, lsl #2
 4609              	.LVL572:
 4610              		.loc 1 2832 0
 4611 0b4c 5B45     		cmp	r3, fp
 4612 0b4e 02DB     		blt	.L501
 4613              		.loc 1 2832 0 is_stmt 0 discriminator 1
ARM GAS  /tmp/ccSqa4tb.s 			page 82


 4614 0b50 4345     		cmp	r3, r8
 4615 0b52 C0F27E82 		blt	.L530
 4616              	.L501:
 4617              		.loc 1 2832 0 discriminator 2
 4618 0b56 D9F82C20 		ldr	r2, [r9, #44]	@ unaligned
 4619 0b5a 9342     		cmp	r3, r2
 4620 0b5c 80F07982 		bcs	.L530
 4621              	.L503:
 4622              		.loc 1 2834 0 is_stmt 1
 4623 0b60 F358     		ldr	r3, [r6, r3]
 4624              	.LVL573:
 4625 0b62 0793     		str	r3, [sp, #28]
 4626              		.loc 1 2835 0
 4627 0b64 FFF713BB 		b	.L240
 4628              	.L319:
 4629              	.LVL574:
 4630              		.loc 1 2838 0
 4631 0b68 5368     		ldr	r3, [r2, #4]
 4632 0b6a 079A     		ldr	r2, [sp, #28]
 4633 0b6c 12FA03F3 		lsls	r3, r2, r3
 4634 0b70 DB19     		adds	r3, r3, r7
 4635              	.LVL575:
 4636              		.loc 1 2840 0
 4637 0b72 5B45     		cmp	r3, fp
 4638 0b74 02DB     		blt	.L504
 4639              		.loc 1 2840 0 is_stmt 0 discriminator 1
 4640 0b76 4345     		cmp	r3, r8
 4641 0b78 C0F26B82 		blt	.L530
 4642              	.L504:
 4643              		.loc 1 2840 0 discriminator 2
 4644 0b7c D9F82C20 		ldr	r2, [r9, #44]	@ unaligned
 4645 0b80 9342     		cmp	r3, r2
 4646 0b82 80F06682 		bcs	.L530
 4647              	.L506:
 4648              		.loc 1 2842 0 is_stmt 1
 4649 0b86 F358     		ldr	r3, [r6, r3]
 4650              	.LVL576:
 4651              		.loc 1 2837 0
 4652 0b88 0434     		adds	r4, r4, #4
 4653              	.LVL577:
 4654              		.loc 1 2842 0
 4655 0b8a 0793     		str	r3, [sp, #28]
 4656              		.loc 1 2843 0
 4657 0b8c FFF7FFBA 		b	.L240
 4658              	.L320:
 4659              		.loc 1 2845 0
 4660 0b90 079B     		ldr	r3, [sp, #28]
 4661 0b92 07EB8303 		add	r3, r7, r3, lsl #2
 4662 0b96 0793     		str	r3, [sp, #28]
 4663              		.loc 1 2846 0
 4664 0b98 FFF7F9BA 		b	.L240
 4665              	.L321:
 4666              		.loc 1 2848 0
 4667 0b9c 5368     		ldr	r3, [r2, #4]
 4668              	.LVL578:
 4669              		.loc 1 2849 0
 4670 0b9e 079A     		ldr	r2, [sp, #28]
ARM GAS  /tmp/ccSqa4tb.s 			page 83


 4671              		.loc 1 2848 0
 4672 0ba0 0434     		adds	r4, r4, #4
 4673              	.LVL579:
 4674              		.loc 1 2849 0
 4675 0ba2 12FA03F3 		lsls	r3, r2, r3
 4676 0ba6 DB19     		adds	r3, r3, r7
 4677 0ba8 0793     		str	r3, [sp, #28]
 4678              		.loc 1 2850 0
 4679 0baa FFF7F0BA 		b	.L240
 4680              	.LVL580:
 4681              	.L322:
 4682              		.loc 1 2852 0
 4683 0bae 5368     		ldr	r3, [r2, #4]
 4684              	.LVL581:
 4685              		.loc 1 2853 0
 4686 0bb0 A8F10408 		sub	r8, r8, #4
 4687              	.LVL582:
 4688              		.loc 1 2852 0
 4689 0bb4 0434     		adds	r4, r4, #4
 4690              	.LVL583:
 4691              		.loc 1 2853 0
 4692 0bb6 46F80830 		str	r3, [r6, r8]
 4693              		.loc 1 2854 0
 4694 0bba FFF7E8BA 		b	.L240
 4695              	.LVL584:
 4696              	.L323:
 4697              		.loc 1 2856 0
 4698 0bbe 5368     		ldr	r3, [r2, #4]
 4699              	.LVL585:
 4700              		.loc 1 2857 0
 4701 0bc0 A8F10408 		sub	r8, r8, #4
 4702              	.LVL586:
 4703 0bc4 F358     		ldr	r3, [r6, r3]
 4704              		.loc 1 2856 0
 4705 0bc6 0434     		adds	r4, r4, #4
 4706              	.LVL587:
 4707              		.loc 1 2857 0
 4708 0bc8 46F80830 		str	r3, [r6, r8]
 4709              		.loc 1 2858 0
 4710 0bcc FFF7DFBA 		b	.L240
 4711              	.LVL588:
 4712              	.L324:
 4713              		.loc 1 2860 0
 4714 0bd0 5368     		ldr	r3, [r2, #4]
 4715              	.LVL589:
 4716              		.loc 1 2861 0
 4717 0bd2 06EB0A02 		add	r2, r6, sl
 4718 0bd6 D358     		ldr	r3, [r2, r3]
 4719 0bd8 A8F10408 		sub	r8, r8, #4
 4720              	.LVL590:
 4721              		.loc 1 2860 0
 4722 0bdc 0434     		adds	r4, r4, #4
 4723              	.LVL591:
 4724              		.loc 1 2861 0
 4725 0bde 46F80830 		str	r3, [r6, r8]
 4726              		.loc 1 2862 0
 4727 0be2 FFF7D4BA 		b	.L240
ARM GAS  /tmp/ccSqa4tb.s 			page 84


 4728              	.LVL592:
 4729              	.L325:
 4730              		.loc 1 2864 0
 4731 0be6 5368     		ldr	r3, [r2, #4]
 4732              	.LVL593:
 4733              		.loc 1 2865 0
 4734 0be8 A8F10408 		sub	r8, r8, #4
 4735              	.LVL594:
 4736 0bec 5344     		add	r3, r3, sl
 4737              		.loc 1 2864 0
 4738 0bee 0434     		adds	r4, r4, #4
 4739              	.LVL595:
 4740              		.loc 1 2865 0
 4741 0bf0 46F80830 		str	r3, [r6, r8]
 4742              		.loc 1 2866 0
 4743 0bf4 FFF7CBBA 		b	.L240
 4744              	.LVL596:
 4745              	.L326:
 4746              		.loc 1 2868 0
 4747 0bf8 5368     		ldr	r3, [r2, #4]
 4748              	.LVL597:
 4749              		.loc 1 2869 0
 4750 0bfa A8F10408 		sub	r8, r8, #4
 4751              	.LVL598:
 4752 0bfe F318     		adds	r3, r6, r3
 4753              		.loc 1 2868 0
 4754 0c00 0434     		adds	r4, r4, #4
 4755              	.LVL599:
 4756              		.loc 1 2869 0
 4757 0c02 46F80830 		str	r3, [r6, r8]
 4758              		.loc 1 2870 0
 4759 0c06 FFF7C2BA 		b	.L240
 4760              	.LVL600:
 4761              	.L327:
 4762              		.loc 1 2872 0
 4763 0c0a 5368     		ldr	r3, [r2, #4]
 4764              	.LVL601:
 4765              		.loc 1 2873 0
 4766 0c0c 06EB0A02 		add	r2, r6, sl
 4767 0c10 D358     		ldr	r3, [r2, r3]
 4768 0c12 A8F10408 		sub	r8, r8, #4
 4769              	.LVL602:
 4770 0c16 F318     		adds	r3, r6, r3
 4771              		.loc 1 2872 0
 4772 0c18 0434     		adds	r4, r4, #4
 4773              	.LVL603:
 4774              		.loc 1 2873 0
 4775 0c1a 46F80830 		str	r3, [r6, r8]
 4776              		.loc 1 2874 0
 4777 0c1e FFF7B6BA 		b	.L240
 4778              	.LVL604:
 4779              	.L328:
 4780              		.loc 1 2876 0
 4781 0c22 5368     		ldr	r3, [r2, #4]
 4782              	.LVL605:
 4783              		.loc 1 2877 0
 4784 0c24 06EB0A02 		add	r2, r6, sl
ARM GAS  /tmp/ccSqa4tb.s 			page 85


 4785 0c28 A8F10408 		sub	r8, r8, #4
 4786              	.LVL606:
 4787 0c2c D318     		adds	r3, r2, r3
 4788              		.loc 1 2876 0
 4789 0c2e 0434     		adds	r4, r4, #4
 4790              	.LVL607:
 4791              		.loc 1 2877 0
 4792 0c30 46F80830 		str	r3, [r6, r8]
 4793              		.loc 1 2878 0
 4794 0c34 FFF7ABBA 		b	.L240
 4795              	.LVL608:
 4796              	.L329:
 4797              		.loc 1 2880 0
 4798 0c38 079B     		ldr	r3, [sp, #28]
 4799 0c3a BB42     		cmp	r3, r7
 4800 0c3c 04D1     		bne	.L507
 4801              		.loc 1 2881 0
 4802 0c3e 2368     		ldr	r3, [r4, #0]
 4803 0c40 E418     		adds	r4, r4, r3
 4804              	.LVL609:
 4805 0c42 043C     		subs	r4, r4, #4
 4806              	.LVL610:
 4807 0c44 FFF7A3BA 		b	.L240
 4808              	.L507:
 4809              		.loc 1 2883 0
 4810 0c48 0434     		adds	r4, r4, #4
 4811              	.LVL611:
 4812 0c4a FFF7A0BA 		b	.L240
 4813              	.L330:
 4814              		.loc 1 2886 0
 4815 0c4e 079B     		ldr	r3, [sp, #28]
 4816 0c50 BB42     		cmp	r3, r7
 4817 0c52 04D0     		beq	.L508
 4818              		.loc 1 2887 0
 4819 0c54 2368     		ldr	r3, [r4, #0]
 4820 0c56 E418     		adds	r4, r4, r3
 4821              	.LVL612:
 4822 0c58 043C     		subs	r4, r4, #4
 4823              	.LVL613:
 4824 0c5a FFF798BA 		b	.L240
 4825              	.L508:
 4826              		.loc 1 2889 0
 4827 0c5e 0434     		adds	r4, r4, #4
 4828              	.LVL614:
 4829 0c60 FFF795BA 		b	.L240
 4830              	.L331:
 4831              		.loc 1 2892 0
 4832 0c64 079B     		ldr	r3, [sp, #28]
 4833 0c66 BB42     		cmp	r3, r7
 4834 0c68 04DA     		bge	.L509
 4835              		.loc 1 2893 0
 4836 0c6a 2368     		ldr	r3, [r4, #0]
 4837 0c6c E418     		adds	r4, r4, r3
 4838              	.LVL615:
 4839 0c6e 043C     		subs	r4, r4, #4
 4840              	.LVL616:
 4841 0c70 FFF78DBA 		b	.L240
ARM GAS  /tmp/ccSqa4tb.s 			page 86


 4842              	.L509:
 4843              		.loc 1 2895 0
 4844 0c74 0434     		adds	r4, r4, #4
 4845              	.LVL617:
 4846 0c76 FFF78ABA 		b	.L240
 4847              	.L332:
 4848              		.loc 1 2898 0
 4849 0c7a 079B     		ldr	r3, [sp, #28]
 4850 0c7c BB42     		cmp	r3, r7
 4851 0c7e 04DC     		bgt	.L510
 4852              		.loc 1 2899 0
 4853 0c80 2368     		ldr	r3, [r4, #0]
 4854 0c82 E418     		adds	r4, r4, r3
 4855              	.LVL618:
 4856 0c84 043C     		subs	r4, r4, #4
 4857              	.LVL619:
 4858 0c86 FFF782BA 		b	.L240
 4859              	.L510:
 4860              		.loc 1 2901 0
 4861 0c8a 0434     		adds	r4, r4, #4
 4862              	.LVL620:
 4863 0c8c FFF77FBA 		b	.L240
 4864              	.L333:
 4865              		.loc 1 2904 0
 4866 0c90 079B     		ldr	r3, [sp, #28]
 4867 0c92 BB42     		cmp	r3, r7
 4868 0c94 04DD     		ble	.L511
 4869              		.loc 1 2905 0
 4870 0c96 2368     		ldr	r3, [r4, #0]
 4871 0c98 E418     		adds	r4, r4, r3
 4872              	.LVL621:
 4873 0c9a 043C     		subs	r4, r4, #4
 4874              	.LVL622:
 4875 0c9c FFF777BA 		b	.L240
 4876              	.L511:
 4877              		.loc 1 2907 0
 4878 0ca0 0434     		adds	r4, r4, #4
 4879              	.LVL623:
 4880 0ca2 FFF774BA 		b	.L240
 4881              	.L334:
 4882              		.loc 1 2910 0
 4883 0ca6 079B     		ldr	r3, [sp, #28]
 4884 0ca8 BB42     		cmp	r3, r7
 4885 0caa 04DB     		blt	.L512
 4886              		.loc 1 2911 0
 4887 0cac 2368     		ldr	r3, [r4, #0]
 4888 0cae E418     		adds	r4, r4, r3
 4889              	.LVL624:
 4890 0cb0 043C     		subs	r4, r4, #4
 4891              	.LVL625:
 4892 0cb2 FFF76CBA 		b	.L240
 4893              	.L512:
 4894              		.loc 1 2913 0
 4895 0cb6 0434     		adds	r4, r4, #4
 4896              	.LVL626:
 4897 0cb8 FFF769BA 		b	.L240
 4898              	.L335:
ARM GAS  /tmp/ccSqa4tb.s 			page 87


 4899              		.loc 1 2916 0
 4900 0cbc 57B9     		cbnz	r7, .L513
 4901              	.L573:
 4902 0cbe DDF804B0 		ldr	fp, [sp, #4]
 4903              	.LVL627:
 4904 0cc2 DDF808C0 		ldr	ip, [sp, #8]
 4905 0cc6 4D46     		mov	r5, r9
 4906              		.loc 1 2917 0
 4907 0cc8 C5F828B0 		str	fp, [r5, #40]	@ unaligned
 4908 0ccc C5F820C0 		str	ip, [r5, #32]	@ unaligned
 4909 0cd0 0B20     		movs	r0, #11
 4910 0cd2 4FE3     		b	.L228
 4911              	.LVL628:
 4912              	.L513:
 4913              		.loc 1 2921 0
 4914 0cd4 079A     		ldr	r2, [sp, #28]
 4915 0cd6 92FBF7F2 		sdiv	r2, r2, r7
 4916              	.LVL629:
 4917              		.loc 1 2922 0
 4918 0cda 92FBF7F3 		sdiv	r3, r2, r7
 4919              	.LVL630:
 4920 0cde 07FB1323 		mls	r3, r7, r3, r2
 4921              	.LVL631:
 4922              		.loc 1 2921 0
 4923 0ce2 0792     		str	r2, [sp, #28]
 4924              		.loc 1 2931 0
 4925 0ce4 002B     		cmp	r3, #0
 4926 0ce6 3FF44FAA 		beq	.L560
 4927              		.loc 1 2931 0 is_stmt 0 discriminator 1
 4928 0cea 93EA070F 		teq	r3, r7
 4929 0cee 7FF54DAA 		bpl	.L561
 4930              		.loc 1 2932 0 is_stmt 1
 4931 0cf2 013A     		subs	r2, r2, #1
 4932              	.LVL632:
 4933 0cf4 0792     		str	r2, [sp, #28]
 4934              	.LVL633:
 4935              		.loc 1 2933 0
 4936 0cf6 FF18     		adds	r7, r7, r3
 4937              	.LVL634:
 4938 0cf8 FFF749BA 		b	.L240
 4939              	.L336:
 4940              		.loc 1 2937 0
 4941 0cfc 079B     		ldr	r3, [sp, #28]
 4942 0cfe DB1B     		subs	r3, r3, r7
 4943 0d00 0793     		str	r3, [sp, #28]
 4944              		.loc 1 2938 0
 4945 0d02 FFF744BA 		b	.L240
 4946              	.L337:
 4947              		.loc 1 2940 0
 4948 0d06 5368     		ldr	r3, [r2, #4]
 4949              	.LVL635:
 4950              		.loc 1 2941 0
 4951 0d08 079A     		ldr	r2, [sp, #28]
 4952              		.loc 1 2940 0
 4953 0d0a 0434     		adds	r4, r4, #4
 4954              	.LVL636:
 4955              		.loc 1 2941 0
ARM GAS  /tmp/ccSqa4tb.s 			page 88


 4956 0d0c D318     		adds	r3, r2, r3
 4957 0d0e 0793     		str	r3, [sp, #28]
 4958              		.loc 1 2942 0
 4959 0d10 FFF73DBA 		b	.L240
 4960              	.LVL637:
 4961              	.L338:
 4962              		.loc 1 2944 0
 4963 0d14 5268     		ldr	r2, [r2, #4]
 4964              	.LVL638:
 4965              		.loc 1 2945 0
 4966 0d16 079B     		ldr	r3, [sp, #28]
 4967              		.loc 1 2944 0
 4968 0d18 0434     		adds	r4, r4, #4
 4969              	.LVL639:
 4970              		.loc 1 2945 0
 4971 0d1a 5343     		muls	r3, r2, r3
 4972 0d1c 0793     		str	r3, [sp, #28]
 4973              		.loc 1 2946 0
 4974 0d1e FFF736BA 		b	.L240
 4975              	.LVL640:
 4976              	.L339:
 4977              		.loc 1 2948 0
 4978 0d22 0023     		movs	r3, #0
 4979 0d24 0793     		str	r3, [sp, #28]
 4980              		.loc 1 2949 0
 4981 0d26 FFF732BA 		b	.L240
 4982              	.L340:
 4983              		.loc 1 2954 0
 4984 0d2a 5368     		ldr	r3, [r2, #4]
 4985              	.LVL641:
 4986              		.loc 1 2955 0
 4987 0d2c 0022     		movs	r2, #0
 4988              		.loc 1 2954 0
 4989 0d2e 0434     		adds	r4, r4, #4
 4990              	.LVL642:
 4991              		.loc 1 2955 0
 4992 0d30 F250     		str	r2, [r6, r3]
 4993              		.loc 1 2956 0
 4994 0d32 FFF72CBA 		b	.L240
 4995              	.LVL643:
 4996              	.L341:
 4997              		.loc 1 2958 0
 4998 0d36 5368     		ldr	r3, [r2, #4]
 4999              	.LVL644:
 5000              		.loc 1 2959 0
 5001 0d38 0021     		movs	r1, #0
 5002              	.LVL645:
 5003 0d3a 06EB0A02 		add	r2, r6, sl
 5004              		.loc 1 2958 0
 5005 0d3e 0434     		adds	r4, r4, #4
 5006              	.LVL646:
 5007              		.loc 1 2959 0
 5008 0d40 D150     		str	r1, [r2, r3]
 5009              		.loc 1 2960 0
 5010 0d42 FFF724BA 		b	.L240
 5011              	.LVL647:
 5012              	.L342:
ARM GAS  /tmp/ccSqa4tb.s 			page 89


 5013              		.loc 1 2962 0
 5014 0d46 5368     		ldr	r3, [r2, #4]
 5015              	.LVL648:
 5016              		.loc 1 2963 0
 5017 0d48 079A     		ldr	r2, [sp, #28]
 5018              		.loc 1 2962 0
 5019 0d4a 0434     		adds	r4, r4, #4
 5020              	.LVL649:
 5021              		.loc 1 2963 0
 5022 0d4c D11A     		subs	r1, r2, r3
 5023 0d4e 4B42     		rsbs	r3, r1, #0
 5024 0d50 43EB0103 		adc	r3, r3, r1
 5025 0d54 0793     		str	r3, [sp, #28]
 5026              		.loc 1 2964 0
 5027 0d56 FFF71ABA 		b	.L240
 5028              	.LVL650:
 5029              	.L343:
 5030              		.loc 1 2966 0
 5031 0d5a 5368     		ldr	r3, [r2, #4]
 5032              	.LVL651:
 5033 0d5c 0434     		adds	r4, r4, #4
 5034              	.LVL652:
 5035              		.loc 1 2967 0
 5036 0d5e FA1A     		subs	r2, r7, r3
 5037 0d60 5342     		rsbs	r3, r2, #0
 5038 0d62 43EB0203 		adc	r3, r3, r2
 5039 0d66 0793     		str	r3, [sp, #28]
 5040              		.loc 1 2968 0
 5041 0d68 FFF711BA 		b	.L240
 5042              	.LVL653:
 5043              	.L344:
 5044              		.loc 1 2970 0
 5045 0d6c 5368     		ldr	r3, [r2, #4]
 5046              	.LVL654:
 5047 0d6e 0434     		adds	r4, r4, #4
 5048              	.LVL655:
 5049              		.loc 1 2972 0
 5050 0d70 F258     		ldr	r2, [r6, r3]
 5051 0d72 0132     		adds	r2, r2, #1
 5052 0d74 F250     		str	r2, [r6, r3]
 5053              		.loc 1 2977 0
 5054 0d76 FFF70ABA 		b	.L240
 5055              	.LVL656:
 5056              	.L345:
 5057              		.loc 1 2979 0
 5058 0d7a 5368     		ldr	r3, [r2, #4]
 5059              	.LVL657:
 5060 0d7c 0434     		adds	r4, r4, #4
 5061              	.LVL658:
 5062              		.loc 1 2981 0
 5063 0d7e 5344     		add	r3, r3, sl
 5064 0d80 F258     		ldr	r2, [r6, r3]
 5065 0d82 0132     		adds	r2, r2, #1
 5066 0d84 F250     		str	r2, [r6, r3]
 5067              		.loc 1 2986 0
 5068 0d86 FFF702BA 		b	.L240
 5069              	.LVL659:
ARM GAS  /tmp/ccSqa4tb.s 			page 90


 5070              	.L346:
 5071              		.loc 1 2988 0
 5072 0d8a 5368     		ldr	r3, [r2, #4]
 5073              	.LVL660:
 5074 0d8c 0434     		adds	r4, r4, #4
 5075              	.LVL661:
 5076              		.loc 1 2990 0
 5077 0d8e F258     		ldr	r2, [r6, r3]
 5078 0d90 013A     		subs	r2, r2, #1
 5079 0d92 F250     		str	r2, [r6, r3]
 5080              		.loc 1 2995 0
 5081 0d94 FFF7FBB9 		b	.L240
 5082              	.LVL662:
 5083              	.L347:
 5084              		.loc 1 2997 0
 5085 0d98 5368     		ldr	r3, [r2, #4]
 5086              	.LVL663:
 5087 0d9a 0434     		adds	r4, r4, #4
 5088              	.LVL664:
 5089              		.loc 1 2999 0
 5090 0d9c 5344     		add	r3, r3, sl
 5091 0d9e F258     		ldr	r2, [r6, r3]
 5092 0da0 013A     		subs	r2, r2, #1
 5093 0da2 F250     		str	r2, [r6, r3]
 5094              		.loc 1 3004 0
 5095 0da4 FFF7F3B9 		b	.L240
 5096              	.LVL665:
 5097              	.L348:
 5098              		.loc 1 3007 0
 5099 0da8 D4F804C0 		ldr	ip, [r4, #4]
 5100              		.loc 1 3008 0
 5101 0dac A8F10408 		sub	r8, r8, #4
 5102              	.LVL666:
 5103              		.loc 1 3006 0
 5104 0db0 5168     		ldr	r1, [r2, #4]
 5105              	.LVL667:
 5106              		.loc 1 3008 0
 5107 0db2 46F808C0 		str	ip, [r6, r8]
 5108              		.loc 1 3010 0
 5109 0db6 D9F80430 		ldr	r3, [r9, #4]	@ unaligned
 5110              		.loc 1 3007 0
 5111 0dba 0834     		adds	r4, r4, #8
 5112              	.LVL668:
 5113              		.loc 1 3010 0
 5114 0dbc E31A     		subs	r3, r4, r3
 5115 0dbe C9F81830 		str	r3, [r9, #24]	@ unaligned
 5116              		.loc 1 3013 0
 5117 0dc2 C9F82880 		str	r8, [r9, #40]	@ unaligned
 5118              		.loc 1 3011 0
 5119 0dc6 C9F820B0 		str	fp, [r9, #32]	@ unaligned
 5120              		.loc 1 3012 0
 5121 0dca C9F81CA0 		str	sl, [r9, #28]	@ unaligned
 5122              		.loc 1 3014 0
 5123 0dce D9F80C50 		ldr	r5, [r9, #12]	@ unaligned
 5124 0dd2 06EB0803 		add	r3, r6, r8
 5125 0dd6 CDF800C0 		str	ip, [sp, #0]
 5126 0dda 4846     		mov	r0, r9
ARM GAS  /tmp/ccSqa4tb.s 			page 91


 5127 0ddc 07AA     		add	r2, sp, #28
 5128 0dde A847     		blx	r5
 5129              	.LVL669:
 5130              		.loc 1 3015 0
 5131 0de0 DDF800C0 		ldr	ip, [sp, #0]
 5132 0de4 E044     		add	r8, ip, r8
 5133              	.LVL670:
 5134 0de6 08F10408 		add	r8, r8, #4
 5135              	.LVL671:
 5136              		.loc 1 3016 0
 5137 0dea 0028     		cmp	r0, #0
 5138 0dec 3FF4CFA9 		beq	.L240
 5139              		.loc 1 3017 0
 5140 0df0 0C28     		cmp	r0, #12
 5141 0df2 DDF804B0 		ldr	fp, [sp, #4]
 5142              	.LVL672:
 5143 0df6 DDF808C0 		ldr	ip, [sp, #8]
 5144 0dfa 4D46     		mov	r5, r9
 5145 0dfc 09D1     		bne	.L514
 5146              		.loc 1 3018 0
 5147 0dfe 079B     		ldr	r3, [sp, #28]
 5148              		.loc 1 3019 0
 5149 0e00 2F66     		str	r7, [r5, #96]	@ unaligned
 5150              		.loc 1 3018 0
 5151 0e02 EB65     		str	r3, [r5, #92]	@ unaligned
 5152              		.loc 1 3020 0
 5153 0e04 C5F82880 		str	r8, [r5, #40]	@ unaligned
 5154              	.LVL673:
 5155              	.L571:
 5156              		.loc 1 3021 0
 5157 0e08 C5F864B0 		str	fp, [r5, #100]	@ unaligned
 5158              		.loc 1 3022 0
 5159 0e0c C5F868C0 		str	ip, [r5, #104]	@ unaligned
 5160              		.loc 1 3023 0
 5161 0e10 B0E2     		b	.L228
 5162              	.L514:
 5163              		.loc 1 3025 0
 5164 0e12 C5F828B0 		str	fp, [r5, #40]	@ unaligned
 5165 0e16 C5F820C0 		str	ip, [r5, #32]	@ unaligned
 5166 0e1a ABE2     		b	.L228
 5167              	.LVL674:
 5168              	.L349:
 5169              		.loc 1 3029 0
 5170 0e1c 5168     		ldr	r1, [r2, #4]
 5171              	.LVL675:
 5172 0e1e 0434     		adds	r4, r4, #4
 5173              	.LVL676:
 5174              		.loc 1 2064 0
 5175 0e20 06EB0800 		add	r0, r6, r8
 5176              		.loc 1 3029 0
 5177 0e24 0B46     		mov	r3, r1
 5178              		.loc 1 3030 0
 5179 0e26 02E0     		b	.L515
 5180              	.LVL677:
 5181              	.L516:
 5182              		.loc 1 3032 0
 5183 0e28 5568     		ldr	r5, [r2, #4]
ARM GAS  /tmp/ccSqa4tb.s 			page 92


 5184 0e2a 40F8045D 		str	r5, [r0, #-4]!
 5185              	.LVL678:
 5186              	.L515:
 5187              		.loc 1 3030 0 discriminator 1
 5188 0e2e 013B     		subs	r3, r3, #1
 5189              	.LVL679:
 5190 0e30 0432     		adds	r2, r2, #4
 5191 0e32 B3F1FF3F 		cmp	r3, #-1
 5192 0e36 F7D1     		bne	.L516
 5193              		.loc 1 2064 0
 5194 0e38 8900     		lsls	r1, r1, #2
 5195              		.loc 1 3030 0
 5196 0e3a C1EB0808 		rsb	r8, r1, r8
 5197 0e3e 6418     		adds	r4, r4, r1
 5198              	.LVL680:
 5199 0e40 FFF7A5B9 		b	.L240
 5200              	.LVL681:
 5201              	.L350:
 5202              		.loc 1 3036 0
 5203 0e44 5168     		ldr	r1, [r2, #4]
 5204              	.LVL682:
 5205 0e46 0434     		adds	r4, r4, #4
 5206              	.LVL683:
 5207              		.loc 1 2064 0
 5208 0e48 06EB0800 		add	r0, r6, r8
 5209              		.loc 1 3036 0
 5210 0e4c 0B46     		mov	r3, r1
 5211              		.loc 1 3037 0
 5212 0e4e 03E0     		b	.L517
 5213              	.LVL684:
 5214              	.L518:
 5215              		.loc 1 3039 0
 5216 0e50 5568     		ldr	r5, [r2, #4]
 5217 0e52 7559     		ldr	r5, [r6, r5]
 5218 0e54 40F8045D 		str	r5, [r0, #-4]!
 5219              	.LVL685:
 5220              	.L517:
 5221              		.loc 1 3037 0 discriminator 1
 5222 0e58 013B     		subs	r3, r3, #1
 5223              	.LVL686:
 5224 0e5a 0432     		adds	r2, r2, #4
 5225 0e5c B3F1FF3F 		cmp	r3, #-1
 5226 0e60 F6D1     		bne	.L518
 5227              		.loc 1 2064 0
 5228 0e62 8900     		lsls	r1, r1, #2
 5229              		.loc 1 3037 0
 5230 0e64 C1EB0808 		rsb	r8, r1, r8
 5231 0e68 6418     		adds	r4, r4, r1
 5232              	.LVL687:
 5233 0e6a FFF790B9 		b	.L240
 5234              	.LVL688:
 5235              	.L351:
 5236              		.loc 1 3043 0
 5237 0e6e 5168     		ldr	r1, [r2, #4]
 5238              	.LVL689:
 5239 0e70 0434     		adds	r4, r4, #4
 5240              	.LVL690:
ARM GAS  /tmp/ccSqa4tb.s 			page 93


 5241              		.loc 1 2064 0
 5242 0e72 06EB0800 		add	r0, r6, r8
 5243              		.loc 1 3043 0
 5244 0e76 0B46     		mov	r3, r1
 5245              		.loc 1 3044 0
 5246 0e78 07E0     		b	.L519
 5247              	.LVL691:
 5248              	.L520:
 5249              		.loc 1 3046 0
 5250 0e7a D2F804C0 		ldr	ip, [r2, #4]
 5251 0e7e 06EB0A05 		add	r5, r6, sl
 5252 0e82 55F80C50 		ldr	r5, [r5, ip]
 5253 0e86 40F8045D 		str	r5, [r0, #-4]!
 5254              	.LVL692:
 5255              	.L519:
 5256              		.loc 1 3044 0 discriminator 1
 5257 0e8a 013B     		subs	r3, r3, #1
 5258              	.LVL693:
 5259 0e8c 0432     		adds	r2, r2, #4
 5260 0e8e B3F1FF3F 		cmp	r3, #-1
 5261 0e92 F2D1     		bne	.L520
 5262              		.loc 1 2064 0
 5263 0e94 8900     		lsls	r1, r1, #2
 5264              		.loc 1 3044 0
 5265 0e96 C1EB0808 		rsb	r8, r1, r8
 5266 0e9a 6418     		adds	r4, r4, r1
 5267              	.LVL694:
 5268 0e9c FFF777B9 		b	.L240
 5269              	.LVL695:
 5270              	.L352:
 5271              		.loc 1 3050 0
 5272 0ea0 5168     		ldr	r1, [r2, #4]
 5273              	.LVL696:
 5274 0ea2 0434     		adds	r4, r4, #4
 5275              	.LVL697:
 5276              		.loc 1 2064 0
 5277 0ea4 06EB0800 		add	r0, r6, r8
 5278              		.loc 1 3050 0
 5279 0ea8 0B46     		mov	r3, r1
 5280              		.loc 1 3051 0
 5281 0eaa 03E0     		b	.L521
 5282              	.LVL698:
 5283              	.L522:
 5284              		.loc 1 3053 0
 5285 0eac 5568     		ldr	r5, [r2, #4]
 5286 0eae 5544     		add	r5, sl, r5
 5287 0eb0 40F8045D 		str	r5, [r0, #-4]!
 5288              	.LVL699:
 5289              	.L521:
 5290              		.loc 1 3051 0 discriminator 1
 5291 0eb4 013B     		subs	r3, r3, #1
 5292              	.LVL700:
 5293 0eb6 0432     		adds	r2, r2, #4
 5294 0eb8 B3F1FF3F 		cmp	r3, #-1
 5295 0ebc F6D1     		bne	.L522
 5296              		.loc 1 2064 0
 5297 0ebe 8900     		lsls	r1, r1, #2
ARM GAS  /tmp/ccSqa4tb.s 			page 94


 5298              		.loc 1 3051 0
 5299 0ec0 C1EB0808 		rsb	r8, r1, r8
 5300 0ec4 6418     		adds	r4, r4, r1
 5301              	.LVL701:
 5302 0ec6 FFF762B9 		b	.L240
 5303              	.LVL702:
 5304              	.L353:
 5305              		.loc 1 3057 0
 5306 0eca 5168     		ldr	r1, [r2, #4]
 5307              	.LVL703:
 5308 0ecc 0434     		adds	r4, r4, #4
 5309              	.LVL704:
 5310              		.loc 1 2064 0
 5311 0ece 06EB0800 		add	r0, r6, r8
 5312              		.loc 1 3057 0
 5313 0ed2 0B46     		mov	r3, r1
 5314              		.loc 1 3058 0
 5315 0ed4 03E0     		b	.L523
 5316              	.LVL705:
 5317              	.L524:
 5318              		.loc 1 3060 0
 5319 0ed6 5568     		ldr	r5, [r2, #4]
 5320 0ed8 7519     		adds	r5, r6, r5
 5321 0eda 40F8045D 		str	r5, [r0, #-4]!
 5322              	.LVL706:
 5323              	.L523:
 5324              		.loc 1 3058 0 discriminator 1
 5325 0ede 013B     		subs	r3, r3, #1
 5326              	.LVL707:
 5327 0ee0 0432     		adds	r2, r2, #4
 5328 0ee2 B3F1FF3F 		cmp	r3, #-1
 5329 0ee6 F6D1     		bne	.L524
 5330              		.loc 1 2064 0
 5331 0ee8 8900     		lsls	r1, r1, #2
 5332              		.loc 1 3058 0
 5333 0eea C1EB0808 		rsb	r8, r1, r8
 5334 0eee 6418     		adds	r4, r4, r1
 5335              	.LVL708:
 5336 0ef0 FFF74DB9 		b	.L240
 5337              	.LVL709:
 5338              	.L354:
 5339              		.loc 1 3064 0
 5340 0ef4 5168     		ldr	r1, [r2, #4]
 5341              	.LVL710:
 5342 0ef6 0434     		adds	r4, r4, #4
 5343              	.LVL711:
 5344              		.loc 1 2064 0
 5345 0ef8 06EB0800 		add	r0, r6, r8
 5346              		.loc 1 3064 0
 5347 0efc 0B46     		mov	r3, r1
 5348              		.loc 1 3065 0
 5349 0efe 08E0     		b	.L525
 5350              	.LVL712:
 5351              	.L526:
 5352              		.loc 1 3067 0
 5353 0f00 D2F804C0 		ldr	ip, [r2, #4]
 5354 0f04 06EB0A05 		add	r5, r6, sl
ARM GAS  /tmp/ccSqa4tb.s 			page 95


 5355 0f08 55F80C50 		ldr	r5, [r5, ip]
 5356 0f0c 7519     		adds	r5, r6, r5
 5357 0f0e 40F8045D 		str	r5, [r0, #-4]!
 5358              	.LVL713:
 5359              	.L525:
 5360              		.loc 1 3065 0 discriminator 1
 5361 0f12 013B     		subs	r3, r3, #1
 5362              	.LVL714:
 5363 0f14 0432     		adds	r2, r2, #4
 5364 0f16 B3F1FF3F 		cmp	r3, #-1
 5365 0f1a F1D1     		bne	.L526
 5366              		.loc 1 2064 0
 5367 0f1c 8900     		lsls	r1, r1, #2
 5368              		.loc 1 3065 0
 5369 0f1e C1EB0808 		rsb	r8, r1, r8
 5370 0f22 6418     		adds	r4, r4, r1
 5371              	.LVL715:
 5372 0f24 FFF733B9 		b	.L240
 5373              	.LVL716:
 5374              	.L355:
 5375              		.loc 1 3071 0
 5376 0f28 5168     		ldr	r1, [r2, #4]
 5377              	.LVL717:
 5378 0f2a 0434     		adds	r4, r4, #4
 5379              	.LVL718:
 5380              		.loc 1 2064 0
 5381 0f2c 06EB0800 		add	r0, r6, r8
 5382              		.loc 1 3071 0
 5383 0f30 0B46     		mov	r3, r1
 5384              		.loc 1 3072 0
 5385 0f32 04E0     		b	.L527
 5386              	.LVL719:
 5387              	.L528:
 5388              		.loc 1 3074 0
 5389 0f34 5568     		ldr	r5, [r2, #4]
 5390 0f36 7519     		adds	r5, r6, r5
 5391 0f38 5544     		add	r5, r5, sl
 5392 0f3a 40F8045D 		str	r5, [r0, #-4]!
 5393              	.LVL720:
 5394              	.L527:
 5395              		.loc 1 3072 0 discriminator 1
 5396 0f3e 013B     		subs	r3, r3, #1
 5397              	.LVL721:
 5398 0f40 0432     		adds	r2, r2, #4
 5399 0f42 B3F1FF3F 		cmp	r3, #-1
 5400 0f46 F5D1     		bne	.L528
 5401              		.loc 1 2064 0
 5402 0f48 8900     		lsls	r1, r1, #2
 5403              		.loc 1 3072 0
 5404 0f4a C1EB0808 		rsb	r8, r1, r8
 5405 0f4e 6418     		adds	r4, r4, r1
 5406              	.LVL722:
 5407 0f50 FFF71DB9 		b	.L240
 5408              	.LVL723:
 5409              	.L356:
 5410              		.loc 1 3079 0
 5411 0f54 5268     		ldr	r2, [r2, #4]
ARM GAS  /tmp/ccSqa4tb.s 			page 96


 5412              	.LVL724:
 5413              		.loc 1 3078 0
 5414 0f56 231D     		adds	r3, r4, #4
 5415              	.LVL725:
 5416              		.loc 1 3079 0
 5417 0f58 B258     		ldr	r2, [r6, r2]
 5418              		.loc 1 3080 0
 5419 0f5a 0834     		adds	r4, r4, #8
 5420              	.LVL726:
 5421              		.loc 1 3079 0
 5422 0f5c 0792     		str	r2, [sp, #28]
 5423              	.LVL727:
 5424              		.loc 1 3081 0
 5425 0f5e 1B68     		ldr	r3, [r3, #0]
 5426 0f60 F758     		ldr	r7, [r6, r3]
 5427              	.LVL728:
 5428              		.loc 1 3082 0
 5429 0f62 FFF714B9 		b	.L240
 5430              	.LVL729:
 5431              	.L357:
 5432              		.loc 1 3085 0
 5433 0f66 5268     		ldr	r2, [r2, #4]
 5434              		.loc 1 3084 0
 5435 0f68 231D     		adds	r3, r4, #4
 5436              	.LVL730:
 5437              		.loc 1 3085 0
 5438 0f6a B218     		adds	r2, r6, r2
 5439 0f6c 52F80A20 		ldr	r2, [r2, sl]
 5440              		.loc 1 3086 0
 5441 0f70 0834     		adds	r4, r4, #8
 5442              	.LVL731:
 5443              		.loc 1 3085 0
 5444 0f72 0792     		str	r2, [sp, #28]
 5445              	.LVL732:
 5446              		.loc 1 3087 0
 5447 0f74 1B68     		ldr	r3, [r3, #0]
 5448 0f76 F318     		adds	r3, r6, r3
 5449 0f78 53F80A70 		ldr	r7, [r3, sl]
 5450              	.LVL733:
 5451              		.loc 1 3088 0
 5452 0f7c FFF707B9 		b	.L240
 5453              	.LVL734:
 5454              	.L358:
 5455              		.loc 1 3090 0
 5456 0f80 231D     		adds	r3, r4, #4
 5457 0f82 5268     		ldr	r2, [r2, #4]
 5458              	.LVL735:
 5459              		.loc 1 3092 0
 5460 0f84 1B68     		ldr	r3, [r3, #0]
 5461              	.LVL736:
 5462              		.loc 1 3091 0
 5463 0f86 0834     		adds	r4, r4, #8
 5464              	.LVL737:
 5465              		.loc 1 3092 0
 5466 0f88 B350     		str	r3, [r6, r2]
 5467              		.loc 1 3093 0
 5468 0f8a FFF700B9 		b	.L240
ARM GAS  /tmp/ccSqa4tb.s 			page 97


 5469              	.LVL738:
 5470              	.L359:
 5471              		.loc 1 3095 0
 5472 0f8e 231D     		adds	r3, r4, #4
 5473 0f90 5268     		ldr	r2, [r2, #4]
 5474              	.LVL739:
 5475              		.loc 1 3097 0
 5476 0f92 1B68     		ldr	r3, [r3, #0]
 5477              	.LVL740:
 5478 0f94 06EB0A01 		add	r1, r6, sl
 5479              	.LVL741:
 5480              		.loc 1 3096 0
 5481 0f98 0834     		adds	r4, r4, #8
 5482              	.LVL742:
 5483              		.loc 1 3097 0
 5484 0f9a 8B50     		str	r3, [r1, r2]
 5485              		.loc 1 3098 0
 5486 0f9c FFF7F7B8 		b	.L240
 5487              	.LVL743:
 5488              	.L360:
 5489              		.loc 1 3103 0
 5490 0fa0 0914     		asrs	r1, r1, #16
 5491              		.loc 1 3104 0
 5492 0fa2 7358     		ldr	r3, [r6, r1]
 5493 0fa4 0793     		str	r3, [sp, #28]
 5494              		.loc 1 3105 0
 5495 0fa6 FFF7F2B8 		b	.L240
 5496              	.LVL744:
 5497              	.L361:
 5498              		.loc 1 3107 0
 5499 0faa 0914     		asrs	r1, r1, #16
 5500              		.loc 1 3108 0
 5501 0fac 7758     		ldr	r7, [r6, r1]
 5502              	.LVL745:
 5503              		.loc 1 3109 0
 5504 0fae FFF7EEB8 		b	.L240
 5505              	.LVL746:
 5506              	.L362:
 5507              		.loc 1 3112 0
 5508 0fb2 06EB2141 		add	r1, r6, r1, asr #16
 5509 0fb6 51F80A30 		ldr	r3, [r1, sl]
 5510 0fba 0793     		str	r3, [sp, #28]
 5511              		.loc 1 3113 0
 5512 0fbc FFF7E7B8 		b	.L240
 5513              	.LVL747:
 5514              	.L363:
 5515              		.loc 1 3116 0
 5516 0fc0 06EB2141 		add	r1, r6, r1, asr #16
 5517 0fc4 51F80A70 		ldr	r7, [r1, sl]
 5518              	.LVL748:
 5519              		.loc 1 3117 0
 5520 0fc8 FFF7E1B8 		b	.L240
 5521              	.LVL749:
 5522              	.L364:
 5523              		.loc 1 3120 0
 5524 0fcc 0AEB2141 		add	r1, sl, r1, asr #16
 5525              	.LVL750:
ARM GAS  /tmp/ccSqa4tb.s 			page 98


 5526              		.loc 1 3121 0
 5527 0fd0 7358     		ldr	r3, [r6, r1]
 5528 0fd2 F358     		ldr	r3, [r6, r3]
 5529 0fd4 0793     		str	r3, [sp, #28]
 5530              		.loc 1 3122 0
 5531 0fd6 FFF7DAB8 		b	.L240
 5532              	.LVL751:
 5533              	.L365:
 5534              		.loc 1 3125 0
 5535 0fda 0AEB2141 		add	r1, sl, r1, asr #16
 5536              	.LVL752:
 5537              		.loc 1 3126 0
 5538 0fde 7358     		ldr	r3, [r6, r1]
 5539 0fe0 F758     		ldr	r7, [r6, r3]
 5540              	.LVL753:
 5541              		.loc 1 3127 0
 5542 0fe2 FFF7D4B8 		b	.L240
 5543              	.LVL754:
 5544              	.L366:
 5545              		.loc 1 3129 0
 5546 0fe6 0914     		asrs	r1, r1, #16
 5547              	.LVL755:
 5548              		.loc 1 3130 0
 5549 0fe8 FFF76DBA 		b	.L415
 5550              	.LVL756:
 5551              	.L367:
 5552              		.loc 1 3132 0
 5553 0fec 0914     		asrs	r1, r1, #16
 5554 0fee 0791     		str	r1, [sp, #28]
 5555              		.loc 1 3133 0
 5556 0ff0 FFF7CDB8 		b	.L240
 5557              	.L368:
 5558              		.loc 1 3135 0
 5559 0ff4 0F14     		asrs	r7, r1, #16
 5560              	.LVL757:
 5561              		.loc 1 3136 0
 5562 0ff6 FFF7CAB8 		b	.L240
 5563              	.L369:
 5564              		.loc 1 3139 0
 5565 0ffa 0AEB2141 		add	r1, sl, r1, asr #16
 5566 0ffe 0791     		str	r1, [sp, #28]
 5567              		.loc 1 3140 0
 5568 1000 FFF7C5B8 		b	.L240
 5569              	.L370:
 5570              	.LVL758:
 5571              		.loc 1 3143 0
 5572 1004 0AEB2147 		add	r7, sl, r1, asr #16
 5573              	.LVL759:
 5574              		.loc 1 3144 0
 5575 1008 FFF7C1B8 		b	.L240
 5576              	.L371:
 5577              	.LVL760:
 5578              		.loc 1 3147 0
 5579 100c 079B     		ldr	r3, [sp, #28]
 5580              		.loc 1 3146 0
 5581 100e 0914     		asrs	r1, r1, #16
 5582              		.loc 1 3147 0
ARM GAS  /tmp/ccSqa4tb.s 			page 99


 5583 1010 7350     		str	r3, [r6, r1]
 5584              		.loc 1 3148 0
 5585 1012 FFF7BCB8 		b	.L240
 5586              	.LVL761:
 5587              	.L372:
 5588              		.loc 1 3151 0
 5589 1016 079B     		ldr	r3, [sp, #28]
 5590 1018 06EB2141 		add	r1, r6, r1, asr #16
 5591 101c 41F80A30 		str	r3, [r1, sl]
 5592              		.loc 1 3152 0
 5593 1020 FFF7B5B8 		b	.L240
 5594              	.LVL762:
 5595              	.L373:
 5596              		.loc 1 3155 0
 5597 1024 0AEB2141 		add	r1, sl, r1, asr #16
 5598              	.LVL763:
 5599              		.loc 1 3156 0
 5600 1028 7358     		ldr	r3, [r6, r1]
 5601 102a 079A     		ldr	r2, [sp, #28]
 5602 102c F250     		str	r2, [r6, r3]
 5603              		.loc 1 3157 0
 5604 102e FFF7AEB8 		b	.L240
 5605              	.LVL764:
 5606              	.L374:
 5607              		.loc 1 3159 0
 5608 1032 0914     		asrs	r1, r1, #16
 5609              	.LVL765:
 5610              		.loc 1 3160 0
 5611 1034 FFF794BA 		b	.L425
 5612              	.LVL766:
 5613              	.L375:
 5614              		.loc 1 3163 0
 5615 1038 079A     		ldr	r2, [sp, #28]
 5616              		.loc 1 3162 0
 5617 103a 0914     		asrs	r1, r1, #16
 5618              		.loc 1 3163 0
 5619 103c 12FA01F1 		lsls	r1, r2, r1
 5620 1040 C919     		adds	r1, r1, r7
 5621              	.LVL767:
 5622              		.loc 1 3165 0
 5623 1042 5945     		cmp	r1, fp
 5624 1044 01DB     		blt	.L529
 5625              		.loc 1 3165 0 is_stmt 0 discriminator 1
 5626 1046 4145     		cmp	r1, r8
 5627 1048 03DB     		blt	.L530
 5628              	.L529:
 5629              		.loc 1 3165 0 discriminator 2
 5630 104a D9F82C30 		ldr	r3, [r9, #44]	@ unaligned
 5631 104e 9942     		cmp	r1, r3
 5632 1050 0AD3     		bcc	.L531
 5633              	.LVL768:
 5634              	.L530:
 5635 1052 DDF804B0 		ldr	fp, [sp, #4]
 5636              	.LVL769:
 5637 1056 DDF808C0 		ldr	ip, [sp, #8]
 5638 105a 4D46     		mov	r5, r9
 5639              		.loc 1 3166 0 is_stmt 1
ARM GAS  /tmp/ccSqa4tb.s 			page 100


 5640 105c C5F828B0 		str	fp, [r5, #40]	@ unaligned
 5641 1060 C5F820C0 		str	ip, [r5, #32]	@ unaligned
 5642 1064 0520     		movs	r0, #5
 5643 1066 85E1     		b	.L228
 5644              	.LVL770:
 5645              	.L531:
 5646              		.loc 1 3167 0
 5647 1068 7358     		ldr	r3, [r6, r1]
 5648 106a 0793     		str	r3, [sp, #28]
 5649              		.loc 1 3168 0
 5650 106c FFF78FB8 		b	.L240
 5651              	.LVL771:
 5652              	.L376:
 5653              		.loc 1 3171 0
 5654 1070 079A     		ldr	r2, [sp, #28]
 5655              		.loc 1 3170 0
 5656 1072 0914     		asrs	r1, r1, #16
 5657              		.loc 1 3171 0
 5658 1074 12FA01F1 		lsls	r1, r2, r1
 5659 1078 C919     		adds	r1, r1, r7
 5660 107a 0791     		str	r1, [sp, #28]
 5661              		.loc 1 3172 0
 5662 107c FFF787B8 		b	.L240
 5663              	.LVL772:
 5664              	.L377:
 5665              		.loc 1 3174 0
 5666 1080 0914     		asrs	r1, r1, #16
 5667              		.loc 1 3176 0
 5668 1082 0329     		cmp	r1, #3
 5669 1084 3FF683A8 		bhi	.L240
 5670              		.loc 1 3177 0
 5671 1088 079B     		ldr	r3, [sp, #28]
 5672 108a C1F10401 		rsb	r1, r1, #4
 5673 108e 83EA0101 		eor	r1, r3, r1
 5674 1092 0791     		str	r1, [sp, #28]
 5675 1094 FFF77BB8 		b	.L240
 5676              	.LVL773:
 5677              	.L378:
 5678              		.loc 1 3182 0
 5679 1098 A8F10408 		sub	r8, r8, #4
 5680              	.LVL774:
 5681              		.loc 1 3181 0
 5682 109c 0914     		asrs	r1, r1, #16
 5683              		.loc 1 3182 0
 5684 109e 46F80810 		str	r1, [r6, r8]
 5685              		.loc 1 3183 0
 5686 10a2 FFF774B8 		b	.L240
 5687              	.LVL775:
 5688              	.L379:
 5689              		.loc 1 3185 0
 5690 10a6 0914     		asrs	r1, r1, #16
 5691              		.loc 1 3186 0
 5692 10a8 7358     		ldr	r3, [r6, r1]
 5693 10aa A8F10408 		sub	r8, r8, #4
 5694              	.LVL776:
 5695 10ae 46F80830 		str	r3, [r6, r8]
 5696              		.loc 1 3187 0
ARM GAS  /tmp/ccSqa4tb.s 			page 101


 5697 10b2 FFF76CB8 		b	.L240
 5698              	.LVL777:
 5699              	.L380:
 5700              		.loc 1 3190 0
 5701 10b6 06EB2141 		add	r1, r6, r1, asr #16
 5702 10ba 51F80A30 		ldr	r3, [r1, sl]
 5703 10be A8F10408 		sub	r8, r8, #4
 5704              	.LVL778:
 5705 10c2 46F80830 		str	r3, [r6, r8]
 5706              		.loc 1 3191 0
 5707 10c6 FFF762B8 		b	.L240
 5708              	.LVL779:
 5709              	.L381:
 5710              		.loc 1 3194 0
 5711 10ca A8F10408 		sub	r8, r8, #4
 5712              	.LVL780:
 5713 10ce 0AEB2141 		add	r1, sl, r1, asr #16
 5714 10d2 46F80810 		str	r1, [r6, r8]
 5715              		.loc 1 3195 0
 5716 10d6 FFF75AB8 		b	.L240
 5717              	.LVL781:
 5718              	.L382:
 5719              		.loc 1 3198 0
 5720 10da A8F10408 		sub	r8, r8, #4
 5721              	.LVL782:
 5722 10de 06EB2141 		add	r1, r6, r1, asr #16
 5723 10e2 46F80810 		str	r1, [r6, r8]
 5724              		.loc 1 3199 0
 5725 10e6 FFF752B8 		b	.L240
 5726              	.LVL783:
 5727              	.L383:
 5728              		.loc 1 3202 0
 5729 10ea 06EB2141 		add	r1, r6, r1, asr #16
 5730 10ee 51F80A30 		ldr	r3, [r1, sl]
 5731 10f2 A8F10408 		sub	r8, r8, #4
 5732              	.LVL784:
 5733 10f6 F318     		adds	r3, r6, r3
 5734 10f8 46F80830 		str	r3, [r6, r8]
 5735              		.loc 1 3203 0
 5736 10fc FFF747B8 		b	.L240
 5737              	.LVL785:
 5738              	.L384:
 5739              		.loc 1 3206 0
 5740 1100 06EB0A02 		add	r2, r6, sl
 5741 1104 A8F10408 		sub	r8, r8, #4
 5742              	.LVL786:
 5743 1108 02EB2141 		add	r1, r2, r1, asr #16
 5744 110c 46F80810 		str	r1, [r6, r8]
 5745              		.loc 1 3207 0
 5746 1110 FFF73DB8 		b	.L240
 5747              	.LVL787:
 5748              	.L386:
 5749              		.loc 1 3209 0
 5750 1114 0914     		asrs	r1, r1, #16
 5751              	.LVL788:
 5752              		.loc 1 2064 0
 5753 1116 06EB0800 		add	r0, r6, r8
ARM GAS  /tmp/ccSqa4tb.s 			page 102


 5754              		.loc 1 3209 0
 5755 111a 0B46     		mov	r3, r1
 5756              		.loc 1 3210 0
 5757 111c 04E0     		b	.L532
 5758              	.LVL789:
 5759              	.L533:
 5760              		.loc 1 3211 0
 5761 111e 52F8045F 		ldr	r5, [r2, #4]!
 5762              	.LVL790:
 5763              		.loc 1 3212 0
 5764 1122 7559     		ldr	r5, [r6, r5]
 5765 1124 40F8045D 		str	r5, [r0, #-4]!
 5766              	.LVL791:
 5767              	.L532:
 5768              		.loc 1 3210 0 discriminator 1
 5769 1128 013B     		subs	r3, r3, #1
 5770              	.LVL792:
 5771 112a F8D2     		bcs	.L533
 5772              		.loc 1 2064 0
 5773 112c 8900     		lsls	r1, r1, #2
 5774              		.loc 1 3210 0
 5775 112e C1EB0808 		rsb	r8, r1, r8
 5776 1132 6418     		adds	r4, r4, r1
 5777              	.LVL793:
 5778 1134 FFF72BB8 		b	.L240
 5779              	.LVL794:
 5780              	.L387:
 5781              		.loc 1 3216 0
 5782 1138 0914     		asrs	r1, r1, #16
 5783              	.LVL795:
 5784              		.loc 1 2064 0
 5785 113a 06EB0800 		add	r0, r6, r8
 5786              		.loc 1 3216 0
 5787 113e 0B46     		mov	r3, r1
 5788              		.loc 1 3217 0
 5789 1140 07E0     		b	.L534
 5790              	.LVL796:
 5791              	.L535:
 5792              		.loc 1 3218 0
 5793 1142 52F804CF 		ldr	ip, [r2, #4]!
 5794              	.LVL797:
 5795              		.loc 1 3219 0
 5796 1146 06EB0A05 		add	r5, r6, sl
 5797 114a 55F80C50 		ldr	r5, [r5, ip]
 5798 114e 40F8045D 		str	r5, [r0, #-4]!
 5799              	.LVL798:
 5800              	.L534:
 5801              		.loc 1 3217 0 discriminator 1
 5802 1152 013B     		subs	r3, r3, #1
 5803              	.LVL799:
 5804 1154 F5D2     		bcs	.L535
 5805              		.loc 1 2064 0
 5806 1156 8900     		lsls	r1, r1, #2
 5807              		.loc 1 3217 0
 5808 1158 C1EB0808 		rsb	r8, r1, r8
 5809 115c 6418     		adds	r4, r4, r1
 5810              	.LVL800:
ARM GAS  /tmp/ccSqa4tb.s 			page 103


 5811 115e FFF716B8 		b	.L240
 5812              	.LVL801:
 5813              	.L385:
 5814              		.loc 1 3223 0
 5815 1162 0914     		asrs	r1, r1, #16
 5816              	.LVL802:
 5817              		.loc 1 2064 0
 5818 1164 06EB0800 		add	r0, r6, r8
 5819              		.loc 1 3223 0
 5820 1168 0B46     		mov	r3, r1
 5821              		.loc 1 3224 0
 5822 116a 03E0     		b	.L536
 5823              	.LVL803:
 5824              	.L537:
 5825              		.loc 1 3225 0
 5826 116c 52F8045F 		ldr	r5, [r2, #4]!
 5827              	.LVL804:
 5828              		.loc 1 3226 0
 5829 1170 40F8045D 		str	r5, [r0, #-4]!
 5830              	.LVL805:
 5831              	.L536:
 5832              		.loc 1 3224 0 discriminator 1
 5833 1174 013B     		subs	r3, r3, #1
 5834              	.LVL806:
 5835 1176 F9D2     		bcs	.L537
 5836              		.loc 1 2064 0
 5837 1178 8900     		lsls	r1, r1, #2
 5838              		.loc 1 3224 0
 5839 117a C1EB0808 		rsb	r8, r1, r8
 5840 117e 6418     		adds	r4, r4, r1
 5841              	.LVL807:
 5842 1180 FFF705B8 		b	.L240
 5843              	.LVL808:
 5844              	.L388:
 5845              		.loc 1 3230 0
 5846 1184 0914     		asrs	r1, r1, #16
 5847              	.LVL809:
 5848              		.loc 1 2064 0
 5849 1186 06EB0800 		add	r0, r6, r8
 5850              		.loc 1 3230 0
 5851 118a 0B46     		mov	r3, r1
 5852              		.loc 1 3231 0
 5853 118c 04E0     		b	.L538
 5854              	.LVL810:
 5855              	.L539:
 5856              		.loc 1 3232 0
 5857 118e 52F8045F 		ldr	r5, [r2, #4]!
 5858              	.LVL811:
 5859              		.loc 1 3233 0
 5860 1192 5544     		add	r5, sl, r5
 5861 1194 40F8045D 		str	r5, [r0, #-4]!
 5862              	.LVL812:
 5863              	.L538:
 5864              		.loc 1 3231 0 discriminator 1
 5865 1198 013B     		subs	r3, r3, #1
 5866              	.LVL813:
 5867 119a F8D2     		bcs	.L539
ARM GAS  /tmp/ccSqa4tb.s 			page 104


 5868              		.loc 1 2064 0
 5869 119c 8900     		lsls	r1, r1, #2
 5870              		.loc 1 3231 0
 5871 119e C1EB0808 		rsb	r8, r1, r8
 5872 11a2 6418     		adds	r4, r4, r1
 5873              	.LVL814:
 5874 11a4 FEF7F3BF 		b	.L240
 5875              	.LVL815:
 5876              	.L389:
 5877              		.loc 1 3237 0
 5878 11a8 0914     		asrs	r1, r1, #16
 5879              	.LVL816:
 5880              		.loc 1 2064 0
 5881 11aa 06EB0800 		add	r0, r6, r8
 5882              		.loc 1 3237 0
 5883 11ae 0B46     		mov	r3, r1
 5884              		.loc 1 3238 0
 5885 11b0 04E0     		b	.L540
 5886              	.LVL817:
 5887              	.L541:
 5888              		.loc 1 3239 0
 5889 11b2 52F8045F 		ldr	r5, [r2, #4]!
 5890              	.LVL818:
 5891              		.loc 1 3240 0
 5892 11b6 7519     		adds	r5, r6, r5
 5893 11b8 40F8045D 		str	r5, [r0, #-4]!
 5894              	.LVL819:
 5895              	.L540:
 5896              		.loc 1 3238 0 discriminator 1
 5897 11bc 013B     		subs	r3, r3, #1
 5898              	.LVL820:
 5899 11be F8D2     		bcs	.L541
 5900              		.loc 1 2064 0
 5901 11c0 8900     		lsls	r1, r1, #2
 5902              		.loc 1 3238 0
 5903 11c2 C1EB0808 		rsb	r8, r1, r8
 5904 11c6 6418     		adds	r4, r4, r1
 5905              	.LVL821:
 5906 11c8 FEF7E1BF 		b	.L240
 5907              	.LVL822:
 5908              	.L390:
 5909              		.loc 1 3244 0
 5910 11cc 0914     		asrs	r1, r1, #16
 5911              	.LVL823:
 5912              		.loc 1 2064 0
 5913 11ce 06EB0800 		add	r0, r6, r8
 5914              		.loc 1 3244 0
 5915 11d2 0B46     		mov	r3, r1
 5916              		.loc 1 3245 0
 5917 11d4 08E0     		b	.L542
 5918              	.LVL824:
 5919              	.L543:
 5920              		.loc 1 3246 0
 5921 11d6 52F804CF 		ldr	ip, [r2, #4]!
 5922              	.LVL825:
 5923              		.loc 1 3247 0
 5924 11da 06EB0A05 		add	r5, r6, sl
ARM GAS  /tmp/ccSqa4tb.s 			page 105


 5925 11de 55F80C50 		ldr	r5, [r5, ip]
 5926 11e2 7519     		adds	r5, r6, r5
 5927 11e4 40F8045D 		str	r5, [r0, #-4]!
 5928              	.LVL826:
 5929              	.L542:
 5930              		.loc 1 3245 0 discriminator 1
 5931 11e8 013B     		subs	r3, r3, #1
 5932              	.LVL827:
 5933 11ea F4D2     		bcs	.L543
 5934              		.loc 1 2064 0
 5935 11ec 8900     		lsls	r1, r1, #2
 5936              		.loc 1 3245 0
 5937 11ee C1EB0808 		rsb	r8, r1, r8
 5938 11f2 6418     		adds	r4, r4, r1
 5939              	.LVL828:
 5940 11f4 FEF7CBBF 		b	.L240
 5941              	.LVL829:
 5942              	.L391:
 5943              		.loc 1 3251 0
 5944 11f8 0914     		asrs	r1, r1, #16
 5945              	.LVL830:
 5946              		.loc 1 2064 0
 5947 11fa 06EB0800 		add	r0, r6, r8
 5948              		.loc 1 3251 0
 5949 11fe 0B46     		mov	r3, r1
 5950              		.loc 1 3252 0
 5951 1200 05E0     		b	.L544
 5952              	.LVL831:
 5953              	.L545:
 5954              		.loc 1 3253 0
 5955 1202 52F8045F 		ldr	r5, [r2, #4]!
 5956              	.LVL832:
 5957              		.loc 1 3254 0
 5958 1206 7519     		adds	r5, r6, r5
 5959 1208 5544     		add	r5, r5, sl
 5960 120a 40F8045D 		str	r5, [r0, #-4]!
 5961              	.LVL833:
 5962              	.L544:
 5963              		.loc 1 3252 0 discriminator 1
 5964 120e 013B     		subs	r3, r3, #1
 5965              	.LVL834:
 5966 1210 F7D2     		bcs	.L545
 5967              		.loc 1 2064 0
 5968 1212 8900     		lsls	r1, r1, #2
 5969              		.loc 1 3252 0
 5970 1214 C1EB0808 		rsb	r8, r1, r8
 5971 1218 6418     		adds	r4, r4, r1
 5972              	.LVL835:
 5973 121a FEF7B8BF 		b	.L240
 5974              	.LVL836:
 5975              	.L392:
 5976              		.loc 1 3260 0
 5977 121e 08EB2141 		add	r1, r8, r1, asr #16
 5978              	.LVL837:
 5979              		.loc 1 3261 0
 5980 1222 0BF13F03 		add	r3, fp, #63
 5981 1226 8B42     		cmp	r3, r1
ARM GAS  /tmp/ccSqa4tb.s 			page 106


 5982 1228 80F2A180 		bge	.L564
 5983              		.loc 1 3262 0
 5984 122c D9F82C30 		ldr	r3, [r9, #44]	@ unaligned
 5985 1230 9942     		cmp	r1, r3
 5986 1232 00F39A80 		bgt	.L563
 5987 1236 4746     		mov	r7, r8
 5988 1238 8846     		mov	r8, r1
 5989              	.LVL838:
 5990 123a FEF7A8BF 		b	.L240
 5991              	.LVL839:
 5992              	.L393:
 5993              		.loc 1 3267 0
 5994 123e 0BEB2141 		add	r1, fp, r1, asr #16
 5995              	.LVL840:
 5996              		.loc 1 3268 0
 5997 1242 01F13F03 		add	r3, r1, #63
 5998 1246 4345     		cmp	r3, r8
 5999 1248 80F29180 		bge	.L564
 6000              		.loc 1 3269 0
 6001 124c D9F82430 		ldr	r3, [r9, #36]	@ unaligned
 6002 1250 9942     		cmp	r1, r3
 6003 1252 C0F28E80 		blt	.L565
 6004 1256 5F46     		mov	r7, fp
 6005 1258 8B46     		mov	fp, r1
 6006              	.LVL841:
 6007 125a FEF798BF 		b	.L240
 6008              	.LVL842:
 6009              	.L394:
 6010              		.loc 1 3273 0
 6011 125e 079A     		ldr	r2, [sp, #28]
 6012              	.LVL843:
 6013              		.loc 1 3272 0
 6014 1260 0914     		asrs	r1, r1, #16
 6015              		.loc 1 3273 0
 6016 1262 12FA01F1 		lsls	r1, r2, r1
 6017 1266 0791     		str	r1, [sp, #28]
 6018              		.loc 1 3274 0
 6019 1268 FEF791BF 		b	.L240
 6020              	.LVL844:
 6021              	.L395:
 6022              		.loc 1 3276 0
 6023 126c 0914     		asrs	r1, r1, #16
 6024              		.loc 1 3277 0
 6025 126e 8F40     		lsls	r7, r7, r1
 6026              	.LVL845:
 6027              		.loc 1 3278 0
 6028 1270 FEF78DBF 		b	.L240
 6029              	.LVL846:
 6030              	.L396:
 6031              		.loc 1 3281 0
 6032 1274 079A     		ldr	r2, [sp, #28]
 6033 1276 02EB2141 		add	r1, r2, r1, asr #16
 6034 127a 0791     		str	r1, [sp, #28]
 6035              		.loc 1 3282 0
 6036 127c FEF787BF 		b	.L240
 6037              	.LVL847:
 6038              	.L397:
ARM GAS  /tmp/ccSqa4tb.s 			page 107


 6039              		.loc 1 3285 0
 6040 1280 079B     		ldr	r3, [sp, #28]
 6041              		.loc 1 3284 0
 6042 1282 0914     		asrs	r1, r1, #16
 6043              		.loc 1 3285 0
 6044 1284 5943     		muls	r1, r3, r1
 6045 1286 0791     		str	r1, [sp, #28]
 6046              		.loc 1 3286 0
 6047 1288 FEF781BF 		b	.L240
 6048              	.LVL848:
 6049              	.L398:
 6050              		.loc 1 3288 0
 6051 128c 0914     		asrs	r1, r1, #16
 6052              		.loc 1 3289 0
 6053 128e 0023     		movs	r3, #0
 6054 1290 7350     		str	r3, [r6, r1]
 6055              		.loc 1 3290 0
 6056 1292 FEF77CBF 		b	.L240
 6057              	.LVL849:
 6058              	.L399:
 6059              		.loc 1 3292 0
 6060 1296 0914     		asrs	r1, r1, #16
 6061              		.loc 1 3293 0
 6062 1298 06EB0A03 		add	r3, r6, sl
 6063 129c 0022     		movs	r2, #0
 6064 129e 5A50     		str	r2, [r3, r1]
 6065              		.loc 1 3294 0
 6066 12a0 FEF775BF 		b	.L240
 6067              	.LVL850:
 6068              	.L400:
 6069              		.loc 1 3297 0
 6070 12a4 079B     		ldr	r3, [sp, #28]
 6071 12a6 B3EB214F 		cmp	r3, r1, asr #16
 6072 12aa 14BF     		ite	ne
 6073 12ac 0023     		movne	r3, #0
 6074 12ae 0123     		moveq	r3, #1
 6075 12b0 0793     		str	r3, [sp, #28]
 6076              		.loc 1 3298 0
 6077 12b2 FEF76CBF 		b	.L240
 6078              	.LVL851:
 6079              	.L401:
 6080              		.loc 1 3301 0
 6081 12b6 B7EB214F 		cmp	r7, r1, asr #16
 6082 12ba 14BF     		ite	ne
 6083 12bc 0023     		movne	r3, #0
 6084 12be 0123     		moveq	r3, #1
 6085 12c0 0793     		str	r3, [sp, #28]
 6086              		.loc 1 3302 0
 6087 12c2 FEF764BF 		b	.L240
 6088              	.LVL852:
 6089              	.L402:
 6090              		.loc 1 3304 0
 6091 12c6 0914     		asrs	r1, r1, #16
 6092              		.loc 1 3306 0
 6093 12c8 7358     		ldr	r3, [r6, r1]
 6094 12ca 0133     		adds	r3, r3, #1
 6095 12cc 7350     		str	r3, [r6, r1]
ARM GAS  /tmp/ccSqa4tb.s 			page 108


 6096              		.loc 1 3311 0
 6097 12ce FEF75EBF 		b	.L240
 6098              	.LVL853:
 6099              	.L403:
 6100              		.loc 1 3315 0
 6101 12d2 0AEB2141 		add	r1, sl, r1, asr #16
 6102 12d6 7358     		ldr	r3, [r6, r1]
 6103 12d8 0133     		adds	r3, r3, #1
 6104 12da 7350     		str	r3, [r6, r1]
 6105              		.loc 1 3320 0
 6106 12dc FEF757BF 		b	.L240
 6107              	.LVL854:
 6108              	.L404:
 6109              		.loc 1 3322 0
 6110 12e0 0914     		asrs	r1, r1, #16
 6111              		.loc 1 3324 0
 6112 12e2 7358     		ldr	r3, [r6, r1]
 6113 12e4 013B     		subs	r3, r3, #1
 6114 12e6 7350     		str	r3, [r6, r1]
 6115              		.loc 1 3329 0
 6116 12e8 FEF751BF 		b	.L240
 6117              	.LVL855:
 6118              	.L405:
 6119              		.loc 1 3333 0
 6120 12ec 0AEB2141 		add	r1, sl, r1, asr #16
 6121 12f0 7358     		ldr	r3, [r6, r1]
 6122 12f2 013B     		subs	r3, r3, #1
 6123 12f4 7350     		str	r3, [r6, r1]
 6124              		.loc 1 3338 0
 6125 12f6 FEF74ABF 		b	.L240
 6126              	.LVL856:
 6127              	.L406:
 6128              		.loc 1 3340 0
 6129 12fa 0A14     		asrs	r2, r1, #16
 6130              	.LVL857:
 6131              		.loc 1 3341 0
 6132 12fc FFF7CBBA 		b	.L450
 6133              	.LVL858:
 6134              	.L407:
 6135              		.loc 1 3343 0
 6136 1300 0A14     		asrs	r2, r1, #16
 6137              	.LVL859:
 6138              		.loc 1 3344 0
 6139 1302 FFF7F4BA 		b	.L463
 6140              	.LVL860:
 6141              	.L408:
 6142              		.loc 1 3346 0
 6143 1306 0914     		asrs	r1, r1, #16
 6144              	.LVL861:
 6145              		.loc 1 3347 0
 6146 1308 FFF71EBB 		b	.L476
 6147              	.LVL862:
 6148              	.L409:
 6149 130c CDF810B0 		str	fp, [sp, #16]
 6150 1310 4D46     		mov	r5, r9
 6151 1312 DDF808C0 		ldr	ip, [sp, #8]
 6152 1316 DDF804B0 		ldr	fp, [sp, #4]
ARM GAS  /tmp/ccSqa4tb.s 			page 109


 6153              	.LVL863:
 6154 131a B946     		mov	r9, r7
 6155              	.LVL864:
 6156              		.loc 1 3349 0
 6157 131c 0814     		asrs	r0, r1, #16
 6158              	.LVL865:
 6159              		.loc 1 3350 0
 6160 131e FFF739BB 		b	.L484
 6161              	.LVL866:
 6162              	.L410:
 6163              		.loc 1 3353 0
 6164 1322 079B     		ldr	r3, [sp, #28]
 6165 1324 B3EB214F 		cmp	r3, r1, asr #16
 6166 1328 7EF631AF 		bls	.L240
 6167              	.LVL867:
 6168              	.L572:
 6169 132c 4D46     		mov	r5, r9
 6170              		.loc 1 3354 0
 6171 132e 6B68     		ldr	r3, [r5, #4]	@ unaligned
 6172 1330 DDF804B0 		ldr	fp, [sp, #4]
 6173              	.LVL868:
 6174 1334 DDF808C0 		ldr	ip, [sp, #8]
 6175 1338 E41A     		subs	r4, r4, r3
 6176              	.LVL869:
 6177 133a AC61     		str	r4, [r5, #24]	@ unaligned
 6178              		.loc 1 3355 0
 6179 133c C5F828B0 		str	fp, [r5, #40]	@ unaligned
 6180 1340 C5F820C0 		str	ip, [r5, #32]	@ unaligned
 6181 1344 0420     		movs	r0, #4
 6182 1346 15E0     		b	.L228
 6183              	.LVL870:
 6184              	.L241:
 6185 1348 DDF804B0 		ldr	fp, [sp, #4]
 6186              	.LVL871:
 6187 134c DDF808C0 		ldr	ip, [sp, #8]
 6188 1350 4D46     		mov	r5, r9
 6189              		.loc 1 3361 0
 6190 1352 C5F828B0 		str	fp, [r5, #40]	@ unaligned
 6191 1356 C5F820C0 		str	ip, [r5, #32]	@ unaligned
 6192 135a 0620     		movs	r0, #6
 6193 135c 0AE0     		b	.L228
 6194              	.LVL872:
 6195              	.L546:
 6196              		.loc 1 2078 0
 6197 135e 1620     		movs	r0, #22
 6198              	.LVL873:
 6199 1360 08E0     		b	.L228
 6200              	.LVL874:
 6201              	.L547:
 6202              		.loc 1 2080 0
 6203 1362 0920     		movs	r0, #9
 6204 1364 06E0     		b	.L228
 6205              	.LVL875:
 6206              	.L550:
 6207              		.loc 1 2137 0
 6208 1366 1420     		movs	r0, #20
 6209 1368 04E0     		b	.L228
ARM GAS  /tmp/ccSqa4tb.s 			page 110


 6210              	.LVL876:
 6211              	.L563:
 6212              		.loc 1 3262 0
 6213 136a 0720     		movs	r0, #7
 6214 136c 02E0     		b	.L228
 6215              	.L564:
 6216              		.loc 1 3268 0
 6217 136e 0320     		movs	r0, #3
 6218 1370 00E0     		b	.L228
 6219              	.L565:
 6220              		.loc 1 3269 0
 6221 1372 0820     		movs	r0, #8
 6222              	.LVL877:
 6223              	.L228:
 6224              		.loc 1 3365 0
 6225 1374 09B0     		add	sp, sp, #36
 6226 1376 BDE8F08F 		pop	{r4, r5, r6, r7, r8, r9, sl, fp, pc}
 6227              	.LVL878:
 6228              	.L582:
 6229              	.LBB23:
 6230              		.loc 1 2704 0
 6231 137a DC68     		ldr	r4, [r3, #12]
 6232 137c 1C19     		adds	r4, r3, r4
 6233 137e 0834     		adds	r4, r4, #8
 6234              	.LVL879:
 6235 1380 FEF705BF 		b	.L240
 6236              	.LVL880:
 6237              	.L583:
 6238              	.LBE23:
 6239              	.LBB24:
 6240              		.loc 1 2818 0
 6241 1384 4B68     		ldr	r3, [r1, #4]
 6242 1386 C9F87030 		str	r3, [r9, #112]	@ unaligned
 6243 138a FFF7CBBB 		b	.L497
 6244              	.LBE24:
 6245              		.cfi_endproc
 6246              	.LFE34:
 6247              		.size	amx_Exec, .-amx_Exec
 6248 138e 00BF     		.section	.text.amx_SetCallback,"ax",%progbits
 6249              		.align	1
 6250              		.global	amx_SetCallback
 6251              		.thumb
 6252              		.thumb_func
 6253              		.type	amx_SetCallback, %function
 6254              	amx_SetCallback:
 6255              	.LFB35:
 6256              		.loc 1 3371 0
 6257              		.cfi_startproc
 6258              		@ args = 0, pretend = 0, frame = 0
 6259              		@ frame_needed = 0, uses_anonymous_args = 0
 6260              		@ link register save eliminated.
 6261              	.LVL881:
 6262              		.loc 1 3374 0
 6263 0000 C160     		str	r1, [r0, #12]	@ unaligned
 6264              		.loc 1 3376 0
 6265 0002 0020     		movs	r0, #0
 6266              	.LVL882:
ARM GAS  /tmp/ccSqa4tb.s 			page 111


 6267 0004 7047     		bx	lr
 6268              		.cfi_endproc
 6269              	.LFE35:
 6270              		.size	amx_SetCallback, .-amx_SetCallback
 6271              		.section	.text.amx_SetDebugHook,"ax",%progbits
 6272              		.align	1
 6273              		.global	amx_SetDebugHook
 6274              		.thumb
 6275              		.thumb_func
 6276              		.type	amx_SetDebugHook, %function
 6277              	amx_SetDebugHook:
 6278              	.LFB36:
 6279              		.loc 1 3381 0
 6280              		.cfi_startproc
 6281              		@ args = 0, pretend = 0, frame = 0
 6282              		@ frame_needed = 0, uses_anonymous_args = 0
 6283              		@ link register save eliminated.
 6284              	.LVL883:
 6285              		.loc 1 3383 0
 6286 0000 0161     		str	r1, [r0, #16]	@ unaligned
 6287              		.loc 1 3385 0
 6288 0002 0020     		movs	r0, #0
 6289              	.LVL884:
 6290 0004 7047     		bx	lr
 6291              		.cfi_endproc
 6292              	.LFE36:
 6293              		.size	amx_SetDebugHook, .-amx_SetDebugHook
 6294              		.section	.text.amx_RaiseError,"ax",%progbits
 6295              		.align	1
 6296              		.global	amx_RaiseError
 6297              		.thumb
 6298              		.thumb_func
 6299              		.type	amx_RaiseError, %function
 6300              	amx_RaiseError:
 6301              	.LFB37:
 6302              		.loc 1 3390 0
 6303              		.cfi_startproc
 6304              		@ args = 0, pretend = 0, frame = 0
 6305              		@ frame_needed = 0, uses_anonymous_args = 0
 6306              		@ link register save eliminated.
 6307              	.LVL885:
 6308              		.loc 1 3392 0
 6309 0000 4165     		str	r1, [r0, #84]	@ unaligned
 6310              		.loc 1 3394 0
 6311 0002 0020     		movs	r0, #0
 6312              	.LVL886:
 6313 0004 7047     		bx	lr
 6314              		.cfi_endproc
 6315              	.LFE37:
 6316              		.size	amx_RaiseError, .-amx_RaiseError
 6317              		.section	.text.amx_Allot,"ax",%progbits
 6318              		.align	1
 6319              		.global	amx_Allot
 6320              		.thumb
 6321              		.thumb_func
 6322              		.type	amx_Allot, %function
 6323              	amx_Allot:
ARM GAS  /tmp/ccSqa4tb.s 			page 112


 6324              	.LFB38:
 6325              		.loc 1 3399 0
 6326              		.cfi_startproc
 6327              		@ args = 0, pretend = 0, frame = 0
 6328              		@ frame_needed = 0, uses_anonymous_args = 0
 6329              	.LVL887:
 6330 0000 30B5     		push	{r4, r5, lr}
 6331              	.LCFI23:
 6332              		.cfi_def_cfa_offset 12
 6333              		.loc 1 3407 0
 6334 0002 8468     		ldr	r4, [r0, #8]	@ unaligned
 6335              		.cfi_offset 14, -4
 6336              		.cfi_offset 5, -8
 6337              		.cfi_offset 4, -12
 6338              		.loc 1 3404 0
 6339 0004 0368     		ldr	r3, [r0, #0]	@ unaligned
 6340              	.LVL888:
 6341              		.loc 1 3407 0
 6342 0006 0CB9     		cbnz	r4, .L588
 6343              		.loc 1 3407 0 is_stmt 0 discriminator 2
 6344 0008 1C69     		ldr	r4, [r3, #16]	@ unaligned
 6345 000a 1C19     		adds	r4, r3, r4
 6346              	.L588:
 6347              	.LVL889:
 6348              		.loc 1 3409 0 is_stmt 1 discriminator 3
 6349 000c 036A     		ldr	r3, [r0, #32]	@ unaligned
 6350              	.LVL890:
 6351 000e 856A     		ldr	r5, [r0, #40]	@ unaligned
 6352 0010 8900     		lsls	r1, r1, #2
 6353              	.LVL891:
 6354 0012 ED1A     		subs	r5, r5, r3
 6355 0014 6D1A     		subs	r5, r5, r1
 6356 0016 3F2D     		cmp	r5, #63
 6357 0018 06D9     		bls	.L591
 6358              		.loc 1 3411 0
 6359 001a 0AB1     		cbz	r2, .L590
 6360              		.loc 1 3412 0
 6361 001c E418     		adds	r4, r4, r3
 6362              	.LVL892:
 6363 001e 1460     		str	r4, [r2, #0]
 6364              	.L590:
 6365              		.loc 1 3413 0
 6366 0020 C918     		adds	r1, r1, r3
 6367 0022 0162     		str	r1, [r0, #32]	@ unaligned
 6368              		.loc 1 3414 0
 6369 0024 0020     		movs	r0, #0
 6370              	.LVL893:
 6371 0026 30BD     		pop	{r4, r5, pc}
 6372              	.LVL894:
 6373              	.L591:
 6374              		.loc 1 3410 0
 6375 0028 1020     		movs	r0, #16
 6376              	.LVL895:
 6377              		.loc 1 3415 0
 6378 002a 30BD     		pop	{r4, r5, pc}
 6379              		.cfi_endproc
 6380              	.LFE38:
ARM GAS  /tmp/ccSqa4tb.s 			page 113


 6381              		.size	amx_Allot, .-amx_Allot
 6382              		.section	.text.amx_PushArray,"ax",%progbits
 6383              		.align	1
 6384              		.global	amx_PushArray
 6385              		.thumb
 6386              		.thumb_func
 6387              		.type	amx_PushArray, %function
 6388              	amx_PushArray:
 6389              	.LFB31:
 6390              		.loc 1 1961 0
 6391              		.cfi_startproc
 6392              		@ args = 0, pretend = 0, frame = 0
 6393              		@ frame_needed = 0, uses_anonymous_args = 0
 6394              	.LVL896:
 6395 0000 2DE9F041 		push	{r4, r5, r6, r7, r8, lr}
 6396              	.LCFI24:
 6397              		.cfi_def_cfa_offset 24
 6398              		.loc 1 1961 0
 6399 0004 0D46     		mov	r5, r1
 6400              		.cfi_offset 14, -4
 6401              		.cfi_offset 8, -8
 6402              		.cfi_offset 7, -12
 6403              		.cfi_offset 6, -16
 6404              		.cfi_offset 5, -20
 6405              		.cfi_offset 4, -24
 6406 0006 1646     		mov	r6, r2
 6407              		.loc 1 1969 0
 6408 0008 1946     		mov	r1, r3
 6409              	.LVL897:
 6410 000a 2A46     		mov	r2, r5
 6411              	.LVL898:
 6412              		.loc 1 1961 0
 6413 000c 0446     		mov	r4, r0
 6414 000e 1F46     		mov	r7, r3
 6415              		.loc 1 1968 0
 6416 0010 D0F82080 		ldr	r8, [r0, #32]	@ unaligned
 6417              	.LVL899:
 6418              		.loc 1 1969 0
 6419 0014 FFF7FEFF 		bl	amx_Allot
 6420              	.LVL900:
 6421              		.loc 1 1970 0
 6422 0018 50B9     		cbnz	r0, .L593
 6423              		.loc 1 1971 0
 6424 001a 3146     		mov	r1, r6
 6425 001c 2868     		ldr	r0, [r5, #0]
 6426              	.LVL901:
 6427 001e BA00     		lsls	r2, r7, #2
 6428 0020 FFF7FEFF 		bl	memcpy
 6429              		.loc 1 1972 0
 6430 0024 2046     		mov	r0, r4
 6431 0026 4146     		mov	r1, r8
 6432              		.loc 1 1975 0
 6433 0028 BDE8F041 		pop	{r4, r5, r6, r7, r8, lr}
 6434              		.loc 1 1972 0
 6435 002c FFF7FEBF 		b	amx_Push
 6436              	.LVL902:
 6437              	.L593:
ARM GAS  /tmp/ccSqa4tb.s 			page 114


 6438              		.loc 1 1975 0
 6439 0030 BDE8F081 		pop	{r4, r5, r6, r7, r8, pc}
 6440              		.cfi_endproc
 6441              	.LFE31:
 6442              		.size	amx_PushArray, .-amx_PushArray
 6443              		.section	.text.amx_Release,"ax",%progbits
 6444              		.align	1
 6445              		.global	amx_Release
 6446              		.thumb
 6447              		.thumb_func
 6448              		.type	amx_Release, %function
 6449              	amx_Release:
 6450              	.LFB39:
 6451              		.loc 1 3418 0
 6452              		.cfi_startproc
 6453              		@ args = 0, pretend = 0, frame = 0
 6454              		@ frame_needed = 0, uses_anonymous_args = 0
 6455              		@ link register save eliminated.
 6456              	.LVL903:
 6457              		.loc 1 3427 0
 6458 0000 8368     		ldr	r3, [r0, #8]	@ unaligned
 6459              		.loc 1 3424 0
 6460 0002 0268     		ldr	r2, [r0, #0]	@ unaligned
 6461              	.LVL904:
 6462              		.loc 1 3427 0
 6463 0004 0BB9     		cbnz	r3, .L595
 6464              		.loc 1 3427 0 is_stmt 0 discriminator 2
 6465 0006 1369     		ldr	r3, [r2, #16]	@ unaligned
 6466 0008 D318     		adds	r3, r2, r3
 6467              	.L595:
 6468              	.LVL905:
 6469              		.loc 1 3429 0 is_stmt 1 discriminator 3
 6470 000a 026A     		ldr	r2, [r0, #32]	@ unaligned
 6471              	.LVL906:
 6472              		.loc 1 3428 0 discriminator 3
 6473 000c CB1A     		subs	r3, r1, r3
 6474              	.LVL907:
 6475              		.loc 1 3429 0 discriminator 3
 6476 000e 9A42     		cmp	r2, r3
 6477              		.loc 1 3430 0 discriminator 3
 6478 0010 C8BF     		it	gt
 6479 0012 0362     		strgt	r3, [r0, #32]	@ unaligned
 6480              		.loc 1 3432 0 discriminator 3
 6481 0014 0020     		movs	r0, #0
 6482              	.LVL908:
 6483 0016 7047     		bx	lr
 6484              		.cfi_endproc
 6485              	.LFE39:
 6486              		.size	amx_Release, .-amx_Release
 6487              		.section	.text.amx_StrLen,"ax",%progbits
 6488              		.align	1
 6489              		.global	amx_StrLen
 6490              		.thumb
 6491              		.thumb_func
 6492              		.type	amx_StrLen, %function
 6493              	amx_StrLen:
 6494              	.LFB40:
ARM GAS  /tmp/ccSqa4tb.s 			page 115


 6495              		.loc 1 3449 0
 6496              		.cfi_startproc
 6497              		@ args = 0, pretend = 0, frame = 0
 6498              		@ frame_needed = 0, uses_anonymous_args = 0
 6499              	.LVL909:
 6500 0000 38B5     		push	{r3, r4, r5, lr}
 6501              	.LCFI25:
 6502              		.cfi_def_cfa_offset 16
 6503              		.loc 1 3449 0
 6504 0002 0D46     		mov	r5, r1
 6505              		.cfi_offset 14, -4
 6506              		.cfi_offset 5, -8
 6507              		.cfi_offset 4, -12
 6508              		.cfi_offset 3, -16
 6509              		.loc 1 3456 0
 6510 0004 0446     		mov	r4, r0
 6511 0006 10B9     		cbnz	r0, .L598
 6512              		.loc 1 3457 0
 6513 0008 0860     		str	r0, [r1, #0]
 6514              		.loc 1 3458 0
 6515 000a 1930     		adds	r0, r0, #25
 6516              	.LVL910:
 6517 000c 38BD     		pop	{r3, r4, r5, pc}
 6518              	.L598:
 6519              		.loc 1 3461 0
 6520 000e 0368     		ldr	r3, [r0, #0]
 6521 0010 B3F1807F 		cmp	r3, #16777216
 6522 0014 01D2     		bcs	.L600
 6523 0016 0020     		movs	r0, #0
 6524 0018 0EE0     		b	.L601
 6525              	.L600:
 6526              		.loc 1 3464 0
 6527 001a FFF7FEFF 		bl	strlen
 6528              	.LVL911:
 6529              		.loc 1 3468 0
 6530 001e 8308     		lsrs	r3, r0, #2
 6531 0020 54F82330 		ldr	r3, [r4, r3, lsl #2]
 6532              	.LVL912:
 6533              		.loc 1 3469 0
 6534 0024 20F00300 		bic	r0, r0, #3
 6535              	.LVL913:
 6536              		.loc 1 3470 0
 6537 0028 01E0     		b	.L602
 6538              	.L603:
 6539              		.loc 1 3471 0
 6540 002a 0130     		adds	r0, r0, #1
 6541              	.LVL914:
 6542              		.loc 1 3472 0
 6543 002c 1B02     		lsls	r3, r3, #8
 6544              	.LVL915:
 6545              	.L602:
 6546              		.loc 1 3470 0 discriminator 1
 6547 002e 13F07F4F 		tst	r3, #-16777216
 6548 0032 FAD1     		bne	.L603
 6549 0034 04E0     		b	.L604
 6550              	.LVL916:
 6551              	.L605:
ARM GAS  /tmp/ccSqa4tb.s 			page 116


 6552              		.loc 1 3476 0 discriminator 2
 6553 0036 0130     		adds	r0, r0, #1
 6554              	.LVL917:
 6555              	.L601:
 6556              		.loc 1 3476 0 is_stmt 0 discriminator 1
 6557 0038 54F8043B 		ldr	r3, [r4], #4
 6558 003c 002B     		cmp	r3, #0
 6559 003e FAD1     		bne	.L605
 6560              	.L604:
 6561              		.loc 1 3479 0 is_stmt 1
 6562 0040 2860     		str	r0, [r5, #0]
 6563              		.loc 1 3480 0
 6564 0042 0020     		movs	r0, #0
 6565              	.LVL918:
 6566              		.loc 1 3481 0
 6567 0044 38BD     		pop	{r3, r4, r5, pc}
 6568              		.cfi_endproc
 6569              	.LFE40:
 6570              		.size	amx_StrLen, .-amx_StrLen
 6571              		.section	.text.amx_SetString,"ax",%progbits
 6572              		.align	1
 6573              		.global	amx_SetString
 6574              		.thumb
 6575              		.thumb_func
 6576              		.type	amx_SetString, %function
 6577              	amx_SetString:
 6578              	.LFB41:
 6579              		.loc 1 3486 0
 6580              		.cfi_startproc
 6581              		@ args = 4, pretend = 0, frame = 0
 6582              		@ frame_needed = 0, uses_anonymous_args = 0
 6583              	.LVL919:
 6584 0000 2DE9F041 		push	{r4, r5, r6, r7, r8, lr}
 6585              	.LCFI26:
 6586              		.cfi_def_cfa_offset 24
 6587              		.loc 1 3486 0
 6588 0004 069E     		ldr	r6, [sp, #24]
 6589              		.cfi_offset 14, -4
 6590              		.cfi_offset 8, -8
 6591              		.cfi_offset 7, -12
 6592              		.cfi_offset 6, -16
 6593              		.cfi_offset 5, -20
 6594              		.cfi_offset 4, -24
 6595 0006 0446     		mov	r4, r0
 6596 0008 0D46     		mov	r5, r1
 6597 000a 1746     		mov	r7, r2
 6598              		.loc 1 3494 0
 6599 000c 9846     		mov	r8, r3
 6600 000e 1BB1     		cbz	r3, .L607
 6601              		.loc 1 3494 0 is_stmt 0 discriminator 1
 6602 0010 0846     		mov	r0, r1
 6603              	.LVL920:
 6604 0012 FFF7FEFF 		bl	wcslen
 6605              	.LVL921:
 6606 0016 02E0     		b	.L624
 6607              	.L607:
 6608              		.loc 1 3494 0 discriminator 2
ARM GAS  /tmp/ccSqa4tb.s 			page 117


 6609 0018 0846     		mov	r0, r1
 6610 001a FFF7FEFF 		bl	strlen
 6611              	.L624:
 6612 001e 0246     		mov	r2, r0
 6613              	.LVL922:
 6614              		.loc 1 3496 0 is_stmt 1 discriminator 2
 6615 0020 27B3     		cbz	r7, .L609
 6616              		.loc 1 3498 0
 6617 0022 244B     		ldr	r3, .L625
 6618 0024 9E42     		cmp	r6, r3
 6619 0026 03D8     		bhi	.L610
 6620              		.loc 1 3498 0 is_stmt 0 discriminator 1
 6621 0028 B600     		lsls	r6, r6, #2
 6622 002a B042     		cmp	r0, r6
 6623              		.loc 1 3499 0 is_stmt 1 discriminator 1
 6624 002c 28BF     		it	cs
 6625 002e 721E     		subcs	r2, r6, #1
 6626              	.LVL923:
 6627              	.L610:
 6628              		.loc 1 3500 0
 6629 0030 9608     		lsrs	r6, r2, #2
 6630 0032 0023     		movs	r3, #0
 6631 0034 B700     		lsls	r7, r6, #2
 6632              	.LVL924:
 6633 0036 44F82630 		str	r3, [r4, r6, lsl #2]
 6634              		.loc 1 3504 0
 6635 003a B8F1000F 		cmp	r8, #0
 6636 003e 04D1     		bne	.L612
 6637 0040 06E0     		b	.L611
 6638              	.LVL925:
 6639              	.L613:
 6640              		.loc 1 3506 0 discriminator 2
 6641 0042 55F8041B 		ldr	r1, [r5], #4
 6642 0046 E154     		strb	r1, [r4, r3]
 6643              		.loc 1 3505 0 discriminator 2
 6644 0048 0133     		adds	r3, r3, #1
 6645              	.LVL926:
 6646              	.L612:
 6647              		.loc 1 3505 0 is_stmt 0 discriminator 1
 6648 004a 9342     		cmp	r3, r2
 6649 004c F9DB     		blt	.L613
 6650 004e 03E0     		b	.L614
 6651              	.LVL927:
 6652              	.L611:
 6653              		.loc 1 3508 0 is_stmt 1
 6654 0050 2046     		mov	r0, r4
 6655 0052 2946     		mov	r1, r5
 6656 0054 FFF7FEFF 		bl	memcpy
 6657              	.LVL928:
 6658              	.L614:
 6659              		.loc 1 3485 0
 6660 0058 E419     		adds	r4, r4, r7
 6661              	.LVL929:
 6662              	.L615:
 6663              		.loc 1 3518 0
 6664 005a 2046     		mov	r0, r4
 6665 005c 013E     		subs	r6, r6, #1
ARM GAS  /tmp/ccSqa4tb.s 			page 118


 6666              	.LVL930:
 6667 005e FFF7FEFF 		bl	amx_Swap32
 6668 0062 043C     		subs	r4, r4, #4
 6669              		.loc 1 3517 0
 6670 0064 B6F1FF3F 		cmp	r6, #-1
 6671 0068 F7D1     		bne	.L615
 6672 006a 1FE0     		b	.L616
 6673              	.LVL931:
 6674              	.L609:
 6675              		.loc 1 3522 0
 6676 006c 124B     		ldr	r3, .L625+4
 6677 006e 9E42     		cmp	r6, r3
 6678 0070 02D8     		bhi	.L617
 6679              		.loc 1 3522 0 is_stmt 0 discriminator 1
 6680 0072 B042     		cmp	r0, r6
 6681              		.loc 1 3523 0 is_stmt 1 discriminator 1
 6682 0074 28BF     		it	cs
 6683 0076 721E     		subcs	r2, r6, #1
 6684              	.LVL932:
 6685              	.L617:
 6686              		.loc 1 3528 0
 6687 0078 B8F1000F 		cmp	r8, #0
 6688 007c 02D0     		beq	.L618
 6689              		.loc 1 3528 0 is_stmt 0 discriminator 1
 6690 007e 0023     		movs	r3, #0
 6691 0080 1946     		mov	r1, r3
 6692 0082 05E0     		b	.L619
 6693              	.L618:
 6694              		.loc 1 3528 0
 6695 0084 2346     		mov	r3, r4
 6696 0086 0CE0     		b	.L620
 6697              	.LVL933:
 6698              	.L621:
 6699              		.loc 1 3530 0 is_stmt 1 discriminator 2
 6700 0088 E858     		ldr	r0, [r5, r3]
 6701              		.loc 1 3529 0 discriminator 2
 6702 008a 0131     		adds	r1, r1, #1
 6703              	.LVL934:
 6704              		.loc 1 3530 0 discriminator 2
 6705 008c E050     		str	r0, [r4, r3]
 6706              		.loc 1 3529 0 discriminator 2
 6707 008e 0433     		adds	r3, r3, #4
 6708              	.LVL935:
 6709              	.L619:
 6710              		.loc 1 3529 0 is_stmt 0 discriminator 1
 6711 0090 9142     		cmp	r1, r2
 6712 0092 F9DB     		blt	.L621
 6713 0094 07E0     		b	.L622
 6714              	.LVL936:
 6715              	.L623:
 6716              		.loc 1 3533 0 is_stmt 1 discriminator 2
 6717 0096 15F80810 		ldrb	r1, [r5, r8]	@ zero_extendqisi2
 6718              		.loc 1 3532 0 discriminator 2
 6719 009a 08F10108 		add	r8, r8, #1
 6720              	.LVL937:
 6721              		.loc 1 3533 0 discriminator 2
 6722 009e 43F8041B 		str	r1, [r3], #4
ARM GAS  /tmp/ccSqa4tb.s 			page 119


 6723              	.LVL938:
 6724              	.L620:
 6725              		.loc 1 3532 0 discriminator 1
 6726 00a2 9045     		cmp	r8, r2
 6727 00a4 F7DB     		blt	.L623
 6728              	.LVL939:
 6729              	.L622:
 6730              		.loc 1 3536 0
 6731 00a6 0023     		movs	r3, #0
 6732 00a8 44F82230 		str	r3, [r4, r2, lsl #2]
 6733              	.LVL940:
 6734              	.L616:
 6735              		.loc 1 3539 0
 6736 00ac 0020     		movs	r0, #0
 6737 00ae BDE8F081 		pop	{r4, r5, r6, r7, r8, pc}
 6738              	.L626:
 6739 00b2 00BF     		.align	2
 6740              	.L625:
 6741 00b4 FEFFFF1F 		.word	536870910
 6742 00b8 FEFFFF7F 		.word	2147483646
 6743              		.cfi_endproc
 6744              	.LFE41:
 6745              		.size	amx_SetString, .-amx_SetString
 6746              		.section	.text.amx_PushString,"ax",%progbits
 6747              		.align	1
 6748              		.global	amx_PushString
 6749              		.thumb
 6750              		.thumb_func
 6751              		.type	amx_PushString, %function
 6752              	amx_PushString:
 6753              	.LFB32:
 6754              		.loc 1 1978 0
 6755              		.cfi_startproc
 6756              		@ args = 4, pretend = 0, frame = 0
 6757              		@ frame_needed = 0, uses_anonymous_args = 0
 6758              	.LVL941:
 6759 0000 2DE9F347 		push	{r0, r1, r4, r5, r6, r7, r8, r9, sl, lr}
 6760              	.LCFI27:
 6761              		.cfi_def_cfa_offset 40
 6762              		.loc 1 1978 0
 6763 0004 DDF82880 		ldr	r8, [sp, #40]
 6764              		.cfi_offset 14, -4
 6765              		.cfi_offset 10, -8
 6766              		.cfi_offset 9, -12
 6767              		.cfi_offset 8, -16
 6768              		.cfi_offset 7, -20
 6769              		.cfi_offset 6, -24
 6770              		.cfi_offset 5, -28
 6771              		.cfi_offset 4, -32
 6772              		.cfi_offset 1, -36
 6773              		.cfi_offset 0, -40
 6774 0008 0446     		mov	r4, r0
 6775 000a 8A46     		mov	sl, r1
 6776 000c 1546     		mov	r5, r2
 6777 000e 9946     		mov	r9, r3
 6778              		.loc 1 1988 0
 6779 0010 B8F1000F 		cmp	r8, #0
ARM GAS  /tmp/ccSqa4tb.s 			page 120


 6780 0014 03D0     		beq	.L628
 6781              		.loc 1 1988 0 is_stmt 0 discriminator 1
 6782 0016 1046     		mov	r0, r2
 6783              	.LVL942:
 6784 0018 FFF7FEFF 		bl	wcslen
 6785              	.LVL943:
 6786 001c 02E0     		b	.L632
 6787              	.L628:
 6788              		.loc 1 1988 0 discriminator 2
 6789 001e 1046     		mov	r0, r2
 6790 0020 FFF7FEFF 		bl	strlen
 6791              	.L632:
 6792 0024 471C     		adds	r7, r0, #1
 6793              	.LVL944:
 6794              		.loc 1 1990 0 is_stmt 1 discriminator 2
 6795 0026 B9F1000F 		cmp	r9, #0
 6796 002a 01D0     		beq	.L630
 6797              		.loc 1 1991 0
 6798 002c 0337     		adds	r7, r7, #3
 6799              	.LVL945:
 6800 002e BF08     		lsrs	r7, r7, #2
 6801              	.LVL946:
 6802              	.L630:
 6803              		.loc 1 1993 0
 6804 0030 2046     		mov	r0, r4
 6805 0032 3946     		mov	r1, r7
 6806 0034 5246     		mov	r2, sl
 6807              		.loc 1 1992 0
 6808 0036 266A     		ldr	r6, [r4, #32]	@ unaligned
 6809              	.LVL947:
 6810              		.loc 1 1993 0
 6811 0038 FFF7FEFF 		bl	amx_Allot
 6812              	.LVL948:
 6813              		.loc 1 1994 0
 6814 003c 70B9     		cbnz	r0, .L631
 6815              		.loc 1 1995 0
 6816 003e 2946     		mov	r1, r5
 6817 0040 DAF80000 		ldr	r0, [sl, #0]
 6818              	.LVL949:
 6819 0044 4A46     		mov	r2, r9
 6820 0046 4346     		mov	r3, r8
 6821 0048 0097     		str	r7, [sp, #0]
 6822 004a FFF7FEFF 		bl	amx_SetString
 6823              		.loc 1 1996 0
 6824 004e 2046     		mov	r0, r4
 6825 0050 3146     		mov	r1, r6
 6826              		.loc 1 1999 0
 6827 0052 02B0     		add	sp, sp, #8
 6828 0054 BDE8F047 		pop	{r4, r5, r6, r7, r8, r9, sl, lr}
 6829              		.loc 1 1996 0
 6830 0058 FFF7FEBF 		b	amx_Push
 6831              	.LVL950:
 6832              	.L631:
 6833              		.loc 1 1999 0
 6834 005c 02B0     		add	sp, sp, #8
 6835 005e BDE8F087 		pop	{r4, r5, r6, r7, r8, r9, sl, pc}
 6836              		.cfi_endproc
ARM GAS  /tmp/ccSqa4tb.s 			page 121


 6837              	.LFE32:
 6838              		.size	amx_PushString, .-amx_PushString
 6839              		.section	.text.amx_GetString,"ax",%progbits
 6840              		.align	1
 6841              		.global	amx_GetString
 6842              		.thumb
 6843              		.thumb_func
 6844              		.type	amx_GetString, %function
 6845              	amx_GetString:
 6846              	.LFB42:
 6847              		.loc 1 3544 0
 6848              		.cfi_startproc
 6849              		@ args = 0, pretend = 0, frame = 0
 6850              		@ frame_needed = 0, uses_anonymous_args = 0
 6851              	.LVL951:
 6852 0000 F0B5     		push	{r4, r5, r6, r7, lr}
 6853              	.LCFI28:
 6854              		.cfi_def_cfa_offset 20
 6855              		.loc 1 3549 0
 6856 0002 0C68     		ldr	r4, [r1, #0]
 6857              		.cfi_offset 14, -4
 6858              		.cfi_offset 7, -8
 6859              		.cfi_offset 6, -12
 6860              		.cfi_offset 5, -16
 6861              		.cfi_offset 4, -20
 6862 0004 B4F1807F 		cmp	r4, #16777216
 6863 0008 19D3     		bcc	.L634
 6864              		.loc 1 3549 0 is_stmt 0 discriminator 1
 6865 000a 0025     		movs	r5, #0
 6866 000c 0326     		movs	r6, #3
 6867 000e AC46     		mov	ip, r5
 6868 0010 11E0     		b	.L635
 6869              	.LVL952:
 6870              	.L640:
 6871              	.LBB25:
 6872              		.loc 1 3555 0 is_stmt 1
 6873 0012 032E     		cmp	r6, #3
 6874              		.loc 1 3556 0
 6875 0014 08BF     		it	eq
 6876 0016 51F804CB 		ldreq	ip, [r1], #4
 6877              	.LVL953:
 6878              		.loc 1 3557 0
 6879 001a F700     		lsls	r7, r6, #3
 6880 001c 4CFA07F7 		asr	r7, ip, r7
 6881 0020 FFB2     		uxtb	r7, r7
 6882              	.LVL954:
 6883              		.loc 1 3558 0
 6884 0022 0FB3     		cbz	r7, .L637
 6885              		.loc 1 3563 0
 6886 0024 12B1     		cbz	r2, .L638
 6887              		.loc 1 3564 0
 6888 0026 40F82570 		str	r7, [r0, r5, lsl #2]
 6889              	.LVL955:
 6890 002a 00E0     		b	.L639
 6891              	.LVL956:
 6892              	.L638:
 6893              		.loc 1 3566 0
ARM GAS  /tmp/ccSqa4tb.s 			page 122


 6894 002c 4755     		strb	r7, [r0, r5]
 6895              	.LVL957:
 6896              	.L639:
 6897              		.loc 1 3568 0
 6898 002e 0336     		adds	r6, r6, #3
 6899              	.LVL958:
 6900 0030 06F00306 		and	r6, r6, #3
 6901              	.LVL959:
 6902 0034 0135     		adds	r5, r5, #1
 6903              	.LVL960:
 6904              	.L635:
 6905              		.loc 1 3554 0 discriminator 1
 6906 0036 9D42     		cmp	r5, r3
 6907              		.loc 1 3568 0 discriminator 1
 6908 0038 2C46     		mov	r4, r5
 6909              	.LVL961:
 6910              		.loc 1 3554 0 discriminator 1
 6911 003a EAD1     		bne	.L640
 6912 003c 16E0     		b	.L649
 6913              	.LVL962:
 6914              	.L634:
 6915              	.LBE25:
 6916              		.loc 1 3576 0
 6917 003e 0AB9     		cbnz	r2, .L641
 6918              		.loc 1 3543 0
 6919 0040 1446     		mov	r4, r2
 6920 0042 0CE0     		b	.L642
 6921              	.L641:
 6922 0044 0025     		movs	r5, #0
 6923 0046 2C46     		mov	r4, r5
 6924 0048 02E0     		b	.L643
 6925              	.LVL963:
 6926              	.L644:
 6927              		.loc 1 3578 0
 6928 004a 4651     		str	r6, [r0, r5]
 6929 004c 0134     		adds	r4, r4, #1
 6930              	.LVL964:
 6931 004e 0435     		adds	r5, r5, #4
 6932              	.LVL965:
 6933              	.L643:
 6934              		.loc 1 3577 0 discriminator 1
 6935 0050 4E59     		ldr	r6, [r1, r5]
 6936 0052 4EB1     		cbz	r6, .L637
 6937              		.loc 1 3577 0 is_stmt 0 discriminator 2
 6938 0054 9C42     		cmp	r4, r3
 6939 0056 F8D1     		bne	.L644
 6940 0058 06E0     		b	.L637
 6941              	.L645:
 6942              		.loc 1 3581 0 is_stmt 1
 6943 005a 0555     		strb	r5, [r0, r4]
 6944 005c 0134     		adds	r4, r4, #1
 6945              	.LVL966:
 6946              	.L642:
 6947              		.loc 1 3580 0 discriminator 1
 6948 005e 51F8045B 		ldr	r5, [r1], #4
 6949 0062 0DB1     		cbz	r5, .L637
 6950              		.loc 1 3580 0 is_stmt 0 discriminator 2
ARM GAS  /tmp/ccSqa4tb.s 			page 123


 6951 0064 9C42     		cmp	r4, r3
 6952 0066 F8D1     		bne	.L645
 6953              	.L637:
 6954              		.loc 1 3586 0 is_stmt 1
 6955 0068 9C42     		cmp	r4, r3
 6956 006a 01D3     		bcc	.L646
 6957              	.L649:
 6958              	.LVL967:
 6959              		.loc 1 3588 0
 6960 006c 5C1E     		subs	r4, r3, #1
 6961 006e 05D4     		bmi	.L647
 6962              	.LVL968:
 6963              	.L646:
 6964              		.loc 1 3592 0
 6965 0070 1AB1     		cbz	r2, .L648
 6966              		.loc 1 3593 0
 6967 0072 0023     		movs	r3, #0
 6968              	.LVL969:
 6969 0074 40F82430 		str	r3, [r0, r4, lsl #2]
 6970 0078 00E0     		b	.L647
 6971              	.LVL970:
 6972              	.L648:
 6973              		.loc 1 3595 0
 6974 007a 0255     		strb	r2, [r0, r4]
 6975              	.LVL971:
 6976              	.L647:
 6977              		.loc 1 3599 0
 6978 007c 0020     		movs	r0, #0
 6979              	.LVL972:
 6980 007e F0BD     		pop	{r4, r5, r6, r7, pc}
 6981              		.cfi_endproc
 6982              	.LFE42:
 6983              		.size	amx_GetString, .-amx_GetString
 6984              		.section	.text.amx_UTF8Get,"ax",%progbits
 6985              		.align	1
 6986              		.global	amx_UTF8Get
 6987              		.thumb
 6988              		.thumb_func
 6989              		.type	amx_UTF8Get, %function
 6990              	amx_UTF8Get:
 6991              	.LFB43:
 6992              		.loc 1 3614 0
 6993              		.cfi_startproc
 6994              		@ args = 0, pretend = 0, frame = 0
 6995              		@ frame_needed = 0, uses_anonymous_args = 0
 6996              	.LVL973:
 6997 0000 70B5     		push	{r4, r5, r6, lr}
 6998              	.LCFI29:
 6999              		.cfi_def_cfa_offset 16
 7000              		.loc 1 3622 0
 7001 0002 0AB1     		cbz	r2, .L651
 7002              		.cfi_offset 14, -4
 7003              		.cfi_offset 6, -8
 7004              		.cfi_offset 5, -12
 7005              		.cfi_offset 4, -16
 7006              		.loc 1 3623 0
 7007 0004 0023     		movs	r3, #0
ARM GAS  /tmp/ccSqa4tb.s 			page 124


 7008 0006 1360     		str	r3, [r2, #0]
 7009              	.L651:
 7010              		.loc 1 3624 0
 7011 0008 01B1     		cbz	r1, .L652
 7012              		.loc 1 3625 0
 7013 000a 0860     		str	r0, [r1, #0]
 7014              	.L652:
 7015              		.loc 1 3627 0
 7016 000c 0346     		mov	r3, r0
 7017 000e 13F8014B 		ldrb	r4, [r3], #1	@ zero_extendqisi2
 7018              	.LVL974:
 7019              		.loc 1 3628 0
 7020 0012 14F0800F 		tst	r4, #128
 7021 0016 57D0     		beq	.L654
 7022              		.loc 1 3632 0
 7023 0018 04F14005 		add	r5, r4, #64
 7024 001c EDB2     		uxtb	r5, r5
 7025 001e 3D2D     		cmp	r5, #61
 7026 0020 58D8     		bhi	.L673
 7027              		.loc 1 3641 0
 7028 0022 A508     		lsrs	r5, r4, #2
 7029 0024 2D4E     		ldr	r6, .L675
 7030 0026 05F00F05 		and	r5, r5, #15
 7031 002a 755D     		ldrb	r5, [r6, r5]	@ zero_extendqisi2
 7032              	.LVL975:
 7033              		.loc 1 3646 0
 7034 002c 1F26     		movs	r6, #31
 7035 002e 2E41     		asrs	r6, r6, r5
 7036 0030 06EA0404 		and	r4, r6, r4
 7037              	.LVL976:
 7038              		.loc 1 3651 0
 7039 0034 042D     		cmp	r5, #4
 7040 0036 36D8     		bhi	.L656
 7041 0038 DFE805F0 		tbb	[pc, r5]
 7042              	.L662:
 7043 003c 2B       		.byte	(.L657-.L662)/2
 7044 003d 21       		.byte	(.L658-.L662)/2
 7045 003e 17       		.byte	(.L659-.L662)/2
 7046 003f 0D       		.byte	(.L660-.L662)/2
 7047 0040 03       		.byte	(.L661-.L662)/2
 7048 0041 00       		.align	1
 7049              	.L661:
 7050              	.LVL977:
 7051              		.loc 1 3653 0
 7052 0042 4078     		ldrb	r0, [r0, #1]	@ zero_extendqisi2
 7053              	.LVL978:
 7054 0044 00F0C006 		and	r6, r0, #192
 7055 0048 802E     		cmp	r6, #128
 7056 004a 43D1     		bne	.L673
 7057              		.loc 1 3654 0
 7058 004c 00F03F00 		and	r0, r0, #63
 7059              		.loc 1 3653 0
 7060 0050 0133     		adds	r3, r3, #1
 7061              	.LVL979:
 7062              		.loc 1 3654 0
 7063 0052 40EA8414 		orr	r4, r0, r4, lsl #6
 7064              	.LVL980:
ARM GAS  /tmp/ccSqa4tb.s 			page 125


 7065              	.L660:
 7066              		.loc 1 3656 0
 7067 0056 1878     		ldrb	r0, [r3, #0]	@ zero_extendqisi2
 7068              	.LVL981:
 7069 0058 00F0C006 		and	r6, r0, #192
 7070 005c 802E     		cmp	r6, #128
 7071 005e 39D1     		bne	.L673
 7072              		.loc 1 3657 0
 7073 0060 00F03F00 		and	r0, r0, #63
 7074              		.loc 1 3656 0
 7075 0064 0133     		adds	r3, r3, #1
 7076              	.LVL982:
 7077              		.loc 1 3657 0
 7078 0066 40EA8414 		orr	r4, r0, r4, lsl #6
 7079              	.LVL983:
 7080              	.L659:
 7081              		.loc 1 3659 0
 7082 006a 1878     		ldrb	r0, [r3, #0]	@ zero_extendqisi2
 7083              	.LVL984:
 7084 006c 00F0C006 		and	r6, r0, #192
 7085 0070 802E     		cmp	r6, #128
 7086 0072 2FD1     		bne	.L673
 7087              		.loc 1 3660 0
 7088 0074 00F03F00 		and	r0, r0, #63
 7089              		.loc 1 3659 0
 7090 0078 0133     		adds	r3, r3, #1
 7091              	.LVL985:
 7092              		.loc 1 3660 0
 7093 007a 40EA8414 		orr	r4, r0, r4, lsl #6
 7094              	.LVL986:
 7095              	.L658:
 7096              		.loc 1 3662 0
 7097 007e 1878     		ldrb	r0, [r3, #0]	@ zero_extendqisi2
 7098              	.LVL987:
 7099 0080 00F0C006 		and	r6, r0, #192
 7100 0084 802E     		cmp	r6, #128
 7101 0086 25D1     		bne	.L673
 7102              		.loc 1 3663 0
 7103 0088 00F03F00 		and	r0, r0, #63
 7104              		.loc 1 3662 0
 7105 008c 0133     		adds	r3, r3, #1
 7106              	.LVL988:
 7107              		.loc 1 3663 0
 7108 008e 40EA8414 		orr	r4, r0, r4, lsl #6
 7109              	.LVL989:
 7110              	.L657:
 7111              		.loc 1 3665 0
 7112 0092 1878     		ldrb	r0, [r3, #0]	@ zero_extendqisi2
 7113              	.LVL990:
 7114 0094 00F0C006 		and	r6, r0, #192
 7115 0098 802E     		cmp	r6, #128
 7116 009a 1BD1     		bne	.L673
 7117              		.loc 1 3666 0
 7118 009c 00F03F00 		and	r0, r0, #63
 7119              		.loc 1 3665 0
 7120 00a0 0133     		adds	r3, r3, #1
 7121              	.LVL991:
ARM GAS  /tmp/ccSqa4tb.s 			page 126


 7122              		.loc 1 3666 0
 7123 00a2 40EA8414 		orr	r4, r0, r4, lsl #6
 7124              	.LVL992:
 7125              	.L656:
 7126              		.loc 1 3672 0
 7127 00a6 0E48     		ldr	r0, .L675+4
 7128 00a8 50F82500 		ldr	r0, [r0, r5, lsl #2]
 7129 00ac 8442     		cmp	r4, r0
 7130 00ae 11DB     		blt	.L673
 7131              		.loc 1 3674 0
 7132 00b0 A4F55840 		sub	r0, r4, #55296
 7133 00b4 B0F5006F 		cmp	r0, #2048
 7134 00b8 0CD3     		bcc	.L673
 7135              		.loc 1 3674 0 is_stmt 0 discriminator 1
 7136 00ba 4FF6FE70 		movw	r0, #65534
 7137 00be 8442     		cmp	r4, r0
 7138 00c0 08D0     		beq	.L673
 7139 00c2 0130     		adds	r0, r0, #1
 7140 00c4 8442     		cmp	r4, r0
 7141 00c6 05D0     		beq	.L673
 7142              	.LVL993:
 7143              	.L654:
 7144              		.loc 1 3678 0 is_stmt 1
 7145 00c8 02B1     		cbz	r2, .L663
 7146              		.loc 1 3679 0
 7147 00ca 1460     		str	r4, [r2, #0]
 7148              	.L663:
 7149              		.loc 1 3680 0
 7150 00cc 21B1     		cbz	r1, .L674
 7151              		.loc 1 3681 0
 7152 00ce 0B60     		str	r3, [r1, #0]
 7153              		.loc 1 3683 0
 7154 00d0 0020     		movs	r0, #0
 7155 00d2 70BD     		pop	{r4, r5, r6, pc}
 7156              	.LVL994:
 7157              	.L673:
 7158              		.loc 1 3686 0
 7159 00d4 1920     		movs	r0, #25
 7160 00d6 70BD     		pop	{r4, r5, r6, pc}
 7161              	.LVL995:
 7162              	.L674:
 7163              	.L655:
 7164              		.loc 1 3683 0
 7165 00d8 0846     		mov	r0, r1
 7166              		.loc 1 3687 0
 7167 00da 70BD     		pop	{r4, r5, r6, pc}
 7168              	.L676:
 7169              		.align	2
 7170              	.L675:
 7171 00dc 00000000 		.word	.LANCHOR1
 7172 00e0 00000000 		.word	.LANCHOR2
 7173              		.cfi_endproc
 7174              	.LFE43:
 7175              		.size	amx_UTF8Get, .-amx_UTF8Get
 7176              		.section	.text.amx_UTF8Put,"ax",%progbits
 7177              		.align	1
 7178              		.global	amx_UTF8Put
ARM GAS  /tmp/ccSqa4tb.s 			page 127


 7179              		.thumb
 7180              		.thumb_func
 7181              		.type	amx_UTF8Put, %function
 7182              	amx_UTF8Put:
 7183              	.LFB44:
 7184              		.loc 1 3697 0
 7185              		.cfi_startproc
 7186              		@ args = 0, pretend = 0, frame = 0
 7187              		@ frame_needed = 0, uses_anonymous_args = 0
 7188              	.LVL996:
 7189 0000 30B5     		push	{r4, r5, lr}
 7190              	.LCFI30:
 7191              		.cfi_def_cfa_offset 12
 7192              		.loc 1 3699 0
 7193 0002 01B1     		cbz	r1, .L678
 7194              		.cfi_offset 14, -4
 7195              		.cfi_offset 5, -8
 7196              		.cfi_offset 4, -12
 7197              		.loc 1 3700 0
 7198 0004 0860     		str	r0, [r1, #0]
 7199              	.L678:
 7200              		.loc 1 3702 0
 7201 0006 7F2B     		cmp	r3, #127
 7202 0008 05DC     		bgt	.L679
 7203              		.loc 1 3704 0
 7204 000a 002A     		cmp	r2, #0
 7205 000c 40F3A280 		ble	.L694
 7206              		.loc 1 3705 0
 7207 0010 00F8013B 		strb	r3, [r0], #1
 7208              	.LVL997:
 7209 0014 9AE0     		b	.L681
 7210              	.L679:
 7211              		.loc 1 3706 0
 7212 0016 40F2FF75 		movw	r5, #2047
 7213 001a AB42     		cmp	r3, r5
 7214 001c 11DC     		bgt	.L682
 7215              		.loc 1 3708 0
 7216 001e 012A     		cmp	r2, #1
 7217 0020 40F39880 		ble	.L694
 7218              		.loc 1 3709 0
 7219 0024 9C11     		asrs	r4, r3, #6
 7220 0026 04F01F04 		and	r4, r4, #31
 7221 002a 0246     		mov	r2, r0
 7222              	.LVL998:
 7223 002c 64F03F04 		orn	r4, r4, #63
 7224              		.loc 1 3710 0
 7225 0030 03F03F03 		and	r3, r3, #63
 7226              	.LVL999:
 7227              		.loc 1 3709 0
 7228 0034 02F8014B 		strb	r4, [r2], #1
 7229              	.LVL1000:
 7230              		.loc 1 3710 0
 7231 0038 63F07F03 		orn	r3, r3, #127
 7232 003c 4370     		strb	r3, [r0, #1]
 7233 003e 501C     		adds	r0, r2, #1
 7234              	.LVL1001:
 7235 0040 84E0     		b	.L681
ARM GAS  /tmp/ccSqa4tb.s 			page 128


 7236              	.LVL1002:
 7237              	.L682:
 7238              		.loc 1 3711 0
 7239 0042 4FF6FF74 		movw	r4, #65535
 7240 0046 A342     		cmp	r3, r4
 7241 0048 21DC     		bgt	.L683
 7242              		.loc 1 3713 0
 7243 004a 022A     		cmp	r2, #2
 7244 004c 40F38280 		ble	.L694
 7245              		.loc 1 3714 0
 7246 0050 A3F55842 		sub	r2, r3, #55296
 7247              	.LVL1003:
 7248 0054 AA42     		cmp	r2, r5
 7249 0056 7DD9     		bls	.L694
 7250              		.loc 1 3714 0 is_stmt 0 discriminator 1
 7251 0058 4FF6FE72 		movw	r2, #65534
 7252 005c 9342     		cmp	r3, r2
 7253 005e 79D0     		beq	.L694
 7254 0060 A342     		cmp	r3, r4
 7255 0062 77D0     		beq	.L694
 7256              		.loc 1 3716 0 is_stmt 1
 7257 0064 1C13     		asrs	r4, r3, #12
 7258 0066 04F00F04 		and	r4, r4, #15
 7259 006a 0246     		mov	r2, r0
 7260 006c 64F01F04 		orn	r4, r4, #31
 7261 0070 02F8014B 		strb	r4, [r2], #1
 7262              	.LVL1004:
 7263              		.loc 1 3717 0
 7264 0074 9C11     		asrs	r4, r3, #6
 7265 0076 04F03F04 		and	r4, r4, #63
 7266              		.loc 1 3718 0
 7267 007a 03F03F03 		and	r3, r3, #63
 7268              	.LVL1005:
 7269              		.loc 1 3717 0
 7270 007e 64F07F04 		orn	r4, r4, #127
 7271              		.loc 1 3718 0
 7272 0082 63F07F03 		orn	r3, r3, #127
 7273              		.loc 1 3717 0
 7274 0086 4470     		strb	r4, [r0, #1]
 7275              		.loc 1 3718 0
 7276 0088 5370     		strb	r3, [r2, #1]
 7277 008a 901C     		adds	r0, r2, #2
 7278              	.LVL1006:
 7279 008c 5EE0     		b	.L681
 7280              	.LVL1007:
 7281              	.L683:
 7282              		.loc 1 3719 0
 7283 008e B3F5001F 		cmp	r3, #2097152
 7284 0092 0ADA     		bge	.L684
 7285              		.loc 1 3721 0
 7286 0094 032A     		cmp	r2, #3
 7287 0096 5DDD     		ble	.L694
 7288              		.loc 1 3722 0
 7289 0098 9C14     		asrs	r4, r3, #18
 7290 009a 04F00704 		and	r4, r4, #7
 7291 009e 64F00F04 		orn	r4, r4, #15
 7292 00a2 0246     		mov	r2, r0
ARM GAS  /tmp/ccSqa4tb.s 			page 129


 7293              	.LVL1008:
 7294 00a4 02F8014B 		strb	r4, [r2], #1
 7295              	.LVL1009:
 7296 00a8 3EE0     		b	.L696
 7297              	.LVL1010:
 7298              	.L684:
 7299              		.loc 1 3726 0
 7300 00aa B3F1806F 		cmp	r3, #67108864
 7301 00ae 23DA     		bge	.L685
 7302              		.loc 1 3728 0
 7303 00b0 042A     		cmp	r2, #4
 7304 00b2 4FDD     		ble	.L694
 7305              		.loc 1 3729 0
 7306 00b4 1C16     		asrs	r4, r3, #24
 7307 00b6 04F00304 		and	r4, r4, #3
 7308 00ba 0246     		mov	r2, r0
 7309              	.LVL1011:
 7310 00bc 64F00704 		orn	r4, r4, #7
 7311 00c0 02F8014B 		strb	r4, [r2], #1
 7312              	.LVL1012:
 7313              		.loc 1 3730 0
 7314 00c4 9C14     		asrs	r4, r3, #18
 7315 00c6 04F03F04 		and	r4, r4, #63
 7316 00ca 64F07F04 		orn	r4, r4, #127
 7317 00ce 4470     		strb	r4, [r0, #1]
 7318              		.loc 1 3731 0
 7319 00d0 1813     		asrs	r0, r3, #12
 7320 00d2 00F03F00 		and	r0, r0, #63
 7321 00d6 60F07F00 		orn	r0, r0, #127
 7322              		.loc 1 3730 0
 7323 00da 541C     		adds	r4, r2, #1
 7324              	.LVL1013:
 7325              		.loc 1 3731 0
 7326 00dc 5070     		strb	r0, [r2, #1]
 7327              	.LVL1014:
 7328              		.loc 1 3732 0
 7329 00de 9A11     		asrs	r2, r3, #6
 7330 00e0 02F03F02 		and	r2, r2, #63
 7331              		.loc 1 3733 0
 7332 00e4 03F03F03 		and	r3, r3, #63
 7333              	.LVL1015:
 7334              		.loc 1 3732 0
 7335 00e8 62F07F02 		orn	r2, r2, #127
 7336              		.loc 1 3733 0
 7337 00ec 63F07F03 		orn	r3, r3, #127
 7338              		.loc 1 3732 0
 7339 00f0 6270     		strb	r2, [r4, #1]
 7340              		.loc 1 3733 0
 7341 00f2 A370     		strb	r3, [r4, #2]
 7342 00f4 E01C     		adds	r0, r4, #3
 7343              	.LVL1016:
 7344 00f6 29E0     		b	.L681
 7345              	.LVL1017:
 7346              	.L685:
 7347              		.loc 1 3736 0
 7348 00f8 052A     		cmp	r2, #5
 7349 00fa 2BDD     		ble	.L694
ARM GAS  /tmp/ccSqa4tb.s 			page 130


 7350              		.loc 1 3737 0
 7351 00fc 9C17     		asrs	r4, r3, #30
 7352 00fe 04F00104 		and	r4, r4, #1
 7353 0102 0246     		mov	r2, r0
 7354              	.LVL1018:
 7355 0104 64F00304 		orn	r4, r4, #3
 7356 0108 02F8014B 		strb	r4, [r2], #1
 7357              	.LVL1019:
 7358              		.loc 1 3738 0
 7359 010c 1C16     		asrs	r4, r3, #24
 7360 010e 04F03F04 		and	r4, r4, #63
 7361 0112 64F07F04 		orn	r4, r4, #127
 7362 0116 4470     		strb	r4, [r0, #1]
 7363              		.loc 1 3739 0
 7364 0118 9C14     		asrs	r4, r3, #18
 7365 011a 04F03F04 		and	r4, r4, #63
 7366 011e 64F07F04 		orn	r4, r4, #127
 7367              		.loc 1 3738 0
 7368 0122 501C     		adds	r0, r2, #1
 7369              	.LVL1020:
 7370              		.loc 1 3739 0
 7371 0124 5470     		strb	r4, [r2, #1]
 7372 0126 0232     		adds	r2, r2, #2
 7373              	.LVL1021:
 7374              	.L696:
 7375              		.loc 1 3740 0
 7376 0128 1C13     		asrs	r4, r3, #12
 7377 012a 04F03F04 		and	r4, r4, #63
 7378 012e 64F07F04 		orn	r4, r4, #127
 7379 0132 4470     		strb	r4, [r0, #1]
 7380              	.LVL1022:
 7381              		.loc 1 3741 0
 7382 0134 9C11     		asrs	r4, r3, #6
 7383 0136 04F03F04 		and	r4, r4, #63
 7384              		.loc 1 3742 0
 7385 013a 03F03F03 		and	r3, r3, #63
 7386              	.LVL1023:
 7387              		.loc 1 3741 0
 7388 013e 64F07F04 		orn	r4, r4, #127
 7389              		.loc 1 3742 0
 7390 0142 63F07F03 		orn	r3, r3, #127
 7391              		.loc 1 3741 0
 7392 0146 5470     		strb	r4, [r2, #1]
 7393              		.loc 1 3742 0
 7394 0148 9370     		strb	r3, [r2, #2]
 7395 014a D01C     		adds	r0, r2, #3
 7396              	.LVL1024:
 7397              	.L681:
 7398              		.loc 1 3745 0
 7399 014c 21B1     		cbz	r1, .L695
 7400              		.loc 1 3746 0
 7401 014e 0860     		str	r0, [r1, #0]
 7402              		.loc 1 3747 0
 7403 0150 0020     		movs	r0, #0
 7404              	.LVL1025:
 7405 0152 30BD     		pop	{r4, r5, pc}
 7406              	.LVL1026:
ARM GAS  /tmp/ccSqa4tb.s 			page 131


 7407              	.L694:
 7408              		.loc 1 3750 0
 7409 0154 1920     		movs	r0, #25
 7410              	.LVL1027:
 7411 0156 30BD     		pop	{r4, r5, pc}
 7412              	.LVL1028:
 7413              	.L695:
 7414              	.L680:
 7415              		.loc 1 3747 0
 7416 0158 0846     		mov	r0, r1
 7417              	.LVL1029:
 7418              		.loc 1 3751 0
 7419 015a 30BD     		pop	{r4, r5, pc}
 7420              		.cfi_endproc
 7421              	.LFE44:
 7422              		.size	amx_UTF8Put, .-amx_UTF8Put
 7423              		.section	.text.amx_UTF8Check,"ax",%progbits
 7424              		.align	1
 7425              		.global	amx_UTF8Check
 7426              		.thumb
 7427              		.thumb_func
 7428              		.type	amx_UTF8Check, %function
 7429              	amx_UTF8Check:
 7430              	.LFB45:
 7431              		.loc 1 3759 0
 7432              		.cfi_startproc
 7433              		@ args = 0, pretend = 0, frame = 8
 7434              		@ frame_needed = 0, uses_anonymous_args = 0
 7435              	.LVL1030:
 7436 0000 37B5     		push	{r0, r1, r2, r4, r5, lr}
 7437              	.LCFI31:
 7438              		.cfi_def_cfa_offset 24
 7439              		.loc 1 3759 0
 7440 0002 0D46     		mov	r5, r1
 7441              		.cfi_offset 14, -4
 7442              		.cfi_offset 5, -8
 7443              		.cfi_offset 4, -12
 7444              		.cfi_offset 2, -16
 7445              		.cfi_offset 1, -20
 7446              		.cfi_offset 0, -24
 7447 0004 0190     		str	r0, [sp, #4]
 7448              		.loc 1 3761 0
 7449 0006 0024     		movs	r4, #0
 7450 0008 05E0     		b	.L698
 7451              	.LVL1031:
 7452              	.L700:
 7453              		.loc 1 3763 0
 7454 000a 01A9     		add	r1, sp, #4
 7455 000c 0022     		movs	r2, #0
 7456 000e FFF7FEFF 		bl	amx_UTF8Get
 7457              	.LVL1032:
 7458              		.loc 1 3764 0
 7459 0012 0134     		adds	r4, r4, #1
 7460              	.LVL1033:
 7461              		.loc 1 3762 0
 7462 0014 20B9     		cbnz	r0, .L699
 7463              	.LVL1034:
ARM GAS  /tmp/ccSqa4tb.s 			page 132


 7464              	.L698:
 7465              		.loc 1 3762 0 is_stmt 0 discriminator 2
 7466 0016 0198     		ldr	r0, [sp, #4]
 7467 0018 0378     		ldrb	r3, [r0, #0]	@ zero_extendqisi2
 7468 001a 002B     		cmp	r3, #0
 7469 001c F5D1     		bne	.L700
 7470              		.loc 1 3762 0
 7471 001e 1846     		mov	r0, r3
 7472              	.L699:
 7473              		.loc 1 3766 0 is_stmt 1
 7474 0020 05B1     		cbz	r5, .L701
 7475              		.loc 1 3767 0
 7476 0022 2C60     		str	r4, [r5, #0]
 7477              	.L701:
 7478              		.loc 1 3769 0
 7479 0024 3EBD     		pop	{r1, r2, r3, r4, r5, pc}
 7480              		.cfi_endproc
 7481              	.LFE45:
 7482              		.size	amx_UTF8Check, .-amx_UTF8Check
 7483              		.section	.text.amx_UTF8Len,"ax",%progbits
 7484              		.align	1
 7485              		.global	amx_UTF8Len
 7486              		.thumb
 7487              		.thumb_func
 7488              		.type	amx_UTF8Len, %function
 7489              	amx_UTF8Len:
 7490              	.LFB46:
 7491              		.loc 1 3777 0
 7492              		.cfi_startproc
 7493              		@ args = 0, pretend = 0, frame = 16
 7494              		@ frame_needed = 0, uses_anonymous_args = 0
 7495              	.LVL1035:
 7496 0000 2DE9F043 		push	{r4, r5, r6, r7, r8, r9, lr}
 7497              	.LCFI32:
 7498              		.cfi_def_cfa_offset 28
 7499 0004 85B0     		sub	sp, sp, #20
 7500              	.LCFI33:
 7501              		.cfi_def_cfa_offset 48
 7502              		.loc 1 3777 0
 7503 0006 0746     		mov	r7, r0
 7504              		.cfi_offset 14, -4
 7505              		.cfi_offset 9, -8
 7506              		.cfi_offset 8, -12
 7507              		.cfi_offset 7, -16
 7508              		.cfi_offset 6, -20
 7509              		.cfi_offset 5, -24
 7510              		.cfi_offset 4, -28
 7511 0008 8946     		mov	r9, r1
 7512              		.loc 1 3781 0
 7513 000a FFF7FEFF 		bl	amx_StrLen
 7514              	.LVL1036:
 7515              		.loc 1 3782 0
 7516 000e 0446     		mov	r4, r0
 7517 0010 C0B9     		cbnz	r0, .L703
 7518              		.loc 1 3782 0 is_stmt 0 discriminator 1
 7519 0012 3B68     		ldr	r3, [r7, #0]
 7520 0014 B3F1807F 		cmp	r3, #16777216
ARM GAS  /tmp/ccSqa4tb.s 			page 133


 7521 0018 14D2     		bcs	.L703
 7522              	.LVL1037:
 7523              		.loc 1 3782 0
 7524 001a D9F80060 		ldr	r6, [r9, #0]
 7525              	.LBB26:
 7526              		.loc 1 3785 0 is_stmt 1
 7527 001e 0546     		mov	r5, r0
 7528              		.loc 1 3786 0
 7529 0020 0CE0     		b	.L704
 7530              	.LVL1038:
 7531              	.L705:
 7532              		.loc 1 3787 0
 7533 0022 57F8043B 		ldr	r3, [r7], #4
 7534              	.LVL1039:
 7535 0026 6846     		mov	r0, sp
 7536 0028 03A9     		add	r1, sp, #12
 7537 002a 0A22     		movs	r2, #10
 7538 002c FFF7FEFF 		bl	amx_UTF8Put
 7539              		.loc 1 3788 0
 7540 0030 039B     		ldr	r3, [sp, #12]
 7541              		.loc 1 3787 0
 7542 0032 E846     		mov	r8, sp
 7543              		.loc 1 3788 0
 7544 0034 C8EB0308 		rsb	r8, r8, r3
 7545 0038 4544     		add	r5, r5, r8
 7546              	.LVL1040:
 7547 003a 013E     		subs	r6, r6, #1
 7548              	.LVL1041:
 7549              	.L704:
 7550              		.loc 1 3786 0 discriminator 1
 7551 003c 002E     		cmp	r6, #0
 7552 003e F0DC     		bgt	.L705
 7553              		.loc 1 3790 0
 7554 0040 C9F80050 		str	r5, [r9, #0]
 7555              	.LVL1042:
 7556              	.L703:
 7557              	.LBE26:
 7558              		.loc 1 3793 0
 7559 0044 2046     		mov	r0, r4
 7560 0046 05B0     		add	sp, sp, #20
 7561 0048 BDE8F083 		pop	{r4, r5, r6, r7, r8, r9, pc}
 7562              		.cfi_endproc
 7563              	.LFE46:
 7564              		.size	amx_UTF8Len, .-amx_UTF8Len
 7565              		.section	.bss.n.6308,"aw",%nobits
 7566              		.set	.LANCHOR0,. + 0
 7567              		.type	n.6308, %object
 7568              		.size	n.6308, 8
 7569              	n.6308:
 7570 0000 00000000 		.space	8
 7570      00000000 
 7571              		.section	.rodata.utf8_count.6724,"a",%progbits
 7572              		.set	.LANCHOR1,. + 0
 7573              		.type	utf8_count.6724, %object
 7574              		.size	utf8_count.6724, 16
 7575              	utf8_count.6724:
 7576 0000 00       		.byte	0
ARM GAS  /tmp/ccSqa4tb.s 			page 134


 7577 0001 00       		.byte	0
 7578 0002 00       		.byte	0
 7579 0003 00       		.byte	0
 7580 0004 00       		.byte	0
 7581 0005 00       		.byte	0
 7582 0006 00       		.byte	0
 7583 0007 00       		.byte	0
 7584 0008 01       		.byte	1
 7585 0009 01       		.byte	1
 7586 000a 01       		.byte	1
 7587 000b 01       		.byte	1
 7588 000c 02       		.byte	2
 7589 000d 02       		.byte	2
 7590 000e 03       		.byte	3
 7591 000f 04       		.byte	4
 7592              		.section	.rodata.utf8_lowmark.6725,"a",%progbits
 7593              		.align	2
 7594              		.set	.LANCHOR2,. + 0
 7595              		.type	utf8_lowmark.6725, %object
 7596              		.size	utf8_lowmark.6725, 20
 7597              	utf8_lowmark.6725:
 7598 0000 80000000 		.word	128
 7599 0004 00080000 		.word	2048
 7600 0008 00000100 		.word	65536
 7601 000c 00002000 		.word	2097152
 7602 0010 00000004 		.word	67108864
 7603              		.text
 7604              	.Letext0:
 7605              		.section	.debug_loc,"",%progbits
 7606              	.Ldebug_loc0:
 7607              	.LLST0:
 7608 0000 00000000 		.4byte	.LFB4
 7609 0004 02000000 		.4byte	.LCFI0
 7610 0008 0200     		.2byte	0x2
 7611 000a 7D       		.byte	0x7d
 7612 000b 00       		.sleb128 0
 7613 000c 02000000 		.4byte	.LCFI0
 7614 0010 60000000 		.4byte	.LFE4
 7615 0014 0200     		.2byte	0x2
 7616 0016 7D       		.byte	0x7d
 7617 0017 10       		.sleb128 16
 7618 0018 00000000 		.4byte	0x0
 7619 001c 00000000 		.4byte	0x0
 7620              	.LLST1:
 7621 0020 00000000 		.4byte	.LVL0
 7622 0024 0E000000 		.4byte	.LVL2
 7623 0028 0100     		.2byte	0x1
 7624 002a 50       		.byte	0x50
 7625 002b 0E000000 		.4byte	.LVL2
 7626 002f 60000000 		.4byte	.LFE4
 7627 0033 0100     		.2byte	0x1
 7628 0035 54       		.byte	0x54
 7629 0036 00000000 		.4byte	0x0
 7630 003a 00000000 		.4byte	0x0
 7631              	.LLST2:
 7632 003e 00000000 		.4byte	.LVL0
 7633 0042 10000000 		.4byte	.LVL3
ARM GAS  /tmp/ccSqa4tb.s 			page 135


 7634 0046 0100     		.2byte	0x1
 7635 0048 51       		.byte	0x51
 7636 0049 10000000 		.4byte	.LVL3
 7637 004d 16000000 		.4byte	.LVL5
 7638 0051 0400     		.2byte	0x4
 7639 0053 71       		.byte	0x71
 7640 0054 00       		.sleb128 0
 7641 0055 20       		.byte	0x20
 7642 0056 9F       		.byte	0x9f
 7643 0057 16000000 		.4byte	.LVL5
 7644 005b 22000000 		.4byte	.LVL7
 7645 005f 0100     		.2byte	0x1
 7646 0061 51       		.byte	0x51
 7647 0062 00000000 		.4byte	0x0
 7648 0066 00000000 		.4byte	0x0
 7649              	.LLST3:
 7650 006a 00000000 		.4byte	.LVL0
 7651 006e 0A000000 		.4byte	.LVL1
 7652 0072 0100     		.2byte	0x1
 7653 0074 52       		.byte	0x52
 7654 0075 0A000000 		.4byte	.LVL1
 7655 0079 60000000 		.4byte	.LFE4
 7656 007d 0100     		.2byte	0x1
 7657 007f 55       		.byte	0x55
 7658 0080 00000000 		.4byte	0x0
 7659 0084 00000000 		.4byte	0x0
 7660              	.LLST4:
 7661 0088 00000000 		.4byte	.LVL0
 7662 008c 55000000 		.4byte	.LVL11-1
 7663 0090 0100     		.2byte	0x1
 7664 0092 53       		.byte	0x53
 7665 0093 00000000 		.4byte	0x0
 7666 0097 00000000 		.4byte	0x0
 7667              	.LLST5:
 7668 009b 0A000000 		.4byte	.LVL1
 7669 009f 14000000 		.4byte	.LVL4
 7670 00a3 0100     		.2byte	0x1
 7671 00a5 52       		.byte	0x52
 7672 00a6 16000000 		.4byte	.LVL5
 7673 00aa 20000000 		.4byte	.LVL6
 7674 00ae 0100     		.2byte	0x1
 7675 00b0 52       		.byte	0x52
 7676 00b1 00000000 		.4byte	0x0
 7677 00b5 00000000 		.4byte	0x0
 7678              	.LLST6:
 7679 00b9 14000000 		.4byte	.LVL4
 7680 00bd 16000000 		.4byte	.LVL5
 7681 00c1 0700     		.2byte	0x7
 7682 00c3 71       		.byte	0x71
 7683 00c4 00       		.sleb128 0
 7684 00c5 32       		.byte	0x32
 7685 00c6 24       		.byte	0x24
 7686 00c7 70       		.byte	0x70
 7687 00c8 00       		.sleb128 0
 7688 00c9 22       		.byte	0x22
 7689 00ca 22000000 		.4byte	.LVL7
 7690 00ce 55000000 		.4byte	.LVL11-1
ARM GAS  /tmp/ccSqa4tb.s 			page 136


 7691 00d2 0100     		.2byte	0x1
 7692 00d4 52       		.byte	0x52
 7693 00d5 00000000 		.4byte	0x0
 7694 00d9 00000000 		.4byte	0x0
 7695              	.LLST7:
 7696 00dd 2E000000 		.4byte	.LVL8
 7697 00e1 38000000 		.4byte	.LVL9
 7698 00e5 0100     		.2byte	0x1
 7699 00e7 51       		.byte	0x51
 7700 00e8 38000000 		.4byte	.LVL9
 7701 00ec 3E000000 		.4byte	.LVL10
 7702 00f0 0100     		.2byte	0x1
 7703 00f2 51       		.byte	0x51
 7704 00f3 00000000 		.4byte	0x0
 7705 00f7 00000000 		.4byte	0x0
 7706              	.LLST8:
 7707 00fb 02000000 		.4byte	.LVL13
 7708 00ff 0A000000 		.4byte	.LVL14
 7709 0103 0100     		.2byte	0x1
 7710 0105 53       		.byte	0x53
 7711 0106 0A000000 		.4byte	.LVL14
 7712 010a 12000000 		.4byte	.LFE0
 7713 010e 0100     		.2byte	0x1
 7714 0110 53       		.byte	0x53
 7715 0111 00000000 		.4byte	0x0
 7716 0115 00000000 		.4byte	0x0
 7717              	.LLST9:
 7718 0119 00000000 		.4byte	.LVL17
 7719 011d 0E000000 		.4byte	.LVL19
 7720 0121 0100     		.2byte	0x1
 7721 0123 50       		.byte	0x50
 7722 0124 00000000 		.4byte	0x0
 7723 0128 00000000 		.4byte	0x0
 7724              	.LLST10:
 7725 012c 08000000 		.4byte	.LVL18
 7726 0130 22000000 		.4byte	.LVL20
 7727 0134 0100     		.2byte	0x1
 7728 0136 53       		.byte	0x53
 7729 0137 30000000 		.4byte	.LVL21
 7730 013b 38000000 		.4byte	.LFE3
 7731 013f 0100     		.2byte	0x1
 7732 0141 53       		.byte	0x53
 7733 0142 00000000 		.4byte	0x0
 7734 0146 00000000 		.4byte	0x0
 7735              	.LLST11:
 7736 014a 00000000 		.4byte	.LVL22
 7737 014e 02000000 		.4byte	.LVL23
 7738 0152 0100     		.2byte	0x1
 7739 0154 50       		.byte	0x50
 7740 0155 00000000 		.4byte	0x0
 7741 0159 00000000 		.4byte	0x0
 7742              	.LLST12:
 7743 015d 00000000 		.4byte	.LVL24
 7744 0161 02000000 		.4byte	.LVL25
 7745 0165 0100     		.2byte	0x1
 7746 0167 50       		.byte	0x50
 7747 0168 00000000 		.4byte	0x0
ARM GAS  /tmp/ccSqa4tb.s 			page 137


 7748 016c 00000000 		.4byte	0x0
 7749              	.LLST13:
 7750 0170 00000000 		.4byte	.LFB9
 7751 0174 02000000 		.4byte	.LCFI1
 7752 0178 0200     		.2byte	0x2
 7753 017a 7D       		.byte	0x7d
 7754 017b 00       		.sleb128 0
 7755 017c 02000000 		.4byte	.LCFI1
 7756 0180 8C000000 		.4byte	.LFE9
 7757 0184 0200     		.2byte	0x2
 7758 0186 7D       		.byte	0x7d
 7759 0187 10       		.sleb128 16
 7760 0188 00000000 		.4byte	0x0
 7761 018c 00000000 		.4byte	0x0
 7762              	.LLST14:
 7763 0190 00000000 		.4byte	.LVL26
 7764 0194 08000000 		.4byte	.LVL27
 7765 0198 0100     		.2byte	0x1
 7766 019a 50       		.byte	0x50
 7767 019b 08000000 		.4byte	.LVL27
 7768 019f 8C000000 		.4byte	.LFE9
 7769 01a3 0100     		.2byte	0x1
 7770 01a5 54       		.byte	0x54
 7771 01a6 00000000 		.4byte	0x0
 7772 01aa 00000000 		.4byte	0x0
 7773              	.LLST15:
 7774 01ae 00000000 		.4byte	.LVL26
 7775 01b2 1A000000 		.4byte	.LVL29
 7776 01b6 0100     		.2byte	0x1
 7777 01b8 51       		.byte	0x51
 7778 01b9 1A000000 		.4byte	.LVL29
 7779 01bd 6D000000 		.4byte	.LVL32-1
 7780 01c1 0100     		.2byte	0x1
 7781 01c3 53       		.byte	0x53
 7782 01c4 78000000 		.4byte	.LVL33
 7783 01c8 80000000 		.4byte	.LVL35
 7784 01cc 0100     		.2byte	0x1
 7785 01ce 51       		.byte	0x51
 7786 01cf 80000000 		.4byte	.LVL35
 7787 01d3 8C000000 		.4byte	.LFE9
 7788 01d7 0100     		.2byte	0x1
 7789 01d9 53       		.byte	0x53
 7790 01da 00000000 		.4byte	0x0
 7791 01de 00000000 		.4byte	0x0
 7792              	.LLST16:
 7793 01e2 00000000 		.4byte	.LVL26
 7794 01e6 0C000000 		.4byte	.LVL28
 7795 01ea 0100     		.2byte	0x1
 7796 01ec 52       		.byte	0x52
 7797 01ed 0C000000 		.4byte	.LVL28
 7798 01f1 6D000000 		.4byte	.LVL32-1
 7799 01f5 0100     		.2byte	0x1
 7800 01f7 50       		.byte	0x50
 7801 01f8 78000000 		.4byte	.LVL33
 7802 01fc 7A000000 		.4byte	.LVL34
 7803 0200 0100     		.2byte	0x1
 7804 0202 50       		.byte	0x50
ARM GAS  /tmp/ccSqa4tb.s 			page 138


 7805 0203 7A000000 		.4byte	.LVL34
 7806 0207 80000000 		.4byte	.LVL35
 7807 020b 0100     		.2byte	0x1
 7808 020d 52       		.byte	0x52
 7809 020e 80000000 		.4byte	.LVL35
 7810 0212 82000000 		.4byte	.LVL36
 7811 0216 0100     		.2byte	0x1
 7812 0218 50       		.byte	0x50
 7813 0219 84000000 		.4byte	.LVL37
 7814 021d 86000000 		.4byte	.LVL38
 7815 0221 0100     		.2byte	0x1
 7816 0223 50       		.byte	0x50
 7817 0224 88000000 		.4byte	.LVL39
 7818 0228 8A000000 		.4byte	.LVL40
 7819 022c 0100     		.2byte	0x1
 7820 022e 50       		.byte	0x50
 7821 022f 00000000 		.4byte	0x0
 7822 0233 00000000 		.4byte	0x0
 7823              	.LLST17:
 7824 0237 1A000000 		.4byte	.LVL29
 7825 023b 44000000 		.4byte	.LVL30
 7826 023f 0100     		.2byte	0x1
 7827 0241 51       		.byte	0x51
 7828 0242 84000000 		.4byte	.LVL37
 7829 0246 8C000000 		.4byte	.LFE9
 7830 024a 0100     		.2byte	0x1
 7831 024c 51       		.byte	0x51
 7832 024d 00000000 		.4byte	0x0
 7833 0251 00000000 		.4byte	0x0
 7834              	.LLST18:
 7835 0255 6A000000 		.4byte	.LVL31
 7836 0259 6D000000 		.4byte	.LVL32-1
 7837 025d 0100     		.2byte	0x1
 7838 025f 51       		.byte	0x51
 7839 0260 00000000 		.4byte	0x0
 7840 0264 00000000 		.4byte	0x0
 7841              	.LLST19:
 7842 0268 00000000 		.4byte	.LFB10
 7843 026c 02000000 		.4byte	.LCFI2
 7844 0270 0200     		.2byte	0x2
 7845 0272 7D       		.byte	0x7d
 7846 0273 00       		.sleb128 0
 7847 0274 02000000 		.4byte	.LCFI2
 7848 0278 46000000 		.4byte	.LFE10
 7849 027c 0200     		.2byte	0x2
 7850 027e 7D       		.byte	0x7d
 7851 027f 10       		.sleb128 16
 7852 0280 00000000 		.4byte	0x0
 7853 0284 00000000 		.4byte	0x0
 7854              	.LLST20:
 7855 0288 00000000 		.4byte	.LVL41
 7856 028c 20000000 		.4byte	.LVL43
 7857 0290 0100     		.2byte	0x1
 7858 0292 50       		.byte	0x50
 7859 0293 3A000000 		.4byte	.LVL46
 7860 0297 3C000000 		.4byte	.LVL47
 7861 029b 0100     		.2byte	0x1
ARM GAS  /tmp/ccSqa4tb.s 			page 139


 7862 029d 50       		.byte	0x50
 7863 029e 3E000000 		.4byte	.LVL48
 7864 02a2 40000000 		.4byte	.LVL49
 7865 02a6 0100     		.2byte	0x1
 7866 02a8 50       		.byte	0x50
 7867 02a9 00000000 		.4byte	0x0
 7868 02ad 00000000 		.4byte	0x0
 7869              	.LLST21:
 7870 02b1 00000000 		.4byte	.LVL41
 7871 02b5 28000000 		.4byte	.LVL44
 7872 02b9 0100     		.2byte	0x1
 7873 02bb 51       		.byte	0x51
 7874 02bc 3A000000 		.4byte	.LVL46
 7875 02c0 42000000 		.4byte	.LVL50
 7876 02c4 0100     		.2byte	0x1
 7877 02c6 51       		.byte	0x51
 7878 02c7 00000000 		.4byte	0x0
 7879 02cb 00000000 		.4byte	0x0
 7880              	.LLST22:
 7881 02cf 00000000 		.4byte	.LVL41
 7882 02d3 32000000 		.4byte	.LVL45
 7883 02d7 0100     		.2byte	0x1
 7884 02d9 52       		.byte	0x52
 7885 02da 3A000000 		.4byte	.LVL46
 7886 02de 46000000 		.4byte	.LFE10
 7887 02e2 0100     		.2byte	0x1
 7888 02e4 52       		.byte	0x52
 7889 02e5 00000000 		.4byte	0x0
 7890 02e9 00000000 		.4byte	0x0
 7891              	.LLST23:
 7892 02ed 06000000 		.4byte	.LVL42
 7893 02f1 3A000000 		.4byte	.LVL46
 7894 02f5 0100     		.2byte	0x1
 7895 02f7 54       		.byte	0x54
 7896 02f8 3E000000 		.4byte	.LVL48
 7897 02fc 46000000 		.4byte	.LFE10
 7898 0300 0100     		.2byte	0x1
 7899 0302 54       		.byte	0x54
 7900 0303 00000000 		.4byte	0x0
 7901 0307 00000000 		.4byte	0x0
 7902              	.LLST24:
 7903 030b 00000000 		.4byte	.LVL51
 7904 030f 04000000 		.4byte	.LVL53
 7905 0313 0100     		.2byte	0x1
 7906 0315 50       		.byte	0x50
 7907 0316 00000000 		.4byte	0x0
 7908 031a 00000000 		.4byte	0x0
 7909              	.LLST25:
 7910 031e 02000000 		.4byte	.LVL52
 7911 0322 08000000 		.4byte	.LVL54
 7912 0326 0100     		.2byte	0x1
 7913 0328 53       		.byte	0x53
 7914 0329 00000000 		.4byte	0x0
 7915 032d 00000000 		.4byte	0x0
 7916              	.LLST26:
 7917 0331 02000000 		.4byte	.LVL52
 7918 0335 08000000 		.4byte	.LVL54
ARM GAS  /tmp/ccSqa4tb.s 			page 140


 7919 0339 0700     		.2byte	0x7
 7920 033b 73       		.byte	0x73
 7921 033c 00       		.sleb128 0
 7922 033d 73       		.byte	0x73
 7923 033e 34       		.sleb128 52
 7924 033f 06       		.byte	0x6
 7925 0340 22       		.byte	0x22
 7926 0341 9F       		.byte	0x9f
 7927 0342 00000000 		.4byte	0x0
 7928 0346 00000000 		.4byte	0x0
 7929              	.LLST27:
 7930 034a 00000000 		.4byte	.LVL55
 7931 034e 06000000 		.4byte	.LVL57
 7932 0352 0100     		.2byte	0x1
 7933 0354 50       		.byte	0x50
 7934 0355 00000000 		.4byte	0x0
 7935 0359 00000000 		.4byte	0x0
 7936              	.LLST28:
 7937 035d 02000000 		.4byte	.LVL56
 7938 0361 10000000 		.4byte	.LVL58
 7939 0365 0100     		.2byte	0x1
 7940 0367 53       		.byte	0x53
 7941 0368 00000000 		.4byte	0x0
 7942 036c 00000000 		.4byte	0x0
 7943              	.LLST29:
 7944 0370 00000000 		.4byte	.LFB13
 7945 0374 02000000 		.4byte	.LCFI3
 7946 0378 0200     		.2byte	0x2
 7947 037a 7D       		.byte	0x7d
 7948 037b 00       		.sleb128 0
 7949 037c 02000000 		.4byte	.LCFI3
 7950 0380 2E000000 		.4byte	.LFE13
 7951 0384 0200     		.2byte	0x2
 7952 0386 7D       		.byte	0x7d
 7953 0387 10       		.sleb128 16
 7954 0388 00000000 		.4byte	0x0
 7955 038c 00000000 		.4byte	0x0
 7956              	.LLST30:
 7957 0390 00000000 		.4byte	.LVL59
 7958 0394 0C000000 		.4byte	.LVL61
 7959 0398 0100     		.2byte	0x1
 7960 039a 50       		.byte	0x50
 7961 039b 00000000 		.4byte	0x0
 7962 039f 00000000 		.4byte	0x0
 7963              	.LLST31:
 7964 03a3 00000000 		.4byte	.LVL59
 7965 03a7 1C000000 		.4byte	.LVL62
 7966 03ab 0100     		.2byte	0x1
 7967 03ad 51       		.byte	0x51
 7968 03ae 2A000000 		.4byte	.LVL64
 7969 03b2 2E000000 		.4byte	.LFE13
 7970 03b6 0100     		.2byte	0x1
 7971 03b8 51       		.byte	0x51
 7972 03b9 00000000 		.4byte	0x0
 7973 03bd 00000000 		.4byte	0x0
 7974              	.LLST32:
 7975 03c1 00000000 		.4byte	.LVL59
ARM GAS  /tmp/ccSqa4tb.s 			page 141


 7976 03c5 25000000 		.4byte	.LVL63-1
 7977 03c9 0100     		.2byte	0x1
 7978 03cb 52       		.byte	0x52
 7979 03cc 2A000000 		.4byte	.LVL64
 7980 03d0 2E000000 		.4byte	.LFE13
 7981 03d4 0100     		.2byte	0x1
 7982 03d6 52       		.byte	0x52
 7983 03d7 00000000 		.4byte	0x0
 7984 03db 00000000 		.4byte	0x0
 7985              	.LLST33:
 7986 03df 04000000 		.4byte	.LVL60
 7987 03e3 25000000 		.4byte	.LVL63-1
 7988 03e7 0100     		.2byte	0x1
 7989 03e9 53       		.byte	0x53
 7990 03ea 2A000000 		.4byte	.LVL64
 7991 03ee 2E000000 		.4byte	.LFE13
 7992 03f2 0100     		.2byte	0x1
 7993 03f4 53       		.byte	0x53
 7994 03f5 00000000 		.4byte	0x0
 7995 03f9 00000000 		.4byte	0x0
 7996              	.LLST34:
 7997 03fd 00000000 		.4byte	.LFB14
 7998 0401 02000000 		.4byte	.LCFI4
 7999 0405 0200     		.2byte	0x2
 8000 0407 7D       		.byte	0x7d
 8001 0408 00       		.sleb128 0
 8002 0409 02000000 		.4byte	.LCFI4
 8003 040d 04000000 		.4byte	.LCFI5
 8004 0411 0200     		.2byte	0x2
 8005 0413 7D       		.byte	0x7d
 8006 0414 14       		.sleb128 20
 8007 0415 04000000 		.4byte	.LCFI5
 8008 0419 40000000 		.4byte	.LFE14
 8009 041d 0300     		.2byte	0x3
 8010 041f 7D       		.byte	0x7d
 8011 0420 C000     		.sleb128 64
 8012 0422 00000000 		.4byte	0x0
 8013 0426 00000000 		.4byte	0x0
 8014              	.LLST35:
 8015 042a 00000000 		.4byte	.LVL65
 8016 042e 11000000 		.4byte	.LVL67-1
 8017 0432 0100     		.2byte	0x1
 8018 0434 50       		.byte	0x50
 8019 0435 11000000 		.4byte	.LVL67-1
 8020 0439 40000000 		.4byte	.LFE14
 8021 043d 0100     		.2byte	0x1
 8022 043f 57       		.byte	0x57
 8023 0440 00000000 		.4byte	0x0
 8024 0444 00000000 		.4byte	0x0
 8025              	.LLST36:
 8026 0448 00000000 		.4byte	.LVL65
 8027 044c 08000000 		.4byte	.LVL66
 8028 0450 0100     		.2byte	0x1
 8029 0452 51       		.byte	0x51
 8030 0453 08000000 		.4byte	.LVL66
 8031 0457 40000000 		.4byte	.LFE14
 8032 045b 0100     		.2byte	0x1
ARM GAS  /tmp/ccSqa4tb.s 			page 142


 8033 045d 56       		.byte	0x56
 8034 045e 00000000 		.4byte	0x0
 8035 0462 00000000 		.4byte	0x0
 8036              	.LLST37:
 8037 0466 00000000 		.4byte	.LVL65
 8038 046a 11000000 		.4byte	.LVL67-1
 8039 046e 0100     		.2byte	0x1
 8040 0470 52       		.byte	0x52
 8041 0471 11000000 		.4byte	.LVL67-1
 8042 0475 40000000 		.4byte	.LFE14
 8043 0479 0100     		.2byte	0x1
 8044 047b 55       		.byte	0x55
 8045 047c 00000000 		.4byte	0x0
 8046 0480 00000000 		.4byte	0x0
 8047              	.LLST38:
 8048 0484 12000000 		.4byte	.LVL67
 8049 0488 14000000 		.4byte	.LVL68
 8050 048c 0200     		.2byte	0x2
 8051 048e 30       		.byte	0x30
 8052 048f 9F       		.byte	0x9f
 8053 0490 14000000 		.4byte	.LVL68
 8054 0494 2E000000 		.4byte	.LVL70
 8055 0498 0100     		.2byte	0x1
 8056 049a 54       		.byte	0x54
 8057 049b 2E000000 		.4byte	.LVL70
 8058 049f 40000000 		.4byte	.LFE14
 8059 04a3 0100     		.2byte	0x1
 8060 04a5 54       		.byte	0x54
 8061 04a6 00000000 		.4byte	0x0
 8062 04aa 00000000 		.4byte	0x0
 8063              	.LLST39:
 8064 04ae 14000000 		.4byte	.LVL68
 8065 04b2 1D000000 		.4byte	.LVL69-1
 8066 04b6 0100     		.2byte	0x1
 8067 04b8 53       		.byte	0x53
 8068 04b9 1D000000 		.4byte	.LVL69-1
 8069 04bd 40000000 		.4byte	.LFE14
 8070 04c1 0200     		.2byte	0x2
 8071 04c3 91       		.byte	0x91
 8072 04c4 64       		.sleb128 -28
 8073 04c5 00000000 		.4byte	0x0
 8074 04c9 00000000 		.4byte	0x0
 8075              	.LLST40:
 8076 04cd 00000000 		.4byte	.LVL71
 8077 04d1 06000000 		.4byte	.LVL73
 8078 04d5 0100     		.2byte	0x1
 8079 04d7 50       		.byte	0x50
 8080 04d8 00000000 		.4byte	0x0
 8081 04dc 00000000 		.4byte	0x0
 8082              	.LLST41:
 8083 04e0 02000000 		.4byte	.LVL72
 8084 04e4 10000000 		.4byte	.LVL74
 8085 04e8 0100     		.2byte	0x1
 8086 04ea 53       		.byte	0x53
 8087 04eb 00000000 		.4byte	0x0
 8088 04ef 00000000 		.4byte	0x0
 8089              	.LLST42:
ARM GAS  /tmp/ccSqa4tb.s 			page 143


 8090 04f3 00000000 		.4byte	.LFB16
 8091 04f7 02000000 		.4byte	.LCFI6
 8092 04fb 0200     		.2byte	0x2
 8093 04fd 7D       		.byte	0x7d
 8094 04fe 00       		.sleb128 0
 8095 04ff 02000000 		.4byte	.LCFI6
 8096 0503 3C000000 		.4byte	.LFE16
 8097 0507 0200     		.2byte	0x2
 8098 0509 7D       		.byte	0x7d
 8099 050a 10       		.sleb128 16
 8100 050b 00000000 		.4byte	0x0
 8101 050f 00000000 		.4byte	0x0
 8102              	.LLST43:
 8103 0513 00000000 		.4byte	.LVL75
 8104 0517 08000000 		.4byte	.LVL77
 8105 051b 0100     		.2byte	0x1
 8106 051d 50       		.byte	0x50
 8107 051e 00000000 		.4byte	0x0
 8108 0522 00000000 		.4byte	0x0
 8109              	.LLST44:
 8110 0526 00000000 		.4byte	.LVL75
 8111 052a 22000000 		.4byte	.LVL79
 8112 052e 0100     		.2byte	0x1
 8113 0530 51       		.byte	0x51
 8114 0531 34000000 		.4byte	.LVL81
 8115 0535 38000000 		.4byte	.LVL82
 8116 0539 0100     		.2byte	0x1
 8117 053b 51       		.byte	0x51
 8118 053c 00000000 		.4byte	0x0
 8119 0540 00000000 		.4byte	0x0
 8120              	.LLST45:
 8121 0544 00000000 		.4byte	.LVL75
 8122 0548 29000000 		.4byte	.LVL80-1
 8123 054c 0100     		.2byte	0x1
 8124 054e 52       		.byte	0x52
 8125 054f 34000000 		.4byte	.LVL81
 8126 0553 38000000 		.4byte	.LVL82
 8127 0557 0100     		.2byte	0x1
 8128 0559 52       		.byte	0x52
 8129 055a 00000000 		.4byte	0x0
 8130 055e 00000000 		.4byte	0x0
 8131              	.LLST46:
 8132 0562 00000000 		.4byte	.LVL75
 8133 0566 06000000 		.4byte	.LVL76
 8134 056a 0100     		.2byte	0x1
 8135 056c 53       		.byte	0x53
 8136 056d 06000000 		.4byte	.LVL76
 8137 0571 3C000000 		.4byte	.LFE16
 8138 0575 0100     		.2byte	0x1
 8139 0577 54       		.byte	0x54
 8140 0578 00000000 		.4byte	0x0
 8141 057c 00000000 		.4byte	0x0
 8142              	.LLST47:
 8143 0580 06000000 		.4byte	.LVL76
 8144 0584 29000000 		.4byte	.LVL80-1
 8145 0588 0100     		.2byte	0x1
 8146 058a 53       		.byte	0x53
ARM GAS  /tmp/ccSqa4tb.s 			page 144


 8147 058b 34000000 		.4byte	.LVL81
 8148 058f 38000000 		.4byte	.LVL82
 8149 0593 0100     		.2byte	0x1
 8150 0595 53       		.byte	0x53
 8151 0596 00000000 		.4byte	0x0
 8152 059a 00000000 		.4byte	0x0
 8153              	.LLST48:
 8154 059e 1E000000 		.4byte	.LVL78
 8155 05a2 34000000 		.4byte	.LVL81
 8156 05a6 0100     		.2byte	0x1
 8157 05a8 55       		.byte	0x55
 8158 05a9 38000000 		.4byte	.LVL82
 8159 05ad 3C000000 		.4byte	.LFE16
 8160 05b1 0100     		.2byte	0x1
 8161 05b3 55       		.byte	0x55
 8162 05b4 00000000 		.4byte	0x0
 8163 05b8 00000000 		.4byte	0x0
 8164              	.LLST49:
 8165 05bc 00000000 		.4byte	.LFB17
 8166 05c0 04000000 		.4byte	.LCFI7
 8167 05c4 0200     		.2byte	0x2
 8168 05c6 7D       		.byte	0x7d
 8169 05c7 00       		.sleb128 0
 8170 05c8 04000000 		.4byte	.LCFI7
 8171 05cc 06000000 		.4byte	.LCFI8
 8172 05d0 0200     		.2byte	0x2
 8173 05d2 7D       		.byte	0x7d
 8174 05d3 18       		.sleb128 24
 8175 05d4 06000000 		.4byte	.LCFI8
 8176 05d8 60000000 		.4byte	.LFE17
 8177 05dc 0300     		.2byte	0x3
 8178 05de 7D       		.byte	0x7d
 8179 05df C000     		.sleb128 64
 8180 05e1 00000000 		.4byte	0x0
 8181 05e5 00000000 		.4byte	0x0
 8182              	.LLST50:
 8183 05e9 00000000 		.4byte	.LVL83
 8184 05ed 11000000 		.4byte	.LVL85-1
 8185 05f1 0100     		.2byte	0x1
 8186 05f3 50       		.byte	0x50
 8187 05f4 11000000 		.4byte	.LVL85-1
 8188 05f8 60000000 		.4byte	.LFE17
 8189 05fc 0100     		.2byte	0x1
 8190 05fe 57       		.byte	0x57
 8191 05ff 00000000 		.4byte	0x0
 8192 0603 00000000 		.4byte	0x0
 8193              	.LLST51:
 8194 0607 00000000 		.4byte	.LVL83
 8195 060b 0A000000 		.4byte	.LVL84
 8196 060f 0100     		.2byte	0x1
 8197 0611 51       		.byte	0x51
 8198 0612 0A000000 		.4byte	.LVL84
 8199 0616 60000000 		.4byte	.LFE17
 8200 061a 0100     		.2byte	0x1
 8201 061c 58       		.byte	0x58
 8202 061d 00000000 		.4byte	0x0
 8203 0621 00000000 		.4byte	0x0
ARM GAS  /tmp/ccSqa4tb.s 			page 145


 8204              	.LLST52:
 8205 0625 00000000 		.4byte	.LVL83
 8206 0629 11000000 		.4byte	.LVL85-1
 8207 062d 0100     		.2byte	0x1
 8208 062f 52       		.byte	0x52
 8209 0630 11000000 		.4byte	.LVL85-1
 8210 0634 60000000 		.4byte	.LFE17
 8211 0638 0100     		.2byte	0x1
 8212 063a 56       		.byte	0x56
 8213 063b 00000000 		.4byte	0x0
 8214 063f 00000000 		.4byte	0x0
 8215              	.LLST53:
 8216 0643 1A000000 		.4byte	.LVL86
 8217 0647 1C000000 		.4byte	.LVL87
 8218 064b 0200     		.2byte	0x2
 8219 064d 30       		.byte	0x30
 8220 064e 9F       		.byte	0x9f
 8221 064f 1C000000 		.4byte	.LVL87
 8222 0653 46000000 		.4byte	.LVL92
 8223 0657 0100     		.2byte	0x1
 8224 0659 55       		.byte	0x55
 8225 065a 46000000 		.4byte	.LVL92
 8226 065e 4C000000 		.4byte	.LVL93
 8227 0662 0100     		.2byte	0x1
 8228 0664 55       		.byte	0x55
 8229 0665 4C000000 		.4byte	.LVL93
 8230 0669 60000000 		.4byte	.LFE17
 8231 066d 0100     		.2byte	0x1
 8232 066f 55       		.byte	0x55
 8233 0670 00000000 		.4byte	0x0
 8234 0674 00000000 		.4byte	0x0
 8235              	.LLST54:
 8236 0678 24000000 		.4byte	.LVL88
 8237 067c 3E000000 		.4byte	.LVL90
 8238 0680 0100     		.2byte	0x1
 8239 0682 54       		.byte	0x54
 8240 0683 3E000000 		.4byte	.LVL90
 8241 0687 42000000 		.4byte	.LVL91
 8242 068b 0300     		.2byte	0x3
 8243 068d 74       		.byte	0x74
 8244 068e 01       		.sleb128 1
 8245 068f 9F       		.byte	0x9f
 8246 0690 42000000 		.4byte	.LVL91
 8247 0694 4C000000 		.4byte	.LVL93
 8248 0698 0100     		.2byte	0x1
 8249 069a 54       		.byte	0x54
 8250 069b 00000000 		.4byte	0x0
 8251 069f 00000000 		.4byte	0x0
 8252              	.LLST55:
 8253 06a3 38000000 		.4byte	.LVL89
 8254 06a7 4C000000 		.4byte	.LVL93
 8255 06ab 0100     		.2byte	0x1
 8256 06ad 50       		.byte	0x50
 8257 06ae 00000000 		.4byte	0x0
 8258 06b2 00000000 		.4byte	0x0
 8259              	.LLST56:
 8260 06b6 00000000 		.4byte	.LVL94
ARM GAS  /tmp/ccSqa4tb.s 			page 146


 8261 06ba 06000000 		.4byte	.LVL96
 8262 06be 0100     		.2byte	0x1
 8263 06c0 50       		.byte	0x50
 8264 06c1 00000000 		.4byte	0x0
 8265 06c5 00000000 		.4byte	0x0
 8266              	.LLST57:
 8267 06c9 02000000 		.4byte	.LVL95
 8268 06cd 10000000 		.4byte	.LVL97
 8269 06d1 0100     		.2byte	0x1
 8270 06d3 53       		.byte	0x53
 8271 06d4 00000000 		.4byte	0x0
 8272 06d8 00000000 		.4byte	0x0
 8273              	.LLST58:
 8274 06dc 00000000 		.4byte	.LFB19
 8275 06e0 02000000 		.4byte	.LCFI9
 8276 06e4 0200     		.2byte	0x2
 8277 06e6 7D       		.byte	0x7d
 8278 06e7 00       		.sleb128 0
 8279 06e8 02000000 		.4byte	.LCFI9
 8280 06ec 42000000 		.4byte	.LFE19
 8281 06f0 0200     		.2byte	0x2
 8282 06f2 7D       		.byte	0x7d
 8283 06f3 18       		.sleb128 24
 8284 06f4 00000000 		.4byte	0x0
 8285 06f8 00000000 		.4byte	0x0
 8286              	.LLST59:
 8287 06fc 00000000 		.4byte	.LVL98
 8288 0700 0A000000 		.4byte	.LVL100
 8289 0704 0100     		.2byte	0x1
 8290 0706 50       		.byte	0x50
 8291 0707 0A000000 		.4byte	.LVL100
 8292 070b 42000000 		.4byte	.LFE19
 8293 070f 0100     		.2byte	0x1
 8294 0711 54       		.byte	0x54
 8295 0712 00000000 		.4byte	0x0
 8296 0716 00000000 		.4byte	0x0
 8297              	.LLST60:
 8298 071a 00000000 		.4byte	.LVL98
 8299 071e 22000000 		.4byte	.LVL103
 8300 0722 0100     		.2byte	0x1
 8301 0724 51       		.byte	0x51
 8302 0725 3E000000 		.4byte	.LVL107
 8303 0729 42000000 		.4byte	.LFE19
 8304 072d 0100     		.2byte	0x1
 8305 072f 51       		.byte	0x51
 8306 0730 00000000 		.4byte	0x0
 8307 0734 00000000 		.4byte	0x0
 8308              	.LLST61:
 8309 0738 00000000 		.4byte	.LVL98
 8310 073c 29000000 		.4byte	.LVL104-1
 8311 0740 0100     		.2byte	0x1
 8312 0742 52       		.byte	0x52
 8313 0743 3E000000 		.4byte	.LVL107
 8314 0747 42000000 		.4byte	.LFE19
 8315 074b 0100     		.2byte	0x1
 8316 074d 52       		.byte	0x52
 8317 074e 00000000 		.4byte	0x0
ARM GAS  /tmp/ccSqa4tb.s 			page 147


 8318 0752 00000000 		.4byte	0x0
 8319              	.LLST62:
 8320 0756 00000000 		.4byte	.LVL98
 8321 075a 0C000000 		.4byte	.LVL101
 8322 075e 0100     		.2byte	0x1
 8323 0760 53       		.byte	0x53
 8324 0761 0C000000 		.4byte	.LVL101
 8325 0765 42000000 		.4byte	.LFE19
 8326 0769 0100     		.2byte	0x1
 8327 076b 57       		.byte	0x57
 8328 076c 00000000 		.4byte	0x0
 8329 0770 00000000 		.4byte	0x0
 8330              	.LLST63:
 8331 0774 20000000 		.4byte	.LVL102
 8332 0778 3E000000 		.4byte	.LVL107
 8333 077c 0100     		.2byte	0x1
 8334 077e 56       		.byte	0x56
 8335 077f 00000000 		.4byte	0x0
 8336 0783 00000000 		.4byte	0x0
 8337              	.LLST64:
 8338 0787 34000000 		.4byte	.LVL105
 8339 078b 3A000000 		.4byte	.LVL106
 8340 078f 0100     		.2byte	0x1
 8341 0791 53       		.byte	0x53
 8342 0792 00000000 		.4byte	0x0
 8343 0796 00000000 		.4byte	0x0
 8344              	.LLST65:
 8345 079a 00000000 		.4byte	.LFB20
 8346 079e 04000000 		.4byte	.LCFI10
 8347 07a2 0200     		.2byte	0x2
 8348 07a4 7D       		.byte	0x7d
 8349 07a5 00       		.sleb128 0
 8350 07a6 04000000 		.4byte	.LCFI10
 8351 07aa 06000000 		.4byte	.LCFI11
 8352 07ae 0200     		.2byte	0x2
 8353 07b0 7D       		.byte	0x7d
 8354 07b1 18       		.sleb128 24
 8355 07b2 06000000 		.4byte	.LCFI11
 8356 07b6 58000000 		.4byte	.LFE20
 8357 07ba 0300     		.2byte	0x3
 8358 07bc 7D       		.byte	0x7d
 8359 07bd C000     		.sleb128 64
 8360 07bf 00000000 		.4byte	0x0
 8361 07c3 00000000 		.4byte	0x0
 8362              	.LLST66:
 8363 07c7 00000000 		.4byte	.LVL108
 8364 07cb 11000000 		.4byte	.LVL110-1
 8365 07cf 0100     		.2byte	0x1
 8366 07d1 50       		.byte	0x50
 8367 07d2 11000000 		.4byte	.LVL110-1
 8368 07d6 58000000 		.4byte	.LFE20
 8369 07da 0100     		.2byte	0x1
 8370 07dc 57       		.byte	0x57
 8371 07dd 00000000 		.4byte	0x0
 8372 07e1 00000000 		.4byte	0x0
 8373              	.LLST67:
 8374 07e5 00000000 		.4byte	.LVL108
ARM GAS  /tmp/ccSqa4tb.s 			page 148


 8375 07e9 0A000000 		.4byte	.LVL109
 8376 07ed 0100     		.2byte	0x1
 8377 07ef 51       		.byte	0x51
 8378 07f0 0A000000 		.4byte	.LVL109
 8379 07f4 58000000 		.4byte	.LFE20
 8380 07f8 0100     		.2byte	0x1
 8381 07fa 58       		.byte	0x58
 8382 07fb 00000000 		.4byte	0x0
 8383 07ff 00000000 		.4byte	0x0
 8384              	.LLST68:
 8385 0803 00000000 		.4byte	.LVL108
 8386 0807 11000000 		.4byte	.LVL110-1
 8387 080b 0100     		.2byte	0x1
 8388 080d 52       		.byte	0x52
 8389 080e 11000000 		.4byte	.LVL110-1
 8390 0812 58000000 		.4byte	.LFE20
 8391 0816 0100     		.2byte	0x1
 8392 0818 56       		.byte	0x56
 8393 0819 00000000 		.4byte	0x0
 8394 081d 00000000 		.4byte	0x0
 8395              	.LLST69:
 8396 0821 1A000000 		.4byte	.LVL111
 8397 0825 1C000000 		.4byte	.LVL112
 8398 0829 0200     		.2byte	0x2
 8399 082b 30       		.byte	0x30
 8400 082c 9F       		.byte	0x9f
 8401 082d 1C000000 		.4byte	.LVL112
 8402 0831 46000000 		.4byte	.LVL117
 8403 0835 0100     		.2byte	0x1
 8404 0837 54       		.byte	0x54
 8405 0838 46000000 		.4byte	.LVL117
 8406 083c 58000000 		.4byte	.LFE20
 8407 0840 0100     		.2byte	0x1
 8408 0842 54       		.byte	0x54
 8409 0843 00000000 		.4byte	0x0
 8410 0847 00000000 		.4byte	0x0
 8411              	.LLST70:
 8412 084b 24000000 		.4byte	.LVL113
 8413 084f 3E000000 		.4byte	.LVL115
 8414 0853 0100     		.2byte	0x1
 8415 0855 55       		.byte	0x55
 8416 0856 3E000000 		.4byte	.LVL115
 8417 085a 42000000 		.4byte	.LVL116
 8418 085e 0300     		.2byte	0x3
 8419 0860 75       		.byte	0x75
 8420 0861 01       		.sleb128 1
 8421 0862 9F       		.byte	0x9f
 8422 0863 42000000 		.4byte	.LVL116
 8423 0867 46000000 		.4byte	.LVL117
 8424 086b 0100     		.2byte	0x1
 8425 086d 55       		.byte	0x55
 8426 086e 00000000 		.4byte	0x0
 8427 0872 00000000 		.4byte	0x0
 8428              	.LLST71:
 8429 0876 38000000 		.4byte	.LVL114
 8430 087a 46000000 		.4byte	.LVL117
 8431 087e 0100     		.2byte	0x1
ARM GAS  /tmp/ccSqa4tb.s 			page 149


 8432 0880 50       		.byte	0x50
 8433 0881 00000000 		.4byte	0x0
 8434 0885 00000000 		.4byte	0x0
 8435              	.LLST72:
 8436 0889 00000000 		.4byte	.LVL118
 8437 088d 0E000000 		.4byte	.LVL121
 8438 0891 0100     		.2byte	0x1
 8439 0893 50       		.byte	0x50
 8440 0894 10000000 		.4byte	.LVL122
 8441 0898 14000000 		.4byte	.LVL123
 8442 089c 0100     		.2byte	0x1
 8443 089e 50       		.byte	0x50
 8444 089f 00000000 		.4byte	0x0
 8445 08a3 00000000 		.4byte	0x0
 8446              	.LLST73:
 8447 08a7 02000000 		.4byte	.LVL119
 8448 08ab 0A000000 		.4byte	.LVL120
 8449 08af 0100     		.2byte	0x1
 8450 08b1 53       		.byte	0x53
 8451 08b2 10000000 		.4byte	.LVL122
 8452 08b6 1C000000 		.4byte	.LVL124
 8453 08ba 0100     		.2byte	0x1
 8454 08bc 53       		.byte	0x53
 8455 08bd 28000000 		.4byte	.LVL125
 8456 08c1 2A000000 		.4byte	.LVL126
 8457 08c5 0100     		.2byte	0x1
 8458 08c7 53       		.byte	0x53
 8459 08c8 00000000 		.4byte	0x0
 8460 08cc 00000000 		.4byte	0x0
 8461              	.LLST74:
 8462 08d0 00000000 		.4byte	.LFB22
 8463 08d4 02000000 		.4byte	.LCFI12
 8464 08d8 0200     		.2byte	0x2
 8465 08da 7D       		.byte	0x7d
 8466 08db 00       		.sleb128 0
 8467 08dc 02000000 		.4byte	.LCFI12
 8468 08e0 5C000000 		.4byte	.LFE22
 8469 08e4 0200     		.2byte	0x2
 8470 08e6 7D       		.byte	0x7d
 8471 08e7 10       		.sleb128 16
 8472 08e8 00000000 		.4byte	0x0
 8473 08ec 00000000 		.4byte	0x0
 8474              	.LLST75:
 8475 08f0 00000000 		.4byte	.LVL127
 8476 08f4 08000000 		.4byte	.LVL129
 8477 08f8 0100     		.2byte	0x1
 8478 08fa 50       		.byte	0x50
 8479 08fb 00000000 		.4byte	0x0
 8480 08ff 00000000 		.4byte	0x0
 8481              	.LLST76:
 8482 0903 00000000 		.4byte	.LVL127
 8483 0907 40000000 		.4byte	.LVL132
 8484 090b 0100     		.2byte	0x1
 8485 090d 51       		.byte	0x51
 8486 090e 54000000 		.4byte	.LVL135
 8487 0912 5C000000 		.4byte	.LFE22
 8488 0916 0100     		.2byte	0x1
ARM GAS  /tmp/ccSqa4tb.s 			page 150


 8489 0918 51       		.byte	0x51
 8490 0919 00000000 		.4byte	0x0
 8491 091d 00000000 		.4byte	0x0
 8492              	.LLST77:
 8493 0921 00000000 		.4byte	.LVL127
 8494 0925 4B000000 		.4byte	.LVL134-1
 8495 0929 0100     		.2byte	0x1
 8496 092b 52       		.byte	0x52
 8497 092c 54000000 		.4byte	.LVL135
 8498 0930 5C000000 		.4byte	.LFE22
 8499 0934 0100     		.2byte	0x1
 8500 0936 52       		.byte	0x52
 8501 0937 00000000 		.4byte	0x0
 8502 093b 00000000 		.4byte	0x0
 8503              	.LLST78:
 8504 093f 00000000 		.4byte	.LVL127
 8505 0943 06000000 		.4byte	.LVL128
 8506 0947 0100     		.2byte	0x1
 8507 0949 53       		.byte	0x53
 8508 094a 06000000 		.4byte	.LVL128
 8509 094e 5C000000 		.4byte	.LFE22
 8510 0952 0100     		.2byte	0x1
 8511 0954 54       		.byte	0x54
 8512 0955 00000000 		.4byte	0x0
 8513 0959 00000000 		.4byte	0x0
 8514              	.LLST79:
 8515 095d 06000000 		.4byte	.LVL128
 8516 0961 0E000000 		.4byte	.LVL130
 8517 0965 0100     		.2byte	0x1
 8518 0967 53       		.byte	0x53
 8519 0968 16000000 		.4byte	.LVL131
 8520 096c 4B000000 		.4byte	.LVL134-1
 8521 0970 0100     		.2byte	0x1
 8522 0972 53       		.byte	0x53
 8523 0973 54000000 		.4byte	.LVL135
 8524 0977 5C000000 		.4byte	.LFE22
 8525 097b 0100     		.2byte	0x1
 8526 097d 53       		.byte	0x53
 8527 097e 00000000 		.4byte	0x0
 8528 0982 00000000 		.4byte	0x0
 8529              	.LLST80:
 8530 0986 42000000 		.4byte	.LVL133
 8531 098a 54000000 		.4byte	.LVL135
 8532 098e 0100     		.2byte	0x1
 8533 0990 55       		.byte	0x55
 8534 0991 00000000 		.4byte	0x0
 8535 0995 00000000 		.4byte	0x0
 8536              	.LLST81:
 8537 0999 00000000 		.4byte	.LFB23
 8538 099d 04000000 		.4byte	.LCFI13
 8539 09a1 0200     		.2byte	0x2
 8540 09a3 7D       		.byte	0x7d
 8541 09a4 00       		.sleb128 0
 8542 09a5 04000000 		.4byte	.LCFI13
 8543 09a9 52000000 		.4byte	.LFE23
 8544 09ad 0200     		.2byte	0x2
 8545 09af 7D       		.byte	0x7d
ARM GAS  /tmp/ccSqa4tb.s 			page 151


 8546 09b0 20       		.sleb128 32
 8547 09b1 00000000 		.4byte	0x0
 8548 09b5 00000000 		.4byte	0x0
 8549              	.LLST82:
 8550 09b9 00000000 		.4byte	.LVL136
 8551 09bd 0F000000 		.4byte	.LVL138-1
 8552 09c1 0100     		.2byte	0x1
 8553 09c3 50       		.byte	0x50
 8554 09c4 0F000000 		.4byte	.LVL138-1
 8555 09c8 52000000 		.4byte	.LFE23
 8556 09cc 0100     		.2byte	0x1
 8557 09ce 57       		.byte	0x57
 8558 09cf 00000000 		.4byte	0x0
 8559 09d3 00000000 		.4byte	0x0
 8560              	.LLST83:
 8561 09d7 00000000 		.4byte	.LVL136
 8562 09db 08000000 		.4byte	.LVL137
 8563 09df 0100     		.2byte	0x1
 8564 09e1 51       		.byte	0x51
 8565 09e2 08000000 		.4byte	.LVL137
 8566 09e6 52000000 		.4byte	.LFE23
 8567 09ea 0100     		.2byte	0x1
 8568 09ec 58       		.byte	0x58
 8569 09ed 00000000 		.4byte	0x0
 8570 09f1 00000000 		.4byte	0x0
 8571              	.LLST84:
 8572 09f5 00000000 		.4byte	.LVL136
 8573 09f9 0F000000 		.4byte	.LVL138-1
 8574 09fd 0100     		.2byte	0x1
 8575 09ff 52       		.byte	0x52
 8576 0a00 0F000000 		.4byte	.LVL138-1
 8577 0a04 52000000 		.4byte	.LFE23
 8578 0a08 0100     		.2byte	0x1
 8579 0a0a 56       		.byte	0x56
 8580 0a0b 00000000 		.4byte	0x0
 8581 0a0f 00000000 		.4byte	0x0
 8582              	.LLST85:
 8583 0a13 18000000 		.4byte	.LVL139
 8584 0a17 1A000000 		.4byte	.LVL140
 8585 0a1b 0200     		.2byte	0x2
 8586 0a1d 30       		.byte	0x30
 8587 0a1e 9F       		.byte	0x9f
 8588 0a1f 1A000000 		.4byte	.LVL140
 8589 0a23 3E000000 		.4byte	.LVL144
 8590 0a27 0100     		.2byte	0x1
 8591 0a29 54       		.byte	0x54
 8592 0a2a 3E000000 		.4byte	.LVL144
 8593 0a2e 52000000 		.4byte	.LFE23
 8594 0a32 0100     		.2byte	0x1
 8595 0a34 54       		.byte	0x54
 8596 0a35 00000000 		.4byte	0x0
 8597 0a39 00000000 		.4byte	0x0
 8598              	.LLST86:
 8599 0a3d 22000000 		.4byte	.LVL141
 8600 0a41 36000000 		.4byte	.LVL142
 8601 0a45 0100     		.2byte	0x1
 8602 0a47 55       		.byte	0x55
ARM GAS  /tmp/ccSqa4tb.s 			page 152


 8603 0a48 36000000 		.4byte	.LVL142
 8604 0a4c 3A000000 		.4byte	.LVL143
 8605 0a50 0300     		.2byte	0x3
 8606 0a52 75       		.byte	0x75
 8607 0a53 01       		.sleb128 1
 8608 0a54 9F       		.byte	0x9f
 8609 0a55 3A000000 		.4byte	.LVL143
 8610 0a59 3E000000 		.4byte	.LVL144
 8611 0a5d 0100     		.2byte	0x1
 8612 0a5f 55       		.byte	0x55
 8613 0a60 4C000000 		.4byte	.LVL145
 8614 0a64 4E000000 		.4byte	.LVL146
 8615 0a68 0100     		.2byte	0x1
 8616 0a6a 55       		.byte	0x55
 8617 0a6b 00000000 		.4byte	0x0
 8618 0a6f 00000000 		.4byte	0x0
 8619              	.LLST87:
 8620 0a73 00000000 		.4byte	.LFB24
 8621 0a77 02000000 		.4byte	.LCFI14
 8622 0a7b 0200     		.2byte	0x2
 8623 0a7d 7D       		.byte	0x7d
 8624 0a7e 00       		.sleb128 0
 8625 0a7f 02000000 		.4byte	.LCFI14
 8626 0a83 2E000000 		.4byte	.LFE24
 8627 0a87 0200     		.2byte	0x2
 8628 0a89 7D       		.byte	0x7d
 8629 0a8a 08       		.sleb128 8
 8630 0a8b 00000000 		.4byte	0x0
 8631 0a8f 00000000 		.4byte	0x0
 8632              	.LLST88:
 8633 0a93 00000000 		.4byte	.LVL147
 8634 0a97 1E000000 		.4byte	.LVL152
 8635 0a9b 0100     		.2byte	0x1
 8636 0a9d 50       		.byte	0x50
 8637 0a9e 20000000 		.4byte	.LVL153
 8638 0aa2 26000000 		.4byte	.LVL154
 8639 0aa6 0100     		.2byte	0x1
 8640 0aa8 50       		.byte	0x50
 8641 0aa9 00000000 		.4byte	0x0
 8642 0aad 00000000 		.4byte	0x0
 8643              	.LLST89:
 8644 0ab1 00000000 		.4byte	.LVL147
 8645 0ab5 06000000 		.4byte	.LVL148
 8646 0ab9 0200     		.2byte	0x2
 8647 0abb 30       		.byte	0x30
 8648 0abc 9F       		.byte	0x9f
 8649 0abd 08000000 		.4byte	.LVL149
 8650 0ac1 0C000000 		.4byte	.LVL150
 8651 0ac5 0100     		.2byte	0x1
 8652 0ac7 53       		.byte	0x53
 8653 0ac8 1C000000 		.4byte	.LVL151
 8654 0acc 20000000 		.4byte	.LVL153
 8655 0ad0 0100     		.2byte	0x1
 8656 0ad2 53       		.byte	0x53
 8657 0ad3 00000000 		.4byte	0x0
 8658 0ad7 00000000 		.4byte	0x0
 8659              	.LLST90:
ARM GAS  /tmp/ccSqa4tb.s 			page 153


 8660 0adb 00000000 		.4byte	.LFB25
 8661 0adf 02000000 		.4byte	.LCFI15
 8662 0ae3 0200     		.2byte	0x2
 8663 0ae5 7D       		.byte	0x7d
 8664 0ae6 00       		.sleb128 0
 8665 0ae7 02000000 		.4byte	.LCFI15
 8666 0aeb 42000000 		.4byte	.LFE25
 8667 0aef 0200     		.2byte	0x2
 8668 0af1 7D       		.byte	0x7d
 8669 0af2 08       		.sleb128 8
 8670 0af3 00000000 		.4byte	0x0
 8671 0af7 00000000 		.4byte	0x0
 8672              	.LLST91:
 8673 0afb 00000000 		.4byte	.LVL155
 8674 0aff 24000000 		.4byte	.LVL160
 8675 0b03 0100     		.2byte	0x1
 8676 0b05 50       		.byte	0x50
 8677 0b06 26000000 		.4byte	.LVL161
 8678 0b0a 40000000 		.4byte	.LVL164
 8679 0b0e 0100     		.2byte	0x1
 8680 0b10 50       		.byte	0x50
 8681 0b11 00000000 		.4byte	0x0
 8682 0b15 00000000 		.4byte	0x0
 8683              	.LLST92:
 8684 0b19 00000000 		.4byte	.LVL155
 8685 0b1d 06000000 		.4byte	.LVL156
 8686 0b21 0200     		.2byte	0x2
 8687 0b23 30       		.byte	0x30
 8688 0b24 9F       		.byte	0x9f
 8689 0b25 08000000 		.4byte	.LVL157
 8690 0b29 0C000000 		.4byte	.LVL158
 8691 0b2d 0100     		.2byte	0x1
 8692 0b2f 53       		.byte	0x53
 8693 0b30 1E000000 		.4byte	.LVL159
 8694 0b34 28000000 		.4byte	.LVL162
 8695 0b38 0100     		.2byte	0x1
 8696 0b3a 53       		.byte	0x53
 8697 0b3b 36000000 		.4byte	.LVL163
 8698 0b3f 42000000 		.4byte	.LFE25
 8699 0b43 0100     		.2byte	0x1
 8700 0b45 53       		.byte	0x53
 8701 0b46 00000000 		.4byte	0x0
 8702 0b4a 00000000 		.4byte	0x0
 8703              	.LLST93:
 8704 0b4e 00000000 		.4byte	.LFB27
 8705 0b52 04000000 		.4byte	.LCFI16
 8706 0b56 0200     		.2byte	0x2
 8707 0b58 7D       		.byte	0x7d
 8708 0b59 00       		.sleb128 0
 8709 0b5a 04000000 		.4byte	.LCFI16
 8710 0b5e 18000000 		.4byte	.LCFI17
 8711 0b62 0200     		.2byte	0x2
 8712 0b64 7D       		.byte	0x7d
 8713 0b65 24       		.sleb128 36
 8714 0b66 18000000 		.4byte	.LCFI17
 8715 0b6a AA000000 		.4byte	.LFE27
 8716 0b6e 0200     		.2byte	0x2
ARM GAS  /tmp/ccSqa4tb.s 			page 154


 8717 0b70 7D       		.byte	0x7d
 8718 0b71 38       		.sleb128 56
 8719 0b72 00000000 		.4byte	0x0
 8720 0b76 00000000 		.4byte	0x0
 8721              	.LLST94:
 8722 0b7a 00000000 		.4byte	.LVL165
 8723 0b7e 2A000000 		.4byte	.LVL170
 8724 0b82 0100     		.2byte	0x1
 8725 0b84 50       		.byte	0x50
 8726 0b85 2A000000 		.4byte	.LVL170
 8727 0b89 AA000000 		.4byte	.LFE27
 8728 0b8d 0200     		.2byte	0x2
 8729 0b8f 91       		.byte	0x91
 8730 0b90 54       		.sleb128 -44
 8731 0b91 00000000 		.4byte	0x0
 8732 0b95 00000000 		.4byte	0x0
 8733              	.LLST95:
 8734 0b99 00000000 		.4byte	.LVL165
 8735 0b9d 2A000000 		.4byte	.LVL170
 8736 0ba1 0100     		.2byte	0x1
 8737 0ba3 51       		.byte	0x51
 8738 0ba4 2A000000 		.4byte	.LVL170
 8739 0ba8 AA000000 		.4byte	.LFE27
 8740 0bac 0100     		.2byte	0x1
 8741 0bae 58       		.byte	0x58
 8742 0baf 00000000 		.4byte	0x0
 8743 0bb3 00000000 		.4byte	0x0
 8744              	.LLST96:
 8745 0bb7 00000000 		.4byte	.LVL165
 8746 0bbb 12000000 		.4byte	.LVL167
 8747 0bbf 0100     		.2byte	0x1
 8748 0bc1 52       		.byte	0x52
 8749 0bc2 12000000 		.4byte	.LVL167
 8750 0bc6 AA000000 		.4byte	.LFE27
 8751 0bca 0100     		.2byte	0x1
 8752 0bcc 5B       		.byte	0x5b
 8753 0bcd 00000000 		.4byte	0x0
 8754 0bd1 00000000 		.4byte	0x0
 8755              	.LLST97:
 8756 0bd5 20000000 		.4byte	.LVL169
 8757 0bd9 48000000 		.4byte	.LVL173
 8758 0bdd 0100     		.2byte	0x1
 8759 0bdf 57       		.byte	0x57
 8760 0be0 48000000 		.4byte	.LVL173
 8761 0be4 53000000 		.4byte	.LVL175-1
 8762 0be8 0100     		.2byte	0x1
 8763 0bea 52       		.byte	0x52
 8764 0beb 58000000 		.4byte	.LVL176
 8765 0bef 86000000 		.4byte	.LVL185
 8766 0bf3 0100     		.2byte	0x1
 8767 0bf5 52       		.byte	0x52
 8768 0bf6 86000000 		.4byte	.LVL185
 8769 0bfa 92000000 		.4byte	.LVL187
 8770 0bfe 0100     		.2byte	0x1
 8771 0c00 57       		.byte	0x57
 8772 0c01 92000000 		.4byte	.LVL187
 8773 0c05 AA000000 		.4byte	.LFE27
ARM GAS  /tmp/ccSqa4tb.s 			page 155


 8774 0c09 0100     		.2byte	0x1
 8775 0c0b 57       		.byte	0x57
 8776 0c0c 00000000 		.4byte	0x0
 8777 0c10 00000000 		.4byte	0x0
 8778              	.LLST98:
 8779 0c14 20000000 		.4byte	.LVL169
 8780 0c18 2A000000 		.4byte	.LVL170
 8781 0c1c 0200     		.2byte	0x2
 8782 0c1e 30       		.byte	0x30
 8783 0c1f 9F       		.byte	0x9f
 8784 0c20 2A000000 		.4byte	.LVL170
 8785 0c24 46000000 		.4byte	.LVL172
 8786 0c28 0100     		.2byte	0x1
 8787 0c2a 59       		.byte	0x59
 8788 0c2b 46000000 		.4byte	.LVL172
 8789 0c2f 86000000 		.4byte	.LVL185
 8790 0c33 0200     		.2byte	0x2
 8791 0c35 91       		.byte	0x91
 8792 0c36 50       		.sleb128 -48
 8793 0c37 92000000 		.4byte	.LVL187
 8794 0c3b AA000000 		.4byte	.LFE27
 8795 0c3f 0100     		.2byte	0x1
 8796 0c41 59       		.byte	0x59
 8797 0c42 00000000 		.4byte	0x0
 8798 0c46 00000000 		.4byte	0x0
 8799              	.LLST99:
 8800 0c4a 1C000000 		.4byte	.LVL168
 8801 0c4e 2A000000 		.4byte	.LVL170
 8802 0c52 0100     		.2byte	0x1
 8803 0c54 5C       		.byte	0x5c
 8804 0c55 2A000000 		.4byte	.LVL170
 8805 0c59 AA000000 		.4byte	.LFE27
 8806 0c5d 0100     		.2byte	0x1
 8807 0c5f 5A       		.byte	0x5a
 8808 0c60 00000000 		.4byte	0x0
 8809 0c64 00000000 		.4byte	0x0
 8810              	.LLST100:
 8811 0c68 1C000000 		.4byte	.LVL168
 8812 0c6c 2A000000 		.4byte	.LVL170
 8813 0c70 0200     		.2byte	0x2
 8814 0c72 30       		.byte	0x30
 8815 0c73 9F       		.byte	0x9f
 8816 0c74 2A000000 		.4byte	.LVL170
 8817 0c78 88000000 		.4byte	.LVL186
 8818 0c7c 0100     		.2byte	0x1
 8819 0c7e 55       		.byte	0x55
 8820 0c7f 88000000 		.4byte	.LVL186
 8821 0c83 92000000 		.4byte	.LVL187
 8822 0c87 0100     		.2byte	0x1
 8823 0c89 55       		.byte	0x55
 8824 0c8a 92000000 		.4byte	.LVL187
 8825 0c8e AA000000 		.4byte	.LFE27
 8826 0c92 0100     		.2byte	0x1
 8827 0c94 55       		.byte	0x55
 8828 0c95 00000000 		.4byte	0x0
 8829 0c99 00000000 		.4byte	0x0
 8830              	.LLST101:
ARM GAS  /tmp/ccSqa4tb.s 			page 156


 8831 0c9d 5E000000 		.4byte	.LVL177
 8832 0ca1 68000000 		.4byte	.LVL180
 8833 0ca5 0100     		.2byte	0x1
 8834 0ca7 53       		.byte	0x53
 8835 0ca8 7C000000 		.4byte	.LVL182
 8836 0cac 80000000 		.4byte	.LVL183
 8837 0cb0 0100     		.2byte	0x1
 8838 0cb2 53       		.byte	0x53
 8839 0cb3 00000000 		.4byte	0x0
 8840 0cb7 00000000 		.4byte	0x0
 8841              	.LLST102:
 8842 0cbb 3E000000 		.4byte	.LVL171
 8843 0cbf 86000000 		.4byte	.LVL185
 8844 0cc3 0100     		.2byte	0x1
 8845 0cc5 5B       		.byte	0x5b
 8846 0cc6 00000000 		.4byte	0x0
 8847 0cca 00000000 		.4byte	0x0
 8848              	.LLST103:
 8849 0cce 3E000000 		.4byte	.LVL171
 8850 0cd2 86000000 		.4byte	.LVL185
 8851 0cd6 0100     		.2byte	0x1
 8852 0cd8 58       		.byte	0x58
 8853 0cd9 00000000 		.4byte	0x0
 8854 0cdd 00000000 		.4byte	0x0
 8855              	.LLST104:
 8856 0ce1 3E000000 		.4byte	.LVL171
 8857 0ce5 4A000000 		.4byte	.LVL174
 8858 0ce9 0100     		.2byte	0x1
 8859 0ceb 5C       		.byte	0x5c
 8860 0cec 4A000000 		.4byte	.LVL174
 8861 0cf0 64000000 		.4byte	.LVL179
 8862 0cf4 0100     		.2byte	0x1
 8863 0cf6 59       		.byte	0x59
 8864 0cf7 68000000 		.4byte	.LVL180
 8865 0cfb 7C000000 		.4byte	.LVL182
 8866 0cff 0100     		.2byte	0x1
 8867 0d01 59       		.byte	0x59
 8868 0d02 80000000 		.4byte	.LVL183
 8869 0d06 84000000 		.4byte	.LVL184
 8870 0d0a 0100     		.2byte	0x1
 8871 0d0c 59       		.byte	0x59
 8872 0d0d 00000000 		.4byte	0x0
 8873 0d11 00000000 		.4byte	0x0
 8874              	.LLST105:
 8875 0d15 3E000000 		.4byte	.LVL171
 8876 0d19 4A000000 		.4byte	.LVL174
 8877 0d1d 0200     		.2byte	0x2
 8878 0d1f 30       		.byte	0x30
 8879 0d20 9F       		.byte	0x9f
 8880 0d21 4A000000 		.4byte	.LVL174
 8881 0d25 60000000 		.4byte	.LVL178
 8882 0d29 0100     		.2byte	0x1
 8883 0d2b 57       		.byte	0x57
 8884 0d2c 68000000 		.4byte	.LVL180
 8885 0d30 6A000000 		.4byte	.LVL181
 8886 0d34 0100     		.2byte	0x1
 8887 0d36 57       		.byte	0x57
ARM GAS  /tmp/ccSqa4tb.s 			page 157


 8888 0d37 6A000000 		.4byte	.LVL181
 8889 0d3b 7C000000 		.4byte	.LVL182
 8890 0d3f 0100     		.2byte	0x1
 8891 0d41 57       		.byte	0x57
 8892 0d42 80000000 		.4byte	.LVL183
 8893 0d46 86000000 		.4byte	.LVL185
 8894 0d4a 0100     		.2byte	0x1
 8895 0d4c 57       		.byte	0x57
 8896 0d4d 00000000 		.4byte	0x0
 8897 0d51 00000000 		.4byte	0x0
 8898              	.LLST106:
 8899 0d55 00000000 		.4byte	.LVL188
 8900 0d59 08000000 		.4byte	.LVL189
 8901 0d5d 0100     		.2byte	0x1
 8902 0d5f 50       		.byte	0x50
 8903 0d60 00000000 		.4byte	0x0
 8904 0d64 00000000 		.4byte	0x0
 8905              	.LLST107:
 8906 0d68 00000000 		.4byte	.LFB29
 8907 0d6c 02000000 		.4byte	.LCFI18
 8908 0d70 0200     		.2byte	0x2
 8909 0d72 7D       		.byte	0x7d
 8910 0d73 00       		.sleb128 0
 8911 0d74 02000000 		.4byte	.LCFI18
 8912 0d78 2A000000 		.4byte	.LFE29
 8913 0d7c 0200     		.2byte	0x2
 8914 0d7e 7D       		.byte	0x7d
 8915 0d7f 08       		.sleb128 8
 8916 0d80 00000000 		.4byte	0x0
 8917 0d84 00000000 		.4byte	0x0
 8918              	.LLST108:
 8919 0d88 00000000 		.4byte	.LVL190
 8920 0d8c 24000000 		.4byte	.LVL194
 8921 0d90 0100     		.2byte	0x1
 8922 0d92 50       		.byte	0x50
 8923 0d93 26000000 		.4byte	.LVL195
 8924 0d97 28000000 		.4byte	.LVL196
 8925 0d9b 0100     		.2byte	0x1
 8926 0d9d 50       		.byte	0x50
 8927 0d9e 00000000 		.4byte	0x0
 8928 0da2 00000000 		.4byte	0x0
 8929              	.LLST109:
 8930 0da6 10000000 		.4byte	.LVL191
 8931 0daa 18000000 		.4byte	.LVL193
 8932 0dae 0100     		.2byte	0x1
 8933 0db0 54       		.byte	0x54
 8934 0db1 00000000 		.4byte	0x0
 8935 0db5 00000000 		.4byte	0x0
 8936              	.LLST110:
 8937 0db9 16000000 		.4byte	.LVL192
 8938 0dbd 26000000 		.4byte	.LVL195
 8939 0dc1 0100     		.2byte	0x1
 8940 0dc3 53       		.byte	0x53
 8941 0dc4 00000000 		.4byte	0x0
 8942 0dc8 00000000 		.4byte	0x0
 8943              	.LLST111:
 8944 0dcc 00000000 		.4byte	.LVL197
ARM GAS  /tmp/ccSqa4tb.s 			page 158


 8945 0dd0 15000000 		.4byte	.LVL202-1
 8946 0dd4 0100     		.2byte	0x1
 8947 0dd6 50       		.byte	0x50
 8948 0dd7 16000000 		.4byte	.LVL202
 8949 0ddb 18000000 		.4byte	.LVL203
 8950 0ddf 0100     		.2byte	0x1
 8951 0de1 50       		.byte	0x50
 8952 0de2 00000000 		.4byte	0x0
 8953 0de6 00000000 		.4byte	0x0
 8954              	.LLST112:
 8955 0dea 00000000 		.4byte	.LVL197
 8956 0dee 0C000000 		.4byte	.LVL200
 8957 0df2 0100     		.2byte	0x1
 8958 0df4 51       		.byte	0x51
 8959 0df5 00000000 		.4byte	0x0
 8960 0df9 00000000 		.4byte	0x0
 8961              	.LLST113:
 8962 0dfd 04000000 		.4byte	.LVL198
 8963 0e01 15000000 		.4byte	.LVL202-1
 8964 0e05 0100     		.2byte	0x1
 8965 0e07 52       		.byte	0x52
 8966 0e08 16000000 		.4byte	.LVL202
 8967 0e0c 1A000000 		.4byte	.LFE30
 8968 0e10 0100     		.2byte	0x1
 8969 0e12 52       		.byte	0x52
 8970 0e13 00000000 		.4byte	0x0
 8971 0e17 00000000 		.4byte	0x0
 8972              	.LLST114:
 8973 0e1b 0A000000 		.4byte	.LVL199
 8974 0e1f 0E000000 		.4byte	.LVL201
 8975 0e23 0100     		.2byte	0x1
 8976 0e25 53       		.byte	0x53
 8977 0e26 00000000 		.4byte	0x0
 8978 0e2a 00000000 		.4byte	0x0
 8979              	.LLST115:
 8980 0e2e 0C000000 		.4byte	.LVL200
 8981 0e32 15000000 		.4byte	.LVL202-1
 8982 0e36 0100     		.2byte	0x1
 8983 0e38 51       		.byte	0x51
 8984 0e39 16000000 		.4byte	.LVL202
 8985 0e3d 1A000000 		.4byte	.LFE30
 8986 0e41 0100     		.2byte	0x1
 8987 0e43 51       		.byte	0x51
 8988 0e44 00000000 		.4byte	0x0
 8989 0e48 00000000 		.4byte	0x0
 8990              	.LLST116:
 8991 0e4c 00000000 		.4byte	.LVL204
 8992 0e50 02000000 		.4byte	.LVL205
 8993 0e54 0100     		.2byte	0x1
 8994 0e56 50       		.byte	0x50
 8995 0e57 00000000 		.4byte	0x0
 8996 0e5b 00000000 		.4byte	0x0
 8997              	.LLST117:
 8998 0e5f 00000000 		.4byte	.LFB5
 8999 0e63 04000000 		.4byte	.LCFI19
 9000 0e67 0200     		.2byte	0x2
 9001 0e69 7D       		.byte	0x7d
ARM GAS  /tmp/ccSqa4tb.s 			page 159


 9002 0e6a 00       		.sleb128 0
 9003 0e6b 04000000 		.4byte	.LCFI19
 9004 0e6f 04030000 		.4byte	.LFE5
 9005 0e73 0200     		.2byte	0x2
 9006 0e75 7D       		.byte	0x7d
 9007 0e76 28       		.sleb128 40
 9008 0e77 00000000 		.4byte	0x0
 9009 0e7b 00000000 		.4byte	0x0
 9010              	.LLST118:
 9011 0e7f 00000000 		.4byte	.LVL206
 9012 0e83 21000000 		.4byte	.LVL210-1
 9013 0e87 0100     		.2byte	0x1
 9014 0e89 50       		.byte	0x50
 9015 0e8a 21000000 		.4byte	.LVL210-1
 9016 0e8e 04030000 		.4byte	.LFE5
 9017 0e92 0100     		.2byte	0x1
 9018 0e94 54       		.byte	0x54
 9019 0e95 00000000 		.4byte	0x0
 9020 0e99 00000000 		.4byte	0x0
 9021              	.LLST119:
 9022 0e9d 08000000 		.4byte	.LVL207
 9023 0ea1 21000000 		.4byte	.LVL210-1
 9024 0ea5 0100     		.2byte	0x1
 9025 0ea7 53       		.byte	0x53
 9026 0ea8 00000000 		.4byte	0x0
 9027 0eac 00000000 		.4byte	0x0
 9028              	.LLST120:
 9029 0eb0 58000000 		.4byte	.LVL216
 9030 0eb4 64000000 		.4byte	.LVL218
 9031 0eb8 0500     		.2byte	0x5
 9032 0eba 72       		.byte	0x72
 9033 0ebb 00       		.sleb128 0
 9034 0ebc 73       		.byte	0x73
 9035 0ebd 00       		.sleb128 0
 9036 0ebe 22       		.byte	0x22
 9037 0ebf 64000000 		.4byte	.LVL218
 9038 0ec3 D0010000 		.4byte	.LVL220
 9039 0ec7 0500     		.2byte	0x5
 9040 0ec9 72       		.byte	0x72
 9041 0eca 00       		.sleb128 0
 9042 0ecb 7A       		.byte	0x7a
 9043 0ecc 00       		.sleb128 0
 9044 0ecd 22       		.byte	0x22
 9045 0ece D0010000 		.4byte	.LVL220
 9046 0ed2 DA010000 		.4byte	.LVL224
 9047 0ed6 0100     		.2byte	0x1
 9048 0ed8 51       		.byte	0x51
 9049 0ed9 DA010000 		.4byte	.LVL224
 9050 0edd E4010000 		.4byte	.LVL225
 9051 0ee1 0500     		.2byte	0x5
 9052 0ee3 72       		.byte	0x72
 9053 0ee4 00       		.sleb128 0
 9054 0ee5 7A       		.byte	0x7a
 9055 0ee6 00       		.sleb128 0
 9056 0ee7 22       		.byte	0x22
 9057 0ee8 E8010000 		.4byte	.LVL227
 9058 0eec EE010000 		.4byte	.LVL229
ARM GAS  /tmp/ccSqa4tb.s 			page 160


 9059 0ef0 0100     		.2byte	0x1
 9060 0ef2 51       		.byte	0x51
 9061 0ef3 EE010000 		.4byte	.LVL229
 9062 0ef7 F8010000 		.4byte	.LVL230
 9063 0efb 0500     		.2byte	0x5
 9064 0efd 72       		.byte	0x72
 9065 0efe 00       		.sleb128 0
 9066 0eff 7A       		.byte	0x7a
 9067 0f00 00       		.sleb128 0
 9068 0f01 22       		.byte	0x22
 9069 0f02 FC010000 		.4byte	.LVL232
 9070 0f06 FE010000 		.4byte	.LVL233
 9071 0f0a 0100     		.2byte	0x1
 9072 0f0c 51       		.byte	0x51
 9073 0f0d 08020000 		.4byte	.LVL234
 9074 0f11 0C020000 		.4byte	.LVL236
 9075 0f15 0100     		.2byte	0x1
 9076 0f17 51       		.byte	0x51
 9077 0f18 16020000 		.4byte	.LVL237
 9078 0f1c 18020000 		.4byte	.LVL238
 9079 0f20 0100     		.2byte	0x1
 9080 0f22 51       		.byte	0x51
 9081 0f23 18020000 		.4byte	.LVL238
 9082 0f27 24020000 		.4byte	.LVL241
 9083 0f2b 0500     		.2byte	0x5
 9084 0f2d 72       		.byte	0x72
 9085 0f2e 00       		.sleb128 0
 9086 0f2f 7A       		.byte	0x7a
 9087 0f30 00       		.sleb128 0
 9088 0f31 22       		.byte	0x22
 9089 0f32 2E020000 		.4byte	.LVL242
 9090 0f36 30020000 		.4byte	.LVL243
 9091 0f3a 0100     		.2byte	0x1
 9092 0f3c 51       		.byte	0x51
 9093 0f3d 30020000 		.4byte	.LVL243
 9094 0f41 38020000 		.4byte	.LVL246
 9095 0f45 0500     		.2byte	0x5
 9096 0f47 72       		.byte	0x72
 9097 0f48 00       		.sleb128 0
 9098 0f49 7A       		.byte	0x7a
 9099 0f4a 00       		.sleb128 0
 9100 0f4b 22       		.byte	0x22
 9101 0f4c 38020000 		.4byte	.LVL246
 9102 0f50 46020000 		.4byte	.LVL249
 9103 0f54 0100     		.2byte	0x1
 9104 0f56 51       		.byte	0x51
 9105 0f57 4E020000 		.4byte	.LVL250
 9106 0f5b 58020000 		.4byte	.LVL253
 9107 0f5f 0100     		.2byte	0x1
 9108 0f61 51       		.byte	0x51
 9109 0f62 5C020000 		.4byte	.LVL254
 9110 0f66 74020000 		.4byte	.LVL259
 9111 0f6a 0100     		.2byte	0x1
 9112 0f6c 51       		.byte	0x51
 9113 0f6d 74020000 		.4byte	.LVL259
 9114 0f71 76020000 		.4byte	.LVL260
 9115 0f75 0500     		.2byte	0x5
ARM GAS  /tmp/ccSqa4tb.s 			page 161


 9116 0f77 72       		.byte	0x72
 9117 0f78 00       		.sleb128 0
 9118 0f79 7A       		.byte	0x7a
 9119 0f7a 00       		.sleb128 0
 9120 0f7b 22       		.byte	0x22
 9121 0f7c 82020000 		.4byte	.LVL262
 9122 0f80 9A020000 		.4byte	.LVL268
 9123 0f84 0100     		.2byte	0x1
 9124 0f86 51       		.byte	0x51
 9125 0f87 9A020000 		.4byte	.LVL268
 9126 0f8b A2020000 		.4byte	.LVL270
 9127 0f8f 0500     		.2byte	0x5
 9128 0f91 72       		.byte	0x72
 9129 0f92 00       		.sleb128 0
 9130 0f93 7A       		.byte	0x7a
 9131 0f94 00       		.sleb128 0
 9132 0f95 22       		.byte	0x22
 9133 0f96 A2020000 		.4byte	.LVL270
 9134 0f9a B4020000 		.4byte	.LVL274
 9135 0f9e 0800     		.2byte	0x8
 9136 0fa0 72       		.byte	0x72
 9137 0fa1 00       		.sleb128 0
 9138 0fa2 73       		.byte	0x73
 9139 0fa3 00       		.sleb128 0
 9140 0fa4 22       		.byte	0x22
 9141 0fa5 09       		.byte	0x9
 9142 0fa6 F8       		.byte	0xf8
 9143 0fa7 22       		.byte	0x22
 9144 0fa8 C0020000 		.4byte	.LVL277
 9145 0fac CC020000 		.4byte	.LVL279
 9146 0fb0 0800     		.2byte	0x8
 9147 0fb2 72       		.byte	0x72
 9148 0fb3 00       		.sleb128 0
 9149 0fb4 73       		.byte	0x73
 9150 0fb5 00       		.sleb128 0
 9151 0fb6 22       		.byte	0x22
 9152 0fb7 09       		.byte	0x9
 9153 0fb8 F8       		.byte	0xf8
 9154 0fb9 22       		.byte	0x22
 9155 0fba D0020000 		.4byte	.LVL281
 9156 0fbe DC020000 		.4byte	.LVL284
 9157 0fc2 0100     		.2byte	0x1
 9158 0fc4 51       		.byte	0x51
 9159 0fc5 00000000 		.4byte	0x0
 9160 0fc9 00000000 		.4byte	0x0
 9161              	.LLST121:
 9162 0fcd 48000000 		.4byte	.LVL213
 9163 0fd1 52000000 		.4byte	.LVL215
 9164 0fd5 0200     		.2byte	0x2
 9165 0fd7 30       		.byte	0x30
 9166 0fd8 9F       		.byte	0x9f
 9167 0fd9 52000000 		.4byte	.LVL215
 9168 0fdd 62000000 		.4byte	.LVL217
 9169 0fe1 0100     		.2byte	0x1
 9170 0fe3 53       		.byte	0x53
 9171 0fe4 64000000 		.4byte	.LVL218
 9172 0fe8 D6010000 		.4byte	.LVL222
ARM GAS  /tmp/ccSqa4tb.s 			page 162


 9173 0fec 0100     		.2byte	0x1
 9174 0fee 53       		.byte	0x53
 9175 0fef D6010000 		.4byte	.LVL222
 9176 0ff3 34020000 		.4byte	.LVL244
 9177 0ff7 0100     		.2byte	0x1
 9178 0ff9 53       		.byte	0x53
 9179 0ffa 34020000 		.4byte	.LVL244
 9180 0ffe 6A020000 		.4byte	.LVL258
 9181 1002 0100     		.2byte	0x1
 9182 1004 53       		.byte	0x53
 9183 1005 6A020000 		.4byte	.LVL258
 9184 1009 76020000 		.4byte	.LVL260
 9185 100d 0100     		.2byte	0x1
 9186 100f 53       		.byte	0x53
 9187 1010 76020000 		.4byte	.LVL260
 9188 1014 7E020000 		.4byte	.LVL261
 9189 1018 0E00     		.2byte	0xe
 9190 101a 72       		.byte	0x72
 9191 101b 00       		.sleb128 0
 9192 101c 31       		.byte	0x31
 9193 101d 24       		.byte	0x24
 9194 101e 23       		.byte	0x23
 9195 101f 01       		.uleb128 0x1
 9196 1020 32       		.byte	0x32
 9197 1021 24       		.byte	0x24
 9198 1022 73       		.byte	0x73
 9199 1023 00       		.sleb128 0
 9200 1024 22       		.byte	0x22
 9201 1025 23       		.byte	0x23
 9202 1026 04       		.uleb128 0x4
 9203 1027 9F       		.byte	0x9f
 9204 1028 82020000 		.4byte	.LVL262
 9205 102c 84020000 		.4byte	.LVL263
 9206 1030 0100     		.2byte	0x1
 9207 1032 53       		.byte	0x53
 9208 1033 84020000 		.4byte	.LVL263
 9209 1037 8C020000 		.4byte	.LVL265
 9210 103b 0100     		.2byte	0x1
 9211 103d 53       		.byte	0x53
 9212 103e 8C020000 		.4byte	.LVL265
 9213 1042 9C020000 		.4byte	.LVL269
 9214 1046 0100     		.2byte	0x1
 9215 1048 53       		.byte	0x53
 9216 1049 9C020000 		.4byte	.LVL269
 9217 104d B6020000 		.4byte	.LVL275
 9218 1051 0100     		.2byte	0x1
 9219 1053 53       		.byte	0x53
 9220 1054 C0020000 		.4byte	.LVL277
 9221 1058 CC020000 		.4byte	.LVL279
 9222 105c 0100     		.2byte	0x1
 9223 105e 53       		.byte	0x53
 9224 105f CE020000 		.4byte	.LVL280
 9225 1063 D2020000 		.4byte	.LVL282
 9226 1067 0100     		.2byte	0x1
 9227 1069 53       		.byte	0x53
 9228 106a DC020000 		.4byte	.LVL284
 9229 106e E4020000 		.4byte	.LVL285
ARM GAS  /tmp/ccSqa4tb.s 			page 163


 9230 1072 0100     		.2byte	0x1
 9231 1074 53       		.byte	0x53
 9232 1075 00000000 		.4byte	0x0
 9233 1079 00000000 		.4byte	0x0
 9234              	.LLST122:
 9235 107d CE010000 		.4byte	.LVL219
 9236 1081 D0010000 		.4byte	.LVL220
 9237 1085 0500     		.2byte	0x5
 9238 1087 72       		.byte	0x72
 9239 1088 00       		.sleb128 0
 9240 1089 73       		.byte	0x73
 9241 108a 00       		.sleb128 0
 9242 108b 22       		.byte	0x22
 9243 108c D0010000 		.4byte	.LVL220
 9244 1090 D2010000 		.4byte	.LVL221
 9245 1094 0100     		.2byte	0x1
 9246 1096 52       		.byte	0x52
 9247 1097 D2010000 		.4byte	.LVL221
 9248 109b D8010000 		.4byte	.LVL223
 9249 109f 0300     		.2byte	0x3
 9250 10a1 72       		.byte	0x72
 9251 10a2 7F       		.sleb128 -1
 9252 10a3 9F       		.byte	0x9f
 9253 10a4 DA010000 		.4byte	.LVL224
 9254 10a8 E4010000 		.4byte	.LVL225
 9255 10ac 0500     		.2byte	0x5
 9256 10ae 72       		.byte	0x72
 9257 10af 00       		.sleb128 0
 9258 10b0 73       		.byte	0x73
 9259 10b1 00       		.sleb128 0
 9260 10b2 22       		.byte	0x22
 9261 10b3 E4010000 		.4byte	.LVL225
 9262 10b7 E6010000 		.4byte	.LVL226
 9263 10bb 0200     		.2byte	0x2
 9264 10bd 72       		.byte	0x72
 9265 10be 00       		.sleb128 0
 9266 10bf E6010000 		.4byte	.LVL226
 9267 10c3 E8010000 		.4byte	.LVL227
 9268 10c7 0100     		.2byte	0x1
 9269 10c9 52       		.byte	0x52
 9270 10ca EC010000 		.4byte	.LVL228
 9271 10ce F8010000 		.4byte	.LVL230
 9272 10d2 0500     		.2byte	0x5
 9273 10d4 72       		.byte	0x72
 9274 10d5 00       		.sleb128 0
 9275 10d6 73       		.byte	0x73
 9276 10d7 00       		.sleb128 0
 9277 10d8 22       		.byte	0x22
 9278 10d9 F8010000 		.4byte	.LVL230
 9279 10dd FA010000 		.4byte	.LVL231
 9280 10e1 0200     		.2byte	0x2
 9281 10e3 72       		.byte	0x72
 9282 10e4 00       		.sleb128 0
 9283 10e5 FA010000 		.4byte	.LVL231
 9284 10e9 FC010000 		.4byte	.LVL232
 9285 10ed 0100     		.2byte	0x1
 9286 10ef 52       		.byte	0x52
ARM GAS  /tmp/ccSqa4tb.s 			page 164


 9287 10f0 FE010000 		.4byte	.LVL233
 9288 10f4 08020000 		.4byte	.LVL234
 9289 10f8 0100     		.2byte	0x1
 9290 10fa 52       		.byte	0x52
 9291 10fb 0A020000 		.4byte	.LVL235
 9292 10ff 16020000 		.4byte	.LVL237
 9293 1103 0100     		.2byte	0x1
 9294 1105 52       		.byte	0x52
 9295 1106 16020000 		.4byte	.LVL237
 9296 110a 18020000 		.4byte	.LVL238
 9297 110e 0500     		.2byte	0x5
 9298 1110 71       		.byte	0x71
 9299 1111 00       		.sleb128 0
 9300 1112 40       		.byte	0x40
 9301 1113 26       		.byte	0x26
 9302 1114 9F       		.byte	0x9f
 9303 1115 18020000 		.4byte	.LVL238
 9304 1119 20020000 		.4byte	.LVL239
 9305 111d 0900     		.2byte	0x9
 9306 111f 72       		.byte	0x72
 9307 1120 00       		.sleb128 0
 9308 1121 7A       		.byte	0x7a
 9309 1122 00       		.sleb128 0
 9310 1123 22       		.byte	0x22
 9311 1124 06       		.byte	0x6
 9312 1125 40       		.byte	0x40
 9313 1126 26       		.byte	0x26
 9314 1127 9F       		.byte	0x9f
 9315 1128 22020000 		.4byte	.LVL240
 9316 112c 2E020000 		.4byte	.LVL242
 9317 1130 0100     		.2byte	0x1
 9318 1132 51       		.byte	0x51
 9319 1133 2E020000 		.4byte	.LVL242
 9320 1137 30020000 		.4byte	.LVL243
 9321 113b 0500     		.2byte	0x5
 9322 113d 71       		.byte	0x71
 9323 113e 00       		.sleb128 0
 9324 113f 40       		.byte	0x40
 9325 1140 26       		.byte	0x26
 9326 1141 9F       		.byte	0x9f
 9327 1142 30020000 		.4byte	.LVL243
 9328 1146 36020000 		.4byte	.LVL245
 9329 114a 0900     		.2byte	0x9
 9330 114c 72       		.byte	0x72
 9331 114d 00       		.sleb128 0
 9332 114e 7A       		.byte	0x7a
 9333 114f 00       		.sleb128 0
 9334 1150 22       		.byte	0x22
 9335 1151 06       		.byte	0x6
 9336 1152 40       		.byte	0x40
 9337 1153 26       		.byte	0x26
 9338 1154 9F       		.byte	0x9f
 9339 1155 38020000 		.4byte	.LVL246
 9340 1159 42020000 		.4byte	.LVL247
 9341 115d 0100     		.2byte	0x1
 9342 115f 52       		.byte	0x52
 9343 1160 44020000 		.4byte	.LVL248
ARM GAS  /tmp/ccSqa4tb.s 			page 165


 9344 1164 4E020000 		.4byte	.LVL250
 9345 1168 0100     		.2byte	0x1
 9346 116a 52       		.byte	0x52
 9347 116b 52020000 		.4byte	.LVL251
 9348 116f 54020000 		.4byte	.LVL252
 9349 1173 0300     		.2byte	0x3
 9350 1175 72       		.byte	0x72
 9351 1176 7C       		.sleb128 -4
 9352 1177 9F       		.byte	0x9f
 9353 1178 54020000 		.4byte	.LVL252
 9354 117c 5C020000 		.4byte	.LVL254
 9355 1180 0100     		.2byte	0x1
 9356 1182 52       		.byte	0x52
 9357 1183 60020000 		.4byte	.LVL255
 9358 1187 62020000 		.4byte	.LVL256
 9359 118b 0300     		.2byte	0x3
 9360 118d 72       		.byte	0x72
 9361 118e 7C       		.sleb128 -4
 9362 118f 9F       		.byte	0x9f
 9363 1190 62020000 		.4byte	.LVL256
 9364 1194 68020000 		.4byte	.LVL257
 9365 1198 0100     		.2byte	0x1
 9366 119a 52       		.byte	0x52
 9367 119b A8020000 		.4byte	.LVL271
 9368 119f AC020000 		.4byte	.LVL272
 9369 11a3 0300     		.2byte	0x3
 9370 11a5 7A       		.byte	0x7a
 9371 11a6 7C       		.sleb128 -4
 9372 11a7 9F       		.byte	0x9f
 9373 11a8 AC020000 		.4byte	.LVL272
 9374 11ac B4020000 		.4byte	.LVL274
 9375 11b0 0100     		.2byte	0x1
 9376 11b2 5A       		.byte	0x5a
 9377 11b3 C0020000 		.4byte	.LVL277
 9378 11b7 C4020000 		.4byte	.LVL278
 9379 11bb 0100     		.2byte	0x1
 9380 11bd 5A       		.byte	0x5a
 9381 11be 00000000 		.4byte	0x0
 9382 11c2 00000000 		.4byte	0x0
 9383              	.LLST123:
 9384 11c6 2A000000 		.4byte	.LVL211
 9385 11ca 38000000 		.4byte	.LVL212
 9386 11ce 0200     		.2byte	0x2
 9387 11d0 30       		.byte	0x30
 9388 11d1 9F       		.byte	0x9f
 9389 11d2 38000000 		.4byte	.LVL212
 9390 11d6 88020000 		.4byte	.LVL264
 9391 11da 0100     		.2byte	0x1
 9392 11dc 50       		.byte	0x50
 9393 11dd 88020000 		.4byte	.LVL264
 9394 11e1 90020000 		.4byte	.LVL266
 9395 11e5 0100     		.2byte	0x1
 9396 11e7 50       		.byte	0x50
 9397 11e8 90020000 		.4byte	.LVL266
 9398 11ec B8020000 		.4byte	.LVL276
 9399 11f0 0100     		.2byte	0x1
 9400 11f2 50       		.byte	0x50
ARM GAS  /tmp/ccSqa4tb.s 			page 166


 9401 11f3 C0020000 		.4byte	.LVL277
 9402 11f7 D4020000 		.4byte	.LVL283
 9403 11fb 0100     		.2byte	0x1
 9404 11fd 50       		.byte	0x50
 9405 11fe DC020000 		.4byte	.LVL284
 9406 1202 E8020000 		.4byte	.LVL286
 9407 1206 0100     		.2byte	0x1
 9408 1208 50       		.byte	0x50
 9409 1209 FE020000 		.4byte	.LVL287
 9410 120d 00030000 		.4byte	.LVL288
 9411 1211 0100     		.2byte	0x1
 9412 1213 50       		.byte	0x50
 9413 1214 00000000 		.4byte	0x0
 9414 1218 00000000 		.4byte	0x0
 9415              	.LLST124:
 9416 121c 76020000 		.4byte	.LVL260
 9417 1220 7E020000 		.4byte	.LVL261
 9418 1224 0100     		.2byte	0x1
 9419 1226 52       		.byte	0x52
 9420 1227 00000000 		.4byte	0x0
 9421 122b 00000000 		.4byte	0x0
 9422              	.LLST125:
 9423 122f 96020000 		.4byte	.LVL267
 9424 1233 9C020000 		.4byte	.LVL269
 9425 1237 0500     		.2byte	0x5
 9426 1239 72       		.byte	0x72
 9427 123a 00       		.sleb128 0
 9428 123b 73       		.byte	0x73
 9429 123c 00       		.sleb128 0
 9430 123d 22       		.byte	0x22
 9431 123e 9C020000 		.4byte	.LVL269
 9432 1242 B4020000 		.4byte	.LVL274
 9433 1246 0800     		.2byte	0x8
 9434 1248 72       		.byte	0x72
 9435 1249 00       		.sleb128 0
 9436 124a 73       		.byte	0x73
 9437 124b 00       		.sleb128 0
 9438 124c 22       		.byte	0x22
 9439 124d 09       		.byte	0x9
 9440 124e FC       		.byte	0xfc
 9441 124f 22       		.byte	0x22
 9442 1250 C0020000 		.4byte	.LVL277
 9443 1254 CC020000 		.4byte	.LVL279
 9444 1258 0100     		.2byte	0x1
 9445 125a 59       		.byte	0x59
 9446 125b 00000000 		.4byte	0x0
 9447 125f 00000000 		.4byte	0x0
 9448              	.LLST126:
 9449 1263 A2020000 		.4byte	.LVL270
 9450 1267 B0020000 		.4byte	.LVL273
 9451 126b 0100     		.2byte	0x1
 9452 126d 51       		.byte	0x51
 9453 126e B0020000 		.4byte	.LVL273
 9454 1272 B4020000 		.4byte	.LVL274
 9455 1276 0300     		.2byte	0x3
 9456 1278 71       		.byte	0x71
 9457 1279 78       		.sleb128 -8
ARM GAS  /tmp/ccSqa4tb.s 			page 167


 9458 127a 9F       		.byte	0x9f
 9459 127b C0020000 		.4byte	.LVL277
 9460 127f C4020000 		.4byte	.LVL278
 9461 1283 0300     		.2byte	0x3
 9462 1285 71       		.byte	0x71
 9463 1286 78       		.sleb128 -8
 9464 1287 9F       		.byte	0x9f
 9465 1288 00000000 		.4byte	0x0
 9466 128c 00000000 		.4byte	0x0
 9467              	.LLST127:
 9468 1290 9C020000 		.4byte	.LVL269
 9469 1294 A2020000 		.4byte	.LVL270
 9470 1298 0200     		.2byte	0x2
 9471 129a 30       		.byte	0x30
 9472 129b 9F       		.byte	0x9f
 9473 129c A2020000 		.4byte	.LVL270
 9474 12a0 B4020000 		.4byte	.LVL274
 9475 12a4 0100     		.2byte	0x1
 9476 12a6 5C       		.byte	0x5c
 9477 12a7 C0020000 		.4byte	.LVL277
 9478 12ab C4020000 		.4byte	.LVL278
 9479 12af 0100     		.2byte	0x1
 9480 12b1 5C       		.byte	0x5c
 9481 12b2 C4020000 		.4byte	.LVL278
 9482 12b6 CC020000 		.4byte	.LVL279
 9483 12ba 0100     		.2byte	0x1
 9484 12bc 5C       		.byte	0x5c
 9485 12bd 00000000 		.4byte	0x0
 9486 12c1 00000000 		.4byte	0x0
 9487              	.LLST128:
 9488 12c5 00000000 		.4byte	.LFB6
 9489 12c9 02000000 		.4byte	.LCFI20
 9490 12cd 0200     		.2byte	0x2
 9491 12cf 7D       		.byte	0x7d
 9492 12d0 00       		.sleb128 0
 9493 12d1 02000000 		.4byte	.LCFI20
 9494 12d5 E8000000 		.4byte	.LFE6
 9495 12d9 0200     		.2byte	0x2
 9496 12db 7D       		.byte	0x7d
 9497 12dc 10       		.sleb128 16
 9498 12dd 00000000 		.4byte	0x0
 9499 12e1 00000000 		.4byte	0x0
 9500              	.LLST129:
 9501 12e5 00000000 		.4byte	.LVL289
 9502 12e9 36000000 		.4byte	.LVL293
 9503 12ed 0100     		.2byte	0x1
 9504 12ef 50       		.byte	0x50
 9505 12f0 36000000 		.4byte	.LVL293
 9506 12f4 E8000000 		.4byte	.LFE6
 9507 12f8 0100     		.2byte	0x1
 9508 12fa 55       		.byte	0x55
 9509 12fb 00000000 		.4byte	0x0
 9510 12ff 00000000 		.4byte	0x0
 9511              	.LLST130:
 9512 1303 00000000 		.4byte	.LVL289
 9513 1307 10000000 		.4byte	.LVL291
 9514 130b 0100     		.2byte	0x1
ARM GAS  /tmp/ccSqa4tb.s 			page 168


 9515 130d 51       		.byte	0x51
 9516 130e 10000000 		.4byte	.LVL291
 9517 1312 E8000000 		.4byte	.LFE6
 9518 1316 0100     		.2byte	0x1
 9519 1318 54       		.byte	0x54
 9520 1319 00000000 		.4byte	0x0
 9521 131d 00000000 		.4byte	0x0
 9522              	.LLST131:
 9523 1321 0E000000 		.4byte	.LVL290
 9524 1325 10000000 		.4byte	.LVL291
 9525 1329 0100     		.2byte	0x1
 9526 132b 51       		.byte	0x51
 9527 132c 10000000 		.4byte	.LVL291
 9528 1330 D2000000 		.4byte	.LVL305
 9529 1334 0100     		.2byte	0x1
 9530 1336 54       		.byte	0x54
 9531 1337 D6000000 		.4byte	.LVL306
 9532 133b E8000000 		.4byte	.LFE6
 9533 133f 0100     		.2byte	0x1
 9534 1341 54       		.byte	0x54
 9535 1342 00000000 		.4byte	0x0
 9536 1346 00000000 		.4byte	0x0
 9537              	.LLST132:
 9538 134a B0000000 		.4byte	.LVL299
 9539 134e B4000000 		.4byte	.LVL300
 9540 1352 0100     		.2byte	0x1
 9541 1354 50       		.byte	0x50
 9542 1355 B8000000 		.4byte	.LVL301
 9543 1359 BC000000 		.4byte	.LVL302
 9544 135d 0100     		.2byte	0x1
 9545 135f 50       		.byte	0x50
 9546 1360 C0000000 		.4byte	.LVL303
 9547 1364 C2000000 		.4byte	.LVL304
 9548 1368 0100     		.2byte	0x1
 9549 136a 50       		.byte	0x50
 9550 136b C2000000 		.4byte	.LVL304
 9551 136f D2000000 		.4byte	.LVL305
 9552 1373 0100     		.2byte	0x1
 9553 1375 50       		.byte	0x50
 9554 1376 00000000 		.4byte	0x0
 9555 137a 00000000 		.4byte	0x0
 9556              	.LLST133:
 9557 137e 2C000000 		.4byte	.LVL292
 9558 1382 7F000000 		.4byte	.LVL295-1
 9559 1386 0700     		.2byte	0x7
 9560 1388 74       		.byte	0x74
 9561 1389 00       		.sleb128 0
 9562 138a 74       		.byte	0x74
 9563 138b 34       		.sleb128 52
 9564 138c 06       		.byte	0x6
 9565 138d 22       		.byte	0x22
 9566 138e 9F       		.byte	0x9f
 9567 138f 82000000 		.4byte	.LVL296
 9568 1393 84000000 		.4byte	.LVL297
 9569 1397 0700     		.2byte	0x7
 9570 1399 74       		.byte	0x74
 9571 139a 00       		.sleb128 0
ARM GAS  /tmp/ccSqa4tb.s 			page 169


 9572 139b 74       		.byte	0x74
 9573 139c 34       		.sleb128 52
 9574 139d 06       		.byte	0x6
 9575 139e 22       		.byte	0x22
 9576 139f 9F       		.byte	0x9f
 9577 13a0 DE000000 		.4byte	.LVL307
 9578 13a4 E0000000 		.4byte	.LVL308
 9579 13a8 0700     		.2byte	0x7
 9580 13aa 74       		.byte	0x74
 9581 13ab 00       		.sleb128 0
 9582 13ac 74       		.byte	0x74
 9583 13ad 34       		.sleb128 52
 9584 13ae 06       		.byte	0x6
 9585 13af 22       		.byte	0x22
 9586 13b0 9F       		.byte	0x9f
 9587 13b1 00000000 		.4byte	0x0
 9588 13b5 00000000 		.4byte	0x0
 9589              	.LLST134:
 9590 13b9 6E000000 		.4byte	.LVL294
 9591 13bd 82000000 		.4byte	.LVL296
 9592 13c1 0100     		.2byte	0x1
 9593 13c3 56       		.byte	0x56
 9594 13c4 84000000 		.4byte	.LVL297
 9595 13c8 8E000000 		.4byte	.LVL298
 9596 13cc 0100     		.2byte	0x1
 9597 13ce 56       		.byte	0x56
 9598 13cf 00000000 		.4byte	0x0
 9599 13d3 00000000 		.4byte	0x0
 9600              	.LLST135:
 9601 13d7 B0000000 		.4byte	.LVL299
 9602 13db C2000000 		.4byte	.LVL304
 9603 13df 0100     		.2byte	0x1
 9604 13e1 56       		.byte	0x56
 9605 13e2 C2000000 		.4byte	.LVL304
 9606 13e6 D2000000 		.4byte	.LVL305
 9607 13ea 0100     		.2byte	0x1
 9608 13ec 56       		.byte	0x56
 9609 13ed 00000000 		.4byte	0x0
 9610 13f1 00000000 		.4byte	0x0
 9611              	.LLST136:
 9612 13f5 00000000 		.4byte	.LFB34
 9613 13f9 04000000 		.4byte	.LCFI21
 9614 13fd 0200     		.2byte	0x2
 9615 13ff 7D       		.byte	0x7d
 9616 1400 00       		.sleb128 0
 9617 1401 04000000 		.4byte	.LCFI21
 9618 1405 06000000 		.4byte	.LCFI22
 9619 1409 0200     		.2byte	0x2
 9620 140b 7D       		.byte	0x7d
 9621 140c 24       		.sleb128 36
 9622 140d 06000000 		.4byte	.LCFI22
 9623 1411 8E130000 		.4byte	.LFE34
 9624 1415 0300     		.2byte	0x3
 9625 1417 7D       		.byte	0x7d
 9626 1418 C800     		.sleb128 72
 9627 141a 00000000 		.4byte	0x0
 9628 141e 00000000 		.4byte	0x0
ARM GAS  /tmp/ccSqa4tb.s 			page 170


 9629              	.LLST137:
 9630 1422 00000000 		.4byte	.LVL309
 9631 1426 20000000 		.4byte	.LVL311
 9632 142a 0100     		.2byte	0x1
 9633 142c 50       		.byte	0x50
 9634 142d 20000000 		.4byte	.LVL311
 9635 1431 84010000 		.4byte	.LVL339
 9636 1435 0100     		.2byte	0x1
 9637 1437 55       		.byte	0x55
 9638 1438 84010000 		.4byte	.LVL339
 9639 143c 94090000 		.4byte	.LVL509
 9640 1440 0100     		.2byte	0x1
 9641 1442 59       		.byte	0x59
 9642 1443 94090000 		.4byte	.LVL509
 9643 1447 BE090000 		.4byte	.LVL513
 9644 144b 0100     		.2byte	0x1
 9645 144d 55       		.byte	0x55
 9646 144e BE090000 		.4byte	.LVL513
 9647 1452 080E0000 		.4byte	.LVL673
 9648 1456 0100     		.2byte	0x1
 9649 1458 59       		.byte	0x59
 9650 1459 080E0000 		.4byte	.LVL673
 9651 145d 1C0E0000 		.4byte	.LVL674
 9652 1461 0100     		.2byte	0x1
 9653 1463 55       		.byte	0x55
 9654 1464 1C0E0000 		.4byte	.LVL674
 9655 1468 1C130000 		.4byte	.LVL864
 9656 146c 0100     		.2byte	0x1
 9657 146e 59       		.byte	0x59
 9658 146f 1C130000 		.4byte	.LVL864
 9659 1473 22130000 		.4byte	.LVL866
 9660 1477 0100     		.2byte	0x1
 9661 1479 55       		.byte	0x55
 9662 147a 22130000 		.4byte	.LVL866
 9663 147e 5E130000 		.4byte	.LVL872
 9664 1482 0100     		.2byte	0x1
 9665 1484 59       		.byte	0x59
 9666 1485 5E130000 		.4byte	.LVL872
 9667 1489 60130000 		.4byte	.LVL873
 9668 148d 0100     		.2byte	0x1
 9669 148f 50       		.byte	0x50
 9670 1490 60130000 		.4byte	.LVL873
 9671 1494 6A130000 		.4byte	.LVL876
 9672 1498 0100     		.2byte	0x1
 9673 149a 55       		.byte	0x55
 9674 149b 7A130000 		.4byte	.LVL878
 9675 149f 8E130000 		.4byte	.LFE34
 9676 14a3 0100     		.2byte	0x1
 9677 14a5 59       		.byte	0x59
 9678 14a6 00000000 		.4byte	0x0
 9679 14aa 00000000 		.4byte	0x0
 9680              	.LLST138:
 9681 14ae 00000000 		.4byte	.LVL309
 9682 14b2 2C000000 		.4byte	.LVL313
 9683 14b6 0100     		.2byte	0x1
 9684 14b8 51       		.byte	0x51
 9685 14b9 2C000000 		.4byte	.LVL313
ARM GAS  /tmp/ccSqa4tb.s 			page 171


 9686 14bd 8E130000 		.4byte	.LFE34
 9687 14c1 0200     		.2byte	0x2
 9688 14c3 91       		.byte	0x91
 9689 14c4 4C       		.sleb128 -52
 9690 14c5 00000000 		.4byte	0x0
 9691 14c9 00000000 		.4byte	0x0
 9692              	.LLST139:
 9693 14cd 00000000 		.4byte	.LVL309
 9694 14d1 18000000 		.4byte	.LVL310
 9695 14d5 0100     		.2byte	0x1
 9696 14d7 52       		.byte	0x52
 9697 14d8 18000000 		.4byte	.LVL310
 9698 14dc 84010000 		.4byte	.LVL339
 9699 14e0 0100     		.2byte	0x1
 9700 14e2 54       		.byte	0x54
 9701 14e3 5E130000 		.4byte	.LVL872
 9702 14e7 62130000 		.4byte	.LVL874
 9703 14eb 0100     		.2byte	0x1
 9704 14ed 52       		.byte	0x52
 9705 14ee 62130000 		.4byte	.LVL874
 9706 14f2 6A130000 		.4byte	.LVL876
 9707 14f6 0100     		.2byte	0x1
 9708 14f8 54       		.byte	0x54
 9709 14f9 00000000 		.4byte	0x0
 9710 14fd 00000000 		.4byte	0x0
 9711              	.LLST140:
 9712 1501 26000000 		.4byte	.LVL312
 9713 1505 32000000 		.4byte	.LVL314
 9714 1509 0100     		.2byte	0x1
 9715 150b 50       		.byte	0x50
 9716 150c 32000000 		.4byte	.LVL314
 9717 1510 40000000 		.4byte	.LVL316
 9718 1514 0100     		.2byte	0x1
 9719 1516 52       		.byte	0x52
 9720 1517 40000000 		.4byte	.LVL316
 9721 151b 5E130000 		.4byte	.LVL872
 9722 151f 0200     		.2byte	0x2
 9723 1521 91       		.byte	0x91
 9724 1522 44       		.sleb128 -60
 9725 1523 66130000 		.4byte	.LVL875
 9726 1527 74130000 		.4byte	.LVL877
 9727 152b 0200     		.2byte	0x2
 9728 152d 91       		.byte	0x91
 9729 152e 44       		.sleb128 -60
 9730 152f 7A130000 		.4byte	.LVL878
 9731 1533 8E130000 		.4byte	.LFE34
 9732 1537 0200     		.2byte	0x2
 9733 1539 91       		.byte	0x91
 9734 153a 44       		.sleb128 -60
 9735 153b 00000000 		.4byte	0x0
 9736 153f 00000000 		.4byte	0x0
 9737              	.LLST141:
 9738 1543 3E000000 		.4byte	.LVL315
 9739 1547 46000000 		.4byte	.LVL318
 9740 154b 0100     		.2byte	0x1
 9741 154d 51       		.byte	0x51
 9742 154e 46000000 		.4byte	.LVL318
ARM GAS  /tmp/ccSqa4tb.s 			page 172


 9743 1552 5E000000 		.4byte	.LVL322
 9744 1556 0100     		.2byte	0x1
 9745 1558 51       		.byte	0x51
 9746 1559 00000000 		.4byte	0x0
 9747 155d 00000000 		.4byte	0x0
 9748              	.LLST142:
 9749 1561 68000000 		.4byte	.LVL323
 9750 1565 96090000 		.4byte	.LVL510
 9751 1569 0100     		.2byte	0x1
 9752 156b 56       		.byte	0x56
 9753 156c BE090000 		.4byte	.LVL513
 9754 1570 080E0000 		.4byte	.LVL673
 9755 1574 0100     		.2byte	0x1
 9756 1576 56       		.byte	0x56
 9757 1577 1C0E0000 		.4byte	.LVL674
 9758 157b 5E130000 		.4byte	.LVL872
 9759 157f 0100     		.2byte	0x1
 9760 1581 56       		.byte	0x56
 9761 1582 66130000 		.4byte	.LVL875
 9762 1586 74130000 		.4byte	.LVL877
 9763 158a 0100     		.2byte	0x1
 9764 158c 56       		.byte	0x56
 9765 158d 7A130000 		.4byte	.LVL878
 9766 1591 8E130000 		.4byte	.LFE34
 9767 1595 0100     		.2byte	0x1
 9768 1597 56       		.byte	0x56
 9769 1598 00000000 		.4byte	0x0
 9770 159c 00000000 		.4byte	0x0
 9771              	.LLST143:
 9772 15a0 72000000 		.4byte	.LVL324
 9773 15a4 A0000000 		.4byte	.LVL326
 9774 15a8 0100     		.2byte	0x1
 9775 15aa 5B       		.byte	0x5b
 9776 15ab A0000000 		.4byte	.LVL326
 9777 15af 36010000 		.4byte	.LVL332
 9778 15b3 0100     		.2byte	0x1
 9779 15b5 5B       		.byte	0x5b
 9780 15b6 36010000 		.4byte	.LVL332
 9781 15ba 80010000 		.4byte	.LVL337
 9782 15be 0100     		.2byte	0x1
 9783 15c0 5B       		.byte	0x5b
 9784 15c1 80010000 		.4byte	.LVL337
 9785 15c5 5E130000 		.4byte	.LVL872
 9786 15c9 0300     		.2byte	0x3
 9787 15cb 91       		.byte	0x91
 9788 15cc BC7F     		.sleb128 -68
 9789 15ce 66130000 		.4byte	.LVL875
 9790 15d2 6A130000 		.4byte	.LVL876
 9791 15d6 0100     		.2byte	0x1
 9792 15d8 5B       		.byte	0x5b
 9793 15d9 7A130000 		.4byte	.LVL878
 9794 15dd 8E130000 		.4byte	.LFE34
 9795 15e1 0300     		.2byte	0x3
 9796 15e3 91       		.byte	0x91
 9797 15e4 BC7F     		.sleb128 -68
 9798 15e6 00000000 		.4byte	0x0
 9799 15ea 00000000 		.4byte	0x0
ARM GAS  /tmp/ccSqa4tb.s 			page 173


 9800              	.LLST144:
 9801 15ee 76000000 		.4byte	.LVL325
 9802 15f2 A8000000 		.4byte	.LVL327
 9803 15f6 0100     		.2byte	0x1
 9804 15f8 5C       		.byte	0x5c
 9805 15f9 A8000000 		.4byte	.LVL327
 9806 15fd B7000000 		.4byte	.LVL328-1
 9807 1601 0100     		.2byte	0x1
 9808 1603 5C       		.byte	0x5c
 9809 1604 C2000000 		.4byte	.LVL329
 9810 1608 FD000000 		.4byte	.LVL330-1
 9811 160c 0100     		.2byte	0x1
 9812 160e 5C       		.byte	0x5c
 9813 160f 10010000 		.4byte	.LVL331
 9814 1613 84010000 		.4byte	.LVL339
 9815 1617 0100     		.2byte	0x1
 9816 1619 5C       		.byte	0x5c
 9817 161a 84010000 		.4byte	.LVL339
 9818 161e 5E130000 		.4byte	.LVL872
 9819 1622 0200     		.2byte	0x2
 9820 1624 91       		.byte	0x91
 9821 1625 40       		.sleb128 -64
 9822 1626 66130000 		.4byte	.LVL875
 9823 162a 6A130000 		.4byte	.LVL876
 9824 162e 0100     		.2byte	0x1
 9825 1630 5C       		.byte	0x5c
 9826 1631 7A130000 		.4byte	.LVL878
 9827 1635 8E130000 		.4byte	.LFE34
 9828 1639 0200     		.2byte	0x2
 9829 163b 91       		.byte	0x91
 9830 163c 40       		.sleb128 -64
 9831 163d 00000000 		.4byte	0x0
 9832 1641 00000000 		.4byte	0x0
 9833              	.LLST145:
 9834 1645 3E000000 		.4byte	.LVL315
 9835 1649 42000000 		.4byte	.LVL317
 9836 164d 0200     		.2byte	0x2
 9837 164f 30       		.byte	0x30
 9838 1650 9F       		.byte	0x9f
 9839 1651 42000000 		.4byte	.LVL317
 9840 1655 48000000 		.4byte	.LVL319
 9841 1659 0100     		.2byte	0x1
 9842 165b 52       		.byte	0x52
 9843 165c 48000000 		.4byte	.LVL319
 9844 1660 5E000000 		.4byte	.LVL322
 9845 1664 0100     		.2byte	0x1
 9846 1666 52       		.byte	0x52
 9847 1667 B8000000 		.4byte	.LVL328
 9848 166b C2000000 		.4byte	.LVL329
 9849 166f 0100     		.2byte	0x1
 9850 1671 50       		.byte	0x50
 9851 1672 FE000000 		.4byte	.LVL330
 9852 1676 10010000 		.4byte	.LVL331
 9853 167a 0100     		.2byte	0x1
 9854 167c 50       		.byte	0x50
 9855 167d 72090000 		.4byte	.LVL503
 9856 1681 7A090000 		.4byte	.LVL505
ARM GAS  /tmp/ccSqa4tb.s 			page 174


 9857 1685 0100     		.2byte	0x1
 9858 1687 53       		.byte	0x53
 9859 1688 7A090000 		.4byte	.LVL505
 9860 168c 80090000 		.4byte	.LVL506
 9861 1690 0100     		.2byte	0x1
 9862 1692 53       		.byte	0x53
 9863 1693 060A0000 		.4byte	.LVL525
 9864 1697 080A0000 		.4byte	.LVL526
 9865 169b 0200     		.2byte	0x2
 9866 169d 73       		.byte	0x73
 9867 169e 00       		.sleb128 0
 9868 169f 080A0000 		.4byte	.LVL526
 9869 16a3 0A0A0000 		.4byte	.LVL527
 9870 16a7 0100     		.2byte	0x1
 9871 16a9 52       		.byte	0x52
 9872 16aa 0A0A0000 		.4byte	.LVL527
 9873 16ae 280A0000 		.4byte	.LVL530
 9874 16b2 0100     		.2byte	0x1
 9875 16b4 52       		.byte	0x52
 9876 16b5 6A0A0000 		.4byte	.LVL536
 9877 16b9 880A0000 		.4byte	.LVL538
 9878 16bd 0100     		.2byte	0x1
 9879 16bf 50       		.byte	0x50
 9880 16c0 AE0A0000 		.4byte	.LVL542
 9881 16c4 BA0A0000 		.4byte	.LVL544
 9882 16c8 0100     		.2byte	0x1
 9883 16ca 50       		.byte	0x50
 9884 16cb DC0A0000 		.4byte	.LVL552
 9885 16cf FE0A0000 		.4byte	.LVL557
 9886 16d3 0100     		.2byte	0x1
 9887 16d5 50       		.byte	0x50
 9888 16d6 0A0B0000 		.4byte	.LVL560
 9889 16da 0E0B0000 		.4byte	.LVL561
 9890 16de 0200     		.2byte	0x2
 9891 16e0 73       		.byte	0x73
 9892 16e1 00       		.sleb128 0
 9893 16e2 0E0B0000 		.4byte	.LVL561
 9894 16e6 100B0000 		.4byte	.LVL562
 9895 16ea 0100     		.2byte	0x1
 9896 16ec 52       		.byte	0x52
 9897 16ed 100B0000 		.4byte	.LVL562
 9898 16f1 2F0B0000 		.4byte	.LVL566-1
 9899 16f5 0100     		.2byte	0x1
 9900 16f7 52       		.byte	0x52
 9901 16f8 300B0000 		.4byte	.LVL566
 9902 16fc 460B0000 		.4byte	.LVL571
 9903 1700 0100     		.2byte	0x1
 9904 1702 50       		.byte	0x50
 9905 1703 E00D0000 		.4byte	.LVL669
 9906 1707 080E0000 		.4byte	.LVL673
 9907 170b 0100     		.2byte	0x1
 9908 170d 50       		.byte	0x50
 9909 170e 7A130000 		.4byte	.LVL878
 9910 1712 8E130000 		.4byte	.LFE34
 9911 1716 0100     		.2byte	0x1
 9912 1718 52       		.byte	0x52
 9913 1719 00000000 		.4byte	0x0
ARM GAS  /tmp/ccSqa4tb.s 			page 175


 9914 171d 00000000 		.4byte	0x0
 9915              	.LLST146:
 9916 1721 66010000 		.4byte	.LVL333
 9917 1725 B2070000 		.4byte	.LVL482
 9918 1729 0200     		.2byte	0x2
 9919 172b 91       		.byte	0x91
 9920 172c 54       		.sleb128 -44
 9921 172d B6070000 		.4byte	.LVL483
 9922 1731 C8070000 		.4byte	.LVL484
 9923 1735 0100     		.2byte	0x1
 9924 1737 52       		.byte	0x52
 9925 1738 C8070000 		.4byte	.LVL484
 9926 173c CA070000 		.4byte	.LVL485
 9927 1740 0100     		.2byte	0x1
 9928 1742 52       		.byte	0x52
 9929 1743 CA070000 		.4byte	.LVL485
 9930 1747 DA0C0000 		.4byte	.LVL629
 9931 174b 0200     		.2byte	0x2
 9932 174d 91       		.byte	0x91
 9933 174e 54       		.sleb128 -44
 9934 174f DE0C0000 		.4byte	.LVL630
 9935 1753 F40C0000 		.4byte	.LVL632
 9936 1757 0100     		.2byte	0x1
 9937 1759 52       		.byte	0x52
 9938 175a F40C0000 		.4byte	.LVL632
 9939 175e F60C0000 		.4byte	.LVL633
 9940 1762 0100     		.2byte	0x1
 9941 1764 52       		.byte	0x52
 9942 1765 F60C0000 		.4byte	.LVL633
 9943 1769 5E130000 		.4byte	.LVL872
 9944 176d 0200     		.2byte	0x2
 9945 176f 91       		.byte	0x91
 9946 1770 54       		.sleb128 -44
 9947 1771 6A130000 		.4byte	.LVL876
 9948 1775 8E130000 		.4byte	.LFE34
 9949 1779 0200     		.2byte	0x2
 9950 177b 91       		.byte	0x91
 9951 177c 54       		.sleb128 -44
 9952 177d 00000000 		.4byte	0x0
 9953 1781 00000000 		.4byte	0x0
 9954              	.LLST147:
 9955 1785 6A010000 		.4byte	.LVL334
 9956 1789 82010000 		.4byte	.LVL338
 9957 178d 0100     		.2byte	0x1
 9958 178f 59       		.byte	0x59
 9959 1790 82010000 		.4byte	.LVL338
 9960 1794 86010000 		.4byte	.LVL340
 9961 1798 0100     		.2byte	0x1
 9962 179a 57       		.byte	0x57
 9963 179b 88010000 		.4byte	.LVL341
 9964 179f 8E010000 		.4byte	.LVL344
 9965 17a3 0100     		.2byte	0x1
 9966 17a5 53       		.byte	0x53
 9967 17a6 90010000 		.4byte	.LVL345
 9968 17aa 70040000 		.4byte	.LVL352
 9969 17ae 0100     		.2byte	0x1
 9970 17b0 57       		.byte	0x57
ARM GAS  /tmp/ccSqa4tb.s 			page 176


 9971 17b1 70040000 		.4byte	.LVL352
 9972 17b5 72040000 		.4byte	.LVL353
 9973 17b9 0600     		.2byte	0x6
 9974 17bb 76       		.byte	0x76
 9975 17bc 00       		.sleb128 0
 9976 17bd 72       		.byte	0x72
 9977 17be 04       		.sleb128 4
 9978 17bf 06       		.byte	0x6
 9979 17c0 22       		.byte	0x22
 9980 17c1 72040000 		.4byte	.LVL353
 9981 17c5 8A040000 		.4byte	.LVL361
 9982 17c9 0100     		.2byte	0x1
 9983 17cb 57       		.byte	0x57
 9984 17cc 8A040000 		.4byte	.LVL361
 9985 17d0 A4040000 		.4byte	.LVL373
 9986 17d4 0100     		.2byte	0x1
 9987 17d6 57       		.byte	0x57
 9988 17d7 A4040000 		.4byte	.LVL373
 9989 17db A6040000 		.4byte	.LVL374
 9990 17df 0500     		.2byte	0x5
 9991 17e1 76       		.byte	0x76
 9992 17e2 00       		.sleb128 0
 9993 17e3 73       		.byte	0x73
 9994 17e4 00       		.sleb128 0
 9995 17e5 22       		.byte	0x22
 9996 17e6 A6040000 		.4byte	.LVL374
 9997 17ea 06050000 		.4byte	.LVL380
 9998 17ee 0100     		.2byte	0x1
 9999 17f0 57       		.byte	0x57
 10000 17f1 06050000 		.4byte	.LVL380
 10001 17f5 0A050000 		.4byte	.LVL382
 10002 17f9 0200     		.2byte	0x2
 10003 17fb 72       		.byte	0x72
 10004 17fc 04       		.sleb128 4
 10005 17fd 0A050000 		.4byte	.LVL382
 10006 1801 16050000 		.4byte	.LVL384
 10007 1805 0100     		.2byte	0x1
 10008 1807 57       		.byte	0x57
 10009 1808 16050000 		.4byte	.LVL384
 10010 180c 1A050000 		.4byte	.LVL386
 10011 1810 0200     		.2byte	0x2
 10012 1812 72       		.byte	0x72
 10013 1813 04       		.sleb128 4
 10014 1814 1A050000 		.4byte	.LVL386
 10015 1818 40060000 		.4byte	.LVL423
 10016 181c 0100     		.2byte	0x1
 10017 181e 57       		.byte	0x57
 10018 181f 40060000 		.4byte	.LVL423
 10019 1823 44060000 		.4byte	.LVL424
 10020 1827 0200     		.2byte	0x2
 10021 1829 91       		.byte	0x91
 10022 182a 54       		.sleb128 -44
 10023 182b 44060000 		.4byte	.LVL424
 10024 182f 78060000 		.4byte	.LVL429
 10025 1833 0100     		.2byte	0x1
 10026 1835 57       		.byte	0x57
 10027 1836 78060000 		.4byte	.LVL429
ARM GAS  /tmp/ccSqa4tb.s 			page 177


 10028 183a 7C060000 		.4byte	.LVL430
 10029 183e 0500     		.2byte	0x5
 10030 1840 76       		.byte	0x76
 10031 1841 00       		.sleb128 0
 10032 1842 78       		.byte	0x78
 10033 1843 00       		.sleb128 0
 10034 1844 22       		.byte	0x22
 10035 1845 7C060000 		.4byte	.LVL430
 10036 1849 7E060000 		.4byte	.LVL431
 10037 184d 0800     		.2byte	0x8
 10038 184f 76       		.byte	0x76
 10039 1850 00       		.sleb128 0
 10040 1851 78       		.byte	0x78
 10041 1852 00       		.sleb128 0
 10042 1853 22       		.byte	0x22
 10043 1854 09       		.byte	0x9
 10044 1855 FC       		.byte	0xfc
 10045 1856 22       		.byte	0x22
 10046 1857 7E060000 		.4byte	.LVL431
 10047 185b 8C060000 		.4byte	.LVL435
 10048 185f 0100     		.2byte	0x1
 10049 1861 57       		.byte	0x57
 10050 1862 8C060000 		.4byte	.LVL435
 10051 1866 AA060000 		.4byte	.LVL438
 10052 186a 0100     		.2byte	0x1
 10053 186c 58       		.byte	0x58
 10054 186d AA060000 		.4byte	.LVL438
 10055 1871 AC060000 		.4byte	.LVL439
 10056 1875 0100     		.2byte	0x1
 10057 1877 57       		.byte	0x57
 10058 1878 AC060000 		.4byte	.LVL439
 10059 187c CA060000 		.4byte	.LVL443
 10060 1880 0100     		.2byte	0x1
 10061 1882 5B       		.byte	0x5b
 10062 1883 CA060000 		.4byte	.LVL443
 10063 1887 9C070000 		.4byte	.LVL479
 10064 188b 0100     		.2byte	0x1
 10065 188d 57       		.byte	0x57
 10066 188e 9C070000 		.4byte	.LVL479
 10067 1892 B6070000 		.4byte	.LVL483
 10068 1896 0100     		.2byte	0x1
 10069 1898 57       		.byte	0x57
 10070 1899 B6070000 		.4byte	.LVL483
 10071 189d CC070000 		.4byte	.LVL486
 10072 18a1 0100     		.2byte	0x1
 10073 18a3 57       		.byte	0x57
 10074 18a4 CC070000 		.4byte	.LVL486
 10075 18a8 70080000 		.4byte	.LVL488
 10076 18ac 0100     		.2byte	0x1
 10077 18ae 57       		.byte	0x57
 10078 18af 70080000 		.4byte	.LVL488
 10079 18b3 86080000 		.4byte	.LVL489
 10080 18b7 0100     		.2byte	0x1
 10081 18b9 57       		.byte	0x57
 10082 18ba 86080000 		.4byte	.LVL489
 10083 18be 400A0000 		.4byte	.LVL534
 10084 18c2 0100     		.2byte	0x1
ARM GAS  /tmp/ccSqa4tb.s 			page 178


 10085 18c4 57       		.byte	0x57
 10086 18c5 400A0000 		.4byte	.LVL534
 10087 18c9 460A0000 		.4byte	.LVL535
 10088 18cd 0500     		.2byte	0x5
 10089 18cf 76       		.byte	0x76
 10090 18d0 00       		.sleb128 0
 10091 18d1 78       		.byte	0x78
 10092 18d2 00       		.sleb128 0
 10093 18d3 22       		.byte	0x22
 10094 18d4 460A0000 		.4byte	.LVL535
 10095 18d8 E20C0000 		.4byte	.LVL631
 10096 18dc 0100     		.2byte	0x1
 10097 18de 57       		.byte	0x57
 10098 18df E20C0000 		.4byte	.LVL631
 10099 18e3 F80C0000 		.4byte	.LVL634
 10100 18e7 0100     		.2byte	0x1
 10101 18e9 53       		.byte	0x53
 10102 18ea F80C0000 		.4byte	.LVL634
 10103 18ee 620F0000 		.4byte	.LVL728
 10104 18f2 0100     		.2byte	0x1
 10105 18f4 57       		.byte	0x57
 10106 18f5 620F0000 		.4byte	.LVL728
 10107 18f9 660F0000 		.4byte	.LVL729
 10108 18fd 0500     		.2byte	0x5
 10109 18ff 76       		.byte	0x76
 10110 1900 00       		.sleb128 0
 10111 1901 73       		.byte	0x73
 10112 1902 00       		.sleb128 0
 10113 1903 22       		.byte	0x22
 10114 1904 660F0000 		.4byte	.LVL729
 10115 1908 7C0F0000 		.4byte	.LVL733
 10116 190c 0100     		.2byte	0x1
 10117 190e 57       		.byte	0x57
 10118 190f 7C0F0000 		.4byte	.LVL733
 10119 1913 800F0000 		.4byte	.LVL734
 10120 1917 0500     		.2byte	0x5
 10121 1919 73       		.byte	0x73
 10122 191a 00       		.sleb128 0
 10123 191b 7A       		.byte	0x7a
 10124 191c 00       		.sleb128 0
 10125 191d 22       		.byte	0x22
 10126 191e 800F0000 		.4byte	.LVL734
 10127 1922 AE0F0000 		.4byte	.LVL745
 10128 1926 0100     		.2byte	0x1
 10129 1928 57       		.byte	0x57
 10130 1929 AE0F0000 		.4byte	.LVL745
 10131 192d C80F0000 		.4byte	.LVL748
 10132 1931 0100     		.2byte	0x1
 10133 1933 57       		.byte	0x57
 10134 1934 C80F0000 		.4byte	.LVL748
 10135 1938 CC0F0000 		.4byte	.LVL749
 10136 193c 0500     		.2byte	0x5
 10137 193e 71       		.byte	0x71
 10138 193f 00       		.sleb128 0
 10139 1940 7A       		.byte	0x7a
 10140 1941 00       		.sleb128 0
 10141 1942 22       		.byte	0x22
ARM GAS  /tmp/ccSqa4tb.s 			page 179


 10142 1943 CC0F0000 		.4byte	.LVL749
 10143 1947 E20F0000 		.4byte	.LVL753
 10144 194b 0100     		.2byte	0x1
 10145 194d 57       		.byte	0x57
 10146 194e E20F0000 		.4byte	.LVL753
 10147 1952 E60F0000 		.4byte	.LVL754
 10148 1956 0900     		.2byte	0x9
 10149 1958 76       		.byte	0x76
 10150 1959 00       		.sleb128 0
 10151 195a 76       		.byte	0x76
 10152 195b 00       		.sleb128 0
 10153 195c 71       		.byte	0x71
 10154 195d 00       		.sleb128 0
 10155 195e 22       		.byte	0x22
 10156 195f 06       		.byte	0x6
 10157 1960 22       		.byte	0x22
 10158 1961 E60F0000 		.4byte	.LVL754
 10159 1965 F60F0000 		.4byte	.LVL757
 10160 1969 0100     		.2byte	0x1
 10161 196b 57       		.byte	0x57
 10162 196c F60F0000 		.4byte	.LVL757
 10163 1970 04100000 		.4byte	.LVL758
 10164 1974 0100     		.2byte	0x1
 10165 1976 57       		.byte	0x57
 10166 1977 04100000 		.4byte	.LVL758
 10167 197b 08100000 		.4byte	.LVL759
 10168 197f 0600     		.2byte	0x6
 10169 1981 74       		.byte	0x74
 10170 1982 7C       		.sleb128 -4
 10171 1983 06       		.byte	0x6
 10172 1984 40       		.byte	0x40
 10173 1985 26       		.byte	0x26
 10174 1986 9F       		.byte	0x9f
 10175 1987 08100000 		.4byte	.LVL759
 10176 198b 1E120000 		.4byte	.LVL836
 10177 198f 0100     		.2byte	0x1
 10178 1991 57       		.byte	0x57
 10179 1992 1E120000 		.4byte	.LVL836
 10180 1996 3A120000 		.4byte	.LVL838
 10181 199a 0100     		.2byte	0x1
 10182 199c 58       		.byte	0x58
 10183 199d 3A120000 		.4byte	.LVL838
 10184 19a1 3E120000 		.4byte	.LVL839
 10185 19a5 0100     		.2byte	0x1
 10186 19a7 57       		.byte	0x57
 10187 19a8 3E120000 		.4byte	.LVL839
 10188 19ac 5A120000 		.4byte	.LVL841
 10189 19b0 0100     		.2byte	0x1
 10190 19b2 5B       		.byte	0x5b
 10191 19b3 5A120000 		.4byte	.LVL841
 10192 19b7 70120000 		.4byte	.LVL845
 10193 19bb 0100     		.2byte	0x1
 10194 19bd 57       		.byte	0x57
 10195 19be 70120000 		.4byte	.LVL845
 10196 19c2 5E130000 		.4byte	.LVL872
 10197 19c6 0100     		.2byte	0x1
 10198 19c8 57       		.byte	0x57
ARM GAS  /tmp/ccSqa4tb.s 			page 180


 10199 19c9 7A130000 		.4byte	.LVL878
 10200 19cd 8E130000 		.4byte	.LFE34
 10201 19d1 0100     		.2byte	0x1
 10202 19d3 57       		.byte	0x57
 10203 19d4 00000000 		.4byte	0x0
 10204 19d8 00000000 		.4byte	0x0
 10205              	.LLST148:
 10206 19dc 7A010000 		.4byte	.LVL336
 10207 19e0 8E010000 		.4byte	.LVL344
 10208 19e4 0100     		.2byte	0x1
 10209 19e6 58       		.byte	0x58
 10210 19e7 90010000 		.4byte	.LVL345
 10211 19eb 2A060000 		.4byte	.LVL415
 10212 19ef 0100     		.2byte	0x1
 10213 19f1 58       		.byte	0x58
 10214 19f2 2A060000 		.4byte	.LVL415
 10215 19f6 2C060000 		.4byte	.LVL416
 10216 19fa 0200     		.2byte	0x2
 10217 19fc 91       		.byte	0x91
 10218 19fd 54       		.sleb128 -44
 10219 19fe 2C060000 		.4byte	.LVL416
 10220 1a02 4A060000 		.4byte	.LVL425
 10221 1a06 0100     		.2byte	0x1
 10222 1a08 58       		.byte	0x58
 10223 1a09 4A060000 		.4byte	.LVL425
 10224 1a0d 54060000 		.4byte	.LVL426
 10225 1a11 0100     		.2byte	0x1
 10226 1a13 58       		.byte	0x58
 10227 1a14 54060000 		.4byte	.LVL426
 10228 1a18 60060000 		.4byte	.LVL427
 10229 1a1c 0100     		.2byte	0x1
 10230 1a1e 58       		.byte	0x58
 10231 1a1f 60060000 		.4byte	.LVL427
 10232 1a23 70060000 		.4byte	.LVL428
 10233 1a27 0100     		.2byte	0x1
 10234 1a29 58       		.byte	0x58
 10235 1a2a 70060000 		.4byte	.LVL428
 10236 1a2e 7C060000 		.4byte	.LVL430
 10237 1a32 0100     		.2byte	0x1
 10238 1a34 58       		.byte	0x58
 10239 1a35 7C060000 		.4byte	.LVL430
 10240 1a39 94060000 		.4byte	.LVL436
 10241 1a3d 0100     		.2byte	0x1
 10242 1a3f 58       		.byte	0x58
 10243 1a40 94060000 		.4byte	.LVL436
 10244 1a44 AC060000 		.4byte	.LVL439
 10245 1a48 0100     		.2byte	0x1
 10246 1a4a 53       		.byte	0x53
 10247 1a4b AC060000 		.4byte	.LVL439
 10248 1a4f D0060000 		.4byte	.LVL445
 10249 1a53 0100     		.2byte	0x1
 10250 1a55 58       		.byte	0x58
 10251 1a56 D0060000 		.4byte	.LVL445
 10252 1a5a EA060000 		.4byte	.LVL449
 10253 1a5e 0100     		.2byte	0x1
 10254 1a60 58       		.byte	0x58
 10255 1a61 EA060000 		.4byte	.LVL449
ARM GAS  /tmp/ccSqa4tb.s 			page 181


 10256 1a65 EE060000 		.4byte	.LVL450
 10257 1a69 0100     		.2byte	0x1
 10258 1a6b 58       		.byte	0x58
 10259 1a6c EE060000 		.4byte	.LVL450
 10260 1a70 00070000 		.4byte	.LVL452
 10261 1a74 0300     		.2byte	0x3
 10262 1a76 78       		.byte	0x78
 10263 1a77 04       		.sleb128 4
 10264 1a78 9F       		.byte	0x9f
 10265 1a79 00070000 		.4byte	.LVL452
 10266 1a7d 0C070000 		.4byte	.LVL456
 10267 1a81 0100     		.2byte	0x1
 10268 1a83 58       		.byte	0x58
 10269 1a84 0C070000 		.4byte	.LVL456
 10270 1a88 10070000 		.4byte	.LVL457
 10271 1a8c 0100     		.2byte	0x1
 10272 1a8e 58       		.byte	0x58
 10273 1a8f 10070000 		.4byte	.LVL457
 10274 1a93 2E070000 		.4byte	.LVL460
 10275 1a97 0300     		.2byte	0x3
 10276 1a99 78       		.byte	0x78
 10277 1a9a 04       		.sleb128 4
 10278 1a9b 9F       		.byte	0x9f
 10279 1a9c 2E070000 		.4byte	.LVL460
 10280 1aa0 38070000 		.4byte	.LVL462
 10281 1aa4 0100     		.2byte	0x1
 10282 1aa6 58       		.byte	0x58
 10283 1aa7 38070000 		.4byte	.LVL462
 10284 1aab 900A0000 		.4byte	.LVL539
 10285 1aaf 0100     		.2byte	0x1
 10286 1ab1 58       		.byte	0x58
 10287 1ab2 900A0000 		.4byte	.LVL539
 10288 1ab6 C20A0000 		.4byte	.LVL546
 10289 1aba 0100     		.2byte	0x1
 10290 1abc 58       		.byte	0x58
 10291 1abd C20A0000 		.4byte	.LVL546
 10292 1ac1 D00A0000 		.4byte	.LVL549
 10293 1ac5 0100     		.2byte	0x1
 10294 1ac7 58       		.byte	0x58
 10295 1ac8 D00A0000 		.4byte	.LVL549
 10296 1acc DA0A0000 		.4byte	.LVL551
 10297 1ad0 0100     		.2byte	0x1
 10298 1ad2 58       		.byte	0x58
 10299 1ad3 DA0A0000 		.4byte	.LVL551
 10300 1ad7 DB0A0000 		.4byte	.LVL552-1
 10301 1adb 0C00     		.2byte	0xc
 10302 1add 78       		.byte	0x78
 10303 1ade 00       		.sleb128 0
 10304 1adf 76       		.byte	0x76
 10305 1ae0 00       		.sleb128 0
 10306 1ae1 78       		.byte	0x78
 10307 1ae2 00       		.sleb128 0
 10308 1ae3 22       		.byte	0x22
 10309 1ae4 06       		.byte	0x6
 10310 1ae5 22       		.byte	0x22
 10311 1ae6 23       		.byte	0x23
 10312 1ae7 04       		.uleb128 0x4
ARM GAS  /tmp/ccSqa4tb.s 			page 182


 10313 1ae8 9F       		.byte	0x9f
 10314 1ae9 DB0A0000 		.4byte	.LVL552-1
 10315 1aed F60A0000 		.4byte	.LVL554
 10316 1af1 0800     		.2byte	0x8
 10317 1af3 75       		.byte	0x75
 10318 1af4 00       		.sleb128 0
 10319 1af5 78       		.byte	0x78
 10320 1af6 00       		.sleb128 0
 10321 1af7 22       		.byte	0x22
 10322 1af8 23       		.byte	0x23
 10323 1af9 04       		.uleb128 0x4
 10324 1afa 9F       		.byte	0x9f
 10325 1afb F60A0000 		.4byte	.LVL554
 10326 1aff F80A0000 		.4byte	.LVL555
 10327 1b03 0600     		.2byte	0x6
 10328 1b05 78       		.byte	0x78
 10329 1b06 00       		.sleb128 0
 10330 1b07 75       		.byte	0x75
 10331 1b08 00       		.sleb128 0
 10332 1b09 22       		.byte	0x22
 10333 1b0a 9F       		.byte	0x9f
 10334 1b0b FE0A0000 		.4byte	.LVL557
 10335 1b0f B40B0000 		.4byte	.LVL582
 10336 1b13 0100     		.2byte	0x1
 10337 1b15 58       		.byte	0x58
 10338 1b16 B40B0000 		.4byte	.LVL582
 10339 1b1a B60B0000 		.4byte	.LVL583
 10340 1b1e 0300     		.2byte	0x3
 10341 1b20 78       		.byte	0x78
 10342 1b21 04       		.sleb128 4
 10343 1b22 9F       		.byte	0x9f
 10344 1b23 B60B0000 		.4byte	.LVL583
 10345 1b27 C40B0000 		.4byte	.LVL586
 10346 1b2b 0100     		.2byte	0x1
 10347 1b2d 58       		.byte	0x58
 10348 1b2e C40B0000 		.4byte	.LVL586
 10349 1b32 C80B0000 		.4byte	.LVL587
 10350 1b36 0300     		.2byte	0x3
 10351 1b38 78       		.byte	0x78
 10352 1b39 04       		.sleb128 4
 10353 1b3a 9F       		.byte	0x9f
 10354 1b3b C80B0000 		.4byte	.LVL587
 10355 1b3f DC0B0000 		.4byte	.LVL590
 10356 1b43 0100     		.2byte	0x1
 10357 1b45 58       		.byte	0x58
 10358 1b46 DC0B0000 		.4byte	.LVL590
 10359 1b4a DE0B0000 		.4byte	.LVL591
 10360 1b4e 0300     		.2byte	0x3
 10361 1b50 78       		.byte	0x78
 10362 1b51 04       		.sleb128 4
 10363 1b52 9F       		.byte	0x9f
 10364 1b53 DE0B0000 		.4byte	.LVL591
 10365 1b57 EC0B0000 		.4byte	.LVL594
 10366 1b5b 0100     		.2byte	0x1
 10367 1b5d 58       		.byte	0x58
 10368 1b5e EC0B0000 		.4byte	.LVL594
 10369 1b62 F00B0000 		.4byte	.LVL595
ARM GAS  /tmp/ccSqa4tb.s 			page 183


 10370 1b66 0300     		.2byte	0x3
 10371 1b68 78       		.byte	0x78
 10372 1b69 04       		.sleb128 4
 10373 1b6a 9F       		.byte	0x9f
 10374 1b6b F00B0000 		.4byte	.LVL595
 10375 1b6f FE0B0000 		.4byte	.LVL598
 10376 1b73 0100     		.2byte	0x1
 10377 1b75 58       		.byte	0x58
 10378 1b76 FE0B0000 		.4byte	.LVL598
 10379 1b7a 020C0000 		.4byte	.LVL599
 10380 1b7e 0300     		.2byte	0x3
 10381 1b80 78       		.byte	0x78
 10382 1b81 04       		.sleb128 4
 10383 1b82 9F       		.byte	0x9f
 10384 1b83 020C0000 		.4byte	.LVL599
 10385 1b87 160C0000 		.4byte	.LVL602
 10386 1b8b 0100     		.2byte	0x1
 10387 1b8d 58       		.byte	0x58
 10388 1b8e 160C0000 		.4byte	.LVL602
 10389 1b92 1A0C0000 		.4byte	.LVL603
 10390 1b96 0300     		.2byte	0x3
 10391 1b98 78       		.byte	0x78
 10392 1b99 04       		.sleb128 4
 10393 1b9a 9F       		.byte	0x9f
 10394 1b9b 1A0C0000 		.4byte	.LVL603
 10395 1b9f 2C0C0000 		.4byte	.LVL606
 10396 1ba3 0100     		.2byte	0x1
 10397 1ba5 58       		.byte	0x58
 10398 1ba6 2C0C0000 		.4byte	.LVL606
 10399 1baa 300C0000 		.4byte	.LVL607
 10400 1bae 0300     		.2byte	0x3
 10401 1bb0 78       		.byte	0x78
 10402 1bb1 04       		.sleb128 4
 10403 1bb2 9F       		.byte	0x9f
 10404 1bb3 300C0000 		.4byte	.LVL607
 10405 1bb7 B00D0000 		.4byte	.LVL666
 10406 1bbb 0100     		.2byte	0x1
 10407 1bbd 58       		.byte	0x58
 10408 1bbe B00D0000 		.4byte	.LVL666
 10409 1bc2 BC0D0000 		.4byte	.LVL668
 10410 1bc6 0300     		.2byte	0x3
 10411 1bc8 78       		.byte	0x78
 10412 1bc9 04       		.sleb128 4
 10413 1bca 9F       		.byte	0x9f
 10414 1bcb BC0D0000 		.4byte	.LVL668
 10415 1bcf E60D0000 		.4byte	.LVL670
 10416 1bd3 0100     		.2byte	0x1
 10417 1bd5 58       		.byte	0x58
 10418 1bd6 EA0D0000 		.4byte	.LVL671
 10419 1bda 280E0000 		.4byte	.LVL677
 10420 1bde 0100     		.2byte	0x1
 10421 1be0 58       		.byte	0x58
 10422 1be1 440E0000 		.4byte	.LVL681
 10423 1be5 500E0000 		.4byte	.LVL684
 10424 1be9 0100     		.2byte	0x1
 10425 1beb 58       		.byte	0x58
 10426 1bec 6E0E0000 		.4byte	.LVL688
ARM GAS  /tmp/ccSqa4tb.s 			page 184


 10427 1bf0 7A0E0000 		.4byte	.LVL691
 10428 1bf4 0100     		.2byte	0x1
 10429 1bf6 58       		.byte	0x58
 10430 1bf7 A00E0000 		.4byte	.LVL695
 10431 1bfb AC0E0000 		.4byte	.LVL698
 10432 1bff 0100     		.2byte	0x1
 10433 1c01 58       		.byte	0x58
 10434 1c02 CA0E0000 		.4byte	.LVL702
 10435 1c06 D60E0000 		.4byte	.LVL705
 10436 1c0a 0100     		.2byte	0x1
 10437 1c0c 58       		.byte	0x58
 10438 1c0d F40E0000 		.4byte	.LVL709
 10439 1c11 000F0000 		.4byte	.LVL712
 10440 1c15 0100     		.2byte	0x1
 10441 1c17 58       		.byte	0x58
 10442 1c18 280F0000 		.4byte	.LVL716
 10443 1c1c 340F0000 		.4byte	.LVL719
 10444 1c20 0100     		.2byte	0x1
 10445 1c22 58       		.byte	0x58
 10446 1c23 540F0000 		.4byte	.LVL723
 10447 1c27 52100000 		.4byte	.LVL768
 10448 1c2b 0100     		.2byte	0x1
 10449 1c2d 58       		.byte	0x58
 10450 1c2e 68100000 		.4byte	.LVL770
 10451 1c32 9C100000 		.4byte	.LVL774
 10452 1c36 0100     		.2byte	0x1
 10453 1c38 58       		.byte	0x58
 10454 1c39 9C100000 		.4byte	.LVL774
 10455 1c3d AE100000 		.4byte	.LVL776
 10456 1c41 0100     		.2byte	0x1
 10457 1c43 58       		.byte	0x58
 10458 1c44 AE100000 		.4byte	.LVL776
 10459 1c48 C2100000 		.4byte	.LVL778
 10460 1c4c 0100     		.2byte	0x1
 10461 1c4e 58       		.byte	0x58
 10462 1c4f C2100000 		.4byte	.LVL778
 10463 1c53 CE100000 		.4byte	.LVL780
 10464 1c57 0100     		.2byte	0x1
 10465 1c59 58       		.byte	0x58
 10466 1c5a CE100000 		.4byte	.LVL780
 10467 1c5e DE100000 		.4byte	.LVL782
 10468 1c62 0100     		.2byte	0x1
 10469 1c64 58       		.byte	0x58
 10470 1c65 DE100000 		.4byte	.LVL782
 10471 1c69 F6100000 		.4byte	.LVL784
 10472 1c6d 0100     		.2byte	0x1
 10473 1c6f 58       		.byte	0x58
 10474 1c70 F6100000 		.4byte	.LVL784
 10475 1c74 08110000 		.4byte	.LVL786
 10476 1c78 0100     		.2byte	0x1
 10477 1c7a 58       		.byte	0x58
 10478 1c7b 08110000 		.4byte	.LVL786
 10479 1c7f 1E110000 		.4byte	.LVL789
 10480 1c83 0100     		.2byte	0x1
 10481 1c85 58       		.byte	0x58
 10482 1c86 38110000 		.4byte	.LVL794
 10483 1c8a 42110000 		.4byte	.LVL796
ARM GAS  /tmp/ccSqa4tb.s 			page 185


 10484 1c8e 0100     		.2byte	0x1
 10485 1c90 58       		.byte	0x58
 10486 1c91 62110000 		.4byte	.LVL801
 10487 1c95 6C110000 		.4byte	.LVL803
 10488 1c99 0100     		.2byte	0x1
 10489 1c9b 58       		.byte	0x58
 10490 1c9c 84110000 		.4byte	.LVL808
 10491 1ca0 8E110000 		.4byte	.LVL810
 10492 1ca4 0100     		.2byte	0x1
 10493 1ca6 58       		.byte	0x58
 10494 1ca7 A8110000 		.4byte	.LVL815
 10495 1cab B2110000 		.4byte	.LVL817
 10496 1caf 0100     		.2byte	0x1
 10497 1cb1 58       		.byte	0x58
 10498 1cb2 CC110000 		.4byte	.LVL822
 10499 1cb6 D6110000 		.4byte	.LVL824
 10500 1cba 0100     		.2byte	0x1
 10501 1cbc 58       		.byte	0x58
 10502 1cbd F8110000 		.4byte	.LVL829
 10503 1cc1 02120000 		.4byte	.LVL831
 10504 1cc5 0100     		.2byte	0x1
 10505 1cc7 58       		.byte	0x58
 10506 1cc8 1E120000 		.4byte	.LVL836
 10507 1ccc 22120000 		.4byte	.LVL837
 10508 1cd0 0100     		.2byte	0x1
 10509 1cd2 58       		.byte	0x58
 10510 1cd3 22120000 		.4byte	.LVL837
 10511 1cd7 3E120000 		.4byte	.LVL839
 10512 1cdb 0100     		.2byte	0x1
 10513 1cdd 51       		.byte	0x51
 10514 1cde 3E120000 		.4byte	.LVL839
 10515 1ce2 5E130000 		.4byte	.LVL872
 10516 1ce6 0100     		.2byte	0x1
 10517 1ce8 58       		.byte	0x58
 10518 1ce9 7A130000 		.4byte	.LVL878
 10519 1ced 8E130000 		.4byte	.LFE34
 10520 1cf1 0100     		.2byte	0x1
 10521 1cf3 58       		.byte	0x58
 10522 1cf4 00000000 		.4byte	0x0
 10523 1cf8 00000000 		.4byte	0x0
 10524              	.LLST149:
 10525 1cfc 72010000 		.4byte	.LVL335
 10526 1d00 30060000 		.4byte	.LVL417
 10527 1d04 0100     		.2byte	0x1
 10528 1d06 5A       		.byte	0x5a
 10529 1d07 30060000 		.4byte	.LVL417
 10530 1d0b 32060000 		.4byte	.LVL418
 10531 1d0f 0200     		.2byte	0x2
 10532 1d11 91       		.byte	0x91
 10533 1d12 54       		.sleb128 -44
 10534 1d13 32060000 		.4byte	.LVL418
 10535 1d17 DA060000 		.4byte	.LVL446
 10536 1d1b 0100     		.2byte	0x1
 10537 1d1d 5A       		.byte	0x5a
 10538 1d1e DA060000 		.4byte	.LVL446
 10539 1d22 E2060000 		.4byte	.LVL447
 10540 1d26 0100     		.2byte	0x1
ARM GAS  /tmp/ccSqa4tb.s 			page 186


 10541 1d28 58       		.byte	0x58
 10542 1d29 E2060000 		.4byte	.LVL447
 10543 1d2d E6060000 		.4byte	.LVL448
 10544 1d31 0100     		.2byte	0x1
 10545 1d33 5A       		.byte	0x5a
 10546 1d34 E6060000 		.4byte	.LVL448
 10547 1d38 EA060000 		.4byte	.LVL449
 10548 1d3c 0500     		.2byte	0x5
 10549 1d3e 76       		.byte	0x76
 10550 1d3f 00       		.sleb128 0
 10551 1d40 78       		.byte	0x78
 10552 1d41 00       		.sleb128 0
 10553 1d42 22       		.byte	0x22
 10554 1d43 EA060000 		.4byte	.LVL449
 10555 1d47 00070000 		.4byte	.LVL452
 10556 1d4b 0800     		.2byte	0x8
 10557 1d4d 76       		.byte	0x76
 10558 1d4e 00       		.sleb128 0
 10559 1d4f 78       		.byte	0x78
 10560 1d50 00       		.sleb128 0
 10561 1d51 22       		.byte	0x22
 10562 1d52 09       		.byte	0x9
 10563 1d53 FC       		.byte	0xfc
 10564 1d54 22       		.byte	0x22
 10565 1d55 00070000 		.4byte	.LVL452
 10566 1d59 08070000 		.4byte	.LVL455
 10567 1d5d 0100     		.2byte	0x1
 10568 1d5f 5A       		.byte	0x5a
 10569 1d60 08070000 		.4byte	.LVL455
 10570 1d64 0C070000 		.4byte	.LVL456
 10571 1d68 0500     		.2byte	0x5
 10572 1d6a 76       		.byte	0x76
 10573 1d6b 00       		.sleb128 0
 10574 1d6c 78       		.byte	0x78
 10575 1d6d 00       		.sleb128 0
 10576 1d6e 22       		.byte	0x22
 10577 1d6f 0C070000 		.4byte	.LVL456
 10578 1d73 2E070000 		.4byte	.LVL460
 10579 1d77 0800     		.2byte	0x8
 10580 1d79 76       		.byte	0x76
 10581 1d7a 00       		.sleb128 0
 10582 1d7b 78       		.byte	0x78
 10583 1d7c 00       		.sleb128 0
 10584 1d7d 22       		.byte	0x22
 10585 1d7e 09       		.byte	0x9
 10586 1d7f FC       		.byte	0xfc
 10587 1d80 22       		.byte	0x22
 10588 1d81 2E070000 		.4byte	.LVL460
 10589 1d85 30070000 		.4byte	.LVL461
 10590 1d89 0800     		.2byte	0x8
 10591 1d8b 76       		.byte	0x76
 10592 1d8c 00       		.sleb128 0
 10593 1d8d 72       		.byte	0x72
 10594 1d8e 00       		.sleb128 0
 10595 1d8f 22       		.byte	0x22
 10596 1d90 09       		.byte	0x9
 10597 1d91 F4       		.byte	0xf4
ARM GAS  /tmp/ccSqa4tb.s 			page 187


 10598 1d92 22       		.byte	0x22
 10599 1d93 30070000 		.4byte	.LVL461
 10600 1d97 BE0A0000 		.4byte	.LVL545
 10601 1d9b 0100     		.2byte	0x1
 10602 1d9d 5A       		.byte	0x5a
 10603 1d9e BE0A0000 		.4byte	.LVL545
 10604 1da2 C20A0000 		.4byte	.LVL546
 10605 1da6 0500     		.2byte	0x5
 10606 1da8 76       		.byte	0x76
 10607 1da9 00       		.sleb128 0
 10608 1daa 78       		.byte	0x78
 10609 1dab 00       		.sleb128 0
 10610 1dac 22       		.byte	0x22
 10611 1dad C20A0000 		.4byte	.LVL546
 10612 1db1 D00A0000 		.4byte	.LVL549
 10613 1db5 0800     		.2byte	0x8
 10614 1db7 76       		.byte	0x76
 10615 1db8 00       		.sleb128 0
 10616 1db9 78       		.byte	0x78
 10617 1dba 00       		.sleb128 0
 10618 1dbb 22       		.byte	0x22
 10619 1dbc 09       		.byte	0x9
 10620 1dbd FC       		.byte	0xfc
 10621 1dbe 22       		.byte	0x22
 10622 1dbf D00A0000 		.4byte	.LVL549
 10623 1dc3 DB0A0000 		.4byte	.LVL552-1
 10624 1dc7 0800     		.2byte	0x8
 10625 1dc9 76       		.byte	0x76
 10626 1dca 00       		.sleb128 0
 10627 1dcb 78       		.byte	0x78
 10628 1dcc 00       		.sleb128 0
 10629 1dcd 22       		.byte	0x22
 10630 1dce 09       		.byte	0x9
 10631 1dcf F8       		.byte	0xf8
 10632 1dd0 22       		.byte	0x22
 10633 1dd1 DB0A0000 		.4byte	.LVL552-1
 10634 1dd5 5E130000 		.4byte	.LVL872
 10635 1dd9 0100     		.2byte	0x1
 10636 1ddb 5A       		.byte	0x5a
 10637 1ddc 7A130000 		.4byte	.LVL878
 10638 1de0 8E130000 		.4byte	.LFE34
 10639 1de4 0100     		.2byte	0x1
 10640 1de6 5A       		.byte	0x5a
 10641 1de7 00000000 		.4byte	0x0
 10642 1deb 00000000 		.4byte	0x0
 10643              	.LLST150:
 10644 1def 7A010000 		.4byte	.LVL336
 10645 1df3 84010000 		.4byte	.LVL339
 10646 1df7 0100     		.2byte	0x1
 10647 1df9 51       		.byte	0x51
 10648 1dfa 84010000 		.4byte	.LVL339
 10649 1dfe 24060000 		.4byte	.LVL413
 10650 1e02 0100     		.2byte	0x1
 10651 1e04 5B       		.byte	0x5b
 10652 1e05 24060000 		.4byte	.LVL413
 10653 1e09 26060000 		.4byte	.LVL414
 10654 1e0d 0200     		.2byte	0x2
ARM GAS  /tmp/ccSqa4tb.s 			page 188


 10655 1e0f 91       		.byte	0x91
 10656 1e10 54       		.sleb128 -44
 10657 1e11 26060000 		.4byte	.LVL414
 10658 1e15 B0060000 		.4byte	.LVL440
 10659 1e19 0100     		.2byte	0x1
 10660 1e1b 5B       		.byte	0x5b
 10661 1e1c B0060000 		.4byte	.LVL440
 10662 1e20 CC060000 		.4byte	.LVL444
 10663 1e24 0100     		.2byte	0x1
 10664 1e26 53       		.byte	0x53
 10665 1e27 CC060000 		.4byte	.LVL444
 10666 1e2b 8C090000 		.4byte	.LVL507
 10667 1e2f 0100     		.2byte	0x1
 10668 1e31 5B       		.byte	0x5b
 10669 1e32 8C090000 		.4byte	.LVL507
 10670 1e36 BE090000 		.4byte	.LVL513
 10671 1e3a 0200     		.2byte	0x2
 10672 1e3c 91       		.byte	0x91
 10673 1e3d 48       		.sleb128 -56
 10674 1e3e BE090000 		.4byte	.LVL513
 10675 1e42 760A0000 		.4byte	.LVL537
 10676 1e46 0100     		.2byte	0x1
 10677 1e48 5B       		.byte	0x5b
 10678 1e49 880A0000 		.4byte	.LVL538
 10679 1e4d 360B0000 		.4byte	.LVL568
 10680 1e51 0100     		.2byte	0x1
 10681 1e53 5B       		.byte	0x5b
 10682 1e54 3E0B0000 		.4byte	.LVL569
 10683 1e58 C20C0000 		.4byte	.LVL627
 10684 1e5c 0100     		.2byte	0x1
 10685 1e5e 5B       		.byte	0x5b
 10686 1e5f D40C0000 		.4byte	.LVL628
 10687 1e63 F60D0000 		.4byte	.LVL672
 10688 1e67 0100     		.2byte	0x1
 10689 1e69 5B       		.byte	0x5b
 10690 1e6a 1C0E0000 		.4byte	.LVL674
 10691 1e6e 56100000 		.4byte	.LVL769
 10692 1e72 0100     		.2byte	0x1
 10693 1e74 5B       		.byte	0x5b
 10694 1e75 68100000 		.4byte	.LVL770
 10695 1e79 42120000 		.4byte	.LVL840
 10696 1e7d 0100     		.2byte	0x1
 10697 1e7f 5B       		.byte	0x5b
 10698 1e80 42120000 		.4byte	.LVL840
 10699 1e84 5E120000 		.4byte	.LVL842
 10700 1e88 0100     		.2byte	0x1
 10701 1e8a 51       		.byte	0x51
 10702 1e8b 5E120000 		.4byte	.LVL842
 10703 1e8f 1A130000 		.4byte	.LVL863
 10704 1e93 0100     		.2byte	0x1
 10705 1e95 5B       		.byte	0x5b
 10706 1e96 1A130000 		.4byte	.LVL863
 10707 1e9a 22130000 		.4byte	.LVL866
 10708 1e9e 0200     		.2byte	0x2
 10709 1ea0 91       		.byte	0x91
 10710 1ea1 48       		.sleb128 -56
 10711 1ea2 22130000 		.4byte	.LVL866
ARM GAS  /tmp/ccSqa4tb.s 			page 189


 10712 1ea6 34130000 		.4byte	.LVL868
 10713 1eaa 0100     		.2byte	0x1
 10714 1eac 5B       		.byte	0x5b
 10715 1ead 48130000 		.4byte	.LVL870
 10716 1eb1 4C130000 		.4byte	.LVL871
 10717 1eb5 0100     		.2byte	0x1
 10718 1eb7 5B       		.byte	0x5b
 10719 1eb8 7A130000 		.4byte	.LVL878
 10720 1ebc 8E130000 		.4byte	.LFE34
 10721 1ec0 0100     		.2byte	0x1
 10722 1ec2 5B       		.byte	0x5b
 10723 1ec3 00000000 		.4byte	0x0
 10724 1ec7 00000000 		.4byte	0x0
 10725              	.LLST151:
 10726 1ecb 7A010000 		.4byte	.LVL336
 10727 1ecf 84010000 		.4byte	.LVL339
 10728 1ed3 0100     		.2byte	0x1
 10729 1ed5 52       		.byte	0x52
 10730 1ed6 84010000 		.4byte	.LVL339
 10731 1eda 8E010000 		.4byte	.LVL344
 10732 1ede 0100     		.2byte	0x1
 10733 1ee0 54       		.byte	0x54
 10734 1ee1 90010000 		.4byte	.LVL345
 10735 1ee5 96010000 		.4byte	.LVL346
 10736 1ee9 0100     		.2byte	0x1
 10737 1eeb 52       		.byte	0x52
 10738 1eec 96010000 		.4byte	.LVL346
 10739 1ef0 64040000 		.4byte	.LVL348
 10740 1ef4 0100     		.2byte	0x1
 10741 1ef6 54       		.byte	0x54
 10742 1ef7 64040000 		.4byte	.LVL348
 10743 1efb 6E040000 		.4byte	.LVL351
 10744 1eff 0100     		.2byte	0x1
 10745 1f01 54       		.byte	0x54
 10746 1f02 6E040000 		.4byte	.LVL351
 10747 1f06 7C040000 		.4byte	.LVL357
 10748 1f0a 0100     		.2byte	0x1
 10749 1f0c 54       		.byte	0x54
 10750 1f0d 7C040000 		.4byte	.LVL357
 10751 1f11 88040000 		.4byte	.LVL360
 10752 1f15 0100     		.2byte	0x1
 10753 1f17 54       		.byte	0x54
 10754 1f18 88040000 		.4byte	.LVL360
 10755 1f1c 90040000 		.4byte	.LVL364
 10756 1f20 0100     		.2byte	0x1
 10757 1f22 54       		.byte	0x54
 10758 1f23 90040000 		.4byte	.LVL364
 10759 1f27 9E040000 		.4byte	.LVL370
 10760 1f2b 0100     		.2byte	0x1
 10761 1f2d 54       		.byte	0x54
 10762 1f2e 9E040000 		.4byte	.LVL370
 10763 1f32 C6040000 		.4byte	.LVL376
 10764 1f36 0100     		.2byte	0x1
 10765 1f38 54       		.byte	0x54
 10766 1f39 C6040000 		.4byte	.LVL376
 10767 1f3d 00050000 		.4byte	.LVL379
 10768 1f41 0100     		.2byte	0x1
ARM GAS  /tmp/ccSqa4tb.s 			page 190


 10769 1f43 54       		.byte	0x54
 10770 1f44 00050000 		.4byte	.LVL379
 10771 1f48 08050000 		.4byte	.LVL381
 10772 1f4c 0100     		.2byte	0x1
 10773 1f4e 54       		.byte	0x54
 10774 1f4f 08050000 		.4byte	.LVL381
 10775 1f53 0E050000 		.4byte	.LVL383
 10776 1f57 0100     		.2byte	0x1
 10777 1f59 54       		.byte	0x54
 10778 1f5a 0E050000 		.4byte	.LVL383
 10779 1f5e 18050000 		.4byte	.LVL385
 10780 1f62 0100     		.2byte	0x1
 10781 1f64 54       		.byte	0x54
 10782 1f65 18050000 		.4byte	.LVL385
 10783 1f69 22050000 		.4byte	.LVL389
 10784 1f6d 0100     		.2byte	0x1
 10785 1f6f 54       		.byte	0x54
 10786 1f70 22050000 		.4byte	.LVL389
 10787 1f74 30050000 		.4byte	.LVL393
 10788 1f78 0100     		.2byte	0x1
 10789 1f7a 54       		.byte	0x54
 10790 1f7b 30050000 		.4byte	.LVL393
 10791 1f7f 3E050000 		.4byte	.LVL396
 10792 1f83 0100     		.2byte	0x1
 10793 1f85 54       		.byte	0x54
 10794 1f86 3E050000 		.4byte	.LVL396
 10795 1f8a 60050000 		.4byte	.LVL399
 10796 1f8e 0100     		.2byte	0x1
 10797 1f90 54       		.byte	0x54
 10798 1f91 60050000 		.4byte	.LVL399
 10799 1f95 9A050000 		.4byte	.LVL404
 10800 1f99 0100     		.2byte	0x1
 10801 1f9b 54       		.byte	0x54
 10802 1f9c 9A050000 		.4byte	.LVL404
 10803 1fa0 B2050000 		.4byte	.LVL409
 10804 1fa4 0100     		.2byte	0x1
 10805 1fa6 54       		.byte	0x54
 10806 1fa7 B2050000 		.4byte	.LVL409
 10807 1fab FC050000 		.4byte	.LVL412
 10808 1faf 0100     		.2byte	0x1
 10809 1fb1 54       		.byte	0x54
 10810 1fb2 FC050000 		.4byte	.LVL412
 10811 1fb6 36060000 		.4byte	.LVL419
 10812 1fba 0100     		.2byte	0x1
 10813 1fbc 54       		.byte	0x54
 10814 1fbd 3A060000 		.4byte	.LVL421
 10815 1fc1 88060000 		.4byte	.LVL434
 10816 1fc5 0100     		.2byte	0x1
 10817 1fc7 54       		.byte	0x54
 10818 1fc8 88060000 		.4byte	.LVL434
 10819 1fcc 8C060000 		.4byte	.LVL435
 10820 1fd0 0100     		.2byte	0x1
 10821 1fd2 54       		.byte	0x54
 10822 1fd3 8C060000 		.4byte	.LVL435
 10823 1fd7 A8060000 		.4byte	.LVL437
 10824 1fdb 0300     		.2byte	0x3
 10825 1fdd 74       		.byte	0x74
ARM GAS  /tmp/ccSqa4tb.s 			page 191


 10826 1fde 04       		.sleb128 4
 10827 1fdf 9F       		.byte	0x9f
 10828 1fe0 A8060000 		.4byte	.LVL437
 10829 1fe4 AC060000 		.4byte	.LVL439
 10830 1fe8 0100     		.2byte	0x1
 10831 1fea 54       		.byte	0x54
 10832 1feb AC060000 		.4byte	.LVL439
 10833 1fef C8060000 		.4byte	.LVL442
 10834 1ff3 0300     		.2byte	0x3
 10835 1ff5 74       		.byte	0x74
 10836 1ff6 04       		.sleb128 4
 10837 1ff7 9F       		.byte	0x9f
 10838 1ff8 C8060000 		.4byte	.LVL442
 10839 1ffc FC060000 		.4byte	.LVL451
 10840 2000 0100     		.2byte	0x1
 10841 2002 54       		.byte	0x54
 10842 2003 02070000 		.4byte	.LVL453
 10843 2007 22070000 		.4byte	.LVL458
 10844 200b 0100     		.2byte	0x1
 10845 200d 54       		.byte	0x54
 10846 200e 26070000 		.4byte	.LVL459
 10847 2012 44070000 		.4byte	.LVL463
 10848 2016 0100     		.2byte	0x1
 10849 2018 54       		.byte	0x54
 10850 2019 46070000 		.4byte	.LVL464
 10851 201d 4C070000 		.4byte	.LVL465
 10852 2021 0100     		.2byte	0x1
 10853 2023 54       		.byte	0x54
 10854 2024 4E070000 		.4byte	.LVL466
 10855 2028 58070000 		.4byte	.LVL467
 10856 202c 0100     		.2byte	0x1
 10857 202e 54       		.byte	0x54
 10858 202f 5A070000 		.4byte	.LVL468
 10859 2033 5E070000 		.4byte	.LVL469
 10860 2037 0100     		.2byte	0x1
 10861 2039 54       		.byte	0x54
 10862 203a 5E070000 		.4byte	.LVL469
 10863 203e 68070000 		.4byte	.LVL470
 10864 2042 0100     		.2byte	0x1
 10865 2044 54       		.byte	0x54
 10866 2045 6A070000 		.4byte	.LVL471
 10867 2049 6E070000 		.4byte	.LVL472
 10868 204d 0100     		.2byte	0x1
 10869 204f 54       		.byte	0x54
 10870 2050 6E070000 		.4byte	.LVL472
 10871 2054 8E070000 		.4byte	.LVL475
 10872 2058 0100     		.2byte	0x1
 10873 205a 54       		.byte	0x54
 10874 205b 8E070000 		.4byte	.LVL475
 10875 205f 9A070000 		.4byte	.LVL478
 10876 2063 0100     		.2byte	0x1
 10877 2065 54       		.byte	0x54
 10878 2066 9A070000 		.4byte	.LVL478
 10879 206a 96080000 		.4byte	.LVL491
 10880 206e 0100     		.2byte	0x1
 10881 2070 54       		.byte	0x54
 10882 2071 96080000 		.4byte	.LVL491
ARM GAS  /tmp/ccSqa4tb.s 			page 192


 10883 2075 EE080000 		.4byte	.LVL496
 10884 2079 0100     		.2byte	0x1
 10885 207b 54       		.byte	0x54
 10886 207c EE080000 		.4byte	.LVL496
 10887 2080 48090000 		.4byte	.LVL501
 10888 2084 0100     		.2byte	0x1
 10889 2086 54       		.byte	0x54
 10890 2087 48090000 		.4byte	.LVL501
 10891 208b 90090000 		.4byte	.LVL508
 10892 208f 0100     		.2byte	0x1
 10893 2091 54       		.byte	0x54
 10894 2092 90090000 		.4byte	.LVL508
 10895 2096 94090000 		.4byte	.LVL509
 10896 209a 0300     		.2byte	0x3
 10897 209c 74       		.byte	0x74
 10898 209d 7C       		.sleb128 -4
 10899 209e 9F       		.byte	0x9f
 10900 209f 94090000 		.4byte	.LVL509
 10901 20a3 A6090000 		.4byte	.LVL511
 10902 20a7 0100     		.2byte	0x1
 10903 20a9 54       		.byte	0x54
 10904 20aa BE090000 		.4byte	.LVL513
 10905 20ae C4090000 		.4byte	.LVL516
 10906 20b2 0100     		.2byte	0x1
 10907 20b4 54       		.byte	0x54
 10908 20b5 C4090000 		.4byte	.LVL516
 10909 20b9 D4090000 		.4byte	.LVL518
 10910 20bd 0100     		.2byte	0x1
 10911 20bf 54       		.byte	0x54
 10912 20c0 D4090000 		.4byte	.LVL518
 10913 20c4 D8090000 		.4byte	.LVL519
 10914 20c8 0300     		.2byte	0x3
 10915 20ca 74       		.byte	0x74
 10916 20cb 7C       		.sleb128 -4
 10917 20cc 9F       		.byte	0x9f
 10918 20cd D8090000 		.4byte	.LVL519
 10919 20d1 040A0000 		.4byte	.LVL524
 10920 20d5 0100     		.2byte	0x1
 10921 20d7 54       		.byte	0x54
 10922 20d8 040A0000 		.4byte	.LVL524
 10923 20dc 280A0000 		.4byte	.LVL530
 10924 20e0 0A00     		.2byte	0xa
 10925 20e2 71       		.byte	0x71
 10926 20e3 00       		.sleb128 0
 10927 20e4 71       		.byte	0x71
 10928 20e5 00       		.sleb128 0
 10929 20e6 06       		.byte	0x6
 10930 20e7 22       		.byte	0x22
 10931 20e8 09       		.byte	0x9
 10932 20e9 FC       		.byte	0xfc
 10933 20ea 22       		.byte	0x22
 10934 20eb 9F       		.byte	0x9f
 10935 20ec 280A0000 		.4byte	.LVL530
 10936 20f0 920A0000 		.4byte	.LVL540
 10937 20f4 0100     		.2byte	0x1
 10938 20f6 54       		.byte	0x54
 10939 20f7 B60A0000 		.4byte	.LVL543
ARM GAS  /tmp/ccSqa4tb.s 			page 193


 10940 20fb C60A0000 		.4byte	.LVL547
 10941 20ff 0100     		.2byte	0x1
 10942 2101 54       		.byte	0x54
 10943 2102 FA0A0000 		.4byte	.LVL556
 10944 2106 320B0000 		.4byte	.LVL567
 10945 210a 0100     		.2byte	0x1
 10946 210c 54       		.byte	0x54
 10947 210d 3E0B0000 		.4byte	.LVL569
 10948 2111 420B0000 		.4byte	.LVL570
 10949 2115 0100     		.2byte	0x1
 10950 2117 54       		.byte	0x54
 10951 2118 420B0000 		.4byte	.LVL570
 10952 211c 680B0000 		.4byte	.LVL574
 10953 2120 0100     		.2byte	0x1
 10954 2122 54       		.byte	0x54
 10955 2123 680B0000 		.4byte	.LVL574
 10956 2127 8A0B0000 		.4byte	.LVL577
 10957 212b 0300     		.2byte	0x3
 10958 212d 74       		.byte	0x74
 10959 212e 04       		.sleb128 4
 10960 212f 9F       		.byte	0x9f
 10961 2130 8A0B0000 		.4byte	.LVL577
 10962 2134 A20B0000 		.4byte	.LVL579
 10963 2138 0100     		.2byte	0x1
 10964 213a 54       		.byte	0x54
 10965 213b A20B0000 		.4byte	.LVL579
 10966 213f B60B0000 		.4byte	.LVL583
 10967 2143 0100     		.2byte	0x1
 10968 2145 54       		.byte	0x54
 10969 2146 B60B0000 		.4byte	.LVL583
 10970 214a C80B0000 		.4byte	.LVL587
 10971 214e 0100     		.2byte	0x1
 10972 2150 54       		.byte	0x54
 10973 2151 C80B0000 		.4byte	.LVL587
 10974 2155 DE0B0000 		.4byte	.LVL591
 10975 2159 0100     		.2byte	0x1
 10976 215b 54       		.byte	0x54
 10977 215c DE0B0000 		.4byte	.LVL591
 10978 2160 F00B0000 		.4byte	.LVL595
 10979 2164 0100     		.2byte	0x1
 10980 2166 54       		.byte	0x54
 10981 2167 F00B0000 		.4byte	.LVL595
 10982 216b 020C0000 		.4byte	.LVL599
 10983 216f 0100     		.2byte	0x1
 10984 2171 54       		.byte	0x54
 10985 2172 020C0000 		.4byte	.LVL599
 10986 2176 1A0C0000 		.4byte	.LVL603
 10987 217a 0100     		.2byte	0x1
 10988 217c 54       		.byte	0x54
 10989 217d 1A0C0000 		.4byte	.LVL603
 10990 2181 300C0000 		.4byte	.LVL607
 10991 2185 0100     		.2byte	0x1
 10992 2187 54       		.byte	0x54
 10993 2188 300C0000 		.4byte	.LVL607
 10994 218c 420C0000 		.4byte	.LVL609
 10995 2190 0100     		.2byte	0x1
 10996 2192 54       		.byte	0x54
ARM GAS  /tmp/ccSqa4tb.s 			page 194


 10997 2193 440C0000 		.4byte	.LVL610
 10998 2197 4A0C0000 		.4byte	.LVL611
 10999 219b 0100     		.2byte	0x1
 11000 219d 54       		.byte	0x54
 11001 219e 4A0C0000 		.4byte	.LVL611
 11002 21a2 580C0000 		.4byte	.LVL612
 11003 21a6 0100     		.2byte	0x1
 11004 21a8 54       		.byte	0x54
 11005 21a9 5A0C0000 		.4byte	.LVL613
 11006 21ad 600C0000 		.4byte	.LVL614
 11007 21b1 0100     		.2byte	0x1
 11008 21b3 54       		.byte	0x54
 11009 21b4 600C0000 		.4byte	.LVL614
 11010 21b8 6E0C0000 		.4byte	.LVL615
 11011 21bc 0100     		.2byte	0x1
 11012 21be 54       		.byte	0x54
 11013 21bf 700C0000 		.4byte	.LVL616
 11014 21c3 760C0000 		.4byte	.LVL617
 11015 21c7 0100     		.2byte	0x1
 11016 21c9 54       		.byte	0x54
 11017 21ca 760C0000 		.4byte	.LVL617
 11018 21ce 840C0000 		.4byte	.LVL618
 11019 21d2 0100     		.2byte	0x1
 11020 21d4 54       		.byte	0x54
 11021 21d5 860C0000 		.4byte	.LVL619
 11022 21d9 8C0C0000 		.4byte	.LVL620
 11023 21dd 0100     		.2byte	0x1
 11024 21df 54       		.byte	0x54
 11025 21e0 8C0C0000 		.4byte	.LVL620
 11026 21e4 9A0C0000 		.4byte	.LVL621
 11027 21e8 0100     		.2byte	0x1
 11028 21ea 54       		.byte	0x54
 11029 21eb 9C0C0000 		.4byte	.LVL622
 11030 21ef A20C0000 		.4byte	.LVL623
 11031 21f3 0100     		.2byte	0x1
 11032 21f5 54       		.byte	0x54
 11033 21f6 A20C0000 		.4byte	.LVL623
 11034 21fa B00C0000 		.4byte	.LVL624
 11035 21fe 0100     		.2byte	0x1
 11036 2200 54       		.byte	0x54
 11037 2201 B20C0000 		.4byte	.LVL625
 11038 2205 B80C0000 		.4byte	.LVL626
 11039 2209 0100     		.2byte	0x1
 11040 220b 54       		.byte	0x54
 11041 220c B80C0000 		.4byte	.LVL626
 11042 2210 0C0D0000 		.4byte	.LVL636
 11043 2214 0100     		.2byte	0x1
 11044 2216 54       		.byte	0x54
 11045 2217 0C0D0000 		.4byte	.LVL636
 11046 221b 1A0D0000 		.4byte	.LVL639
 11047 221f 0100     		.2byte	0x1
 11048 2221 54       		.byte	0x54
 11049 2222 1A0D0000 		.4byte	.LVL639
 11050 2226 300D0000 		.4byte	.LVL642
 11051 222a 0100     		.2byte	0x1
 11052 222c 54       		.byte	0x54
 11053 222d 300D0000 		.4byte	.LVL642
ARM GAS  /tmp/ccSqa4tb.s 			page 195


 11054 2231 400D0000 		.4byte	.LVL646
 11055 2235 0100     		.2byte	0x1
 11056 2237 54       		.byte	0x54
 11057 2238 400D0000 		.4byte	.LVL646
 11058 223c 4C0D0000 		.4byte	.LVL649
 11059 2240 0100     		.2byte	0x1
 11060 2242 54       		.byte	0x54
 11061 2243 4C0D0000 		.4byte	.LVL649
 11062 2247 5E0D0000 		.4byte	.LVL652
 11063 224b 0100     		.2byte	0x1
 11064 224d 54       		.byte	0x54
 11065 224e 5E0D0000 		.4byte	.LVL652
 11066 2252 700D0000 		.4byte	.LVL655
 11067 2256 0100     		.2byte	0x1
 11068 2258 54       		.byte	0x54
 11069 2259 700D0000 		.4byte	.LVL655
 11070 225d 7E0D0000 		.4byte	.LVL658
 11071 2261 0100     		.2byte	0x1
 11072 2263 54       		.byte	0x54
 11073 2264 7E0D0000 		.4byte	.LVL658
 11074 2268 8E0D0000 		.4byte	.LVL661
 11075 226c 0100     		.2byte	0x1
 11076 226e 54       		.byte	0x54
 11077 226f 8E0D0000 		.4byte	.LVL661
 11078 2273 9C0D0000 		.4byte	.LVL664
 11079 2277 0100     		.2byte	0x1
 11080 2279 54       		.byte	0x54
 11081 227a 9C0D0000 		.4byte	.LVL664
 11082 227e B20D0000 		.4byte	.LVL667
 11083 2282 0100     		.2byte	0x1
 11084 2284 54       		.byte	0x54
 11085 2285 B20D0000 		.4byte	.LVL667
 11086 2289 BC0D0000 		.4byte	.LVL668
 11087 228d 0300     		.2byte	0x3
 11088 228f 74       		.byte	0x74
 11089 2290 04       		.sleb128 4
 11090 2291 9F       		.byte	0x9f
 11091 2292 BC0D0000 		.4byte	.LVL668
 11092 2296 080E0000 		.4byte	.LVL673
 11093 229a 0100     		.2byte	0x1
 11094 229c 54       		.byte	0x54
 11095 229d 1C0E0000 		.4byte	.LVL674
 11096 22a1 200E0000 		.4byte	.LVL676
 11097 22a5 0100     		.2byte	0x1
 11098 22a7 54       		.byte	0x54
 11099 22a8 200E0000 		.4byte	.LVL676
 11100 22ac 280E0000 		.4byte	.LVL677
 11101 22b0 0100     		.2byte	0x1
 11102 22b2 54       		.byte	0x54
 11103 22b3 440E0000 		.4byte	.LVL681
 11104 22b7 480E0000 		.4byte	.LVL683
 11105 22bb 0100     		.2byte	0x1
 11106 22bd 54       		.byte	0x54
 11107 22be 480E0000 		.4byte	.LVL683
 11108 22c2 500E0000 		.4byte	.LVL684
 11109 22c6 0100     		.2byte	0x1
 11110 22c8 54       		.byte	0x54
ARM GAS  /tmp/ccSqa4tb.s 			page 196


 11111 22c9 6E0E0000 		.4byte	.LVL688
 11112 22cd 720E0000 		.4byte	.LVL690
 11113 22d1 0100     		.2byte	0x1
 11114 22d3 54       		.byte	0x54
 11115 22d4 720E0000 		.4byte	.LVL690
 11116 22d8 7A0E0000 		.4byte	.LVL691
 11117 22dc 0100     		.2byte	0x1
 11118 22de 54       		.byte	0x54
 11119 22df A00E0000 		.4byte	.LVL695
 11120 22e3 A40E0000 		.4byte	.LVL697
 11121 22e7 0100     		.2byte	0x1
 11122 22e9 54       		.byte	0x54
 11123 22ea A40E0000 		.4byte	.LVL697
 11124 22ee AC0E0000 		.4byte	.LVL698
 11125 22f2 0100     		.2byte	0x1
 11126 22f4 54       		.byte	0x54
 11127 22f5 CA0E0000 		.4byte	.LVL702
 11128 22f9 CE0E0000 		.4byte	.LVL704
 11129 22fd 0100     		.2byte	0x1
 11130 22ff 54       		.byte	0x54
 11131 2300 CE0E0000 		.4byte	.LVL704
 11132 2304 D60E0000 		.4byte	.LVL705
 11133 2308 0100     		.2byte	0x1
 11134 230a 54       		.byte	0x54
 11135 230b F40E0000 		.4byte	.LVL709
 11136 230f F80E0000 		.4byte	.LVL711
 11137 2313 0100     		.2byte	0x1
 11138 2315 54       		.byte	0x54
 11139 2316 F80E0000 		.4byte	.LVL711
 11140 231a 000F0000 		.4byte	.LVL712
 11141 231e 0100     		.2byte	0x1
 11142 2320 54       		.byte	0x54
 11143 2321 280F0000 		.4byte	.LVL716
 11144 2325 2C0F0000 		.4byte	.LVL718
 11145 2329 0100     		.2byte	0x1
 11146 232b 54       		.byte	0x54
 11147 232c 2C0F0000 		.4byte	.LVL718
 11148 2330 340F0000 		.4byte	.LVL719
 11149 2334 0100     		.2byte	0x1
 11150 2336 54       		.byte	0x54
 11151 2337 540F0000 		.4byte	.LVL723
 11152 233b 580F0000 		.4byte	.LVL725
 11153 233f 0100     		.2byte	0x1
 11154 2341 54       		.byte	0x54
 11155 2342 580F0000 		.4byte	.LVL725
 11156 2346 5E0F0000 		.4byte	.LVL727
 11157 234a 0100     		.2byte	0x1
 11158 234c 53       		.byte	0x53
 11159 234d 5E0F0000 		.4byte	.LVL727
 11160 2351 6A0F0000 		.4byte	.LVL730
 11161 2355 0100     		.2byte	0x1
 11162 2357 54       		.byte	0x54
 11163 2358 6A0F0000 		.4byte	.LVL730
 11164 235c 740F0000 		.4byte	.LVL732
 11165 2360 0100     		.2byte	0x1
 11166 2362 53       		.byte	0x53
 11167 2363 740F0000 		.4byte	.LVL732
ARM GAS  /tmp/ccSqa4tb.s 			page 197


 11168 2367 840F0000 		.4byte	.LVL735
 11169 236b 0100     		.2byte	0x1
 11170 236d 54       		.byte	0x54
 11171 236e 840F0000 		.4byte	.LVL735
 11172 2372 860F0000 		.4byte	.LVL736
 11173 2376 0100     		.2byte	0x1
 11174 2378 53       		.byte	0x53
 11175 2379 880F0000 		.4byte	.LVL737
 11176 237d 920F0000 		.4byte	.LVL739
 11177 2381 0100     		.2byte	0x1
 11178 2383 54       		.byte	0x54
 11179 2384 920F0000 		.4byte	.LVL739
 11180 2388 940F0000 		.4byte	.LVL740
 11181 238c 0100     		.2byte	0x1
 11182 238e 53       		.byte	0x53
 11183 238f 9A0F0000 		.4byte	.LVL742
 11184 2393 52100000 		.4byte	.LVL768
 11185 2397 0100     		.2byte	0x1
 11186 2399 54       		.byte	0x54
 11187 239a 68100000 		.4byte	.LVL770
 11188 239e 1E110000 		.4byte	.LVL789
 11189 23a2 0100     		.2byte	0x1
 11190 23a4 54       		.byte	0x54
 11191 23a5 38110000 		.4byte	.LVL794
 11192 23a9 42110000 		.4byte	.LVL796
 11193 23ad 0100     		.2byte	0x1
 11194 23af 54       		.byte	0x54
 11195 23b0 62110000 		.4byte	.LVL801
 11196 23b4 6C110000 		.4byte	.LVL803
 11197 23b8 0100     		.2byte	0x1
 11198 23ba 54       		.byte	0x54
 11199 23bb 84110000 		.4byte	.LVL808
 11200 23bf 8E110000 		.4byte	.LVL810
 11201 23c3 0100     		.2byte	0x1
 11202 23c5 54       		.byte	0x54
 11203 23c6 A8110000 		.4byte	.LVL815
 11204 23ca B2110000 		.4byte	.LVL817
 11205 23ce 0100     		.2byte	0x1
 11206 23d0 54       		.byte	0x54
 11207 23d1 CC110000 		.4byte	.LVL822
 11208 23d5 D6110000 		.4byte	.LVL824
 11209 23d9 0100     		.2byte	0x1
 11210 23db 54       		.byte	0x54
 11211 23dc F8110000 		.4byte	.LVL829
 11212 23e0 02120000 		.4byte	.LVL831
 11213 23e4 0100     		.2byte	0x1
 11214 23e6 54       		.byte	0x54
 11215 23e7 1E120000 		.4byte	.LVL836
 11216 23eb 3A130000 		.4byte	.LVL869
 11217 23ef 0100     		.2byte	0x1
 11218 23f1 54       		.byte	0x54
 11219 23f2 48130000 		.4byte	.LVL870
 11220 23f6 5E130000 		.4byte	.LVL872
 11221 23fa 0100     		.2byte	0x1
 11222 23fc 54       		.byte	0x54
 11223 23fd 7A130000 		.4byte	.LVL878
 11224 2401 80130000 		.4byte	.LVL879
ARM GAS  /tmp/ccSqa4tb.s 			page 198


 11225 2405 0900     		.2byte	0x9
 11226 2407 71       		.byte	0x71
 11227 2408 00       		.sleb128 0
 11228 2409 7C       		.byte	0x7c
 11229 240a 00       		.sleb128 0
 11230 240b 22       		.byte	0x22
 11231 240c 09       		.byte	0x9
 11232 240d FC       		.byte	0xfc
 11233 240e 22       		.byte	0x22
 11234 240f 9F       		.byte	0x9f
 11235 2410 80130000 		.4byte	.LVL879
 11236 2414 8E130000 		.4byte	.LFE34
 11237 2418 0100     		.2byte	0x1
 11238 241a 54       		.byte	0x54
 11239 241b 00000000 		.4byte	0x0
 11240 241f 00000000 		.4byte	0x0
 11241              	.LLST152:
 11242 2423 84010000 		.4byte	.LVL339
 11243 2427 8E010000 		.4byte	.LVL344
 11244 242b 0100     		.2byte	0x1
 11245 242d 51       		.byte	0x51
 11246 242e 96010000 		.4byte	.LVL346
 11247 2432 78040000 		.4byte	.LVL355
 11248 2436 0200     		.2byte	0x2
 11249 2438 72       		.byte	0x72
 11250 2439 00       		.sleb128 0
 11251 243a 78040000 		.4byte	.LVL355
 11252 243e 7C040000 		.4byte	.LVL357
 11253 2442 0200     		.2byte	0x2
 11254 2444 74       		.byte	0x74
 11255 2445 7C       		.sleb128 -4
 11256 2446 7C040000 		.4byte	.LVL357
 11257 244a 80040000 		.4byte	.LVL358
 11258 244e 0200     		.2byte	0x2
 11259 2450 74       		.byte	0x74
 11260 2451 78       		.sleb128 -8
 11261 2452 80040000 		.4byte	.LVL358
 11262 2456 88040000 		.4byte	.LVL360
 11263 245a 0200     		.2byte	0x2
 11264 245c 74       		.byte	0x74
 11265 245d 7C       		.sleb128 -4
 11266 245e 88040000 		.4byte	.LVL360
 11267 2462 8C040000 		.4byte	.LVL362
 11268 2466 0200     		.2byte	0x2
 11269 2468 74       		.byte	0x74
 11270 2469 78       		.sleb128 -8
 11271 246a 8C040000 		.4byte	.LVL362
 11272 246e 90040000 		.4byte	.LVL364
 11273 2472 0200     		.2byte	0x2
 11274 2474 74       		.byte	0x74
 11275 2475 7C       		.sleb128 -4
 11276 2476 90040000 		.4byte	.LVL364
 11277 247a 9A040000 		.4byte	.LVL368
 11278 247e 0200     		.2byte	0x2
 11279 2480 74       		.byte	0x74
 11280 2481 78       		.sleb128 -8
 11281 2482 9A040000 		.4byte	.LVL368
ARM GAS  /tmp/ccSqa4tb.s 			page 199


 11282 2486 9E040000 		.4byte	.LVL370
 11283 248a 0200     		.2byte	0x2
 11284 248c 74       		.byte	0x74
 11285 248d 7C       		.sleb128 -4
 11286 248e 9E040000 		.4byte	.LVL370
 11287 2492 A6040000 		.4byte	.LVL374
 11288 2496 0200     		.2byte	0x2
 11289 2498 74       		.byte	0x74
 11290 2499 78       		.sleb128 -8
 11291 249a A6040000 		.4byte	.LVL374
 11292 249e C6040000 		.4byte	.LVL376
 11293 24a2 0200     		.2byte	0x2
 11294 24a4 74       		.byte	0x74
 11295 24a5 7C       		.sleb128 -4
 11296 24a6 C6040000 		.4byte	.LVL376
 11297 24aa D6040000 		.4byte	.LVL377
 11298 24ae 0200     		.2byte	0x2
 11299 24b0 72       		.byte	0x72
 11300 24b1 00       		.sleb128 0
 11301 24b2 FC040000 		.4byte	.LVL378
 11302 24b6 2A050000 		.4byte	.LVL392
 11303 24ba 0100     		.2byte	0x1
 11304 24bc 51       		.byte	0x51
 11305 24bd 2A050000 		.4byte	.LVL392
 11306 24c1 30050000 		.4byte	.LVL393
 11307 24c5 0200     		.2byte	0x2
 11308 24c7 74       		.byte	0x74
 11309 24c8 7C       		.sleb128 -4
 11310 24c9 30050000 		.4byte	.LVL393
 11311 24cd 34050000 		.4byte	.LVL394
 11312 24d1 0200     		.2byte	0x2
 11313 24d3 74       		.byte	0x74
 11314 24d4 78       		.sleb128 -8
 11315 24d5 34050000 		.4byte	.LVL394
 11316 24d9 3E050000 		.4byte	.LVL396
 11317 24dd 0200     		.2byte	0x2
 11318 24df 74       		.byte	0x74
 11319 24e0 7C       		.sleb128 -4
 11320 24e1 3E050000 		.4byte	.LVL396
 11321 24e5 42050000 		.4byte	.LVL397
 11322 24e9 0200     		.2byte	0x2
 11323 24eb 74       		.byte	0x74
 11324 24ec 78       		.sleb128 -8
 11325 24ed 42050000 		.4byte	.LVL397
 11326 24f1 60050000 		.4byte	.LVL399
 11327 24f5 0200     		.2byte	0x2
 11328 24f7 74       		.byte	0x74
 11329 24f8 7C       		.sleb128 -4
 11330 24f9 60050000 		.4byte	.LVL399
 11331 24fd A2050000 		.4byte	.LVL405
 11332 2501 0200     		.2byte	0x2
 11333 2503 72       		.byte	0x72
 11334 2504 00       		.sleb128 0
 11335 2505 A2050000 		.4byte	.LVL405
 11336 2509 AE050000 		.4byte	.LVL407
 11337 250d 0200     		.2byte	0x2
 11338 250f 74       		.byte	0x74
ARM GAS  /tmp/ccSqa4tb.s 			page 200


 11339 2510 78       		.sleb128 -8
 11340 2511 AE050000 		.4byte	.LVL407
 11341 2515 B2050000 		.4byte	.LVL409
 11342 2519 0200     		.2byte	0x2
 11343 251b 74       		.byte	0x74
 11344 251c 7C       		.sleb128 -4
 11345 251d B2050000 		.4byte	.LVL409
 11346 2521 F8050000 		.4byte	.LVL410
 11347 2525 0200     		.2byte	0x2
 11348 2527 74       		.byte	0x74
 11349 2528 78       		.sleb128 -8
 11350 2529 F8050000 		.4byte	.LVL410
 11351 252d FC050000 		.4byte	.LVL412
 11352 2531 0200     		.2byte	0x2
 11353 2533 74       		.byte	0x74
 11354 2534 7C       		.sleb128 -4
 11355 2535 FC050000 		.4byte	.LVL412
 11356 2539 36060000 		.4byte	.LVL419
 11357 253d 0200     		.2byte	0x2
 11358 253f 74       		.byte	0x74
 11359 2540 78       		.sleb128 -8
 11360 2541 36060000 		.4byte	.LVL419
 11361 2545 98080000 		.4byte	.LVL492
 11362 2549 0100     		.2byte	0x1
 11363 254b 51       		.byte	0x51
 11364 254c EA080000 		.4byte	.LVL494
 11365 2550 F0080000 		.4byte	.LVL497
 11366 2554 0100     		.2byte	0x1
 11367 2556 51       		.byte	0x51
 11368 2557 44090000 		.4byte	.LVL499
 11369 255b 46090000 		.4byte	.LVL500
 11370 255f 0100     		.2byte	0x1
 11371 2561 51       		.byte	0x51
 11372 2562 46090000 		.4byte	.LVL500
 11373 2566 56090000 		.4byte	.LVL502
 11374 256a 0200     		.2byte	0x2
 11375 256c 72       		.byte	0x72
 11376 256d 00       		.sleb128 0
 11377 256e 80090000 		.4byte	.LVL506
 11378 2572 BA090000 		.4byte	.LVL512
 11379 2576 0100     		.2byte	0x1
 11380 2578 51       		.byte	0x51
 11381 2579 BA090000 		.4byte	.LVL512
 11382 257d C2090000 		.4byte	.LVL515
 11383 2581 0200     		.2byte	0x2
 11384 2583 72       		.byte	0x72
 11385 2584 00       		.sleb128 0
 11386 2585 C2090000 		.4byte	.LVL515
 11387 2589 C4090000 		.4byte	.LVL516
 11388 258d 0200     		.2byte	0x2
 11389 258f 74       		.byte	0x74
 11390 2590 7C       		.sleb128 -4
 11391 2591 C4090000 		.4byte	.LVL516
 11392 2595 CE090000 		.4byte	.LVL517
 11393 2599 0200     		.2byte	0x2
 11394 259b 74       		.byte	0x74
 11395 259c 78       		.sleb128 -8
ARM GAS  /tmp/ccSqa4tb.s 			page 201


 11396 259d CE090000 		.4byte	.LVL517
 11397 25a1 D4090000 		.4byte	.LVL518
 11398 25a5 0200     		.2byte	0x2
 11399 25a7 74       		.byte	0x74
 11400 25a8 7C       		.sleb128 -4
 11401 25a9 D4090000 		.4byte	.LVL518
 11402 25ad F5090000 		.4byte	.LVL520-1
 11403 25b1 0200     		.2byte	0x2
 11404 25b3 74       		.byte	0x74
 11405 25b4 78       		.sleb128 -8
 11406 25b5 F8090000 		.4byte	.LVL521
 11407 25b9 000A0000 		.4byte	.LVL523
 11408 25bd 0100     		.2byte	0x1
 11409 25bf 51       		.byte	0x51
 11410 25c0 000A0000 		.4byte	.LVL523
 11411 25c4 080A0000 		.4byte	.LVL526
 11412 25c8 0200     		.2byte	0x2
 11413 25ca 74       		.byte	0x74
 11414 25cb 7C       		.sleb128 -4
 11415 25cc 280A0000 		.4byte	.LVL530
 11416 25d0 690A0000 		.4byte	.LVL536-1
 11417 25d4 0100     		.2byte	0x1
 11418 25d6 51       		.byte	0x51
 11419 25d7 880A0000 		.4byte	.LVL538
 11420 25db A20A0000 		.4byte	.LVL541
 11421 25df 0100     		.2byte	0x1
 11422 25e1 51       		.byte	0x51
 11423 25e2 A20A0000 		.4byte	.LVL541
 11424 25e6 AD0A0000 		.4byte	.LVL542-1
 11425 25ea 0200     		.2byte	0x2
 11426 25ec 72       		.byte	0x72
 11427 25ed 00       		.sleb128 0
 11428 25ee BA0A0000 		.4byte	.LVL544
 11429 25f2 CC0A0000 		.4byte	.LVL548
 11430 25f6 0100     		.2byte	0x1
 11431 25f8 51       		.byte	0x51
 11432 25f9 CC0A0000 		.4byte	.LVL548
 11433 25fd DB0A0000 		.4byte	.LVL552-1
 11434 2601 0200     		.2byte	0x2
 11435 2603 72       		.byte	0x72
 11436 2604 00       		.sleb128 0
 11437 2605 FE0A0000 		.4byte	.LVL557
 11438 2609 040B0000 		.4byte	.LVL559
 11439 260d 0100     		.2byte	0x1
 11440 260f 51       		.byte	0x51
 11441 2610 040B0000 		.4byte	.LVL559
 11442 2614 2F0B0000 		.4byte	.LVL566-1
 11443 2618 0200     		.2byte	0x2
 11444 261a 74       		.byte	0x74
 11445 261b 7C       		.sleb128 -4
 11446 261c 460B0000 		.4byte	.LVL571
 11447 2620 3A0D0000 		.4byte	.LVL645
 11448 2624 0100     		.2byte	0x1
 11449 2626 51       		.byte	0x51
 11450 2627 3A0D0000 		.4byte	.LVL645
 11451 262b 400D0000 		.4byte	.LVL646
 11452 262f 0200     		.2byte	0x2
ARM GAS  /tmp/ccSqa4tb.s 			page 202


 11453 2631 74       		.byte	0x74
 11454 2632 7C       		.sleb128 -4
 11455 2633 400D0000 		.4byte	.LVL646
 11456 2637 460D0000 		.4byte	.LVL647
 11457 263b 0200     		.2byte	0x2
 11458 263d 74       		.byte	0x74
 11459 263e 78       		.sleb128 -8
 11460 263f 460D0000 		.4byte	.LVL647
 11461 2643 4C0D0000 		.4byte	.LVL649
 11462 2647 0200     		.2byte	0x2
 11463 2649 74       		.byte	0x74
 11464 264a 7C       		.sleb128 -4
 11465 264b 4C0D0000 		.4byte	.LVL649
 11466 264f 5A0D0000 		.4byte	.LVL650
 11467 2653 0200     		.2byte	0x2
 11468 2655 74       		.byte	0x74
 11469 2656 78       		.sleb128 -8
 11470 2657 5A0D0000 		.4byte	.LVL650
 11471 265b 5E0D0000 		.4byte	.LVL652
 11472 265f 0200     		.2byte	0x2
 11473 2661 74       		.byte	0x74
 11474 2662 7C       		.sleb128 -4
 11475 2663 5E0D0000 		.4byte	.LVL652
 11476 2667 6C0D0000 		.4byte	.LVL653
 11477 266b 0200     		.2byte	0x2
 11478 266d 74       		.byte	0x74
 11479 266e 78       		.sleb128 -8
 11480 266f 6C0D0000 		.4byte	.LVL653
 11481 2673 700D0000 		.4byte	.LVL655
 11482 2677 0200     		.2byte	0x2
 11483 2679 74       		.byte	0x74
 11484 267a 7C       		.sleb128 -4
 11485 267b 700D0000 		.4byte	.LVL655
 11486 267f 7A0D0000 		.4byte	.LVL656
 11487 2683 0200     		.2byte	0x2
 11488 2685 74       		.byte	0x74
 11489 2686 78       		.sleb128 -8
 11490 2687 7A0D0000 		.4byte	.LVL656
 11491 268b 7E0D0000 		.4byte	.LVL658
 11492 268f 0200     		.2byte	0x2
 11493 2691 74       		.byte	0x74
 11494 2692 7C       		.sleb128 -4
 11495 2693 7E0D0000 		.4byte	.LVL658
 11496 2697 8A0D0000 		.4byte	.LVL659
 11497 269b 0200     		.2byte	0x2
 11498 269d 74       		.byte	0x74
 11499 269e 78       		.sleb128 -8
 11500 269f 8A0D0000 		.4byte	.LVL659
 11501 26a3 8E0D0000 		.4byte	.LVL661
 11502 26a7 0200     		.2byte	0x2
 11503 26a9 74       		.byte	0x74
 11504 26aa 7C       		.sleb128 -4
 11505 26ab 8E0D0000 		.4byte	.LVL661
 11506 26af 980D0000 		.4byte	.LVL662
 11507 26b3 0200     		.2byte	0x2
 11508 26b5 74       		.byte	0x74
 11509 26b6 78       		.sleb128 -8
ARM GAS  /tmp/ccSqa4tb.s 			page 203


 11510 26b7 980D0000 		.4byte	.LVL662
 11511 26bb 9C0D0000 		.4byte	.LVL664
 11512 26bf 0200     		.2byte	0x2
 11513 26c1 74       		.byte	0x74
 11514 26c2 7C       		.sleb128 -4
 11515 26c3 9C0D0000 		.4byte	.LVL664
 11516 26c7 A80D0000 		.4byte	.LVL665
 11517 26cb 0200     		.2byte	0x2
 11518 26cd 74       		.byte	0x74
 11519 26ce 78       		.sleb128 -8
 11520 26cf A80D0000 		.4byte	.LVL665
 11521 26d3 BC0D0000 		.4byte	.LVL668
 11522 26d7 0200     		.2byte	0x2
 11523 26d9 74       		.byte	0x74
 11524 26da 7C       		.sleb128 -4
 11525 26db BC0D0000 		.4byte	.LVL668
 11526 26df DF0D0000 		.4byte	.LVL669-1
 11527 26e3 0200     		.2byte	0x2
 11528 26e5 74       		.byte	0x74
 11529 26e6 74       		.sleb128 -12
 11530 26e7 1C0E0000 		.4byte	.LVL674
 11531 26eb 1E0E0000 		.4byte	.LVL675
 11532 26ef 0100     		.2byte	0x1
 11533 26f1 51       		.byte	0x51
 11534 26f2 1E0E0000 		.4byte	.LVL675
 11535 26f6 280E0000 		.4byte	.LVL677
 11536 26fa 0200     		.2byte	0x2
 11537 26fc 72       		.byte	0x72
 11538 26fd 00       		.sleb128 0
 11539 26fe 280E0000 		.4byte	.LVL677
 11540 2702 400E0000 		.4byte	.LVL680
 11541 2706 0200     		.2byte	0x2
 11542 2708 74       		.byte	0x74
 11543 2709 78       		.sleb128 -8
 11544 270a 440E0000 		.4byte	.LVL681
 11545 270e 460E0000 		.4byte	.LVL682
 11546 2712 0100     		.2byte	0x1
 11547 2714 51       		.byte	0x51
 11548 2715 460E0000 		.4byte	.LVL682
 11549 2719 500E0000 		.4byte	.LVL684
 11550 271d 0200     		.2byte	0x2
 11551 271f 72       		.byte	0x72
 11552 2720 00       		.sleb128 0
 11553 2721 500E0000 		.4byte	.LVL684
 11554 2725 6A0E0000 		.4byte	.LVL687
 11555 2729 0200     		.2byte	0x2
 11556 272b 74       		.byte	0x74
 11557 272c 78       		.sleb128 -8
 11558 272d 6E0E0000 		.4byte	.LVL688
 11559 2731 700E0000 		.4byte	.LVL689
 11560 2735 0100     		.2byte	0x1
 11561 2737 51       		.byte	0x51
 11562 2738 700E0000 		.4byte	.LVL689
 11563 273c 7A0E0000 		.4byte	.LVL691
 11564 2740 0200     		.2byte	0x2
 11565 2742 72       		.byte	0x72
 11566 2743 00       		.sleb128 0
ARM GAS  /tmp/ccSqa4tb.s 			page 204


 11567 2744 7A0E0000 		.4byte	.LVL691
 11568 2748 9C0E0000 		.4byte	.LVL694
 11569 274c 0200     		.2byte	0x2
 11570 274e 74       		.byte	0x74
 11571 274f 78       		.sleb128 -8
 11572 2750 A00E0000 		.4byte	.LVL695
 11573 2754 A20E0000 		.4byte	.LVL696
 11574 2758 0100     		.2byte	0x1
 11575 275a 51       		.byte	0x51
 11576 275b A20E0000 		.4byte	.LVL696
 11577 275f AC0E0000 		.4byte	.LVL698
 11578 2763 0200     		.2byte	0x2
 11579 2765 72       		.byte	0x72
 11580 2766 00       		.sleb128 0
 11581 2767 AC0E0000 		.4byte	.LVL698
 11582 276b C60E0000 		.4byte	.LVL701
 11583 276f 0200     		.2byte	0x2
 11584 2771 74       		.byte	0x74
 11585 2772 78       		.sleb128 -8
 11586 2773 CA0E0000 		.4byte	.LVL702
 11587 2777 CC0E0000 		.4byte	.LVL703
 11588 277b 0100     		.2byte	0x1
 11589 277d 51       		.byte	0x51
 11590 277e CC0E0000 		.4byte	.LVL703
 11591 2782 D60E0000 		.4byte	.LVL705
 11592 2786 0200     		.2byte	0x2
 11593 2788 72       		.byte	0x72
 11594 2789 00       		.sleb128 0
 11595 278a D60E0000 		.4byte	.LVL705
 11596 278e F00E0000 		.4byte	.LVL708
 11597 2792 0200     		.2byte	0x2
 11598 2794 74       		.byte	0x74
 11599 2795 78       		.sleb128 -8
 11600 2796 F40E0000 		.4byte	.LVL709
 11601 279a F60E0000 		.4byte	.LVL710
 11602 279e 0100     		.2byte	0x1
 11603 27a0 51       		.byte	0x51
 11604 27a1 F60E0000 		.4byte	.LVL710
 11605 27a5 000F0000 		.4byte	.LVL712
 11606 27a9 0200     		.2byte	0x2
 11607 27ab 72       		.byte	0x72
 11608 27ac 00       		.sleb128 0
 11609 27ad 000F0000 		.4byte	.LVL712
 11610 27b1 240F0000 		.4byte	.LVL715
 11611 27b5 0200     		.2byte	0x2
 11612 27b7 74       		.byte	0x74
 11613 27b8 78       		.sleb128 -8
 11614 27b9 280F0000 		.4byte	.LVL716
 11615 27bd 2A0F0000 		.4byte	.LVL717
 11616 27c1 0100     		.2byte	0x1
 11617 27c3 51       		.byte	0x51
 11618 27c4 2A0F0000 		.4byte	.LVL717
 11619 27c8 340F0000 		.4byte	.LVL719
 11620 27cc 0200     		.2byte	0x2
 11621 27ce 72       		.byte	0x72
 11622 27cf 00       		.sleb128 0
 11623 27d0 340F0000 		.4byte	.LVL719
ARM GAS  /tmp/ccSqa4tb.s 			page 205


 11624 27d4 500F0000 		.4byte	.LVL722
 11625 27d8 0200     		.2byte	0x2
 11626 27da 74       		.byte	0x74
 11627 27db 78       		.sleb128 -8
 11628 27dc 540F0000 		.4byte	.LVL723
 11629 27e0 980F0000 		.4byte	.LVL741
 11630 27e4 0100     		.2byte	0x1
 11631 27e6 51       		.byte	0x51
 11632 27e7 980F0000 		.4byte	.LVL741
 11633 27eb 9A0F0000 		.4byte	.LVL742
 11634 27ef 0200     		.2byte	0x2
 11635 27f1 74       		.byte	0x74
 11636 27f2 7C       		.sleb128 -4
 11637 27f3 9A0F0000 		.4byte	.LVL742
 11638 27f7 A00F0000 		.4byte	.LVL743
 11639 27fb 0200     		.2byte	0x2
 11640 27fd 74       		.byte	0x74
 11641 27fe 74       		.sleb128 -12
 11642 27ff A00F0000 		.4byte	.LVL743
 11643 2803 52100000 		.4byte	.LVL768
 11644 2807 0200     		.2byte	0x2
 11645 2809 74       		.byte	0x74
 11646 280a 7C       		.sleb128 -4
 11647 280b 68100000 		.4byte	.LVL770
 11648 280f 34110000 		.4byte	.LVL793
 11649 2813 0200     		.2byte	0x2
 11650 2815 74       		.byte	0x74
 11651 2816 7C       		.sleb128 -4
 11652 2817 38110000 		.4byte	.LVL794
 11653 281b 3A110000 		.4byte	.LVL795
 11654 281f 0100     		.2byte	0x1
 11655 2821 51       		.byte	0x51
 11656 2822 3A110000 		.4byte	.LVL795
 11657 2826 42110000 		.4byte	.LVL796
 11658 282a 0200     		.2byte	0x2
 11659 282c 72       		.byte	0x72
 11660 282d 00       		.sleb128 0
 11661 282e 42110000 		.4byte	.LVL796
 11662 2832 5E110000 		.4byte	.LVL800
 11663 2836 0200     		.2byte	0x2
 11664 2838 74       		.byte	0x74
 11665 2839 7C       		.sleb128 -4
 11666 283a 62110000 		.4byte	.LVL801
 11667 283e 64110000 		.4byte	.LVL802
 11668 2842 0100     		.2byte	0x1
 11669 2844 51       		.byte	0x51
 11670 2845 64110000 		.4byte	.LVL802
 11671 2849 6C110000 		.4byte	.LVL803
 11672 284d 0200     		.2byte	0x2
 11673 284f 72       		.byte	0x72
 11674 2850 00       		.sleb128 0
 11675 2851 6C110000 		.4byte	.LVL803
 11676 2855 80110000 		.4byte	.LVL807
 11677 2859 0200     		.2byte	0x2
 11678 285b 74       		.byte	0x74
 11679 285c 7C       		.sleb128 -4
 11680 285d 84110000 		.4byte	.LVL808
ARM GAS  /tmp/ccSqa4tb.s 			page 206


 11681 2861 86110000 		.4byte	.LVL809
 11682 2865 0100     		.2byte	0x1
 11683 2867 51       		.byte	0x51
 11684 2868 86110000 		.4byte	.LVL809
 11685 286c 8E110000 		.4byte	.LVL810
 11686 2870 0200     		.2byte	0x2
 11687 2872 72       		.byte	0x72
 11688 2873 00       		.sleb128 0
 11689 2874 8E110000 		.4byte	.LVL810
 11690 2878 A4110000 		.4byte	.LVL814
 11691 287c 0200     		.2byte	0x2
 11692 287e 74       		.byte	0x74
 11693 287f 7C       		.sleb128 -4
 11694 2880 A8110000 		.4byte	.LVL815
 11695 2884 AA110000 		.4byte	.LVL816
 11696 2888 0100     		.2byte	0x1
 11697 288a 51       		.byte	0x51
 11698 288b AA110000 		.4byte	.LVL816
 11699 288f B2110000 		.4byte	.LVL817
 11700 2893 0200     		.2byte	0x2
 11701 2895 72       		.byte	0x72
 11702 2896 00       		.sleb128 0
 11703 2897 B2110000 		.4byte	.LVL817
 11704 289b C8110000 		.4byte	.LVL821
 11705 289f 0200     		.2byte	0x2
 11706 28a1 74       		.byte	0x74
 11707 28a2 7C       		.sleb128 -4
 11708 28a3 CC110000 		.4byte	.LVL822
 11709 28a7 CE110000 		.4byte	.LVL823
 11710 28ab 0100     		.2byte	0x1
 11711 28ad 51       		.byte	0x51
 11712 28ae CE110000 		.4byte	.LVL823
 11713 28b2 D6110000 		.4byte	.LVL824
 11714 28b6 0200     		.2byte	0x2
 11715 28b8 72       		.byte	0x72
 11716 28b9 00       		.sleb128 0
 11717 28ba D6110000 		.4byte	.LVL824
 11718 28be F4110000 		.4byte	.LVL828
 11719 28c2 0200     		.2byte	0x2
 11720 28c4 74       		.byte	0x74
 11721 28c5 7C       		.sleb128 -4
 11722 28c6 F8110000 		.4byte	.LVL829
 11723 28ca FA110000 		.4byte	.LVL830
 11724 28ce 0100     		.2byte	0x1
 11725 28d0 51       		.byte	0x51
 11726 28d1 FA110000 		.4byte	.LVL830
 11727 28d5 02120000 		.4byte	.LVL831
 11728 28d9 0200     		.2byte	0x2
 11729 28db 72       		.byte	0x72
 11730 28dc 00       		.sleb128 0
 11731 28dd 02120000 		.4byte	.LVL831
 11732 28e1 1A120000 		.4byte	.LVL835
 11733 28e5 0200     		.2byte	0x2
 11734 28e7 74       		.byte	0x74
 11735 28e8 7C       		.sleb128 -4
 11736 28e9 1E120000 		.4byte	.LVL836
 11737 28ed 22120000 		.4byte	.LVL837
ARM GAS  /tmp/ccSqa4tb.s 			page 207


 11738 28f1 0100     		.2byte	0x1
 11739 28f3 51       		.byte	0x51
 11740 28f4 22120000 		.4byte	.LVL837
 11741 28f8 60120000 		.4byte	.LVL843
 11742 28fc 0200     		.2byte	0x2
 11743 28fe 72       		.byte	0x72
 11744 28ff 00       		.sleb128 0
 11745 2900 60120000 		.4byte	.LVL843
 11746 2904 2C130000 		.4byte	.LVL867
 11747 2908 0200     		.2byte	0x2
 11748 290a 74       		.byte	0x74
 11749 290b 7C       		.sleb128 -4
 11750 290c 2C130000 		.4byte	.LVL867
 11751 2910 5E130000 		.4byte	.LVL872
 11752 2914 0100     		.2byte	0x1
 11753 2916 51       		.byte	0x51
 11754 2917 84130000 		.4byte	.LVL880
 11755 291b 8E130000 		.4byte	.LFE34
 11756 291f 0200     		.2byte	0x2
 11757 2921 74       		.byte	0x74
 11758 2922 7C       		.sleb128 -4
 11759 2923 00000000 		.4byte	0x0
 11760 2927 00000000 		.4byte	0x0
 11761              	.LLST153:
 11762 292b 88010000 		.4byte	.LVL341
 11763 292f 8A010000 		.4byte	.LVL342
 11764 2933 0100     		.2byte	0x1
 11765 2935 57       		.byte	0x57
 11766 2936 8C010000 		.4byte	.LVL343
 11767 293a 8E010000 		.4byte	.LVL344
 11768 293e 0100     		.2byte	0x1
 11769 2940 57       		.byte	0x57
 11770 2941 62040000 		.4byte	.LVL347
 11771 2945 6A040000 		.4byte	.LVL349
 11772 2949 0200     		.2byte	0x2
 11773 294b 72       		.byte	0x72
 11774 294c 04       		.sleb128 4
 11775 294d 6C040000 		.4byte	.LVL350
 11776 2951 72040000 		.4byte	.LVL353
 11777 2955 0200     		.2byte	0x2
 11778 2957 72       		.byte	0x72
 11779 2958 04       		.sleb128 4
 11780 2959 74040000 		.4byte	.LVL354
 11781 295d 78040000 		.4byte	.LVL355
 11782 2961 0200     		.2byte	0x2
 11783 2963 72       		.byte	0x72
 11784 2964 04       		.sleb128 4
 11785 2965 78040000 		.4byte	.LVL355
 11786 2969 7A040000 		.4byte	.LVL356
 11787 296d 0100     		.2byte	0x1
 11788 296f 53       		.byte	0x53
 11789 2970 7A040000 		.4byte	.LVL356
 11790 2974 7C040000 		.4byte	.LVL357
 11791 2978 0200     		.2byte	0x2
 11792 297a 74       		.byte	0x74
 11793 297b 00       		.sleb128 0
 11794 297c 7C040000 		.4byte	.LVL357
ARM GAS  /tmp/ccSqa4tb.s 			page 208


 11795 2980 80040000 		.4byte	.LVL358
 11796 2984 0200     		.2byte	0x2
 11797 2986 74       		.byte	0x74
 11798 2987 7C       		.sleb128 -4
 11799 2988 82040000 		.4byte	.LVL359
 11800 298c 88040000 		.4byte	.LVL360
 11801 2990 0200     		.2byte	0x2
 11802 2992 74       		.byte	0x74
 11803 2993 00       		.sleb128 0
 11804 2994 88040000 		.4byte	.LVL360
 11805 2998 8C040000 		.4byte	.LVL362
 11806 299c 0200     		.2byte	0x2
 11807 299e 74       		.byte	0x74
 11808 299f 7C       		.sleb128 -4
 11809 29a0 8E040000 		.4byte	.LVL363
 11810 29a4 90040000 		.4byte	.LVL364
 11811 29a8 0200     		.2byte	0x2
 11812 29aa 74       		.byte	0x74
 11813 29ab 00       		.sleb128 0
 11814 29ac 90040000 		.4byte	.LVL364
 11815 29b0 92040000 		.4byte	.LVL365
 11816 29b4 0200     		.2byte	0x2
 11817 29b6 74       		.byte	0x74
 11818 29b7 7C       		.sleb128 -4
 11819 29b8 92040000 		.4byte	.LVL365
 11820 29bc 94040000 		.4byte	.LVL366
 11821 29c0 0500     		.2byte	0x5
 11822 29c2 76       		.byte	0x76
 11823 29c3 00       		.sleb128 0
 11824 29c4 73       		.byte	0x73
 11825 29c5 00       		.sleb128 0
 11826 29c6 22       		.byte	0x22
 11827 29c7 94040000 		.4byte	.LVL366
 11828 29cb 96040000 		.4byte	.LVL367
 11829 29cf 0100     		.2byte	0x1
 11830 29d1 53       		.byte	0x53
 11831 29d2 9C040000 		.4byte	.LVL369
 11832 29d6 9E040000 		.4byte	.LVL370
 11833 29da 0200     		.2byte	0x2
 11834 29dc 74       		.byte	0x74
 11835 29dd 00       		.sleb128 0
 11836 29de 9E040000 		.4byte	.LVL370
 11837 29e2 A0040000 		.4byte	.LVL371
 11838 29e6 0200     		.2byte	0x2
 11839 29e8 74       		.byte	0x74
 11840 29e9 7C       		.sleb128 -4
 11841 29ea A0040000 		.4byte	.LVL371
 11842 29ee A2040000 		.4byte	.LVL372
 11843 29f2 0500     		.2byte	0x5
 11844 29f4 76       		.byte	0x76
 11845 29f5 00       		.sleb128 0
 11846 29f6 73       		.byte	0x73
 11847 29f7 00       		.sleb128 0
 11848 29f8 22       		.byte	0x22
 11849 29f9 A2040000 		.4byte	.LVL372
 11850 29fd A6040000 		.4byte	.LVL374
 11851 2a01 0100     		.2byte	0x1
ARM GAS  /tmp/ccSqa4tb.s 			page 209


 11852 2a03 53       		.byte	0x53
 11853 2a04 C4040000 		.4byte	.LVL375
 11854 2a08 C6040000 		.4byte	.LVL376
 11855 2a0c 0200     		.2byte	0x2
 11856 2a0e 74       		.byte	0x74
 11857 2a0f 00       		.sleb128 0
 11858 2a10 C6040000 		.4byte	.LVL376
 11859 2a14 FC040000 		.4byte	.LVL378
 11860 2a18 0100     		.2byte	0x1
 11861 2a1a 51       		.byte	0x51
 11862 2a1b 1E050000 		.4byte	.LVL387
 11863 2a1f 20050000 		.4byte	.LVL388
 11864 2a23 0200     		.2byte	0x2
 11865 2a25 72       		.byte	0x72
 11866 2a26 04       		.sleb128 4
 11867 2a27 20050000 		.4byte	.LVL388
 11868 2a2b 22050000 		.4byte	.LVL389
 11869 2a2f 0200     		.2byte	0x2
 11870 2a31 74       		.byte	0x74
 11871 2a32 00       		.sleb128 0
 11872 2a33 22050000 		.4byte	.LVL389
 11873 2a37 26050000 		.4byte	.LVL390
 11874 2a3b 0200     		.2byte	0x2
 11875 2a3d 74       		.byte	0x74
 11876 2a3e 7C       		.sleb128 -4
 11877 2a3f 28050000 		.4byte	.LVL391
 11878 2a43 30050000 		.4byte	.LVL393
 11879 2a47 0200     		.2byte	0x2
 11880 2a49 74       		.byte	0x74
 11881 2a4a 00       		.sleb128 0
 11882 2a4b 30050000 		.4byte	.LVL393
 11883 2a4f 34050000 		.4byte	.LVL394
 11884 2a53 0200     		.2byte	0x2
 11885 2a55 74       		.byte	0x74
 11886 2a56 7C       		.sleb128 -4
 11887 2a57 36050000 		.4byte	.LVL395
 11888 2a5b 3E050000 		.4byte	.LVL396
 11889 2a5f 0200     		.2byte	0x2
 11890 2a61 74       		.byte	0x74
 11891 2a62 00       		.sleb128 0
 11892 2a63 5E050000 		.4byte	.LVL398
 11893 2a67 60050000 		.4byte	.LVL399
 11894 2a6b 0200     		.2byte	0x2
 11895 2a6d 74       		.byte	0x74
 11896 2a6e 00       		.sleb128 0
 11897 2a6f 60050000 		.4byte	.LVL399
 11898 2a73 8C050000 		.4byte	.LVL400
 11899 2a77 0100     		.2byte	0x1
 11900 2a79 51       		.byte	0x51
 11901 2a7a 90050000 		.4byte	.LVL401
 11902 2a7e 96050000 		.4byte	.LVL402
 11903 2a82 0100     		.2byte	0x1
 11904 2a84 51       		.byte	0x51
 11905 2a85 98050000 		.4byte	.LVL403
 11906 2a89 A2050000 		.4byte	.LVL405
 11907 2a8d 0200     		.2byte	0x2
 11908 2a8f 72       		.byte	0x72
ARM GAS  /tmp/ccSqa4tb.s 			page 210


 11909 2a90 04       		.sleb128 4
 11910 2a91 A2050000 		.4byte	.LVL405
 11911 2a95 A6050000 		.4byte	.LVL406
 11912 2a99 0100     		.2byte	0x1
 11913 2a9b 53       		.byte	0x53
 11914 2a9c B0050000 		.4byte	.LVL408
 11915 2aa0 B2050000 		.4byte	.LVL409
 11916 2aa4 0200     		.2byte	0x2
 11917 2aa6 74       		.byte	0x74
 11918 2aa7 00       		.sleb128 0
 11919 2aa8 B2050000 		.4byte	.LVL409
 11920 2aac F8050000 		.4byte	.LVL410
 11921 2ab0 0200     		.2byte	0x2
 11922 2ab2 74       		.byte	0x74
 11923 2ab3 7C       		.sleb128 -4
 11924 2ab4 FA050000 		.4byte	.LVL411
 11925 2ab8 FC050000 		.4byte	.LVL412
 11926 2abc 0200     		.2byte	0x2
 11927 2abe 74       		.byte	0x74
 11928 2abf 00       		.sleb128 0
 11929 2ac0 FC050000 		.4byte	.LVL412
 11930 2ac4 36060000 		.4byte	.LVL419
 11931 2ac8 0200     		.2byte	0x2
 11932 2aca 74       		.byte	0x74
 11933 2acb 7C       		.sleb128 -4
 11934 2acc 36060000 		.4byte	.LVL419
 11935 2ad0 38060000 		.4byte	.LVL420
 11936 2ad4 0300     		.2byte	0x3
 11937 2ad6 73       		.byte	0x73
 11938 2ad7 02       		.sleb128 2
 11939 2ad8 9F       		.byte	0x9f
 11940 2ad9 3E060000 		.4byte	.LVL422
 11941 2add 44060000 		.4byte	.LVL424
 11942 2ae1 0200     		.2byte	0x2
 11943 2ae3 91       		.byte	0x91
 11944 2ae4 54       		.sleb128 -44
 11945 2ae5 80060000 		.4byte	.LVL432
 11946 2ae9 84060000 		.4byte	.LVL433
 11947 2aed 0200     		.2byte	0x2
 11948 2aef 72       		.byte	0x72
 11949 2af0 04       		.sleb128 4
 11950 2af1 84060000 		.4byte	.LVL433
 11951 2af5 88060000 		.4byte	.LVL434
 11952 2af9 0200     		.2byte	0x2
 11953 2afb 74       		.byte	0x74
 11954 2afc 00       		.sleb128 0
 11955 2afd 88060000 		.4byte	.LVL434
 11956 2b01 8C060000 		.4byte	.LVL435
 11957 2b05 0200     		.2byte	0x2
 11958 2b07 74       		.byte	0x74
 11959 2b08 7C       		.sleb128 -4
 11960 2b09 8C060000 		.4byte	.LVL435
 11961 2b0d A8060000 		.4byte	.LVL437
 11962 2b11 0200     		.2byte	0x2
 11963 2b13 74       		.byte	0x74
 11964 2b14 00       		.sleb128 0
 11965 2b15 AC060000 		.4byte	.LVL439
ARM GAS  /tmp/ccSqa4tb.s 			page 211


 11966 2b19 B4060000 		.4byte	.LVL441
 11967 2b1d 0200     		.2byte	0x2
 11968 2b1f 72       		.byte	0x72
 11969 2b20 04       		.sleb128 4
 11970 2b21 B4060000 		.4byte	.LVL441
 11971 2b25 C8060000 		.4byte	.LVL442
 11972 2b29 0200     		.2byte	0x2
 11973 2b2b 74       		.byte	0x74
 11974 2b2c 00       		.sleb128 0
 11975 2b2d EE060000 		.4byte	.LVL450
 11976 2b31 00070000 		.4byte	.LVL452
 11977 2b35 0500     		.2byte	0x5
 11978 2b37 76       		.byte	0x76
 11979 2b38 00       		.sleb128 0
 11980 2b39 78       		.byte	0x78
 11981 2b3a 00       		.sleb128 0
 11982 2b3b 22       		.byte	0x22
 11983 2b3c 00070000 		.4byte	.LVL452
 11984 2b40 04070000 		.4byte	.LVL454
 11985 2b44 0100     		.2byte	0x1
 11986 2b46 53       		.byte	0x53
 11987 2b47 10070000 		.4byte	.LVL457
 11988 2b4b 2E070000 		.4byte	.LVL460
 11989 2b4f 0500     		.2byte	0x5
 11990 2b51 76       		.byte	0x76
 11991 2b52 00       		.sleb128 0
 11992 2b53 78       		.byte	0x78
 11993 2b54 00       		.sleb128 0
 11994 2b55 22       		.byte	0x22
 11995 2b56 2E070000 		.4byte	.LVL460
 11996 2b5a 30070000 		.4byte	.LVL461
 11997 2b5e 0800     		.2byte	0x8
 11998 2b60 76       		.byte	0x76
 11999 2b61 00       		.sleb128 0
 12000 2b62 72       		.byte	0x72
 12001 2b63 00       		.sleb128 0
 12002 2b64 22       		.byte	0x22
 12003 2b65 09       		.byte	0x9
 12004 2b66 F8       		.byte	0xf8
 12005 2b67 22       		.byte	0x22
 12006 2b68 8A070000 		.4byte	.LVL473
 12007 2b6c 8C070000 		.4byte	.LVL474
 12008 2b70 0200     		.2byte	0x2
 12009 2b72 72       		.byte	0x72
 12010 2b73 04       		.sleb128 4
 12011 2b74 8C070000 		.4byte	.LVL474
 12012 2b78 8E070000 		.4byte	.LVL475
 12013 2b7c 0200     		.2byte	0x2
 12014 2b7e 74       		.byte	0x74
 12015 2b7f 00       		.sleb128 0
 12016 2b80 8E070000 		.4byte	.LVL475
 12017 2b84 96070000 		.4byte	.LVL476
 12018 2b88 0200     		.2byte	0x2
 12019 2b8a 74       		.byte	0x74
 12020 2b8b 7C       		.sleb128 -4
 12021 2b8c 98070000 		.4byte	.LVL477
 12022 2b90 9A070000 		.4byte	.LVL478
ARM GAS  /tmp/ccSqa4tb.s 			page 212


 12023 2b94 0200     		.2byte	0x2
 12024 2b96 74       		.byte	0x74
 12025 2b97 00       		.sleb128 0
 12026 2b98 9A070000 		.4byte	.LVL478
 12027 2b9c 9E070000 		.4byte	.LVL480
 12028 2ba0 0200     		.2byte	0x2
 12029 2ba2 74       		.byte	0x74
 12030 2ba3 7C       		.sleb128 -4
 12031 2ba4 AE070000 		.4byte	.LVL481
 12032 2ba8 CE070000 		.4byte	.LVL487
 12033 2bac 0200     		.2byte	0x2
 12034 2bae 91       		.byte	0x91
 12035 2baf 54       		.sleb128 -44
 12036 2bb0 94080000 		.4byte	.LVL490
 12037 2bb4 96080000 		.4byte	.LVL491
 12038 2bb8 0200     		.2byte	0x2
 12039 2bba 74       		.byte	0x74
 12040 2bbb 00       		.sleb128 0
 12041 2bbc 96080000 		.4byte	.LVL491
 12042 2bc0 E7080000 		.4byte	.LVL493-1
 12043 2bc4 0100     		.2byte	0x1
 12044 2bc6 52       		.byte	0x52
 12045 2bc7 EC080000 		.4byte	.LVL495
 12046 2bcb 3F090000 		.4byte	.LVL498-1
 12047 2bcf 0100     		.2byte	0x1
 12048 2bd1 52       		.byte	0x52
 12049 2bd2 46090000 		.4byte	.LVL500
 12050 2bd6 48090000 		.4byte	.LVL501
 12051 2bda 0200     		.2byte	0x2
 12052 2bdc 72       		.byte	0x72
 12053 2bdd 04       		.sleb128 4
 12054 2bde 48090000 		.4byte	.LVL501
 12055 2be2 76090000 		.4byte	.LVL504
 12056 2be6 0100     		.2byte	0x1
 12057 2be8 51       		.byte	0x51
 12058 2be9 76090000 		.4byte	.LVL504
 12059 2bed 7A090000 		.4byte	.LVL505
 12060 2bf1 0300     		.2byte	0x3
 12061 2bf3 71       		.byte	0x71
 12062 2bf4 04       		.sleb128 4
 12063 2bf5 9F       		.byte	0x9f
 12064 2bf6 7A090000 		.4byte	.LVL505
 12065 2bfa 80090000 		.4byte	.LVL506
 12066 2bfe 0100     		.2byte	0x1
 12067 2c00 51       		.byte	0x51
 12068 2c01 94090000 		.4byte	.LVL509
 12069 2c05 BE090000 		.4byte	.LVL513
 12070 2c09 0100     		.2byte	0x1
 12071 2c0b 50       		.byte	0x50
 12072 2c0c C0090000 		.4byte	.LVL514
 12073 2c10 C2090000 		.4byte	.LVL515
 12074 2c14 0200     		.2byte	0x2
 12075 2c16 72       		.byte	0x72
 12076 2c17 04       		.sleb128 4
 12077 2c18 C2090000 		.4byte	.LVL515
 12078 2c1c CE090000 		.4byte	.LVL517
 12079 2c20 0100     		.2byte	0x1
ARM GAS  /tmp/ccSqa4tb.s 			page 213


 12080 2c22 53       		.byte	0x53
 12081 2c23 D8090000 		.4byte	.LVL519
 12082 2c27 F5090000 		.4byte	.LVL520-1
 12083 2c2b 0200     		.2byte	0x2
 12084 2c2d 74       		.byte	0x74
 12085 2c2e 7C       		.sleb128 -4
 12086 2c2f 2C0A0000 		.4byte	.LVL531
 12087 2c33 380A0000 		.4byte	.LVL532
 12088 2c37 0500     		.2byte	0x5
 12089 2c39 76       		.byte	0x76
 12090 2c3a 00       		.sleb128 0
 12091 2c3b 78       		.byte	0x78
 12092 2c3c 00       		.sleb128 0
 12093 2c3d 22       		.byte	0x22
 12094 2c3e 3C0A0000 		.4byte	.LVL533
 12095 2c42 460A0000 		.4byte	.LVL535
 12096 2c46 0500     		.2byte	0x5
 12097 2c48 76       		.byte	0x76
 12098 2c49 00       		.sleb128 0
 12099 2c4a 78       		.byte	0x78
 12100 2c4b 00       		.sleb128 0
 12101 2c4c 22       		.byte	0x22
 12102 2c4d 880A0000 		.4byte	.LVL538
 12103 2c51 920A0000 		.4byte	.LVL540
 12104 2c55 0900     		.2byte	0x9
 12105 2c57 74       		.byte	0x74
 12106 2c58 00       		.sleb128 0
 12107 2c59 79       		.byte	0x79
 12108 2c5a 04       		.sleb128 4
 12109 2c5b 06       		.byte	0x6
 12110 2c5c 1C       		.byte	0x1c
 12111 2c5d 23       		.byte	0x23
 12112 2c5e 04       		.uleb128 0x4
 12113 2c5f 9F       		.byte	0x9f
 12114 2c60 C60A0000 		.4byte	.LVL547
 12115 2c64 D00A0000 		.4byte	.LVL549
 12116 2c68 0500     		.2byte	0x5
 12117 2c6a 76       		.byte	0x76
 12118 2c6b 00       		.sleb128 0
 12119 2c6c 78       		.byte	0x78
 12120 2c6d 00       		.sleb128 0
 12121 2c6e 22       		.byte	0x22
 12122 2c6f D00A0000 		.4byte	.LVL549
 12123 2c73 D40A0000 		.4byte	.LVL550
 12124 2c77 0800     		.2byte	0x8
 12125 2c79 76       		.byte	0x76
 12126 2c7a 00       		.sleb128 0
 12127 2c7b 78       		.byte	0x78
 12128 2c7c 00       		.sleb128 0
 12129 2c7d 22       		.byte	0x22
 12130 2c7e 09       		.byte	0x9
 12131 2c7f FC       		.byte	0xfc
 12132 2c80 22       		.byte	0x22
 12133 2c81 D40A0000 		.4byte	.LVL550
 12134 2c85 DB0A0000 		.4byte	.LVL552-1
 12135 2c89 0C00     		.2byte	0xc
 12136 2c8b 76       		.byte	0x76
ARM GAS  /tmp/ccSqa4tb.s 			page 214


 12137 2c8c 00       		.sleb128 0
 12138 2c8d 78       		.byte	0x78
 12139 2c8e 00       		.sleb128 0
 12140 2c8f 22       		.byte	0x22
 12141 2c90 09       		.byte	0x9
 12142 2c91 FC       		.byte	0xfc
 12143 2c92 22       		.byte	0x22
 12144 2c93 06       		.byte	0x6
 12145 2c94 40       		.byte	0x40
 12146 2c95 25       		.byte	0x25
 12147 2c96 9F       		.byte	0x9f
 12148 2c97 DB0A0000 		.4byte	.LVL552-1
 12149 2c9b E80A0000 		.4byte	.LVL553
 12150 2c9f 0500     		.2byte	0x5
 12151 2ca1 74       		.byte	0x74
 12152 2ca2 00       		.sleb128 0
 12153 2ca3 40       		.byte	0x40
 12154 2ca4 25       		.byte	0x25
 12155 2ca5 9F       		.byte	0x9f
 12156 2ca6 4C0B0000 		.4byte	.LVL572
 12157 2caa 620B0000 		.4byte	.LVL573
 12158 2cae 0100     		.2byte	0x1
 12159 2cb0 53       		.byte	0x53
 12160 2cb1 680B0000 		.4byte	.LVL574
 12161 2cb5 720B0000 		.4byte	.LVL575
 12162 2cb9 0200     		.2byte	0x2
 12163 2cbb 74       		.byte	0x74
 12164 2cbc 00       		.sleb128 0
 12165 2cbd 720B0000 		.4byte	.LVL575
 12166 2cc1 880B0000 		.4byte	.LVL576
 12167 2cc5 0100     		.2byte	0x1
 12168 2cc7 53       		.byte	0x53
 12169 2cc8 9E0B0000 		.4byte	.LVL578
 12170 2ccc A20B0000 		.4byte	.LVL579
 12171 2cd0 0200     		.2byte	0x2
 12172 2cd2 74       		.byte	0x74
 12173 2cd3 00       		.sleb128 0
 12174 2cd4 A20B0000 		.4byte	.LVL579
 12175 2cd8 AE0B0000 		.4byte	.LVL580
 12176 2cdc 0200     		.2byte	0x2
 12177 2cde 74       		.byte	0x74
 12178 2cdf 7C       		.sleb128 -4
 12179 2ce0 B00B0000 		.4byte	.LVL581
 12180 2ce4 B60B0000 		.4byte	.LVL583
 12181 2ce8 0200     		.2byte	0x2
 12182 2cea 74       		.byte	0x74
 12183 2ceb 00       		.sleb128 0
 12184 2cec B60B0000 		.4byte	.LVL583
 12185 2cf0 BE0B0000 		.4byte	.LVL584
 12186 2cf4 0200     		.2byte	0x2
 12187 2cf6 74       		.byte	0x74
 12188 2cf7 7C       		.sleb128 -4
 12189 2cf8 C00B0000 		.4byte	.LVL585
 12190 2cfc C80B0000 		.4byte	.LVL587
 12191 2d00 0200     		.2byte	0x2
 12192 2d02 74       		.byte	0x74
 12193 2d03 00       		.sleb128 0
ARM GAS  /tmp/ccSqa4tb.s 			page 215


 12194 2d04 C80B0000 		.4byte	.LVL587
 12195 2d08 D00B0000 		.4byte	.LVL588
 12196 2d0c 0200     		.2byte	0x2
 12197 2d0e 74       		.byte	0x74
 12198 2d0f 7C       		.sleb128 -4
 12199 2d10 D20B0000 		.4byte	.LVL589
 12200 2d14 DE0B0000 		.4byte	.LVL591
 12201 2d18 0200     		.2byte	0x2
 12202 2d1a 74       		.byte	0x74
 12203 2d1b 00       		.sleb128 0
 12204 2d1c DE0B0000 		.4byte	.LVL591
 12205 2d20 E60B0000 		.4byte	.LVL592
 12206 2d24 0200     		.2byte	0x2
 12207 2d26 74       		.byte	0x74
 12208 2d27 7C       		.sleb128 -4
 12209 2d28 E80B0000 		.4byte	.LVL593
 12210 2d2c F00B0000 		.4byte	.LVL595
 12211 2d30 0200     		.2byte	0x2
 12212 2d32 74       		.byte	0x74
 12213 2d33 00       		.sleb128 0
 12214 2d34 F00B0000 		.4byte	.LVL595
 12215 2d38 F80B0000 		.4byte	.LVL596
 12216 2d3c 0200     		.2byte	0x2
 12217 2d3e 74       		.byte	0x74
 12218 2d3f 7C       		.sleb128 -4
 12219 2d40 FA0B0000 		.4byte	.LVL597
 12220 2d44 020C0000 		.4byte	.LVL599
 12221 2d48 0200     		.2byte	0x2
 12222 2d4a 74       		.byte	0x74
 12223 2d4b 00       		.sleb128 0
 12224 2d4c 020C0000 		.4byte	.LVL599
 12225 2d50 0A0C0000 		.4byte	.LVL600
 12226 2d54 0200     		.2byte	0x2
 12227 2d56 74       		.byte	0x74
 12228 2d57 7C       		.sleb128 -4
 12229 2d58 0C0C0000 		.4byte	.LVL601
 12230 2d5c 1A0C0000 		.4byte	.LVL603
 12231 2d60 0200     		.2byte	0x2
 12232 2d62 74       		.byte	0x74
 12233 2d63 00       		.sleb128 0
 12234 2d64 1A0C0000 		.4byte	.LVL603
 12235 2d68 220C0000 		.4byte	.LVL604
 12236 2d6c 0200     		.2byte	0x2
 12237 2d6e 74       		.byte	0x74
 12238 2d6f 7C       		.sleb128 -4
 12239 2d70 240C0000 		.4byte	.LVL605
 12240 2d74 300C0000 		.4byte	.LVL607
 12241 2d78 0200     		.2byte	0x2
 12242 2d7a 74       		.byte	0x74
 12243 2d7b 00       		.sleb128 0
 12244 2d7c 300C0000 		.4byte	.LVL607
 12245 2d80 380C0000 		.4byte	.LVL608
 12246 2d84 0200     		.2byte	0x2
 12247 2d86 74       		.byte	0x74
 12248 2d87 7C       		.sleb128 -4
 12249 2d88 D40C0000 		.4byte	.LVL628
 12250 2d8c F80C0000 		.4byte	.LVL634
ARM GAS  /tmp/ccSqa4tb.s 			page 216


 12251 2d90 0100     		.2byte	0x1
 12252 2d92 57       		.byte	0x57
 12253 2d93 080D0000 		.4byte	.LVL635
 12254 2d97 0C0D0000 		.4byte	.LVL636
 12255 2d9b 0200     		.2byte	0x2
 12256 2d9d 74       		.byte	0x74
 12257 2d9e 00       		.sleb128 0
 12258 2d9f 0C0D0000 		.4byte	.LVL636
 12259 2da3 140D0000 		.4byte	.LVL637
 12260 2da7 0200     		.2byte	0x2
 12261 2da9 74       		.byte	0x74
 12262 2daa 7C       		.sleb128 -4
 12263 2dab 160D0000 		.4byte	.LVL638
 12264 2daf 1A0D0000 		.4byte	.LVL639
 12265 2db3 0200     		.2byte	0x2
 12266 2db5 74       		.byte	0x74
 12267 2db6 00       		.sleb128 0
 12268 2db7 1A0D0000 		.4byte	.LVL639
 12269 2dbb 220D0000 		.4byte	.LVL640
 12270 2dbf 0200     		.2byte	0x2
 12271 2dc1 74       		.byte	0x74
 12272 2dc2 7C       		.sleb128 -4
 12273 2dc3 2C0D0000 		.4byte	.LVL641
 12274 2dc7 300D0000 		.4byte	.LVL642
 12275 2dcb 0200     		.2byte	0x2
 12276 2dcd 74       		.byte	0x74
 12277 2dce 00       		.sleb128 0
 12278 2dcf 300D0000 		.4byte	.LVL642
 12279 2dd3 360D0000 		.4byte	.LVL643
 12280 2dd7 0200     		.2byte	0x2
 12281 2dd9 74       		.byte	0x74
 12282 2dda 7C       		.sleb128 -4
 12283 2ddb 380D0000 		.4byte	.LVL644
 12284 2ddf 400D0000 		.4byte	.LVL646
 12285 2de3 0200     		.2byte	0x2
 12286 2de5 74       		.byte	0x74
 12287 2de6 00       		.sleb128 0
 12288 2de7 400D0000 		.4byte	.LVL646
 12289 2deb 460D0000 		.4byte	.LVL647
 12290 2def 0200     		.2byte	0x2
 12291 2df1 74       		.byte	0x74
 12292 2df2 7C       		.sleb128 -4
 12293 2df3 480D0000 		.4byte	.LVL648
 12294 2df7 4C0D0000 		.4byte	.LVL649
 12295 2dfb 0200     		.2byte	0x2
 12296 2dfd 74       		.byte	0x74
 12297 2dfe 00       		.sleb128 0
 12298 2dff 4C0D0000 		.4byte	.LVL649
 12299 2e03 5A0D0000 		.4byte	.LVL650
 12300 2e07 0200     		.2byte	0x2
 12301 2e09 74       		.byte	0x74
 12302 2e0a 7C       		.sleb128 -4
 12303 2e0b 5C0D0000 		.4byte	.LVL651
 12304 2e0f 5E0D0000 		.4byte	.LVL652
 12305 2e13 0200     		.2byte	0x2
 12306 2e15 74       		.byte	0x74
 12307 2e16 00       		.sleb128 0
ARM GAS  /tmp/ccSqa4tb.s 			page 217


 12308 2e17 5E0D0000 		.4byte	.LVL652
 12309 2e1b 6C0D0000 		.4byte	.LVL653
 12310 2e1f 0200     		.2byte	0x2
 12311 2e21 74       		.byte	0x74
 12312 2e22 7C       		.sleb128 -4
 12313 2e23 6E0D0000 		.4byte	.LVL654
 12314 2e27 700D0000 		.4byte	.LVL655
 12315 2e2b 0200     		.2byte	0x2
 12316 2e2d 74       		.byte	0x74
 12317 2e2e 00       		.sleb128 0
 12318 2e2f 700D0000 		.4byte	.LVL655
 12319 2e33 7A0D0000 		.4byte	.LVL656
 12320 2e37 0200     		.2byte	0x2
 12321 2e39 74       		.byte	0x74
 12322 2e3a 7C       		.sleb128 -4
 12323 2e3b 7C0D0000 		.4byte	.LVL657
 12324 2e3f 7E0D0000 		.4byte	.LVL658
 12325 2e43 0200     		.2byte	0x2
 12326 2e45 74       		.byte	0x74
 12327 2e46 00       		.sleb128 0
 12328 2e47 7E0D0000 		.4byte	.LVL658
 12329 2e4b 8A0D0000 		.4byte	.LVL659
 12330 2e4f 0200     		.2byte	0x2
 12331 2e51 74       		.byte	0x74
 12332 2e52 7C       		.sleb128 -4
 12333 2e53 8C0D0000 		.4byte	.LVL660
 12334 2e57 8E0D0000 		.4byte	.LVL661
 12335 2e5b 0200     		.2byte	0x2
 12336 2e5d 74       		.byte	0x74
 12337 2e5e 00       		.sleb128 0
 12338 2e5f 8E0D0000 		.4byte	.LVL661
 12339 2e63 980D0000 		.4byte	.LVL662
 12340 2e67 0200     		.2byte	0x2
 12341 2e69 74       		.byte	0x74
 12342 2e6a 7C       		.sleb128 -4
 12343 2e6b 9A0D0000 		.4byte	.LVL663
 12344 2e6f 9C0D0000 		.4byte	.LVL664
 12345 2e73 0200     		.2byte	0x2
 12346 2e75 74       		.byte	0x74
 12347 2e76 00       		.sleb128 0
 12348 2e77 9C0D0000 		.4byte	.LVL664
 12349 2e7b A80D0000 		.4byte	.LVL665
 12350 2e7f 0200     		.2byte	0x2
 12351 2e81 74       		.byte	0x74
 12352 2e82 7C       		.sleb128 -4
 12353 2e83 B20D0000 		.4byte	.LVL667
 12354 2e87 BC0D0000 		.4byte	.LVL668
 12355 2e8b 0200     		.2byte	0x2
 12356 2e8d 74       		.byte	0x74
 12357 2e8e 00       		.sleb128 0
 12358 2e8f BC0D0000 		.4byte	.LVL668
 12359 2e93 DF0D0000 		.4byte	.LVL669-1
 12360 2e97 0200     		.2byte	0x2
 12361 2e99 74       		.byte	0x74
 12362 2e9a 78       		.sleb128 -8
 12363 2e9b 280E0000 		.4byte	.LVL677
 12364 2e9f 2E0E0000 		.4byte	.LVL678
ARM GAS  /tmp/ccSqa4tb.s 			page 218


 12365 2ea3 0200     		.2byte	0x2
 12366 2ea5 72       		.byte	0x72
 12367 2ea6 04       		.sleb128 4
 12368 2ea7 500E0000 		.4byte	.LVL684
 12369 2eab 580E0000 		.4byte	.LVL685
 12370 2eaf 0200     		.2byte	0x2
 12371 2eb1 72       		.byte	0x72
 12372 2eb2 04       		.sleb128 4
 12373 2eb3 7A0E0000 		.4byte	.LVL691
 12374 2eb7 8A0E0000 		.4byte	.LVL692
 12375 2ebb 0200     		.2byte	0x2
 12376 2ebd 72       		.byte	0x72
 12377 2ebe 04       		.sleb128 4
 12378 2ebf AC0E0000 		.4byte	.LVL698
 12379 2ec3 B40E0000 		.4byte	.LVL699
 12380 2ec7 0200     		.2byte	0x2
 12381 2ec9 72       		.byte	0x72
 12382 2eca 04       		.sleb128 4
 12383 2ecb D60E0000 		.4byte	.LVL705
 12384 2ecf DE0E0000 		.4byte	.LVL706
 12385 2ed3 0200     		.2byte	0x2
 12386 2ed5 72       		.byte	0x72
 12387 2ed6 04       		.sleb128 4
 12388 2ed7 000F0000 		.4byte	.LVL712
 12389 2edb 120F0000 		.4byte	.LVL713
 12390 2edf 0200     		.2byte	0x2
 12391 2ee1 72       		.byte	0x72
 12392 2ee2 04       		.sleb128 4
 12393 2ee3 340F0000 		.4byte	.LVL719
 12394 2ee7 3E0F0000 		.4byte	.LVL720
 12395 2eeb 0200     		.2byte	0x2
 12396 2eed 72       		.byte	0x72
 12397 2eee 04       		.sleb128 4
 12398 2eef 540F0000 		.4byte	.LVL723
 12399 2ef3 560F0000 		.4byte	.LVL724
 12400 2ef7 0200     		.2byte	0x2
 12401 2ef9 72       		.byte	0x72
 12402 2efa 04       		.sleb128 4
 12403 2efb 560F0000 		.4byte	.LVL724
 12404 2eff 5C0F0000 		.4byte	.LVL726
 12405 2f03 0200     		.2byte	0x2
 12406 2f05 74       		.byte	0x74
 12407 2f06 00       		.sleb128 0
 12408 2f07 5C0F0000 		.4byte	.LVL726
 12409 2f0b 5E0F0000 		.4byte	.LVL727
 12410 2f0f 0200     		.2byte	0x2
 12411 2f11 73       		.byte	0x73
 12412 2f12 7C       		.sleb128 -4
 12413 2f13 660F0000 		.4byte	.LVL729
 12414 2f17 720F0000 		.4byte	.LVL731
 12415 2f1b 0200     		.2byte	0x2
 12416 2f1d 74       		.byte	0x74
 12417 2f1e 00       		.sleb128 0
 12418 2f1f 720F0000 		.4byte	.LVL731
 12419 2f23 740F0000 		.4byte	.LVL732
 12420 2f27 0200     		.2byte	0x2
 12421 2f29 73       		.byte	0x73
ARM GAS  /tmp/ccSqa4tb.s 			page 219


 12422 2f2a 7C       		.sleb128 -4
 12423 2f2b 840F0000 		.4byte	.LVL735
 12424 2f2f 880F0000 		.4byte	.LVL737
 12425 2f33 0200     		.2byte	0x2
 12426 2f35 74       		.byte	0x74
 12427 2f36 00       		.sleb128 0
 12428 2f37 880F0000 		.4byte	.LVL737
 12429 2f3b 8E0F0000 		.4byte	.LVL738
 12430 2f3f 0200     		.2byte	0x2
 12431 2f41 74       		.byte	0x74
 12432 2f42 78       		.sleb128 -8
 12433 2f43 920F0000 		.4byte	.LVL739
 12434 2f47 9A0F0000 		.4byte	.LVL742
 12435 2f4b 0200     		.2byte	0x2
 12436 2f4d 74       		.byte	0x74
 12437 2f4e 00       		.sleb128 0
 12438 2f4f 9A0F0000 		.4byte	.LVL742
 12439 2f53 A00F0000 		.4byte	.LVL743
 12440 2f57 0200     		.2byte	0x2
 12441 2f59 74       		.byte	0x74
 12442 2f5a 78       		.sleb128 -8
 12443 2f5b A00F0000 		.4byte	.LVL743
 12444 2f5f AA0F0000 		.4byte	.LVL744
 12445 2f63 0600     		.2byte	0x6
 12446 2f65 74       		.byte	0x74
 12447 2f66 7C       		.sleb128 -4
 12448 2f67 06       		.byte	0x6
 12449 2f68 40       		.byte	0x40
 12450 2f69 26       		.byte	0x26
 12451 2f6a 9F       		.byte	0x9f
 12452 2f6b AA0F0000 		.4byte	.LVL744
 12453 2f6f B20F0000 		.4byte	.LVL746
 12454 2f73 0600     		.2byte	0x6
 12455 2f75 74       		.byte	0x74
 12456 2f76 7C       		.sleb128 -4
 12457 2f77 06       		.byte	0x6
 12458 2f78 40       		.byte	0x40
 12459 2f79 26       		.byte	0x26
 12460 2f7a 9F       		.byte	0x9f
 12461 2f7b B20F0000 		.4byte	.LVL746
 12462 2f7f C00F0000 		.4byte	.LVL747
 12463 2f83 0600     		.2byte	0x6
 12464 2f85 74       		.byte	0x74
 12465 2f86 7C       		.sleb128 -4
 12466 2f87 06       		.byte	0x6
 12467 2f88 40       		.byte	0x40
 12468 2f89 26       		.byte	0x26
 12469 2f8a 9F       		.byte	0x9f
 12470 2f8b C00F0000 		.4byte	.LVL747
 12471 2f8f CC0F0000 		.4byte	.LVL749
 12472 2f93 0600     		.2byte	0x6
 12473 2f95 74       		.byte	0x74
 12474 2f96 7C       		.sleb128 -4
 12475 2f97 06       		.byte	0x6
 12476 2f98 40       		.byte	0x40
 12477 2f99 26       		.byte	0x26
 12478 2f9a 9F       		.byte	0x9f
ARM GAS  /tmp/ccSqa4tb.s 			page 220


 12479 2f9b CC0F0000 		.4byte	.LVL749
 12480 2f9f D00F0000 		.4byte	.LVL750
 12481 2fa3 0600     		.2byte	0x6
 12482 2fa5 74       		.byte	0x74
 12483 2fa6 7C       		.sleb128 -4
 12484 2fa7 06       		.byte	0x6
 12485 2fa8 40       		.byte	0x40
 12486 2fa9 26       		.byte	0x26
 12487 2faa 9F       		.byte	0x9f
 12488 2fab D00F0000 		.4byte	.LVL750
 12489 2faf DA0F0000 		.4byte	.LVL751
 12490 2fb3 0500     		.2byte	0x5
 12491 2fb5 76       		.byte	0x76
 12492 2fb6 00       		.sleb128 0
 12493 2fb7 71       		.byte	0x71
 12494 2fb8 00       		.sleb128 0
 12495 2fb9 22       		.byte	0x22
 12496 2fba DA0F0000 		.4byte	.LVL751
 12497 2fbe DE0F0000 		.4byte	.LVL752
 12498 2fc2 0600     		.2byte	0x6
 12499 2fc4 74       		.byte	0x74
 12500 2fc5 7C       		.sleb128 -4
 12501 2fc6 06       		.byte	0x6
 12502 2fc7 40       		.byte	0x40
 12503 2fc8 26       		.byte	0x26
 12504 2fc9 9F       		.byte	0x9f
 12505 2fca DE0F0000 		.4byte	.LVL752
 12506 2fce E60F0000 		.4byte	.LVL754
 12507 2fd2 0500     		.2byte	0x5
 12508 2fd4 76       		.byte	0x76
 12509 2fd5 00       		.sleb128 0
 12510 2fd6 71       		.byte	0x71
 12511 2fd7 00       		.sleb128 0
 12512 2fd8 22       		.byte	0x22
 12513 2fd9 E80F0000 		.4byte	.LVL755
 12514 2fdd EC0F0000 		.4byte	.LVL756
 12515 2fe1 0100     		.2byte	0x1
 12516 2fe3 51       		.byte	0x51
 12517 2fe4 0C100000 		.4byte	.LVL760
 12518 2fe8 16100000 		.4byte	.LVL761
 12519 2fec 0600     		.2byte	0x6
 12520 2fee 74       		.byte	0x74
 12521 2fef 7C       		.sleb128 -4
 12522 2ff0 06       		.byte	0x6
 12523 2ff1 40       		.byte	0x40
 12524 2ff2 26       		.byte	0x26
 12525 2ff3 9F       		.byte	0x9f
 12526 2ff4 16100000 		.4byte	.LVL761
 12527 2ff8 24100000 		.4byte	.LVL762
 12528 2ffc 0600     		.2byte	0x6
 12529 2ffe 74       		.byte	0x74
 12530 2fff 7C       		.sleb128 -4
 12531 3000 06       		.byte	0x6
 12532 3001 40       		.byte	0x40
 12533 3002 26       		.byte	0x26
 12534 3003 9F       		.byte	0x9f
 12535 3004 24100000 		.4byte	.LVL762
ARM GAS  /tmp/ccSqa4tb.s 			page 221


 12536 3008 28100000 		.4byte	.LVL763
 12537 300c 0600     		.2byte	0x6
 12538 300e 74       		.byte	0x74
 12539 300f 7C       		.sleb128 -4
 12540 3010 06       		.byte	0x6
 12541 3011 40       		.byte	0x40
 12542 3012 26       		.byte	0x26
 12543 3013 9F       		.byte	0x9f
 12544 3014 28100000 		.4byte	.LVL763
 12545 3018 32100000 		.4byte	.LVL764
 12546 301c 0500     		.2byte	0x5
 12547 301e 76       		.byte	0x76
 12548 301f 00       		.sleb128 0
 12549 3020 71       		.byte	0x71
 12550 3021 00       		.sleb128 0
 12551 3022 22       		.byte	0x22
 12552 3023 34100000 		.4byte	.LVL765
 12553 3027 38100000 		.4byte	.LVL766
 12554 302b 0100     		.2byte	0x1
 12555 302d 51       		.byte	0x51
 12556 302e 38100000 		.4byte	.LVL766
 12557 3032 42100000 		.4byte	.LVL767
 12558 3036 0600     		.2byte	0x6
 12559 3038 74       		.byte	0x74
 12560 3039 7C       		.sleb128 -4
 12561 303a 06       		.byte	0x6
 12562 303b 40       		.byte	0x40
 12563 303c 26       		.byte	0x26
 12564 303d 9F       		.byte	0x9f
 12565 303e 42100000 		.4byte	.LVL767
 12566 3042 52100000 		.4byte	.LVL768
 12567 3046 0100     		.2byte	0x1
 12568 3048 51       		.byte	0x51
 12569 3049 68100000 		.4byte	.LVL770
 12570 304d 70100000 		.4byte	.LVL771
 12571 3051 0100     		.2byte	0x1
 12572 3053 51       		.byte	0x51
 12573 3054 70100000 		.4byte	.LVL771
 12574 3058 80100000 		.4byte	.LVL772
 12575 305c 0600     		.2byte	0x6
 12576 305e 74       		.byte	0x74
 12577 305f 7C       		.sleb128 -4
 12578 3060 06       		.byte	0x6
 12579 3061 40       		.byte	0x40
 12580 3062 26       		.byte	0x26
 12581 3063 9F       		.byte	0x9f
 12582 3064 80100000 		.4byte	.LVL772
 12583 3068 98100000 		.4byte	.LVL773
 12584 306c 0600     		.2byte	0x6
 12585 306e 74       		.byte	0x74
 12586 306f 7C       		.sleb128 -4
 12587 3070 06       		.byte	0x6
 12588 3071 40       		.byte	0x40
 12589 3072 26       		.byte	0x26
 12590 3073 9F       		.byte	0x9f
 12591 3074 98100000 		.4byte	.LVL773
 12592 3078 A6100000 		.4byte	.LVL775
ARM GAS  /tmp/ccSqa4tb.s 			page 222


 12593 307c 0600     		.2byte	0x6
 12594 307e 74       		.byte	0x74
 12595 307f 7C       		.sleb128 -4
 12596 3080 06       		.byte	0x6
 12597 3081 40       		.byte	0x40
 12598 3082 26       		.byte	0x26
 12599 3083 9F       		.byte	0x9f
 12600 3084 A6100000 		.4byte	.LVL775
 12601 3088 B6100000 		.4byte	.LVL777
 12602 308c 0600     		.2byte	0x6
 12603 308e 74       		.byte	0x74
 12604 308f 7C       		.sleb128 -4
 12605 3090 06       		.byte	0x6
 12606 3091 40       		.byte	0x40
 12607 3092 26       		.byte	0x26
 12608 3093 9F       		.byte	0x9f
 12609 3094 B6100000 		.4byte	.LVL777
 12610 3098 CA100000 		.4byte	.LVL779
 12611 309c 0600     		.2byte	0x6
 12612 309e 74       		.byte	0x74
 12613 309f 7C       		.sleb128 -4
 12614 30a0 06       		.byte	0x6
 12615 30a1 40       		.byte	0x40
 12616 30a2 26       		.byte	0x26
 12617 30a3 9F       		.byte	0x9f
 12618 30a4 CA100000 		.4byte	.LVL779
 12619 30a8 DA100000 		.4byte	.LVL781
 12620 30ac 0600     		.2byte	0x6
 12621 30ae 74       		.byte	0x74
 12622 30af 7C       		.sleb128 -4
 12623 30b0 06       		.byte	0x6
 12624 30b1 40       		.byte	0x40
 12625 30b2 26       		.byte	0x26
 12626 30b3 9F       		.byte	0x9f
 12627 30b4 DA100000 		.4byte	.LVL781
 12628 30b8 EA100000 		.4byte	.LVL783
 12629 30bc 0600     		.2byte	0x6
 12630 30be 74       		.byte	0x74
 12631 30bf 7C       		.sleb128 -4
 12632 30c0 06       		.byte	0x6
 12633 30c1 40       		.byte	0x40
 12634 30c2 26       		.byte	0x26
 12635 30c3 9F       		.byte	0x9f
 12636 30c4 EA100000 		.4byte	.LVL783
 12637 30c8 00110000 		.4byte	.LVL785
 12638 30cc 0600     		.2byte	0x6
 12639 30ce 74       		.byte	0x74
 12640 30cf 7C       		.sleb128 -4
 12641 30d0 06       		.byte	0x6
 12642 30d1 40       		.byte	0x40
 12643 30d2 26       		.byte	0x26
 12644 30d3 9F       		.byte	0x9f
 12645 30d4 00110000 		.4byte	.LVL785
 12646 30d8 14110000 		.4byte	.LVL787
 12647 30dc 0600     		.2byte	0x6
 12648 30de 74       		.byte	0x74
 12649 30df 7C       		.sleb128 -4
ARM GAS  /tmp/ccSqa4tb.s 			page 223


 12650 30e0 06       		.byte	0x6
 12651 30e1 40       		.byte	0x40
 12652 30e2 26       		.byte	0x26
 12653 30e3 9F       		.byte	0x9f
 12654 30e4 22110000 		.4byte	.LVL790
 12655 30e8 28110000 		.4byte	.LVL791
 12656 30ec 0200     		.2byte	0x2
 12657 30ee 72       		.byte	0x72
 12658 30ef 00       		.sleb128 0
 12659 30f0 46110000 		.4byte	.LVL797
 12660 30f4 52110000 		.4byte	.LVL798
 12661 30f8 0200     		.2byte	0x2
 12662 30fa 72       		.byte	0x72
 12663 30fb 00       		.sleb128 0
 12664 30fc 70110000 		.4byte	.LVL804
 12665 3100 74110000 		.4byte	.LVL805
 12666 3104 0200     		.2byte	0x2
 12667 3106 72       		.byte	0x72
 12668 3107 00       		.sleb128 0
 12669 3108 92110000 		.4byte	.LVL811
 12670 310c 98110000 		.4byte	.LVL812
 12671 3110 0200     		.2byte	0x2
 12672 3112 72       		.byte	0x72
 12673 3113 00       		.sleb128 0
 12674 3114 B6110000 		.4byte	.LVL818
 12675 3118 BC110000 		.4byte	.LVL819
 12676 311c 0200     		.2byte	0x2
 12677 311e 72       		.byte	0x72
 12678 311f 00       		.sleb128 0
 12679 3120 DA110000 		.4byte	.LVL825
 12680 3124 E8110000 		.4byte	.LVL826
 12681 3128 0200     		.2byte	0x2
 12682 312a 72       		.byte	0x72
 12683 312b 00       		.sleb128 0
 12684 312c 06120000 		.4byte	.LVL832
 12685 3130 0E120000 		.4byte	.LVL833
 12686 3134 0200     		.2byte	0x2
 12687 3136 72       		.byte	0x72
 12688 3137 00       		.sleb128 0
 12689 3138 1E120000 		.4byte	.LVL836
 12690 313c 22120000 		.4byte	.LVL837
 12691 3140 0500     		.2byte	0x5
 12692 3142 71       		.byte	0x71
 12693 3143 00       		.sleb128 0
 12694 3144 40       		.byte	0x40
 12695 3145 26       		.byte	0x26
 12696 3146 9F       		.byte	0x9f
 12697 3147 22120000 		.4byte	.LVL837
 12698 314b 3E120000 		.4byte	.LVL839
 12699 314f 0600     		.2byte	0x6
 12700 3151 72       		.byte	0x72
 12701 3152 00       		.sleb128 0
 12702 3153 06       		.byte	0x6
 12703 3154 40       		.byte	0x40
 12704 3155 26       		.byte	0x26
 12705 3156 9F       		.byte	0x9f
 12706 3157 3E120000 		.4byte	.LVL839
ARM GAS  /tmp/ccSqa4tb.s 			page 224


 12707 315b 5E120000 		.4byte	.LVL842
 12708 315f 0600     		.2byte	0x6
 12709 3161 72       		.byte	0x72
 12710 3162 00       		.sleb128 0
 12711 3163 06       		.byte	0x6
 12712 3164 40       		.byte	0x40
 12713 3165 26       		.byte	0x26
 12714 3166 9F       		.byte	0x9f
 12715 3167 5E120000 		.4byte	.LVL842
 12716 316b 60120000 		.4byte	.LVL843
 12717 316f 0600     		.2byte	0x6
 12718 3171 72       		.byte	0x72
 12719 3172 00       		.sleb128 0
 12720 3173 06       		.byte	0x6
 12721 3174 40       		.byte	0x40
 12722 3175 26       		.byte	0x26
 12723 3176 9F       		.byte	0x9f
 12724 3177 60120000 		.4byte	.LVL843
 12725 317b 6C120000 		.4byte	.LVL844
 12726 317f 0600     		.2byte	0x6
 12727 3181 74       		.byte	0x74
 12728 3182 7C       		.sleb128 -4
 12729 3183 06       		.byte	0x6
 12730 3184 40       		.byte	0x40
 12731 3185 26       		.byte	0x26
 12732 3186 9F       		.byte	0x9f
 12733 3187 6C120000 		.4byte	.LVL844
 12734 318b 74120000 		.4byte	.LVL846
 12735 318f 0600     		.2byte	0x6
 12736 3191 74       		.byte	0x74
 12737 3192 7C       		.sleb128 -4
 12738 3193 06       		.byte	0x6
 12739 3194 40       		.byte	0x40
 12740 3195 26       		.byte	0x26
 12741 3196 9F       		.byte	0x9f
 12742 3197 74120000 		.4byte	.LVL846
 12743 319b 80120000 		.4byte	.LVL847
 12744 319f 0600     		.2byte	0x6
 12745 31a1 74       		.byte	0x74
 12746 31a2 7C       		.sleb128 -4
 12747 31a3 06       		.byte	0x6
 12748 31a4 40       		.byte	0x40
 12749 31a5 26       		.byte	0x26
 12750 31a6 9F       		.byte	0x9f
 12751 31a7 80120000 		.4byte	.LVL847
 12752 31ab 8C120000 		.4byte	.LVL848
 12753 31af 0600     		.2byte	0x6
 12754 31b1 74       		.byte	0x74
 12755 31b2 7C       		.sleb128 -4
 12756 31b3 06       		.byte	0x6
 12757 31b4 40       		.byte	0x40
 12758 31b5 26       		.byte	0x26
 12759 31b6 9F       		.byte	0x9f
 12760 31b7 8C120000 		.4byte	.LVL848
 12761 31bb 96120000 		.4byte	.LVL849
 12762 31bf 0600     		.2byte	0x6
 12763 31c1 74       		.byte	0x74
ARM GAS  /tmp/ccSqa4tb.s 			page 225


 12764 31c2 7C       		.sleb128 -4
 12765 31c3 06       		.byte	0x6
 12766 31c4 40       		.byte	0x40
 12767 31c5 26       		.byte	0x26
 12768 31c6 9F       		.byte	0x9f
 12769 31c7 96120000 		.4byte	.LVL849
 12770 31cb A4120000 		.4byte	.LVL850
 12771 31cf 0600     		.2byte	0x6
 12772 31d1 74       		.byte	0x74
 12773 31d2 7C       		.sleb128 -4
 12774 31d3 06       		.byte	0x6
 12775 31d4 40       		.byte	0x40
 12776 31d5 26       		.byte	0x26
 12777 31d6 9F       		.byte	0x9f
 12778 31d7 A4120000 		.4byte	.LVL850
 12779 31db B6120000 		.4byte	.LVL851
 12780 31df 0600     		.2byte	0x6
 12781 31e1 74       		.byte	0x74
 12782 31e2 7C       		.sleb128 -4
 12783 31e3 06       		.byte	0x6
 12784 31e4 40       		.byte	0x40
 12785 31e5 26       		.byte	0x26
 12786 31e6 9F       		.byte	0x9f
 12787 31e7 B6120000 		.4byte	.LVL851
 12788 31eb C6120000 		.4byte	.LVL852
 12789 31ef 0600     		.2byte	0x6
 12790 31f1 74       		.byte	0x74
 12791 31f2 7C       		.sleb128 -4
 12792 31f3 06       		.byte	0x6
 12793 31f4 40       		.byte	0x40
 12794 31f5 26       		.byte	0x26
 12795 31f6 9F       		.byte	0x9f
 12796 31f7 C6120000 		.4byte	.LVL852
 12797 31fb D2120000 		.4byte	.LVL853
 12798 31ff 0600     		.2byte	0x6
 12799 3201 74       		.byte	0x74
 12800 3202 7C       		.sleb128 -4
 12801 3203 06       		.byte	0x6
 12802 3204 40       		.byte	0x40
 12803 3205 26       		.byte	0x26
 12804 3206 9F       		.byte	0x9f
 12805 3207 D2120000 		.4byte	.LVL853
 12806 320b E0120000 		.4byte	.LVL854
 12807 320f 0600     		.2byte	0x6
 12808 3211 74       		.byte	0x74
 12809 3212 7C       		.sleb128 -4
 12810 3213 06       		.byte	0x6
 12811 3214 40       		.byte	0x40
 12812 3215 26       		.byte	0x26
 12813 3216 9F       		.byte	0x9f
 12814 3217 E0120000 		.4byte	.LVL854
 12815 321b EC120000 		.4byte	.LVL855
 12816 321f 0600     		.2byte	0x6
 12817 3221 74       		.byte	0x74
 12818 3222 7C       		.sleb128 -4
 12819 3223 06       		.byte	0x6
 12820 3224 40       		.byte	0x40
ARM GAS  /tmp/ccSqa4tb.s 			page 226


 12821 3225 26       		.byte	0x26
 12822 3226 9F       		.byte	0x9f
 12823 3227 EC120000 		.4byte	.LVL855
 12824 322b FA120000 		.4byte	.LVL856
 12825 322f 0600     		.2byte	0x6
 12826 3231 74       		.byte	0x74
 12827 3232 7C       		.sleb128 -4
 12828 3233 06       		.byte	0x6
 12829 3234 40       		.byte	0x40
 12830 3235 26       		.byte	0x26
 12831 3236 9F       		.byte	0x9f
 12832 3237 FC120000 		.4byte	.LVL857
 12833 323b 00130000 		.4byte	.LVL858
 12834 323f 0100     		.2byte	0x1
 12835 3241 52       		.byte	0x52
 12836 3242 02130000 		.4byte	.LVL859
 12837 3246 06130000 		.4byte	.LVL860
 12838 324a 0100     		.2byte	0x1
 12839 324c 52       		.byte	0x52
 12840 324d 08130000 		.4byte	.LVL861
 12841 3251 0C130000 		.4byte	.LVL862
 12842 3255 0100     		.2byte	0x1
 12843 3257 51       		.byte	0x51
 12844 3258 1E130000 		.4byte	.LVL865
 12845 325c 22130000 		.4byte	.LVL866
 12846 3260 0100     		.2byte	0x1
 12847 3262 50       		.byte	0x50
 12848 3263 22130000 		.4byte	.LVL866
 12849 3267 2C130000 		.4byte	.LVL867
 12850 326b 0600     		.2byte	0x6
 12851 326d 74       		.byte	0x74
 12852 326e 7C       		.sleb128 -4
 12853 326f 06       		.byte	0x6
 12854 3270 40       		.byte	0x40
 12855 3271 26       		.byte	0x26
 12856 3272 9F       		.byte	0x9f
 12857 3273 00000000 		.4byte	0x0
 12858 3277 00000000 		.4byte	0x0
 12859              	.LLST154:
 12860 327b B20D0000 		.4byte	.LVL667
 12861 327f BC0D0000 		.4byte	.LVL668
 12862 3283 0200     		.2byte	0x2
 12863 3285 74       		.byte	0x74
 12864 3286 04       		.sleb128 4
 12865 3287 BC0D0000 		.4byte	.LVL668
 12866 328b DF0D0000 		.4byte	.LVL669-1
 12867 328f 0200     		.2byte	0x2
 12868 3291 74       		.byte	0x74
 12869 3292 7C       		.sleb128 -4
 12870 3293 1E0E0000 		.4byte	.LVL675
 12871 3297 280E0000 		.4byte	.LVL677
 12872 329b 0200     		.2byte	0x2
 12873 329d 72       		.byte	0x72
 12874 329e 04       		.sleb128 4
 12875 329f 280E0000 		.4byte	.LVL677
 12876 32a3 300E0000 		.4byte	.LVL679
 12877 32a7 0100     		.2byte	0x1
ARM GAS  /tmp/ccSqa4tb.s 			page 227


 12878 32a9 53       		.byte	0x53
 12879 32aa 300E0000 		.4byte	.LVL679
 12880 32ae 440E0000 		.4byte	.LVL681
 12881 32b2 0100     		.2byte	0x1
 12882 32b4 53       		.byte	0x53
 12883 32b5 460E0000 		.4byte	.LVL682
 12884 32b9 500E0000 		.4byte	.LVL684
 12885 32bd 0200     		.2byte	0x2
 12886 32bf 72       		.byte	0x72
 12887 32c0 04       		.sleb128 4
 12888 32c1 500E0000 		.4byte	.LVL684
 12889 32c5 5A0E0000 		.4byte	.LVL686
 12890 32c9 0100     		.2byte	0x1
 12891 32cb 53       		.byte	0x53
 12892 32cc 5A0E0000 		.4byte	.LVL686
 12893 32d0 6E0E0000 		.4byte	.LVL688
 12894 32d4 0100     		.2byte	0x1
 12895 32d6 53       		.byte	0x53
 12896 32d7 700E0000 		.4byte	.LVL689
 12897 32db 7A0E0000 		.4byte	.LVL691
 12898 32df 0200     		.2byte	0x2
 12899 32e1 72       		.byte	0x72
 12900 32e2 04       		.sleb128 4
 12901 32e3 7A0E0000 		.4byte	.LVL691
 12902 32e7 8C0E0000 		.4byte	.LVL693
 12903 32eb 0100     		.2byte	0x1
 12904 32ed 53       		.byte	0x53
 12905 32ee 8C0E0000 		.4byte	.LVL693
 12906 32f2 A00E0000 		.4byte	.LVL695
 12907 32f6 0100     		.2byte	0x1
 12908 32f8 53       		.byte	0x53
 12909 32f9 A20E0000 		.4byte	.LVL696
 12910 32fd AC0E0000 		.4byte	.LVL698
 12911 3301 0200     		.2byte	0x2
 12912 3303 72       		.byte	0x72
 12913 3304 04       		.sleb128 4
 12914 3305 AC0E0000 		.4byte	.LVL698
 12915 3309 B60E0000 		.4byte	.LVL700
 12916 330d 0100     		.2byte	0x1
 12917 330f 53       		.byte	0x53
 12918 3310 B60E0000 		.4byte	.LVL700
 12919 3314 CA0E0000 		.4byte	.LVL702
 12920 3318 0100     		.2byte	0x1
 12921 331a 53       		.byte	0x53
 12922 331b CC0E0000 		.4byte	.LVL703
 12923 331f D60E0000 		.4byte	.LVL705
 12924 3323 0200     		.2byte	0x2
 12925 3325 72       		.byte	0x72
 12926 3326 04       		.sleb128 4
 12927 3327 D60E0000 		.4byte	.LVL705
 12928 332b E00E0000 		.4byte	.LVL707
 12929 332f 0100     		.2byte	0x1
 12930 3331 53       		.byte	0x53
 12931 3332 E00E0000 		.4byte	.LVL707
 12932 3336 F40E0000 		.4byte	.LVL709
 12933 333a 0100     		.2byte	0x1
 12934 333c 53       		.byte	0x53
ARM GAS  /tmp/ccSqa4tb.s 			page 228


 12935 333d F60E0000 		.4byte	.LVL710
 12936 3341 000F0000 		.4byte	.LVL712
 12937 3345 0200     		.2byte	0x2
 12938 3347 72       		.byte	0x72
 12939 3348 04       		.sleb128 4
 12940 3349 000F0000 		.4byte	.LVL712
 12941 334d 140F0000 		.4byte	.LVL714
 12942 3351 0100     		.2byte	0x1
 12943 3353 53       		.byte	0x53
 12944 3354 140F0000 		.4byte	.LVL714
 12945 3358 280F0000 		.4byte	.LVL716
 12946 335c 0100     		.2byte	0x1
 12947 335e 53       		.byte	0x53
 12948 335f 2A0F0000 		.4byte	.LVL717
 12949 3363 340F0000 		.4byte	.LVL719
 12950 3367 0200     		.2byte	0x2
 12951 3369 72       		.byte	0x72
 12952 336a 04       		.sleb128 4
 12953 336b 340F0000 		.4byte	.LVL719
 12954 336f 400F0000 		.4byte	.LVL721
 12955 3373 0100     		.2byte	0x1
 12956 3375 53       		.byte	0x53
 12957 3376 400F0000 		.4byte	.LVL721
 12958 337a 540F0000 		.4byte	.LVL723
 12959 337e 0100     		.2byte	0x1
 12960 3380 53       		.byte	0x53
 12961 3381 16110000 		.4byte	.LVL788
 12962 3385 1E110000 		.4byte	.LVL789
 12963 3389 0100     		.2byte	0x1
 12964 338b 51       		.byte	0x51
 12965 338c 1E110000 		.4byte	.LVL789
 12966 3390 28110000 		.4byte	.LVL791
 12967 3394 0300     		.2byte	0x3
 12968 3396 73       		.byte	0x73
 12969 3397 01       		.sleb128 1
 12970 3398 9F       		.byte	0x9f
 12971 3399 28110000 		.4byte	.LVL791
 12972 339d 2A110000 		.4byte	.LVL792
 12973 33a1 0100     		.2byte	0x1
 12974 33a3 53       		.byte	0x53
 12975 33a4 2A110000 		.4byte	.LVL792
 12976 33a8 38110000 		.4byte	.LVL794
 12977 33ac 0300     		.2byte	0x3
 12978 33ae 73       		.byte	0x73
 12979 33af 01       		.sleb128 1
 12980 33b0 9F       		.byte	0x9f
 12981 33b1 3A110000 		.4byte	.LVL795
 12982 33b5 42110000 		.4byte	.LVL796
 12983 33b9 0100     		.2byte	0x1
 12984 33bb 51       		.byte	0x51
 12985 33bc 42110000 		.4byte	.LVL796
 12986 33c0 52110000 		.4byte	.LVL798
 12987 33c4 0300     		.2byte	0x3
 12988 33c6 73       		.byte	0x73
 12989 33c7 01       		.sleb128 1
 12990 33c8 9F       		.byte	0x9f
 12991 33c9 52110000 		.4byte	.LVL798
ARM GAS  /tmp/ccSqa4tb.s 			page 229


 12992 33cd 54110000 		.4byte	.LVL799
 12993 33d1 0100     		.2byte	0x1
 12994 33d3 53       		.byte	0x53
 12995 33d4 54110000 		.4byte	.LVL799
 12996 33d8 62110000 		.4byte	.LVL801
 12997 33dc 0300     		.2byte	0x3
 12998 33de 73       		.byte	0x73
 12999 33df 01       		.sleb128 1
 13000 33e0 9F       		.byte	0x9f
 13001 33e1 64110000 		.4byte	.LVL802
 13002 33e5 6C110000 		.4byte	.LVL803
 13003 33e9 0100     		.2byte	0x1
 13004 33eb 51       		.byte	0x51
 13005 33ec 6C110000 		.4byte	.LVL803
 13006 33f0 74110000 		.4byte	.LVL805
 13007 33f4 0300     		.2byte	0x3
 13008 33f6 73       		.byte	0x73
 13009 33f7 01       		.sleb128 1
 13010 33f8 9F       		.byte	0x9f
 13011 33f9 74110000 		.4byte	.LVL805
 13012 33fd 76110000 		.4byte	.LVL806
 13013 3401 0100     		.2byte	0x1
 13014 3403 53       		.byte	0x53
 13015 3404 76110000 		.4byte	.LVL806
 13016 3408 84110000 		.4byte	.LVL808
 13017 340c 0300     		.2byte	0x3
 13018 340e 73       		.byte	0x73
 13019 340f 01       		.sleb128 1
 13020 3410 9F       		.byte	0x9f
 13021 3411 86110000 		.4byte	.LVL809
 13022 3415 8E110000 		.4byte	.LVL810
 13023 3419 0100     		.2byte	0x1
 13024 341b 51       		.byte	0x51
 13025 341c 8E110000 		.4byte	.LVL810
 13026 3420 98110000 		.4byte	.LVL812
 13027 3424 0300     		.2byte	0x3
 13028 3426 73       		.byte	0x73
 13029 3427 01       		.sleb128 1
 13030 3428 9F       		.byte	0x9f
 13031 3429 98110000 		.4byte	.LVL812
 13032 342d 9A110000 		.4byte	.LVL813
 13033 3431 0100     		.2byte	0x1
 13034 3433 53       		.byte	0x53
 13035 3434 9A110000 		.4byte	.LVL813
 13036 3438 A8110000 		.4byte	.LVL815
 13037 343c 0300     		.2byte	0x3
 13038 343e 73       		.byte	0x73
 13039 343f 01       		.sleb128 1
 13040 3440 9F       		.byte	0x9f
 13041 3441 AA110000 		.4byte	.LVL816
 13042 3445 B2110000 		.4byte	.LVL817
 13043 3449 0100     		.2byte	0x1
 13044 344b 51       		.byte	0x51
 13045 344c B2110000 		.4byte	.LVL817
 13046 3450 BC110000 		.4byte	.LVL819
 13047 3454 0300     		.2byte	0x3
 13048 3456 73       		.byte	0x73
ARM GAS  /tmp/ccSqa4tb.s 			page 230


 13049 3457 01       		.sleb128 1
 13050 3458 9F       		.byte	0x9f
 13051 3459 BC110000 		.4byte	.LVL819
 13052 345d BE110000 		.4byte	.LVL820
 13053 3461 0100     		.2byte	0x1
 13054 3463 53       		.byte	0x53
 13055 3464 BE110000 		.4byte	.LVL820
 13056 3468 CC110000 		.4byte	.LVL822
 13057 346c 0300     		.2byte	0x3
 13058 346e 73       		.byte	0x73
 13059 346f 01       		.sleb128 1
 13060 3470 9F       		.byte	0x9f
 13061 3471 CE110000 		.4byte	.LVL823
 13062 3475 D6110000 		.4byte	.LVL824
 13063 3479 0100     		.2byte	0x1
 13064 347b 51       		.byte	0x51
 13065 347c D6110000 		.4byte	.LVL824
 13066 3480 E8110000 		.4byte	.LVL826
 13067 3484 0300     		.2byte	0x3
 13068 3486 73       		.byte	0x73
 13069 3487 01       		.sleb128 1
 13070 3488 9F       		.byte	0x9f
 13071 3489 E8110000 		.4byte	.LVL826
 13072 348d EA110000 		.4byte	.LVL827
 13073 3491 0100     		.2byte	0x1
 13074 3493 53       		.byte	0x53
 13075 3494 EA110000 		.4byte	.LVL827
 13076 3498 F8110000 		.4byte	.LVL829
 13077 349c 0300     		.2byte	0x3
 13078 349e 73       		.byte	0x73
 13079 349f 01       		.sleb128 1
 13080 34a0 9F       		.byte	0x9f
 13081 34a1 FA110000 		.4byte	.LVL830
 13082 34a5 02120000 		.4byte	.LVL831
 13083 34a9 0100     		.2byte	0x1
 13084 34ab 51       		.byte	0x51
 13085 34ac 02120000 		.4byte	.LVL831
 13086 34b0 0E120000 		.4byte	.LVL833
 13087 34b4 0300     		.2byte	0x3
 13088 34b6 73       		.byte	0x73
 13089 34b7 01       		.sleb128 1
 13090 34b8 9F       		.byte	0x9f
 13091 34b9 0E120000 		.4byte	.LVL833
 13092 34bd 10120000 		.4byte	.LVL834
 13093 34c1 0100     		.2byte	0x1
 13094 34c3 53       		.byte	0x53
 13095 34c4 10120000 		.4byte	.LVL834
 13096 34c8 1E120000 		.4byte	.LVL836
 13097 34cc 0300     		.2byte	0x3
 13098 34ce 73       		.byte	0x73
 13099 34cf 01       		.sleb128 1
 13100 34d0 9F       		.byte	0x9f
 13101 34d1 00000000 		.4byte	0x0
 13102 34d5 00000000 		.4byte	0x0
 13103              	.LLST155:
 13104 34d9 3E000000 		.4byte	.LVL315
 13105 34dd 54000000 		.4byte	.LVL320
ARM GAS  /tmp/ccSqa4tb.s 			page 231


 13106 34e1 0100     		.2byte	0x1
 13107 34e3 50       		.byte	0x50
 13108 34e4 58000000 		.4byte	.LVL321
 13109 34e8 5E000000 		.4byte	.LVL322
 13110 34ec 0100     		.2byte	0x1
 13111 34ee 50       		.byte	0x50
 13112 34ef 00000000 		.4byte	0x0
 13113 34f3 00000000 		.4byte	0x0
 13114              	.LLST156:
 13115 34f7 FE090000 		.4byte	.LVL522
 13116 34fb 060A0000 		.4byte	.LVL525
 13117 34ff 0100     		.2byte	0x1
 13118 3501 53       		.byte	0x53
 13119 3502 060A0000 		.4byte	.LVL525
 13120 3506 080A0000 		.4byte	.LVL526
 13121 350a 0300     		.2byte	0x3
 13122 350c 73       		.byte	0x73
 13123 350d 08       		.sleb128 8
 13124 350e 9F       		.byte	0x9f
 13125 350f 080A0000 		.4byte	.LVL526
 13126 3513 0A0A0000 		.4byte	.LVL527
 13127 3517 0100     		.2byte	0x1
 13128 3519 55       		.byte	0x55
 13129 351a 0A0A0000 		.4byte	.LVL527
 13130 351e 0C0A0000 		.4byte	.LVL528
 13131 3522 0300     		.2byte	0x3
 13132 3524 75       		.byte	0x75
 13133 3525 08       		.sleb128 8
 13134 3526 9F       		.byte	0x9f
 13135 3527 120A0000 		.4byte	.LVL529
 13136 352b 280A0000 		.4byte	.LVL530
 13137 352f 0100     		.2byte	0x1
 13138 3531 55       		.byte	0x55
 13139 3532 7A130000 		.4byte	.LVL878
 13140 3536 84130000 		.4byte	.LVL880
 13141 353a 0100     		.2byte	0x1
 13142 353c 55       		.byte	0x55
 13143 353d 00000000 		.4byte	0x0
 13144 3541 00000000 		.4byte	0x0
 13145              	.LLST157:
 13146 3545 020B0000 		.4byte	.LVL558
 13147 3549 0A0B0000 		.4byte	.LVL560
 13148 354d 0100     		.2byte	0x1
 13149 354f 53       		.byte	0x53
 13150 3550 0A0B0000 		.4byte	.LVL560
 13151 3554 0E0B0000 		.4byte	.LVL561
 13152 3558 0300     		.2byte	0x3
 13153 355a 73       		.byte	0x73
 13154 355b 08       		.sleb128 8
 13155 355c 9F       		.byte	0x9f
 13156 355d 0E0B0000 		.4byte	.LVL561
 13157 3561 100B0000 		.4byte	.LVL562
 13158 3565 0100     		.2byte	0x1
 13159 3567 51       		.byte	0x51
 13160 3568 100B0000 		.4byte	.LVL562
 13161 356c 120B0000 		.4byte	.LVL563
 13162 3570 0300     		.2byte	0x3
ARM GAS  /tmp/ccSqa4tb.s 			page 232


 13163 3572 71       		.byte	0x71
 13164 3573 08       		.sleb128 8
 13165 3574 9F       		.byte	0x9f
 13166 3575 180B0000 		.4byte	.LVL564
 13167 3579 2E0B0000 		.4byte	.LVL565
 13168 357d 0100     		.2byte	0x1
 13169 357f 51       		.byte	0x51
 13170 3580 84130000 		.4byte	.LVL880
 13171 3584 8E130000 		.4byte	.LFE34
 13172 3588 0100     		.2byte	0x1
 13173 358a 51       		.byte	0x51
 13174 358b 00000000 		.4byte	0x0
 13175 358f 00000000 		.4byte	0x0
 13176              	.LLST158:
 13177 3593 00000000 		.4byte	.LVL881
 13178 3597 04000000 		.4byte	.LVL882
 13179 359b 0100     		.2byte	0x1
 13180 359d 50       		.byte	0x50
 13181 359e 00000000 		.4byte	0x0
 13182 35a2 00000000 		.4byte	0x0
 13183              	.LLST159:
 13184 35a6 00000000 		.4byte	.LVL883
 13185 35aa 04000000 		.4byte	.LVL884
 13186 35ae 0100     		.2byte	0x1
 13187 35b0 50       		.byte	0x50
 13188 35b1 00000000 		.4byte	0x0
 13189 35b5 00000000 		.4byte	0x0
 13190              	.LLST160:
 13191 35b9 00000000 		.4byte	.LVL885
 13192 35bd 04000000 		.4byte	.LVL886
 13193 35c1 0100     		.2byte	0x1
 13194 35c3 50       		.byte	0x50
 13195 35c4 00000000 		.4byte	0x0
 13196 35c8 00000000 		.4byte	0x0
 13197              	.LLST161:
 13198 35cc 00000000 		.4byte	.LFB38
 13199 35d0 02000000 		.4byte	.LCFI23
 13200 35d4 0200     		.2byte	0x2
 13201 35d6 7D       		.byte	0x7d
 13202 35d7 00       		.sleb128 0
 13203 35d8 02000000 		.4byte	.LCFI23
 13204 35dc 2C000000 		.4byte	.LFE38
 13205 35e0 0200     		.2byte	0x2
 13206 35e2 7D       		.byte	0x7d
 13207 35e3 0C       		.sleb128 12
 13208 35e4 00000000 		.4byte	0x0
 13209 35e8 00000000 		.4byte	0x0
 13210              	.LLST162:
 13211 35ec 00000000 		.4byte	.LVL887
 13212 35f0 26000000 		.4byte	.LVL893
 13213 35f4 0100     		.2byte	0x1
 13214 35f6 50       		.byte	0x50
 13215 35f7 28000000 		.4byte	.LVL894
 13216 35fb 2A000000 		.4byte	.LVL895
 13217 35ff 0100     		.2byte	0x1
 13218 3601 50       		.byte	0x50
 13219 3602 00000000 		.4byte	0x0
ARM GAS  /tmp/ccSqa4tb.s 			page 233


 13220 3606 00000000 		.4byte	0x0
 13221              	.LLST163:
 13222 360a 00000000 		.4byte	.LVL887
 13223 360e 12000000 		.4byte	.LVL891
 13224 3612 0100     		.2byte	0x1
 13225 3614 51       		.byte	0x51
 13226 3615 00000000 		.4byte	0x0
 13227 3619 00000000 		.4byte	0x0
 13228              	.LLST164:
 13229 361d 06000000 		.4byte	.LVL888
 13230 3621 0E000000 		.4byte	.LVL890
 13231 3625 0100     		.2byte	0x1
 13232 3627 53       		.byte	0x53
 13233 3628 00000000 		.4byte	0x0
 13234 362c 00000000 		.4byte	0x0
 13235              	.LLST165:
 13236 3630 0C000000 		.4byte	.LVL889
 13237 3634 1E000000 		.4byte	.LVL892
 13238 3638 0100     		.2byte	0x1
 13239 363a 54       		.byte	0x54
 13240 363b 28000000 		.4byte	.LVL894
 13241 363f 2C000000 		.4byte	.LFE38
 13242 3643 0100     		.2byte	0x1
 13243 3645 54       		.byte	0x54
 13244 3646 00000000 		.4byte	0x0
 13245 364a 00000000 		.4byte	0x0
 13246              	.LLST166:
 13247 364e 00000000 		.4byte	.LFB31
 13248 3652 04000000 		.4byte	.LCFI24
 13249 3656 0200     		.2byte	0x2
 13250 3658 7D       		.byte	0x7d
 13251 3659 00       		.sleb128 0
 13252 365a 04000000 		.4byte	.LCFI24
 13253 365e 34000000 		.4byte	.LFE31
 13254 3662 0200     		.2byte	0x2
 13255 3664 7D       		.byte	0x7d
 13256 3665 18       		.sleb128 24
 13257 3666 00000000 		.4byte	0x0
 13258 366a 00000000 		.4byte	0x0
 13259              	.LLST167:
 13260 366e 00000000 		.4byte	.LVL896
 13261 3672 17000000 		.4byte	.LVL900-1
 13262 3676 0100     		.2byte	0x1
 13263 3678 50       		.byte	0x50
 13264 3679 17000000 		.4byte	.LVL900-1
 13265 367d 34000000 		.4byte	.LFE31
 13266 3681 0100     		.2byte	0x1
 13267 3683 54       		.byte	0x54
 13268 3684 00000000 		.4byte	0x0
 13269 3688 00000000 		.4byte	0x0
 13270              	.LLST168:
 13271 368c 00000000 		.4byte	.LVL896
 13272 3690 0A000000 		.4byte	.LVL897
 13273 3694 0100     		.2byte	0x1
 13274 3696 51       		.byte	0x51
 13275 3697 0A000000 		.4byte	.LVL897
 13276 369b 34000000 		.4byte	.LFE31
ARM GAS  /tmp/ccSqa4tb.s 			page 234


 13277 369f 0100     		.2byte	0x1
 13278 36a1 55       		.byte	0x55
 13279 36a2 00000000 		.4byte	0x0
 13280 36a6 00000000 		.4byte	0x0
 13281              	.LLST169:
 13282 36aa 00000000 		.4byte	.LVL896
 13283 36ae 0C000000 		.4byte	.LVL898
 13284 36b2 0100     		.2byte	0x1
 13285 36b4 52       		.byte	0x52
 13286 36b5 0C000000 		.4byte	.LVL898
 13287 36b9 34000000 		.4byte	.LFE31
 13288 36bd 0100     		.2byte	0x1
 13289 36bf 56       		.byte	0x56
 13290 36c0 00000000 		.4byte	0x0
 13291 36c4 00000000 		.4byte	0x0
 13292              	.LLST170:
 13293 36c8 00000000 		.4byte	.LVL896
 13294 36cc 17000000 		.4byte	.LVL900-1
 13295 36d0 0100     		.2byte	0x1
 13296 36d2 53       		.byte	0x53
 13297 36d3 17000000 		.4byte	.LVL900-1
 13298 36d7 34000000 		.4byte	.LFE31
 13299 36db 0100     		.2byte	0x1
 13300 36dd 57       		.byte	0x57
 13301 36de 00000000 		.4byte	0x0
 13302 36e2 00000000 		.4byte	0x0
 13303              	.LLST171:
 13304 36e6 18000000 		.4byte	.LVL900
 13305 36ea 1E000000 		.4byte	.LVL901
 13306 36ee 0100     		.2byte	0x1
 13307 36f0 50       		.byte	0x50
 13308 36f1 00000000 		.4byte	0x0
 13309 36f5 00000000 		.4byte	0x0
 13310              	.LLST172:
 13311 36f9 00000000 		.4byte	.LVL903
 13312 36fd 16000000 		.4byte	.LVL908
 13313 3701 0100     		.2byte	0x1
 13314 3703 50       		.byte	0x50
 13315 3704 00000000 		.4byte	0x0
 13316 3708 00000000 		.4byte	0x0
 13317              	.LLST173:
 13318 370c 04000000 		.4byte	.LVL904
 13319 3710 0C000000 		.4byte	.LVL906
 13320 3714 0100     		.2byte	0x1
 13321 3716 52       		.byte	0x52
 13322 3717 00000000 		.4byte	0x0
 13323 371b 00000000 		.4byte	0x0
 13324              	.LLST174:
 13325 371f 0A000000 		.4byte	.LVL905
 13326 3723 0E000000 		.4byte	.LVL907
 13327 3727 0100     		.2byte	0x1
 13328 3729 53       		.byte	0x53
 13329 372a 00000000 		.4byte	0x0
 13330 372e 00000000 		.4byte	0x0
 13331              	.LLST175:
 13332 3732 00000000 		.4byte	.LFB40
 13333 3736 02000000 		.4byte	.LCFI25
ARM GAS  /tmp/ccSqa4tb.s 			page 235


 13334 373a 0200     		.2byte	0x2
 13335 373c 7D       		.byte	0x7d
 13336 373d 00       		.sleb128 0
 13337 373e 02000000 		.4byte	.LCFI25
 13338 3742 46000000 		.4byte	.LFE40
 13339 3746 0200     		.2byte	0x2
 13340 3748 7D       		.byte	0x7d
 13341 3749 10       		.sleb128 16
 13342 374a 00000000 		.4byte	0x0
 13343 374e 00000000 		.4byte	0x0
 13344              	.LLST176:
 13345 3752 00000000 		.4byte	.LVL909
 13346 3756 0C000000 		.4byte	.LVL910
 13347 375a 0100     		.2byte	0x1
 13348 375c 50       		.byte	0x50
 13349 375d 0C000000 		.4byte	.LVL910
 13350 3761 36000000 		.4byte	.LVL916
 13351 3765 0100     		.2byte	0x1
 13352 3767 54       		.byte	0x54
 13353 3768 00000000 		.4byte	0x0
 13354 376c 00000000 		.4byte	0x0
 13355              	.LLST177:
 13356 3770 00000000 		.4byte	.LVL909
 13357 3774 1D000000 		.4byte	.LVL911-1
 13358 3778 0100     		.2byte	0x1
 13359 377a 51       		.byte	0x51
 13360 377b 1D000000 		.4byte	.LVL911-1
 13361 377f 46000000 		.4byte	.LFE40
 13362 3783 0100     		.2byte	0x1
 13363 3785 55       		.byte	0x55
 13364 3786 00000000 		.4byte	0x0
 13365 378a 00000000 		.4byte	0x0
 13366              	.LLST178:
 13367 378e 1E000000 		.4byte	.LVL911
 13368 3792 28000000 		.4byte	.LVL913
 13369 3796 0100     		.2byte	0x1
 13370 3798 50       		.byte	0x50
 13371 3799 28000000 		.4byte	.LVL913
 13372 379d 2C000000 		.4byte	.LVL914
 13373 37a1 0100     		.2byte	0x1
 13374 37a3 50       		.byte	0x50
 13375 37a4 2C000000 		.4byte	.LVL914
 13376 37a8 38000000 		.4byte	.LVL917
 13377 37ac 0100     		.2byte	0x1
 13378 37ae 50       		.byte	0x50
 13379 37af 38000000 		.4byte	.LVL917
 13380 37b3 44000000 		.4byte	.LVL918
 13381 37b7 0100     		.2byte	0x1
 13382 37b9 50       		.byte	0x50
 13383 37ba 44000000 		.4byte	.LVL918
 13384 37be 46000000 		.4byte	.LFE40
 13385 37c2 0200     		.2byte	0x2
 13386 37c4 75       		.byte	0x75
 13387 37c5 00       		.sleb128 0
 13388 37c6 00000000 		.4byte	0x0
 13389 37ca 00000000 		.4byte	0x0
 13390              	.LLST179:
ARM GAS  /tmp/ccSqa4tb.s 			page 236


 13391 37ce 24000000 		.4byte	.LVL912
 13392 37d2 2E000000 		.4byte	.LVL915
 13393 37d6 0100     		.2byte	0x1
 13394 37d8 53       		.byte	0x53
 13395 37d9 2E000000 		.4byte	.LVL915
 13396 37dd 36000000 		.4byte	.LVL916
 13397 37e1 0100     		.2byte	0x1
 13398 37e3 53       		.byte	0x53
 13399 37e4 00000000 		.4byte	0x0
 13400 37e8 00000000 		.4byte	0x0
 13401              	.LLST180:
 13402 37ec 00000000 		.4byte	.LFB41
 13403 37f0 04000000 		.4byte	.LCFI26
 13404 37f4 0200     		.2byte	0x2
 13405 37f6 7D       		.byte	0x7d
 13406 37f7 00       		.sleb128 0
 13407 37f8 04000000 		.4byte	.LCFI26
 13408 37fc BC000000 		.4byte	.LFE41
 13409 3800 0200     		.2byte	0x2
 13410 3802 7D       		.byte	0x7d
 13411 3803 18       		.sleb128 24
 13412 3804 00000000 		.4byte	0x0
 13413 3808 00000000 		.4byte	0x0
 13414              	.LLST181:
 13415 380c 00000000 		.4byte	.LVL919
 13416 3810 12000000 		.4byte	.LVL920
 13417 3814 0100     		.2byte	0x1
 13418 3816 50       		.byte	0x50
 13419 3817 12000000 		.4byte	.LVL920
 13420 381b 5A000000 		.4byte	.LVL929
 13421 381f 0100     		.2byte	0x1
 13422 3821 54       		.byte	0x54
 13423 3822 6C000000 		.4byte	.LVL931
 13424 3826 AC000000 		.4byte	.LVL940
 13425 382a 0100     		.2byte	0x1
 13426 382c 54       		.byte	0x54
 13427 382d 00000000 		.4byte	0x0
 13428 3831 00000000 		.4byte	0x0
 13429              	.LLST182:
 13430 3835 00000000 		.4byte	.LVL919
 13431 3839 15000000 		.4byte	.LVL921-1
 13432 383d 0100     		.2byte	0x1
 13433 383f 51       		.byte	0x51
 13434 3840 15000000 		.4byte	.LVL921-1
 13435 3844 42000000 		.4byte	.LVL925
 13436 3848 0100     		.2byte	0x1
 13437 384a 55       		.byte	0x55
 13438 384b 50000000 		.4byte	.LVL927
 13439 384f 58000000 		.4byte	.LVL928
 13440 3853 0100     		.2byte	0x1
 13441 3855 55       		.byte	0x55
 13442 3856 6C000000 		.4byte	.LVL931
 13443 385a AC000000 		.4byte	.LVL940
 13444 385e 0100     		.2byte	0x1
 13445 3860 55       		.byte	0x55
 13446 3861 00000000 		.4byte	0x0
 13447 3865 00000000 		.4byte	0x0
ARM GAS  /tmp/ccSqa4tb.s 			page 237


 13448              	.LLST183:
 13449 3869 00000000 		.4byte	.LVL919
 13450 386d 15000000 		.4byte	.LVL921-1
 13451 3871 0100     		.2byte	0x1
 13452 3873 52       		.byte	0x52
 13453 3874 15000000 		.4byte	.LVL921-1
 13454 3878 36000000 		.4byte	.LVL924
 13455 387c 0100     		.2byte	0x1
 13456 387e 57       		.byte	0x57
 13457 387f 6C000000 		.4byte	.LVL931
 13458 3883 AC000000 		.4byte	.LVL940
 13459 3887 0100     		.2byte	0x1
 13460 3889 57       		.byte	0x57
 13461 388a 00000000 		.4byte	0x0
 13462 388e 00000000 		.4byte	0x0
 13463              	.LLST184:
 13464 3892 00000000 		.4byte	.LVL919
 13465 3896 15000000 		.4byte	.LVL921-1
 13466 389a 0100     		.2byte	0x1
 13467 389c 53       		.byte	0x53
 13468 389d 15000000 		.4byte	.LVL921-1
 13469 38a1 96000000 		.4byte	.LVL936
 13470 38a5 0100     		.2byte	0x1
 13471 38a7 58       		.byte	0x58
 13472 38a8 00000000 		.4byte	0x0
 13473 38ac 00000000 		.4byte	0x0
 13474              	.LLST185:
 13475 38b0 20000000 		.4byte	.LVL922
 13476 38b4 30000000 		.4byte	.LVL923
 13477 38b8 0100     		.2byte	0x1
 13478 38ba 50       		.byte	0x50
 13479 38bb 30000000 		.4byte	.LVL923
 13480 38bf 57000000 		.4byte	.LVL928-1
 13481 38c3 0100     		.2byte	0x1
 13482 38c5 52       		.byte	0x52
 13483 38c6 58000000 		.4byte	.LVL928
 13484 38ca 5E000000 		.4byte	.LVL930
 13485 38ce 0100     		.2byte	0x1
 13486 38d0 56       		.byte	0x56
 13487 38d1 5E000000 		.4byte	.LVL930
 13488 38d5 6C000000 		.4byte	.LVL931
 13489 38d9 0100     		.2byte	0x1
 13490 38db 56       		.byte	0x56
 13491 38dc 6C000000 		.4byte	.LVL931
 13492 38e0 78000000 		.4byte	.LVL932
 13493 38e4 0100     		.2byte	0x1
 13494 38e6 50       		.byte	0x50
 13495 38e7 78000000 		.4byte	.LVL932
 13496 38eb AC000000 		.4byte	.LVL940
 13497 38ef 0100     		.2byte	0x1
 13498 38f1 52       		.byte	0x52
 13499 38f2 00000000 		.4byte	0x0
 13500 38f6 00000000 		.4byte	0x0
 13501              	.LLST186:
 13502 38fa 42000000 		.4byte	.LVL925
 13503 38fe 4A000000 		.4byte	.LVL926
 13504 3902 0100     		.2byte	0x1
ARM GAS  /tmp/ccSqa4tb.s 			page 238


 13505 3904 53       		.byte	0x53
 13506 3905 4A000000 		.4byte	.LVL926
 13507 3909 50000000 		.4byte	.LVL927
 13508 390d 0100     		.2byte	0x1
 13509 390f 53       		.byte	0x53
 13510 3910 88000000 		.4byte	.LVL933
 13511 3914 8C000000 		.4byte	.LVL934
 13512 3918 0100     		.2byte	0x1
 13513 391a 51       		.byte	0x51
 13514 391b 8C000000 		.4byte	.LVL934
 13515 391f 90000000 		.4byte	.LVL935
 13516 3923 0100     		.2byte	0x1
 13517 3925 51       		.byte	0x51
 13518 3926 90000000 		.4byte	.LVL935
 13519 392a 96000000 		.4byte	.LVL936
 13520 392e 0100     		.2byte	0x1
 13521 3930 51       		.byte	0x51
 13522 3931 96000000 		.4byte	.LVL936
 13523 3935 9E000000 		.4byte	.LVL937
 13524 3939 0100     		.2byte	0x1
 13525 393b 58       		.byte	0x58
 13526 393c 9E000000 		.4byte	.LVL937
 13527 3940 A2000000 		.4byte	.LVL938
 13528 3944 0300     		.2byte	0x3
 13529 3946 78       		.byte	0x78
 13530 3947 7F       		.sleb128 -1
 13531 3948 9F       		.byte	0x9f
 13532 3949 A2000000 		.4byte	.LVL938
 13533 394d A6000000 		.4byte	.LVL939
 13534 3951 0100     		.2byte	0x1
 13535 3953 58       		.byte	0x58
 13536 3954 00000000 		.4byte	0x0
 13537 3958 00000000 		.4byte	0x0
 13538              	.LLST187:
 13539 395c 00000000 		.4byte	.LFB32
 13540 3960 04000000 		.4byte	.LCFI27
 13541 3964 0200     		.2byte	0x2
 13542 3966 7D       		.byte	0x7d
 13543 3967 00       		.sleb128 0
 13544 3968 04000000 		.4byte	.LCFI27
 13545 396c 62000000 		.4byte	.LFE32
 13546 3970 0200     		.2byte	0x2
 13547 3972 7D       		.byte	0x7d
 13548 3973 28       		.sleb128 40
 13549 3974 00000000 		.4byte	0x0
 13550 3978 00000000 		.4byte	0x0
 13551              	.LLST188:
 13552 397c 00000000 		.4byte	.LVL941
 13553 3980 18000000 		.4byte	.LVL942
 13554 3984 0100     		.2byte	0x1
 13555 3986 50       		.byte	0x50
 13556 3987 18000000 		.4byte	.LVL942
 13557 398b 62000000 		.4byte	.LFE32
 13558 398f 0100     		.2byte	0x1
 13559 3991 54       		.byte	0x54
 13560 3992 00000000 		.4byte	0x0
 13561 3996 00000000 		.4byte	0x0
ARM GAS  /tmp/ccSqa4tb.s 			page 239


 13562              	.LLST189:
 13563 399a 00000000 		.4byte	.LVL941
 13564 399e 1B000000 		.4byte	.LVL943-1
 13565 39a2 0100     		.2byte	0x1
 13566 39a4 51       		.byte	0x51
 13567 39a5 1B000000 		.4byte	.LVL943-1
 13568 39a9 62000000 		.4byte	.LFE32
 13569 39ad 0100     		.2byte	0x1
 13570 39af 5A       		.byte	0x5a
 13571 39b0 00000000 		.4byte	0x0
 13572 39b4 00000000 		.4byte	0x0
 13573              	.LLST190:
 13574 39b8 00000000 		.4byte	.LVL941
 13575 39bc 1B000000 		.4byte	.LVL943-1
 13576 39c0 0100     		.2byte	0x1
 13577 39c2 52       		.byte	0x52
 13578 39c3 1B000000 		.4byte	.LVL943-1
 13579 39c7 62000000 		.4byte	.LFE32
 13580 39cb 0100     		.2byte	0x1
 13581 39cd 55       		.byte	0x55
 13582 39ce 00000000 		.4byte	0x0
 13583 39d2 00000000 		.4byte	0x0
 13584              	.LLST191:
 13585 39d6 00000000 		.4byte	.LVL941
 13586 39da 1B000000 		.4byte	.LVL943-1
 13587 39de 0100     		.2byte	0x1
 13588 39e0 53       		.byte	0x53
 13589 39e1 1B000000 		.4byte	.LVL943-1
 13590 39e5 62000000 		.4byte	.LFE32
 13591 39e9 0100     		.2byte	0x1
 13592 39eb 59       		.byte	0x59
 13593 39ec 00000000 		.4byte	0x0
 13594 39f0 00000000 		.4byte	0x0
 13595              	.LLST192:
 13596 39f4 26000000 		.4byte	.LVL944
 13597 39f8 2E000000 		.4byte	.LVL945
 13598 39fc 0100     		.2byte	0x1
 13599 39fe 57       		.byte	0x57
 13600 39ff 2E000000 		.4byte	.LVL945
 13601 3a03 30000000 		.4byte	.LVL946
 13602 3a07 0300     		.2byte	0x3
 13603 3a09 77       		.byte	0x77
 13604 3a0a 7D       		.sleb128 -3
 13605 3a0b 9F       		.byte	0x9f
 13606 3a0c 30000000 		.4byte	.LVL946
 13607 3a10 62000000 		.4byte	.LFE32
 13608 3a14 0100     		.2byte	0x1
 13609 3a16 57       		.byte	0x57
 13610 3a17 00000000 		.4byte	0x0
 13611 3a1b 00000000 		.4byte	0x0
 13612              	.LLST193:
 13613 3a1f 3C000000 		.4byte	.LVL948
 13614 3a23 44000000 		.4byte	.LVL949
 13615 3a27 0100     		.2byte	0x1
 13616 3a29 50       		.byte	0x50
 13617 3a2a 00000000 		.4byte	0x0
 13618 3a2e 00000000 		.4byte	0x0
ARM GAS  /tmp/ccSqa4tb.s 			page 240


 13619              	.LLST194:
 13620 3a32 00000000 		.4byte	.LFB42
 13621 3a36 02000000 		.4byte	.LCFI28
 13622 3a3a 0200     		.2byte	0x2
 13623 3a3c 7D       		.byte	0x7d
 13624 3a3d 00       		.sleb128 0
 13625 3a3e 02000000 		.4byte	.LCFI28
 13626 3a42 80000000 		.4byte	.LFE42
 13627 3a46 0200     		.2byte	0x2
 13628 3a48 7D       		.byte	0x7d
 13629 3a49 14       		.sleb128 20
 13630 3a4a 00000000 		.4byte	0x0
 13631 3a4e 00000000 		.4byte	0x0
 13632              	.LLST195:
 13633 3a52 00000000 		.4byte	.LVL951
 13634 3a56 7E000000 		.4byte	.LVL972
 13635 3a5a 0100     		.2byte	0x1
 13636 3a5c 50       		.byte	0x50
 13637 3a5d 00000000 		.4byte	0x0
 13638 3a61 00000000 		.4byte	0x0
 13639              	.LLST196:
 13640 3a65 00000000 		.4byte	.LVL951
 13641 3a69 1A000000 		.4byte	.LVL953
 13642 3a6d 0100     		.2byte	0x1
 13643 3a6f 51       		.byte	0x51
 13644 3a70 1A000000 		.4byte	.LVL953
 13645 3a74 4A000000 		.4byte	.LVL963
 13646 3a78 0100     		.2byte	0x1
 13647 3a7a 51       		.byte	0x51
 13648 3a7b 00000000 		.4byte	0x0
 13649 3a7f 00000000 		.4byte	0x0
 13650              	.LLST197:
 13651 3a83 00000000 		.4byte	.LVL951
 13652 3a87 74000000 		.4byte	.LVL969
 13653 3a8b 0100     		.2byte	0x1
 13654 3a8d 53       		.byte	0x53
 13655 3a8e 7A000000 		.4byte	.LVL970
 13656 3a92 7C000000 		.4byte	.LVL971
 13657 3a96 0100     		.2byte	0x1
 13658 3a98 53       		.byte	0x53
 13659 3a99 00000000 		.4byte	0x0
 13660 3a9d 00000000 		.4byte	0x0
 13661              	.LLST198:
 13662 3aa1 00000000 		.4byte	.LVL951
 13663 3aa5 12000000 		.4byte	.LVL952
 13664 3aa9 0200     		.2byte	0x2
 13665 3aab 30       		.byte	0x30
 13666 3aac 9F       		.byte	0x9f
 13667 3aad 12000000 		.4byte	.LVL952
 13668 3ab1 2A000000 		.4byte	.LVL955
 13669 3ab5 0100     		.2byte	0x1
 13670 3ab7 54       		.byte	0x54
 13671 3ab8 2C000000 		.4byte	.LVL956
 13672 3abc 2E000000 		.4byte	.LVL957
 13673 3ac0 0100     		.2byte	0x1
 13674 3ac2 54       		.byte	0x54
 13675 3ac3 3A000000 		.4byte	.LVL961
ARM GAS  /tmp/ccSqa4tb.s 			page 241


 13676 3ac7 3E000000 		.4byte	.LVL962
 13677 3acb 0100     		.2byte	0x1
 13678 3acd 55       		.byte	0x55
 13679 3ace 3E000000 		.4byte	.LVL962
 13680 3ad2 4A000000 		.4byte	.LVL963
 13681 3ad6 0200     		.2byte	0x2
 13682 3ad8 30       		.byte	0x30
 13683 3ad9 9F       		.byte	0x9f
 13684 3ada 4A000000 		.4byte	.LVL963
 13685 3ade 4E000000 		.4byte	.LVL964
 13686 3ae2 0100     		.2byte	0x1
 13687 3ae4 54       		.byte	0x54
 13688 3ae5 4E000000 		.4byte	.LVL964
 13689 3ae9 50000000 		.4byte	.LVL965
 13690 3aed 0100     		.2byte	0x1
 13691 3aef 54       		.byte	0x54
 13692 3af0 50000000 		.4byte	.LVL965
 13693 3af4 5E000000 		.4byte	.LVL966
 13694 3af8 0100     		.2byte	0x1
 13695 3afa 54       		.byte	0x54
 13696 3afb 5E000000 		.4byte	.LVL966
 13697 3aff 6C000000 		.4byte	.LVL967
 13698 3b03 0100     		.2byte	0x1
 13699 3b05 54       		.byte	0x54
 13700 3b06 6C000000 		.4byte	.LVL967
 13701 3b0a 70000000 		.4byte	.LVL968
 13702 3b0e 0300     		.2byte	0x3
 13703 3b10 73       		.byte	0x73
 13704 3b11 7F       		.sleb128 -1
 13705 3b12 9F       		.byte	0x9f
 13706 3b13 70000000 		.4byte	.LVL968
 13707 3b17 80000000 		.4byte	.LFE42
 13708 3b1b 0100     		.2byte	0x1
 13709 3b1d 54       		.byte	0x54
 13710 3b1e 00000000 		.4byte	0x0
 13711 3b22 00000000 		.4byte	0x0
 13712              	.LLST199:
 13713 3b26 12000000 		.4byte	.LVL952
 13714 3b2a 1A000000 		.4byte	.LVL953
 13715 3b2e 0100     		.2byte	0x1
 13716 3b30 5C       		.byte	0x5c
 13717 3b31 1A000000 		.4byte	.LVL953
 13718 3b35 36000000 		.4byte	.LVL960
 13719 3b39 0100     		.2byte	0x1
 13720 3b3b 5C       		.byte	0x5c
 13721 3b3c 3A000000 		.4byte	.LVL961
 13722 3b40 3E000000 		.4byte	.LVL962
 13723 3b44 0100     		.2byte	0x1
 13724 3b46 5C       		.byte	0x5c
 13725 3b47 00000000 		.4byte	0x0
 13726 3b4b 00000000 		.4byte	0x0
 13727              	.LLST200:
 13728 3b4f 12000000 		.4byte	.LVL952
 13729 3b53 30000000 		.4byte	.LVL958
 13730 3b57 0100     		.2byte	0x1
 13731 3b59 56       		.byte	0x56
 13732 3b5a 30000000 		.4byte	.LVL958
ARM GAS  /tmp/ccSqa4tb.s 			page 242


 13733 3b5e 34000000 		.4byte	.LVL959
 13734 3b62 0300     		.2byte	0x3
 13735 3b64 76       		.byte	0x76
 13736 3b65 7D       		.sleb128 -3
 13737 3b66 9F       		.byte	0x9f
 13738 3b67 34000000 		.4byte	.LVL959
 13739 3b6b 36000000 		.4byte	.LVL960
 13740 3b6f 0100     		.2byte	0x1
 13741 3b71 56       		.byte	0x56
 13742 3b72 3A000000 		.4byte	.LVL961
 13743 3b76 3E000000 		.4byte	.LVL962
 13744 3b7a 0100     		.2byte	0x1
 13745 3b7c 56       		.byte	0x56
 13746 3b7d 00000000 		.4byte	0x0
 13747 3b81 00000000 		.4byte	0x0
 13748              	.LLST201:
 13749 3b85 22000000 		.4byte	.LVL954
 13750 3b89 36000000 		.4byte	.LVL960
 13751 3b8d 0100     		.2byte	0x1
 13752 3b8f 57       		.byte	0x57
 13753 3b90 00000000 		.4byte	0x0
 13754 3b94 00000000 		.4byte	0x0
 13755              	.LLST202:
 13756 3b98 00000000 		.4byte	.LFB43
 13757 3b9c 02000000 		.4byte	.LCFI29
 13758 3ba0 0200     		.2byte	0x2
 13759 3ba2 7D       		.byte	0x7d
 13760 3ba3 00       		.sleb128 0
 13761 3ba4 02000000 		.4byte	.LCFI29
 13762 3ba8 E4000000 		.4byte	.LFE43
 13763 3bac 0200     		.2byte	0x2
 13764 3bae 7D       		.byte	0x7d
 13765 3baf 10       		.sleb128 16
 13766 3bb0 00000000 		.4byte	0x0
 13767 3bb4 00000000 		.4byte	0x0
 13768              	.LLST203:
 13769 3bb8 00000000 		.4byte	.LVL973
 13770 3bbc 12000000 		.4byte	.LVL974
 13771 3bc0 0100     		.2byte	0x1
 13772 3bc2 50       		.byte	0x50
 13773 3bc3 12000000 		.4byte	.LVL974
 13774 3bc7 44000000 		.4byte	.LVL978
 13775 3bcb 0100     		.2byte	0x1
 13776 3bcd 53       		.byte	0x53
 13777 3bce 44000000 		.4byte	.LVL978
 13778 3bd2 52000000 		.4byte	.LVL979
 13779 3bd6 0300     		.2byte	0x3
 13780 3bd8 73       		.byte	0x73
 13781 3bd9 01       		.sleb128 1
 13782 3bda 9F       		.byte	0x9f
 13783 3bdb 52000000 		.4byte	.LVL979
 13784 3bdf 58000000 		.4byte	.LVL981
 13785 3be3 0100     		.2byte	0x1
 13786 3be5 53       		.byte	0x53
 13787 3be6 58000000 		.4byte	.LVL981
 13788 3bea 66000000 		.4byte	.LVL982
 13789 3bee 0300     		.2byte	0x3
ARM GAS  /tmp/ccSqa4tb.s 			page 243


 13790 3bf0 73       		.byte	0x73
 13791 3bf1 01       		.sleb128 1
 13792 3bf2 9F       		.byte	0x9f
 13793 3bf3 66000000 		.4byte	.LVL982
 13794 3bf7 6C000000 		.4byte	.LVL984
 13795 3bfb 0100     		.2byte	0x1
 13796 3bfd 53       		.byte	0x53
 13797 3bfe 6C000000 		.4byte	.LVL984
 13798 3c02 7A000000 		.4byte	.LVL985
 13799 3c06 0300     		.2byte	0x3
 13800 3c08 73       		.byte	0x73
 13801 3c09 01       		.sleb128 1
 13802 3c0a 9F       		.byte	0x9f
 13803 3c0b 7A000000 		.4byte	.LVL985
 13804 3c0f 80000000 		.4byte	.LVL987
 13805 3c13 0100     		.2byte	0x1
 13806 3c15 53       		.byte	0x53
 13807 3c16 80000000 		.4byte	.LVL987
 13808 3c1a 8E000000 		.4byte	.LVL988
 13809 3c1e 0300     		.2byte	0x3
 13810 3c20 73       		.byte	0x73
 13811 3c21 01       		.sleb128 1
 13812 3c22 9F       		.byte	0x9f
 13813 3c23 8E000000 		.4byte	.LVL988
 13814 3c27 94000000 		.4byte	.LVL990
 13815 3c2b 0100     		.2byte	0x1
 13816 3c2d 53       		.byte	0x53
 13817 3c2e 94000000 		.4byte	.LVL990
 13818 3c32 A2000000 		.4byte	.LVL991
 13819 3c36 0300     		.2byte	0x3
 13820 3c38 73       		.byte	0x73
 13821 3c39 01       		.sleb128 1
 13822 3c3a 9F       		.byte	0x9f
 13823 3c3b A2000000 		.4byte	.LVL991
 13824 3c3f D4000000 		.4byte	.LVL994
 13825 3c43 0100     		.2byte	0x1
 13826 3c45 53       		.byte	0x53
 13827 3c46 D8000000 		.4byte	.LVL995
 13828 3c4a E4000000 		.4byte	.LFE43
 13829 3c4e 0100     		.2byte	0x1
 13830 3c50 53       		.byte	0x53
 13831 3c51 00000000 		.4byte	0x0
 13832 3c55 00000000 		.4byte	0x0
 13833              	.LLST204:
 13834 3c59 12000000 		.4byte	.LVL974
 13835 3c5d 34000000 		.4byte	.LVL976
 13836 3c61 0100     		.2byte	0x1
 13837 3c63 54       		.byte	0x54
 13838 3c64 42000000 		.4byte	.LVL977
 13839 3c68 44000000 		.4byte	.LVL978
 13840 3c6c 0200     		.2byte	0x2
 13841 3c6e 70       		.byte	0x70
 13842 3c6f 01       		.sleb128 1
 13843 3c70 44000000 		.4byte	.LVL978
 13844 3c74 52000000 		.4byte	.LVL979
 13845 3c78 0200     		.2byte	0x2
 13846 3c7a 73       		.byte	0x73
ARM GAS  /tmp/ccSqa4tb.s 			page 244


 13847 3c7b 00       		.sleb128 0
 13848 3c7c 56000000 		.4byte	.LVL980
 13849 3c80 66000000 		.4byte	.LVL982
 13850 3c84 0200     		.2byte	0x2
 13851 3c86 73       		.byte	0x73
 13852 3c87 00       		.sleb128 0
 13853 3c88 6A000000 		.4byte	.LVL983
 13854 3c8c 7A000000 		.4byte	.LVL985
 13855 3c90 0200     		.2byte	0x2
 13856 3c92 73       		.byte	0x73
 13857 3c93 00       		.sleb128 0
 13858 3c94 7E000000 		.4byte	.LVL986
 13859 3c98 8E000000 		.4byte	.LVL988
 13860 3c9c 0200     		.2byte	0x2
 13861 3c9e 73       		.byte	0x73
 13862 3c9f 00       		.sleb128 0
 13863 3ca0 92000000 		.4byte	.LVL989
 13864 3ca4 A2000000 		.4byte	.LVL991
 13865 3ca8 0200     		.2byte	0x2
 13866 3caa 73       		.byte	0x73
 13867 3cab 00       		.sleb128 0
 13868 3cac 00000000 		.4byte	0x0
 13869 3cb0 00000000 		.4byte	0x0
 13870              	.LLST205:
 13871 3cb4 34000000 		.4byte	.LVL976
 13872 3cb8 56000000 		.4byte	.LVL980
 13873 3cbc 0100     		.2byte	0x1
 13874 3cbe 54       		.byte	0x54
 13875 3cbf 56000000 		.4byte	.LVL980
 13876 3cc3 6A000000 		.4byte	.LVL983
 13877 3cc7 0100     		.2byte	0x1
 13878 3cc9 54       		.byte	0x54
 13879 3cca 6A000000 		.4byte	.LVL983
 13880 3cce 7E000000 		.4byte	.LVL986
 13881 3cd2 0100     		.2byte	0x1
 13882 3cd4 54       		.byte	0x54
 13883 3cd5 7E000000 		.4byte	.LVL986
 13884 3cd9 92000000 		.4byte	.LVL989
 13885 3cdd 0100     		.2byte	0x1
 13886 3cdf 54       		.byte	0x54
 13887 3ce0 92000000 		.4byte	.LVL989
 13888 3ce4 A6000000 		.4byte	.LVL992
 13889 3ce8 0100     		.2byte	0x1
 13890 3cea 54       		.byte	0x54
 13891 3ceb A6000000 		.4byte	.LVL992
 13892 3cef C8000000 		.4byte	.LVL993
 13893 3cf3 0100     		.2byte	0x1
 13894 3cf5 54       		.byte	0x54
 13895 3cf6 C8000000 		.4byte	.LVL993
 13896 3cfa D4000000 		.4byte	.LVL994
 13897 3cfe 0100     		.2byte	0x1
 13898 3d00 54       		.byte	0x54
 13899 3d01 D8000000 		.4byte	.LVL995
 13900 3d05 E4000000 		.4byte	.LFE43
 13901 3d09 0100     		.2byte	0x1
 13902 3d0b 54       		.byte	0x54
 13903 3d0c 00000000 		.4byte	0x0
ARM GAS  /tmp/ccSqa4tb.s 			page 245


 13904 3d10 00000000 		.4byte	0x0
 13905              	.LLST206:
 13906 3d14 2C000000 		.4byte	.LVL975
 13907 3d18 C8000000 		.4byte	.LVL993
 13908 3d1c 0100     		.2byte	0x1
 13909 3d1e 55       		.byte	0x55
 13910 3d1f 00000000 		.4byte	0x0
 13911 3d23 00000000 		.4byte	0x0
 13912              	.LLST207:
 13913 3d27 00000000 		.4byte	.LFB44
 13914 3d2b 02000000 		.4byte	.LCFI30
 13915 3d2f 0200     		.2byte	0x2
 13916 3d31 7D       		.byte	0x7d
 13917 3d32 00       		.sleb128 0
 13918 3d33 02000000 		.4byte	.LCFI30
 13919 3d37 5C010000 		.4byte	.LFE44
 13920 3d3b 0200     		.2byte	0x2
 13921 3d3d 7D       		.byte	0x7d
 13922 3d3e 0C       		.sleb128 12
 13923 3d3f 00000000 		.4byte	0x0
 13924 3d43 00000000 		.4byte	0x0
 13925              	.LLST208:
 13926 3d47 00000000 		.4byte	.LVL996
 13927 3d4b 14000000 		.4byte	.LVL997
 13928 3d4f 0100     		.2byte	0x1
 13929 3d51 50       		.byte	0x50
 13930 3d52 14000000 		.4byte	.LVL997
 13931 3d56 38000000 		.4byte	.LVL1000
 13932 3d5a 0100     		.2byte	0x1
 13933 3d5c 50       		.byte	0x50
 13934 3d5d 38000000 		.4byte	.LVL1000
 13935 3d61 40000000 		.4byte	.LVL1001
 13936 3d65 0100     		.2byte	0x1
 13937 3d67 52       		.byte	0x52
 13938 3d68 40000000 		.4byte	.LVL1001
 13939 3d6c 74000000 		.4byte	.LVL1004
 13940 3d70 0100     		.2byte	0x1
 13941 3d72 50       		.byte	0x50
 13942 3d73 74000000 		.4byte	.LVL1004
 13943 3d77 8C000000 		.4byte	.LVL1006
 13944 3d7b 0300     		.2byte	0x3
 13945 3d7d 72       		.byte	0x72
 13946 3d7e 01       		.sleb128 1
 13947 3d7f 9F       		.byte	0x9f
 13948 3d80 8C000000 		.4byte	.LVL1006
 13949 3d84 A8000000 		.4byte	.LVL1009
 13950 3d88 0100     		.2byte	0x1
 13951 3d8a 50       		.byte	0x50
 13952 3d8b A8000000 		.4byte	.LVL1009
 13953 3d8f AA000000 		.4byte	.LVL1010
 13954 3d93 0100     		.2byte	0x1
 13955 3d95 52       		.byte	0x52
 13956 3d96 AA000000 		.4byte	.LVL1010
 13957 3d9a C4000000 		.4byte	.LVL1012
 13958 3d9e 0100     		.2byte	0x1
 13959 3da0 50       		.byte	0x50
 13960 3da1 C4000000 		.4byte	.LVL1012
ARM GAS  /tmp/ccSqa4tb.s 			page 246


 13961 3da5 DC000000 		.4byte	.LVL1013
 13962 3da9 0100     		.2byte	0x1
 13963 3dab 52       		.byte	0x52
 13964 3dac DC000000 		.4byte	.LVL1013
 13965 3db0 DE000000 		.4byte	.LVL1014
 13966 3db4 0100     		.2byte	0x1
 13967 3db6 54       		.byte	0x54
 13968 3db7 F6000000 		.4byte	.LVL1016
 13969 3dbb 0C010000 		.4byte	.LVL1019
 13970 3dbf 0100     		.2byte	0x1
 13971 3dc1 50       		.byte	0x50
 13972 3dc2 0C010000 		.4byte	.LVL1019
 13973 3dc6 24010000 		.4byte	.LVL1020
 13974 3dca 0100     		.2byte	0x1
 13975 3dcc 52       		.byte	0x52
 13976 3dcd 24010000 		.4byte	.LVL1020
 13977 3dd1 28010000 		.4byte	.LVL1021
 13978 3dd5 0100     		.2byte	0x1
 13979 3dd7 50       		.byte	0x50
 13980 3dd8 28010000 		.4byte	.LVL1021
 13981 3ddc 34010000 		.4byte	.LVL1022
 13982 3de0 0100     		.2byte	0x1
 13983 3de2 52       		.byte	0x52
 13984 3de3 4C010000 		.4byte	.LVL1024
 13985 3de7 52010000 		.4byte	.LVL1025
 13986 3deb 0100     		.2byte	0x1
 13987 3ded 50       		.byte	0x50
 13988 3dee 52010000 		.4byte	.LVL1025
 13989 3df2 54010000 		.4byte	.LVL1026
 13990 3df6 0200     		.2byte	0x2
 13991 3df8 71       		.byte	0x71
 13992 3df9 00       		.sleb128 0
 13993 3dfa 54010000 		.4byte	.LVL1026
 13994 3dfe 56010000 		.4byte	.LVL1027
 13995 3e02 0100     		.2byte	0x1
 13996 3e04 50       		.byte	0x50
 13997 3e05 58010000 		.4byte	.LVL1028
 13998 3e09 5A010000 		.4byte	.LVL1029
 13999 3e0d 0100     		.2byte	0x1
 14000 3e0f 50       		.byte	0x50
 14001 3e10 00000000 		.4byte	0x0
 14002 3e14 00000000 		.4byte	0x0
 14003              	.LLST209:
 14004 3e18 00000000 		.4byte	.LVL996
 14005 3e1c 2C000000 		.4byte	.LVL998
 14006 3e20 0100     		.2byte	0x1
 14007 3e22 52       		.byte	0x52
 14008 3e23 42000000 		.4byte	.LVL1002
 14009 3e27 54000000 		.4byte	.LVL1003
 14010 3e2b 0100     		.2byte	0x1
 14011 3e2d 52       		.byte	0x52
 14012 3e2e 8E000000 		.4byte	.LVL1007
 14013 3e32 A4000000 		.4byte	.LVL1008
 14014 3e36 0100     		.2byte	0x1
 14015 3e38 52       		.byte	0x52
 14016 3e39 AA000000 		.4byte	.LVL1010
 14017 3e3d BC000000 		.4byte	.LVL1011
ARM GAS  /tmp/ccSqa4tb.s 			page 247


 14018 3e41 0100     		.2byte	0x1
 14019 3e43 52       		.byte	0x52
 14020 3e44 F8000000 		.4byte	.LVL1017
 14021 3e48 04010000 		.4byte	.LVL1018
 14022 3e4c 0100     		.2byte	0x1
 14023 3e4e 52       		.byte	0x52
 14024 3e4f 00000000 		.4byte	0x0
 14025 3e53 00000000 		.4byte	0x0
 14026              	.LLST210:
 14027 3e57 00000000 		.4byte	.LVL996
 14028 3e5b 34000000 		.4byte	.LVL999
 14029 3e5f 0100     		.2byte	0x1
 14030 3e61 53       		.byte	0x53
 14031 3e62 42000000 		.4byte	.LVL1002
 14032 3e66 7E000000 		.4byte	.LVL1005
 14033 3e6a 0100     		.2byte	0x1
 14034 3e6c 53       		.byte	0x53
 14035 3e6d 8E000000 		.4byte	.LVL1007
 14036 3e71 E8000000 		.4byte	.LVL1015
 14037 3e75 0100     		.2byte	0x1
 14038 3e77 53       		.byte	0x53
 14039 3e78 F8000000 		.4byte	.LVL1017
 14040 3e7c 3E010000 		.4byte	.LVL1023
 14041 3e80 0100     		.2byte	0x1
 14042 3e82 53       		.byte	0x53
 14043 3e83 54010000 		.4byte	.LVL1026
 14044 3e87 58010000 		.4byte	.LVL1028
 14045 3e8b 0100     		.2byte	0x1
 14046 3e8d 53       		.byte	0x53
 14047 3e8e 00000000 		.4byte	0x0
 14048 3e92 00000000 		.4byte	0x0
 14049              	.LLST211:
 14050 3e96 00000000 		.4byte	.LFB45
 14051 3e9a 02000000 		.4byte	.LCFI31
 14052 3e9e 0200     		.2byte	0x2
 14053 3ea0 7D       		.byte	0x7d
 14054 3ea1 00       		.sleb128 0
 14055 3ea2 02000000 		.4byte	.LCFI31
 14056 3ea6 26000000 		.4byte	.LFE45
 14057 3eaa 0200     		.2byte	0x2
 14058 3eac 7D       		.byte	0x7d
 14059 3ead 18       		.sleb128 24
 14060 3eae 00000000 		.4byte	0x0
 14061 3eb2 00000000 		.4byte	0x0
 14062              	.LLST212:
 14063 3eb6 00000000 		.4byte	.LVL1030
 14064 3eba 0A000000 		.4byte	.LVL1031
 14065 3ebe 0100     		.2byte	0x1
 14066 3ec0 50       		.byte	0x50
 14067 3ec1 0A000000 		.4byte	.LVL1031
 14068 3ec5 26000000 		.4byte	.LFE45
 14069 3ec9 0200     		.2byte	0x2
 14070 3ecb 91       		.byte	0x91
 14071 3ecc 6C       		.sleb128 -20
 14072 3ecd 00000000 		.4byte	0x0
 14073 3ed1 00000000 		.4byte	0x0
 14074              	.LLST213:
ARM GAS  /tmp/ccSqa4tb.s 			page 248


 14075 3ed5 00000000 		.4byte	.LVL1030
 14076 3ed9 0A000000 		.4byte	.LVL1031
 14077 3edd 0100     		.2byte	0x1
 14078 3edf 51       		.byte	0x51
 14079 3ee0 0A000000 		.4byte	.LVL1031
 14080 3ee4 26000000 		.4byte	.LFE45
 14081 3ee8 0100     		.2byte	0x1
 14082 3eea 55       		.byte	0x55
 14083 3eeb 00000000 		.4byte	0x0
 14084 3eef 00000000 		.4byte	0x0
 14085              	.LLST214:
 14086 3ef3 00000000 		.4byte	.LVL1030
 14087 3ef7 0A000000 		.4byte	.LVL1031
 14088 3efb 0200     		.2byte	0x2
 14089 3efd 30       		.byte	0x30
 14090 3efe 9F       		.byte	0x9f
 14091 3eff 12000000 		.4byte	.LVL1032
 14092 3f03 16000000 		.4byte	.LVL1034
 14093 3f07 0100     		.2byte	0x1
 14094 3f09 50       		.byte	0x50
 14095 3f0a 00000000 		.4byte	0x0
 14096 3f0e 00000000 		.4byte	0x0
 14097              	.LLST215:
 14098 3f12 00000000 		.4byte	.LVL1030
 14099 3f16 0A000000 		.4byte	.LVL1031
 14100 3f1a 0200     		.2byte	0x2
 14101 3f1c 30       		.byte	0x30
 14102 3f1d 9F       		.byte	0x9f
 14103 3f1e 14000000 		.4byte	.LVL1033
 14104 3f22 16000000 		.4byte	.LVL1034
 14105 3f26 0100     		.2byte	0x1
 14106 3f28 54       		.byte	0x54
 14107 3f29 00000000 		.4byte	0x0
 14108 3f2d 00000000 		.4byte	0x0
 14109              	.LLST216:
 14110 3f31 00000000 		.4byte	.LFB46
 14111 3f35 04000000 		.4byte	.LCFI32
 14112 3f39 0200     		.2byte	0x2
 14113 3f3b 7D       		.byte	0x7d
 14114 3f3c 00       		.sleb128 0
 14115 3f3d 04000000 		.4byte	.LCFI32
 14116 3f41 06000000 		.4byte	.LCFI33
 14117 3f45 0200     		.2byte	0x2
 14118 3f47 7D       		.byte	0x7d
 14119 3f48 1C       		.sleb128 28
 14120 3f49 06000000 		.4byte	.LCFI33
 14121 3f4d 4C000000 		.4byte	.LFE46
 14122 3f51 0200     		.2byte	0x2
 14123 3f53 7D       		.byte	0x7d
 14124 3f54 30       		.sleb128 48
 14125 3f55 00000000 		.4byte	0x0
 14126 3f59 00000000 		.4byte	0x0
 14127              	.LLST217:
 14128 3f5d 00000000 		.4byte	.LVL1035
 14129 3f61 0D000000 		.4byte	.LVL1036-1
 14130 3f65 0100     		.2byte	0x1
 14131 3f67 50       		.byte	0x50
ARM GAS  /tmp/ccSqa4tb.s 			page 249


 14132 3f68 0D000000 		.4byte	.LVL1036-1
 14133 3f6c 26000000 		.4byte	.LVL1039
 14134 3f70 0100     		.2byte	0x1
 14135 3f72 57       		.byte	0x57
 14136 3f73 26000000 		.4byte	.LVL1039
 14137 3f77 3C000000 		.4byte	.LVL1041
 14138 3f7b 0300     		.2byte	0x3
 14139 3f7d 77       		.byte	0x77
 14140 3f7e 7C       		.sleb128 -4
 14141 3f7f 9F       		.byte	0x9f
 14142 3f80 3C000000 		.4byte	.LVL1041
 14143 3f84 4C000000 		.4byte	.LFE46
 14144 3f88 0100     		.2byte	0x1
 14145 3f8a 57       		.byte	0x57
 14146 3f8b 00000000 		.4byte	0x0
 14147 3f8f 00000000 		.4byte	0x0
 14148              	.LLST218:
 14149 3f93 00000000 		.4byte	.LVL1035
 14150 3f97 0D000000 		.4byte	.LVL1036-1
 14151 3f9b 0100     		.2byte	0x1
 14152 3f9d 51       		.byte	0x51
 14153 3f9e 0D000000 		.4byte	.LVL1036-1
 14154 3fa2 4C000000 		.4byte	.LFE46
 14155 3fa6 0100     		.2byte	0x1
 14156 3fa8 59       		.byte	0x59
 14157 3fa9 00000000 		.4byte	0x0
 14158 3fad 00000000 		.4byte	0x0
 14159              	.LLST219:
 14160 3fb1 0E000000 		.4byte	.LVL1036
 14161 3fb5 22000000 		.4byte	.LVL1038
 14162 3fb9 0100     		.2byte	0x1
 14163 3fbb 50       		.byte	0x50
 14164 3fbc 22000000 		.4byte	.LVL1038
 14165 3fc0 4C000000 		.4byte	.LFE46
 14166 3fc4 0100     		.2byte	0x1
 14167 3fc6 54       		.byte	0x54
 14168 3fc7 00000000 		.4byte	0x0
 14169 3fcb 00000000 		.4byte	0x0
 14170              	.LLST220:
 14171 3fcf 22000000 		.4byte	.LVL1038
 14172 3fd3 26000000 		.4byte	.LVL1039
 14173 3fd7 0100     		.2byte	0x1
 14174 3fd9 53       		.byte	0x53
 14175 3fda 26000000 		.4byte	.LVL1039
 14176 3fde 4C000000 		.4byte	.LFE46
 14177 3fe2 0200     		.2byte	0x2
 14178 3fe4 91       		.byte	0x91
 14179 3fe5 5C       		.sleb128 -36
 14180 3fe6 00000000 		.4byte	0x0
 14181 3fea 00000000 		.4byte	0x0
 14182              	.LLST221:
 14183 3fee 1A000000 		.4byte	.LVL1037
 14184 3ff2 22000000 		.4byte	.LVL1038
 14185 3ff6 0200     		.2byte	0x2
 14186 3ff8 79       		.byte	0x79
 14187 3ff9 00       		.sleb128 0
 14188 3ffa 00000000 		.4byte	0x0
ARM GAS  /tmp/ccSqa4tb.s 			page 250


 14189 3ffe 00000000 		.4byte	0x0
 14190              	.LLST222:
 14191 4002 1A000000 		.4byte	.LVL1037
 14192 4006 22000000 		.4byte	.LVL1038
 14193 400a 0200     		.2byte	0x2
 14194 400c 30       		.byte	0x30
 14195 400d 9F       		.byte	0x9f
 14196 400e 22000000 		.4byte	.LVL1038
 14197 4012 3A000000 		.4byte	.LVL1040
 14198 4016 0100     		.2byte	0x1
 14199 4018 55       		.byte	0x55
 14200 4019 3A000000 		.4byte	.LVL1040
 14201 401d 3C000000 		.4byte	.LVL1041
 14202 4021 0100     		.2byte	0x1
 14203 4023 55       		.byte	0x55
 14204 4024 3C000000 		.4byte	.LVL1041
 14205 4028 44000000 		.4byte	.LVL1042
 14206 402c 0100     		.2byte	0x1
 14207 402e 55       		.byte	0x55
 14208 402f 00000000 		.4byte	0x0
 14209 4033 00000000 		.4byte	0x0
 14210              		.file 2 "/home/z80/programs/code-sourcery/2011.03-42/bin/../lib/gcc/arm-none-eabi/4.5.2/include/st
 14211              		.file 3 "/home/z80/programs/code-sourcery/2011.03-42/bin/../lib/gcc/arm-none-eabi/4.5.2/../../../.
 14212              		.file 4 "pawn/amx.h"
 14213              		.section	.debug_info
 14214 0000 D5200000 		.4byte	0x20d5
 14215 0004 0200     		.2byte	0x2
 14216 0006 00000000 		.4byte	.Ldebug_abbrev0
 14217 000a 04       		.byte	0x4
 14218 000b 01       		.uleb128 0x1
 14219 000c A6060000 		.4byte	.LASF370
 14220 0010 01       		.byte	0x1
 14221 0011 30070000 		.4byte	.LASF371
 14222 0015 71080000 		.4byte	.LASF372
 14223 0019 00000000 		.4byte	0x0
 14224 001d 00000000 		.4byte	0x0
 14225 0021 88000000 		.4byte	.Ldebug_ranges0+0x88
 14226 0025 00000000 		.4byte	.Ldebug_line0
 14227 0029 02       		.uleb128 0x2
 14228 002a 04       		.byte	0x4
 14229 002b 03       		.uleb128 0x3
 14230 002c 04       		.byte	0x4
 14231 002d 05       		.byte	0x5
 14232 002e 696E7400 		.ascii	"int\000"
 14233 0032 04       		.uleb128 0x4
 14234 0033 28050000 		.4byte	.LASF1
 14235 0037 02       		.byte	0x2
 14236 0038 D3       		.byte	0xd3
 14237 0039 3D000000 		.4byte	0x3d
 14238 003d 05       		.uleb128 0x5
 14239 003e 04       		.byte	0x4
 14240 003f 07       		.byte	0x7
 14241 0040 4A010000 		.4byte	.LASF0
 14242 0044 06       		.uleb128 0x6
 14243 0045 A3010000 		.4byte	.LASF2
 14244 0049 02       		.byte	0x2
 14245 004a 4301     		.2byte	0x143
ARM GAS  /tmp/ccSqa4tb.s 			page 251


 14246 004c 3D000000 		.4byte	0x3d
 14247 0050 05       		.uleb128 0x5
 14248 0051 01       		.byte	0x1
 14249 0052 06       		.byte	0x6
 14250 0053 AC0E0000 		.4byte	.LASF3
 14251 0057 05       		.uleb128 0x5
 14252 0058 01       		.byte	0x1
 14253 0059 08       		.byte	0x8
 14254 005a C80D0000 		.4byte	.LASF4
 14255 005e 05       		.uleb128 0x5
 14256 005f 02       		.byte	0x2
 14257 0060 05       		.byte	0x5
 14258 0061 1D0B0000 		.4byte	.LASF5
 14259 0065 05       		.uleb128 0x5
 14260 0066 02       		.byte	0x2
 14261 0067 07       		.byte	0x7
 14262 0068 C20E0000 		.4byte	.LASF6
 14263 006c 05       		.uleb128 0x5
 14264 006d 08       		.byte	0x8
 14265 006e 05       		.byte	0x5
 14266 006f FD070000 		.4byte	.LASF7
 14267 0073 05       		.uleb128 0x5
 14268 0074 08       		.byte	0x8
 14269 0075 07       		.byte	0x7
 14270 0076 C0030000 		.4byte	.LASF8
 14271 007a 05       		.uleb128 0x5
 14272 007b 04       		.byte	0x4
 14273 007c 05       		.byte	0x5
 14274 007d 500B0000 		.4byte	.LASF9
 14275 0081 05       		.uleb128 0x5
 14276 0082 04       		.byte	0x4
 14277 0083 07       		.byte	0x7
 14278 0084 000D0000 		.4byte	.LASF10
 14279 0088 07       		.uleb128 0x7
 14280 0089 04       		.byte	0x4
 14281 008a 57000000 		.4byte	0x57
 14282 008e 07       		.uleb128 0x7
 14283 008f 04       		.byte	0x4
 14284 0090 94000000 		.4byte	0x94
 14285 0094 05       		.uleb128 0x5
 14286 0095 01       		.byte	0x1
 14287 0096 08       		.byte	0x8
 14288 0097 7F060000 		.4byte	.LASF11
 14289 009b 07       		.uleb128 0x7
 14290 009c 04       		.byte	0x4
 14291 009d A1000000 		.4byte	0xa1
 14292 00a1 08       		.uleb128 0x8
 14293 00a2 94000000 		.4byte	0x94
 14294 00a6 04       		.uleb128 0x4
 14295 00a7 82030000 		.4byte	.LASF12
 14296 00ab 03       		.byte	0x3
 14297 00ac 35       		.byte	0x35
 14298 00ad 5E000000 		.4byte	0x5e
 14299 00b1 04       		.uleb128 0x4
 14300 00b2 280A0000 		.4byte	.LASF13
 14301 00b6 03       		.byte	0x3
 14302 00b7 36       		.byte	0x36
ARM GAS  /tmp/ccSqa4tb.s 			page 252


 14303 00b8 65000000 		.4byte	0x65
 14304 00bc 04       		.uleb128 0x4
 14305 00bd 360D0000 		.4byte	.LASF14
 14306 00c1 03       		.byte	0x3
 14307 00c2 4F       		.byte	0x4f
 14308 00c3 7A000000 		.4byte	0x7a
 14309 00c7 04       		.uleb128 0x4
 14310 00c8 2B030000 		.4byte	.LASF15
 14311 00cc 03       		.byte	0x3
 14312 00cd 50       		.byte	0x50
 14313 00ce 81000000 		.4byte	0x81
 14314 00d2 04       		.uleb128 0x4
 14315 00d3 0E0A0000 		.4byte	.LASF16
 14316 00d7 03       		.byte	0x3
 14317 00d8 F3       		.byte	0xf3
 14318 00d9 2B000000 		.4byte	0x2b
 14319 00dd 04       		.uleb128 0x4
 14320 00de FE060000 		.4byte	.LASF17
 14321 00e2 04       		.byte	0x4
 14322 00e3 B8       		.byte	0xb8
 14323 00e4 C7000000 		.4byte	0xc7
 14324 00e8 04       		.uleb128 0x4
 14325 00e9 2F0F0000 		.4byte	.LASF18
 14326 00ed 04       		.byte	0x4
 14327 00ee B9       		.byte	0xb9
 14328 00ef BC000000 		.4byte	0xbc
 14329 00f3 04       		.uleb128 0x4
 14330 00f4 C2070000 		.4byte	.LASF19
 14331 00f8 04       		.byte	0x4
 14332 00f9 C5       		.byte	0xc5
 14333 00fa FE000000 		.4byte	0xfe
 14334 00fe 07       		.uleb128 0x7
 14335 00ff 04       		.byte	0x4
 14336 0100 04010000 		.4byte	0x104
 14337 0104 09       		.uleb128 0x9
 14338 0105 01       		.byte	0x1
 14339 0106 E8000000 		.4byte	0xe8
 14340 010a 19010000 		.4byte	0x119
 14341 010e 0A       		.uleb128 0xa
 14342 010f 19010000 		.4byte	0x119
 14343 0113 0A       		.uleb128 0xa
 14344 0114 95020000 		.4byte	0x295
 14345 0118 00       		.byte	0x0
 14346 0119 07       		.uleb128 0x7
 14347 011a 04       		.byte	0x4
 14348 011b 1F010000 		.4byte	0x11f
 14349 011f 0B       		.uleb128 0xb
 14350 0120 DC040000 		.4byte	.LASF39
 14351 0124 78       		.byte	0x78
 14352 0125 04       		.byte	0x4
 14353 0126 0901     		.2byte	0x109
 14354 0128 95020000 		.4byte	0x295
 14355 012c 0C       		.uleb128 0xc
 14356 012d 67030000 		.4byte	.LASF20
 14357 0131 04       		.byte	0x4
 14358 0132 0A01     		.2byte	0x10a
 14359 0134 88000000 		.4byte	0x88
ARM GAS  /tmp/ccSqa4tb.s 			page 253


 14360 0138 02       		.byte	0x2
 14361 0139 23       		.byte	0x23
 14362 013a 00       		.uleb128 0x0
 14363 013b 0C       		.uleb128 0xc
 14364 013c D7050000 		.4byte	.LASF21
 14365 0140 04       		.byte	0x4
 14366 0141 0B01     		.2byte	0x10b
 14367 0143 88000000 		.4byte	0x88
 14368 0147 02       		.byte	0x2
 14369 0148 23       		.byte	0x23
 14370 0149 04       		.uleb128 0x4
 14371 014a 0C       		.uleb128 0xc
 14372 014b 1C070000 		.4byte	.LASF22
 14373 014f 04       		.byte	0x4
 14374 0150 0C01     		.2byte	0x10c
 14375 0152 88000000 		.4byte	0x88
 14376 0156 02       		.byte	0x2
 14377 0157 23       		.byte	0x23
 14378 0158 08       		.uleb128 0x8
 14379 0159 0C       		.uleb128 0xc
 14380 015a 430E0000 		.4byte	.LASF23
 14381 015e 04       		.byte	0x4
 14382 015f 0D01     		.2byte	0x10d
 14383 0161 A0020000 		.4byte	0x2a0
 14384 0165 02       		.byte	0x2
 14385 0166 23       		.byte	0x23
 14386 0167 0C       		.uleb128 0xc
 14387 0168 0C       		.uleb128 0xc
 14388 0169 7A000000 		.4byte	.LASF24
 14389 016d 04       		.byte	0x4
 14390 016e 0E01     		.2byte	0x10e
 14391 0170 D6020000 		.4byte	0x2d6
 14392 0174 02       		.byte	0x2
 14393 0175 23       		.byte	0x23
 14394 0176 10       		.uleb128 0x10
 14395 0177 0C       		.uleb128 0xc
 14396 0178 7B0B0000 		.4byte	.LASF25
 14397 017c 04       		.byte	0x4
 14398 017d 0F01     		.2byte	0x10f
 14399 017f F7020000 		.4byte	0x2f7
 14400 0183 02       		.byte	0x2
 14401 0184 23       		.byte	0x23
 14402 0185 14       		.uleb128 0x14
 14403 0186 0D       		.uleb128 0xd
 14404 0187 63697000 		.ascii	"cip\000"
 14405 018b 04       		.byte	0x4
 14406 018c 1101     		.2byte	0x111
 14407 018e E8000000 		.4byte	0xe8
 14408 0192 02       		.byte	0x2
 14409 0193 23       		.byte	0x23
 14410 0194 18       		.uleb128 0x18
 14411 0195 0D       		.uleb128 0xd
 14412 0196 66726D00 		.ascii	"frm\000"
 14413 019a 04       		.byte	0x4
 14414 019b 1201     		.2byte	0x112
 14415 019d E8000000 		.4byte	0xe8
 14416 01a1 02       		.byte	0x2
ARM GAS  /tmp/ccSqa4tb.s 			page 254


 14417 01a2 23       		.byte	0x23
 14418 01a3 1C       		.uleb128 0x1c
 14419 01a4 0D       		.uleb128 0xd
 14420 01a5 68656100 		.ascii	"hea\000"
 14421 01a9 04       		.byte	0x4
 14422 01aa 1301     		.2byte	0x113
 14423 01ac E8000000 		.4byte	0xe8
 14424 01b0 02       		.byte	0x2
 14425 01b1 23       		.byte	0x23
 14426 01b2 20       		.uleb128 0x20
 14427 01b3 0D       		.uleb128 0xd
 14428 01b4 686C7700 		.ascii	"hlw\000"
 14429 01b8 04       		.byte	0x4
 14430 01b9 1401     		.2byte	0x114
 14431 01bb E8000000 		.4byte	0xe8
 14432 01bf 02       		.byte	0x2
 14433 01c0 23       		.byte	0x23
 14434 01c1 24       		.uleb128 0x24
 14435 01c2 0D       		.uleb128 0xd
 14436 01c3 73746B00 		.ascii	"stk\000"
 14437 01c7 04       		.byte	0x4
 14438 01c8 1501     		.2byte	0x115
 14439 01ca E8000000 		.4byte	0xe8
 14440 01ce 02       		.byte	0x2
 14441 01cf 23       		.byte	0x23
 14442 01d0 28       		.uleb128 0x28
 14443 01d1 0D       		.uleb128 0xd
 14444 01d2 73747000 		.ascii	"stp\000"
 14445 01d6 04       		.byte	0x4
 14446 01d7 1601     		.2byte	0x116
 14447 01d9 E8000000 		.4byte	0xe8
 14448 01dd 02       		.byte	0x2
 14449 01de 23       		.byte	0x23
 14450 01df 2C       		.uleb128 0x2c
 14451 01e0 0C       		.uleb128 0xc
 14452 01e1 0C010000 		.4byte	.LASF26
 14453 01e5 04       		.byte	0x4
 14454 01e6 1701     		.2byte	0x117
 14455 01e8 2B000000 		.4byte	0x2b
 14456 01ec 02       		.byte	0x2
 14457 01ed 23       		.byte	0x23
 14458 01ee 30       		.uleb128 0x30
 14459 01ef 0C       		.uleb128 0xc
 14460 01f0 BD0C0000 		.4byte	.LASF27
 14461 01f4 04       		.byte	0x4
 14462 01f5 1A01     		.2byte	0x11a
 14463 01f7 85030000 		.4byte	0x385
 14464 01fb 02       		.byte	0x2
 14465 01fc 23       		.byte	0x23
 14466 01fd 34       		.uleb128 0x34
 14467 01fe 0C       		.uleb128 0xc
 14468 01ff FC050000 		.4byte	.LASF28
 14469 0203 04       		.byte	0x4
 14470 0204 1B01     		.2byte	0x11b
 14471 0206 95030000 		.4byte	0x395
 14472 020a 02       		.byte	0x2
 14473 020b 23       		.byte	0x23
ARM GAS  /tmp/ccSqa4tb.s 			page 255


 14474 020c 44       		.uleb128 0x44
 14475 020d 0C       		.uleb128 0xc
 14476 020e 4E020000 		.4byte	.LASF29
 14477 0212 04       		.byte	0x4
 14478 0213 1E01     		.2byte	0x11e
 14479 0215 2B000000 		.4byte	0x2b
 14480 0219 02       		.byte	0x2
 14481 021a 23       		.byte	0x23
 14482 021b 54       		.uleb128 0x54
 14483 021c 0C       		.uleb128 0xc
 14484 021d 9B060000 		.4byte	.LASF30
 14485 0221 04       		.byte	0x4
 14486 0222 2001     		.2byte	0x120
 14487 0224 2B000000 		.4byte	0x2b
 14488 0228 02       		.byte	0x2
 14489 0229 23       		.byte	0x23
 14490 022a 58       		.uleb128 0x58
 14491 022b 0D       		.uleb128 0xd
 14492 022c 70726900 		.ascii	"pri\000"
 14493 0230 04       		.byte	0x4
 14494 0231 2201     		.2byte	0x122
 14495 0233 E8000000 		.4byte	0xe8
 14496 0237 02       		.byte	0x2
 14497 0238 23       		.byte	0x23
 14498 0239 5C       		.uleb128 0x5c
 14499 023a 0D       		.uleb128 0xd
 14500 023b 616C7400 		.ascii	"alt\000"
 14501 023f 04       		.byte	0x4
 14502 0240 2301     		.2byte	0x123
 14503 0242 E8000000 		.4byte	0xe8
 14504 0246 02       		.byte	0x2
 14505 0247 23       		.byte	0x23
 14506 0248 60       		.uleb128 0x60
 14507 0249 0C       		.uleb128 0xc
 14508 024a 12070000 		.4byte	.LASF31
 14509 024e 04       		.byte	0x4
 14510 024f 2401     		.2byte	0x124
 14511 0251 E8000000 		.4byte	0xe8
 14512 0255 02       		.byte	0x2
 14513 0256 23       		.byte	0x23
 14514 0257 64       		.uleb128 0x64
 14515 0258 0C       		.uleb128 0xc
 14516 0259 66010000 		.4byte	.LASF32
 14517 025d 04       		.byte	0x4
 14518 025e 2501     		.2byte	0x125
 14519 0260 E8000000 		.4byte	0xe8
 14520 0264 02       		.byte	0x2
 14521 0265 23       		.byte	0x23
 14522 0266 68       		.uleb128 0x68
 14523 0267 0C       		.uleb128 0xc
 14524 0268 AB0F0000 		.4byte	.LASF33
 14525 026c 04       		.byte	0x4
 14526 026d 2701     		.2byte	0x127
 14527 026f E8000000 		.4byte	0xe8
 14528 0273 02       		.byte	0x2
 14529 0274 23       		.byte	0x23
 14530 0275 6C       		.uleb128 0x6c
ARM GAS  /tmp/ccSqa4tb.s 			page 256


 14531 0276 0C       		.uleb128 0xc
 14532 0277 420C0000 		.4byte	.LASF34
 14533 027b 04       		.byte	0x4
 14534 027c 2901     		.2byte	0x129
 14535 027e 2B000000 		.4byte	0x2b
 14536 0282 02       		.byte	0x2
 14537 0283 23       		.byte	0x23
 14538 0284 70       		.uleb128 0x70
 14539 0285 0C       		.uleb128 0xc
 14540 0286 8C0B0000 		.4byte	.LASF35
 14541 028a 04       		.byte	0x4
 14542 028b 2A01     		.2byte	0x12a
 14543 028d 7A000000 		.4byte	0x7a
 14544 0291 02       		.byte	0x2
 14545 0292 23       		.byte	0x23
 14546 0293 74       		.uleb128 0x74
 14547 0294 00       		.byte	0x0
 14548 0295 07       		.uleb128 0x7
 14549 0296 04       		.byte	0x4
 14550 0297 9B020000 		.4byte	0x29b
 14551 029b 08       		.uleb128 0x8
 14552 029c E8000000 		.4byte	0xe8
 14553 02a0 04       		.uleb128 0x4
 14554 02a1 82040000 		.4byte	.LASF36
 14555 02a5 04       		.byte	0x4
 14556 02a6 C6       		.byte	0xc6
 14557 02a7 AB020000 		.4byte	0x2ab
 14558 02ab 07       		.uleb128 0x7
 14559 02ac 04       		.byte	0x4
 14560 02ad B1020000 		.4byte	0x2b1
 14561 02b1 09       		.uleb128 0x9
 14562 02b2 01       		.byte	0x1
 14563 02b3 2B000000 		.4byte	0x2b
 14564 02b7 D0020000 		.4byte	0x2d0
 14565 02bb 0A       		.uleb128 0xa
 14566 02bc 19010000 		.4byte	0x119
 14567 02c0 0A       		.uleb128 0xa
 14568 02c1 E8000000 		.4byte	0xe8
 14569 02c5 0A       		.uleb128 0xa
 14570 02c6 D0020000 		.4byte	0x2d0
 14571 02ca 0A       		.uleb128 0xa
 14572 02cb 95020000 		.4byte	0x295
 14573 02cf 00       		.byte	0x0
 14574 02d0 07       		.uleb128 0x7
 14575 02d1 04       		.byte	0x4
 14576 02d2 E8000000 		.4byte	0xe8
 14577 02d6 04       		.uleb128 0x4
 14578 02d7 B7020000 		.4byte	.LASF37
 14579 02db 04       		.byte	0x4
 14580 02dc C8       		.byte	0xc8
 14581 02dd E1020000 		.4byte	0x2e1
 14582 02e1 07       		.uleb128 0x7
 14583 02e2 04       		.byte	0x4
 14584 02e3 E7020000 		.4byte	0x2e7
 14585 02e7 09       		.uleb128 0x9
 14586 02e8 01       		.byte	0x1
 14587 02e9 2B000000 		.4byte	0x2b
ARM GAS  /tmp/ccSqa4tb.s 			page 257


 14588 02ed F7020000 		.4byte	0x2f7
 14589 02f1 0A       		.uleb128 0xa
 14590 02f2 19010000 		.4byte	0x119
 14591 02f6 00       		.byte	0x0
 14592 02f7 04       		.uleb128 0x4
 14593 02f8 F1070000 		.4byte	.LASF38
 14594 02fc 04       		.byte	0x4
 14595 02fd C9       		.byte	0xc9
 14596 02fe 02030000 		.4byte	0x302
 14597 0302 07       		.uleb128 0x7
 14598 0303 04       		.byte	0x4
 14599 0304 08030000 		.4byte	0x308
 14600 0308 09       		.uleb128 0x9
 14601 0309 01       		.byte	0x1
 14602 030a 2B000000 		.4byte	0x2b
 14603 030e 1D030000 		.4byte	0x31d
 14604 0312 0A       		.uleb128 0xa
 14605 0313 19010000 		.4byte	0x119
 14606 0317 0A       		.uleb128 0xa
 14607 0318 2B000000 		.4byte	0x2b
 14608 031c 00       		.byte	0x0
 14609 031d 0E       		.uleb128 0xe
 14610 031e 95050000 		.4byte	.LASF40
 14611 0322 08       		.byte	0x8
 14612 0323 04       		.byte	0x4
 14613 0324 F1       		.byte	0xf1
 14614 0325 46030000 		.4byte	0x346
 14615 0329 0F       		.uleb128 0xf
 14616 032a 770C0000 		.4byte	.LASF41
 14617 032e 04       		.byte	0x4
 14618 032f F2       		.byte	0xf2
 14619 0330 9B000000 		.4byte	0x9b
 14620 0334 02       		.byte	0x2
 14621 0335 23       		.byte	0x23
 14622 0336 00       		.uleb128 0x0
 14623 0337 0F       		.uleb128 0xf
 14624 0338 54020000 		.4byte	.LASF42
 14625 033c 04       		.byte	0x4
 14626 033d F3       		.byte	0xf3
 14627 033e F3000000 		.4byte	0xf3
 14628 0342 02       		.byte	0x2
 14629 0343 23       		.byte	0x23
 14630 0344 04       		.uleb128 0x4
 14631 0345 00       		.byte	0x0
 14632 0346 04       		.uleb128 0x4
 14633 0347 E20D0000 		.4byte	.LASF43
 14634 034b 04       		.byte	0x4
 14635 034c F4       		.byte	0xf4
 14636 034d 1D030000 		.4byte	0x31d
 14637 0351 0E       		.uleb128 0xe
 14638 0352 D60D0000 		.4byte	.LASF44
 14639 0356 08       		.byte	0x8
 14640 0357 04       		.byte	0x4
 14641 0358 FC       		.byte	0xfc
 14642 0359 7A030000 		.4byte	0x37a
 14643 035d 0F       		.uleb128 0xf
 14644 035e 120D0000 		.4byte	.LASF45
ARM GAS  /tmp/ccSqa4tb.s 			page 258


 14645 0362 04       		.byte	0x4
 14646 0363 FD       		.byte	0xfd
 14647 0364 C7000000 		.4byte	0xc7
 14648 0368 02       		.byte	0x2
 14649 0369 23       		.byte	0x23
 14650 036a 00       		.uleb128 0x0
 14651 036b 0F       		.uleb128 0xf
 14652 036c 13080000 		.4byte	.LASF46
 14653 0370 04       		.byte	0x4
 14654 0371 FE       		.byte	0xfe
 14655 0372 C7000000 		.4byte	0xc7
 14656 0376 02       		.byte	0x2
 14657 0377 23       		.byte	0x23
 14658 0378 04       		.uleb128 0x4
 14659 0379 00       		.byte	0x0
 14660 037a 04       		.uleb128 0x4
 14661 037b 72060000 		.4byte	.LASF47
 14662 037f 04       		.byte	0x4
 14663 0380 FF       		.byte	0xff
 14664 0381 51030000 		.4byte	0x351
 14665 0385 10       		.uleb128 0x10
 14666 0386 7A000000 		.4byte	0x7a
 14667 038a 95030000 		.4byte	0x395
 14668 038e 11       		.uleb128 0x11
 14669 038f 3D000000 		.4byte	0x3d
 14670 0393 03       		.byte	0x3
 14671 0394 00       		.byte	0x0
 14672 0395 10       		.uleb128 0x10
 14673 0396 29000000 		.4byte	0x29
 14674 039a A5030000 		.4byte	0x3a5
 14675 039e 11       		.uleb128 0x11
 14676 039f 3D000000 		.4byte	0x3d
 14677 03a3 03       		.byte	0x3
 14678 03a4 00       		.byte	0x0
 14679 03a5 12       		.uleb128 0x12
 14680 03a6 414D5800 		.ascii	"AMX\000"
 14681 03aa 04       		.byte	0x4
 14682 03ab 2F01     		.2byte	0x12f
 14683 03ad 1F010000 		.4byte	0x11f
 14684 03b1 0B       		.uleb128 0xb
 14685 03b2 210F0000 		.4byte	.LASF48
 14686 03b6 3C       		.byte	0x3c
 14687 03b7 04       		.byte	0x4
 14688 03b8 3401     		.2byte	0x134
 14689 03ba CD040000 		.4byte	0x4cd
 14690 03be 0C       		.uleb128 0xc
 14691 03bf FD080000 		.4byte	.LASF49
 14692 03c3 04       		.byte	0x4
 14693 03c4 3501     		.2byte	0x135
 14694 03c6 BC000000 		.4byte	0xbc
 14695 03ca 02       		.byte	0x2
 14696 03cb 23       		.byte	0x23
 14697 03cc 00       		.uleb128 0x0
 14698 03cd 0C       		.uleb128 0xc
 14699 03ce AA0C0000 		.4byte	.LASF50
 14700 03d2 04       		.byte	0x4
 14701 03d3 3601     		.2byte	0x136
ARM GAS  /tmp/ccSqa4tb.s 			page 259


 14702 03d5 B1000000 		.4byte	0xb1
 14703 03d9 02       		.byte	0x2
 14704 03da 23       		.byte	0x23
 14705 03db 04       		.uleb128 0x4
 14706 03dc 0C       		.uleb128 0xc
 14707 03dd 8D070000 		.4byte	.LASF51
 14708 03e1 04       		.byte	0x4
 14709 03e2 3701     		.2byte	0x137
 14710 03e4 94000000 		.4byte	0x94
 14711 03e8 02       		.byte	0x2
 14712 03e9 23       		.byte	0x23
 14713 03ea 06       		.uleb128 0x6
 14714 03eb 0C       		.uleb128 0xc
 14715 03ec C9060000 		.4byte	.LASF52
 14716 03f0 04       		.byte	0x4
 14717 03f1 3801     		.2byte	0x138
 14718 03f3 94000000 		.4byte	0x94
 14719 03f7 02       		.byte	0x2
 14720 03f8 23       		.byte	0x23
 14721 03f9 07       		.uleb128 0x7
 14722 03fa 0C       		.uleb128 0xc
 14723 03fb 0C010000 		.4byte	.LASF26
 14724 03ff 04       		.byte	0x4
 14725 0400 3901     		.2byte	0x139
 14726 0402 A6000000 		.4byte	0xa6
 14727 0406 02       		.byte	0x2
 14728 0407 23       		.byte	0x23
 14729 0408 08       		.uleb128 0x8
 14730 0409 0C       		.uleb128 0xc
 14731 040a FC0E0000 		.4byte	.LASF53
 14732 040e 04       		.byte	0x4
 14733 040f 3A01     		.2byte	0x13a
 14734 0411 A6000000 		.4byte	0xa6
 14735 0415 02       		.byte	0x2
 14736 0416 23       		.byte	0x23
 14737 0417 0A       		.uleb128 0xa
 14738 0418 0D       		.uleb128 0xd
 14739 0419 636F6400 		.ascii	"cod\000"
 14740 041d 04       		.byte	0x4
 14741 041e 3B01     		.2byte	0x13b
 14742 0420 BC000000 		.4byte	0xbc
 14743 0424 02       		.byte	0x2
 14744 0425 23       		.byte	0x23
 14745 0426 0C       		.uleb128 0xc
 14746 0427 0D       		.uleb128 0xd
 14747 0428 64617400 		.ascii	"dat\000"
 14748 042c 04       		.byte	0x4
 14749 042d 3C01     		.2byte	0x13c
 14750 042f BC000000 		.4byte	0xbc
 14751 0433 02       		.byte	0x2
 14752 0434 23       		.byte	0x23
 14753 0435 10       		.uleb128 0x10
 14754 0436 0D       		.uleb128 0xd
 14755 0437 68656100 		.ascii	"hea\000"
 14756 043b 04       		.byte	0x4
 14757 043c 3D01     		.2byte	0x13d
 14758 043e BC000000 		.4byte	0xbc
ARM GAS  /tmp/ccSqa4tb.s 			page 260


 14759 0442 02       		.byte	0x2
 14760 0443 23       		.byte	0x23
 14761 0444 14       		.uleb128 0x14
 14762 0445 0D       		.uleb128 0xd
 14763 0446 73747000 		.ascii	"stp\000"
 14764 044a 04       		.byte	0x4
 14765 044b 3E01     		.2byte	0x13e
 14766 044d BC000000 		.4byte	0xbc
 14767 0451 02       		.byte	0x2
 14768 0452 23       		.byte	0x23
 14769 0453 18       		.uleb128 0x18
 14770 0454 0D       		.uleb128 0xd
 14771 0455 63697000 		.ascii	"cip\000"
 14772 0459 04       		.byte	0x4
 14773 045a 3F01     		.2byte	0x13f
 14774 045c BC000000 		.4byte	0xbc
 14775 0460 02       		.byte	0x2
 14776 0461 23       		.byte	0x23
 14777 0462 1C       		.uleb128 0x1c
 14778 0463 0C       		.uleb128 0xc
 14779 0464 61020000 		.4byte	.LASF54
 14780 0468 04       		.byte	0x4
 14781 0469 4001     		.2byte	0x140
 14782 046b BC000000 		.4byte	0xbc
 14783 046f 02       		.byte	0x2
 14784 0470 23       		.byte	0x23
 14785 0471 20       		.uleb128 0x20
 14786 0472 0C       		.uleb128 0xc
 14787 0473 27040000 		.4byte	.LASF55
 14788 0477 04       		.byte	0x4
 14789 0478 4101     		.2byte	0x141
 14790 047a BC000000 		.4byte	0xbc
 14791 047e 02       		.byte	0x2
 14792 047f 23       		.byte	0x23
 14793 0480 24       		.uleb128 0x24
 14794 0481 0C       		.uleb128 0xc
 14795 0482 69020000 		.4byte	.LASF56
 14796 0486 04       		.byte	0x4
 14797 0487 4201     		.2byte	0x142
 14798 0489 BC000000 		.4byte	0xbc
 14799 048d 02       		.byte	0x2
 14800 048e 23       		.byte	0x23
 14801 048f 28       		.uleb128 0x28
 14802 0490 0C       		.uleb128 0xc
 14803 0491 EB0B0000 		.4byte	.LASF57
 14804 0495 04       		.byte	0x4
 14805 0496 4301     		.2byte	0x143
 14806 0498 BC000000 		.4byte	0xbc
 14807 049c 02       		.byte	0x2
 14808 049d 23       		.byte	0x23
 14809 049e 2C       		.uleb128 0x2c
 14810 049f 0C       		.uleb128 0xc
 14811 04a0 100C0000 		.4byte	.LASF58
 14812 04a4 04       		.byte	0x4
 14813 04a5 4401     		.2byte	0x144
 14814 04a7 BC000000 		.4byte	0xbc
 14815 04ab 02       		.byte	0x2
ARM GAS  /tmp/ccSqa4tb.s 			page 261


 14816 04ac 23       		.byte	0x23
 14817 04ad 30       		.uleb128 0x30
 14818 04ae 0C       		.uleb128 0xc
 14819 04af AC040000 		.4byte	.LASF59
 14820 04b3 04       		.byte	0x4
 14821 04b4 4501     		.2byte	0x145
 14822 04b6 BC000000 		.4byte	0xbc
 14823 04ba 02       		.byte	0x2
 14824 04bb 23       		.byte	0x23
 14825 04bc 34       		.uleb128 0x34
 14826 04bd 0C       		.uleb128 0xc
 14827 04be CD0C0000 		.4byte	.LASF60
 14828 04c2 04       		.byte	0x4
 14829 04c3 4601     		.2byte	0x146
 14830 04c5 BC000000 		.4byte	0xbc
 14831 04c9 02       		.byte	0x2
 14832 04ca 23       		.byte	0x23
 14833 04cb 38       		.uleb128 0x38
 14834 04cc 00       		.byte	0x0
 14835 04cd 06       		.uleb128 0x6
 14836 04ce 84060000 		.4byte	.LASF61
 14837 04d2 04       		.byte	0x4
 14838 04d3 4701     		.2byte	0x147
 14839 04d5 B1030000 		.4byte	0x3b1
 14840 04d9 13       		.uleb128 0x13
 14841 04da 01       		.byte	0x1
 14842 04db 04       		.byte	0x4
 14843 04dc 5401     		.2byte	0x154
 14844 04de 85050000 		.4byte	0x585
 14845 04e2 14       		.uleb128 0x14
 14846 04e3 A50B0000 		.4byte	.LASF62
 14847 04e7 00       		.sleb128 0
 14848 04e8 14       		.uleb128 0x14
 14849 04e9 B00C0000 		.4byte	.LASF63
 14850 04ed 01       		.sleb128 1
 14851 04ee 14       		.uleb128 0x14
 14852 04ef 21070000 		.4byte	.LASF64
 14853 04f3 02       		.sleb128 2
 14854 04f4 14       		.uleb128 0x14
 14855 04f5 100F0000 		.4byte	.LASF65
 14856 04f9 03       		.sleb128 3
 14857 04fa 14       		.uleb128 0x14
 14858 04fb 8F040000 		.4byte	.LASF66
 14859 04ff 04       		.sleb128 4
 14860 0500 14       		.uleb128 0x14
 14861 0501 09030000 		.4byte	.LASF67
 14862 0505 05       		.sleb128 5
 14863 0506 14       		.uleb128 0x14
 14864 0507 00000000 		.4byte	.LASF68
 14865 050b 06       		.sleb128 6
 14866 050c 14       		.uleb128 0x14
 14867 050d 2D080000 		.4byte	.LASF69
 14868 0511 07       		.sleb128 7
 14869 0512 14       		.uleb128 0x14
 14870 0513 9C0E0000 		.4byte	.LASF70
 14871 0517 08       		.sleb128 8
 14872 0518 14       		.uleb128 0x14
ARM GAS  /tmp/ccSqa4tb.s 			page 262


 14873 0519 43050000 		.4byte	.LASF71
 14874 051d 09       		.sleb128 9
 14875 051e 14       		.uleb128 0x14
 14876 051f 53000000 		.4byte	.LASF72
 14877 0523 0A       		.sleb128 10
 14878 0524 14       		.uleb128 0x14
 14879 0525 19020000 		.4byte	.LASF73
 14880 0529 0B       		.sleb128 11
 14881 052a 14       		.uleb128 0x14
 14882 052b E6090000 		.4byte	.LASF74
 14883 052f 0C       		.sleb128 12
 14884 0530 14       		.uleb128 0x14
 14885 0531 A60D0000 		.4byte	.LASF75
 14886 0535 0D       		.sleb128 13
 14887 0536 14       		.uleb128 0x14
 14888 0537 EA020000 		.4byte	.LASF76
 14889 053b 10       		.sleb128 16
 14890 053c 14       		.uleb128 0x14
 14891 053d 87010000 		.4byte	.LASF77
 14892 0541 11       		.sleb128 17
 14893 0542 14       		.uleb128 0x14
 14894 0543 EF040000 		.4byte	.LASF78
 14895 0547 12       		.sleb128 18
 14896 0548 14       		.uleb128 0x14
 14897 0549 9A020000 		.4byte	.LASF79
 14898 054d 13       		.sleb128 19
 14899 054e 14       		.uleb128 0x14
 14900 054f 350E0000 		.4byte	.LASF80
 14901 0553 14       		.sleb128 20
 14902 0554 14       		.uleb128 0x14
 14903 0555 DE0A0000 		.4byte	.LASF81
 14904 0559 15       		.sleb128 21
 14905 055a 14       		.uleb128 0x14
 14906 055b C4010000 		.4byte	.LASF82
 14907 055f 16       		.sleb128 22
 14908 0560 14       		.uleb128 0x14
 14909 0561 B70D0000 		.4byte	.LASF83
 14910 0565 17       		.sleb128 23
 14911 0566 14       		.uleb128 0x14
 14912 0567 3E0D0000 		.4byte	.LASF84
 14913 056b 18       		.sleb128 24
 14914 056c 14       		.uleb128 0x14
 14915 056d 05060000 		.4byte	.LASF85
 14916 0571 19       		.sleb128 25
 14917 0572 14       		.uleb128 0x14
 14918 0573 2E000000 		.4byte	.LASF86
 14919 0577 1A       		.sleb128 26
 14920 0578 14       		.uleb128 0x14
 14921 0579 11000000 		.4byte	.LASF87
 14922 057d 1B       		.sleb128 27
 14923 057e 14       		.uleb128 0x14
 14924 057f D50E0000 		.4byte	.LASF88
 14925 0583 1C       		.sleb128 28
 14926 0584 00       		.byte	0x0
 14927 0585 15       		.uleb128 0x15
 14928 0586 01       		.byte	0x1
 14929 0587 01       		.byte	0x1
ARM GAS  /tmp/ccSqa4tb.s 			page 263


 14930 0588 C4       		.byte	0xc4
 14931 0589 1E0A0000 		.4byte	0xa1e
 14932 058d 14       		.uleb128 0x14
 14933 058e DB060000 		.4byte	.LASF89
 14934 0592 00       		.sleb128 0
 14935 0593 14       		.uleb128 0x14
 14936 0594 210C0000 		.4byte	.LASF90
 14937 0598 01       		.sleb128 1
 14938 0599 14       		.uleb128 0x14
 14939 059a 4D060000 		.4byte	.LASF91
 14940 059e 02       		.sleb128 2
 14941 059f 14       		.uleb128 0x14
 14942 05a0 7E0F0000 		.4byte	.LASF92
 14943 05a4 03       		.sleb128 3
 14944 05a5 14       		.uleb128 0x14
 14945 05a6 000A0000 		.4byte	.LASF93
 14946 05aa 04       		.sleb128 4
 14947 05ab 14       		.uleb128 0x14
 14948 05ac 54050000 		.4byte	.LASF94
 14949 05b0 05       		.sleb128 5
 14950 05b1 14       		.uleb128 0x14
 14951 05b2 3D000000 		.4byte	.LASF95
 14952 05b6 06       		.sleb128 6
 14953 05b7 14       		.uleb128 0x14
 14954 05b8 D70F0000 		.4byte	.LASF96
 14955 05bc 07       		.sleb128 7
 14956 05bd 14       		.uleb128 0x14
 14957 05be B80E0000 		.4byte	.LASF97
 14958 05c2 08       		.sleb128 8
 14959 05c3 14       		.uleb128 0x14
 14960 05c4 EF0F0000 		.4byte	.LASF98
 14961 05c8 09       		.sleb128 9
 14962 05c9 14       		.uleb128 0x14
 14963 05ca BB0A0000 		.4byte	.LASF99
 14964 05ce 0A       		.sleb128 10
 14965 05cf 14       		.uleb128 0x14
 14966 05d0 CB080000 		.4byte	.LASF100
 14967 05d4 0B       		.sleb128 11
 14968 05d5 14       		.uleb128 0x14
 14969 05d6 45030000 		.4byte	.LASF101
 14970 05da 0C       		.sleb128 12
 14971 05db 14       		.uleb128 0x14
 14972 05dc 3B050000 		.4byte	.LASF102
 14973 05e0 0D       		.sleb128 13
 14974 05e1 14       		.uleb128 0x14
 14975 05e2 28020000 		.4byte	.LASF103
 14976 05e6 0E       		.sleb128 14
 14977 05e7 14       		.uleb128 0x14
 14978 05e8 D2040000 		.4byte	.LASF104
 14979 05ec 0F       		.sleb128 15
 14980 05ed 14       		.uleb128 0x14
 14981 05ee E9010000 		.4byte	.LASF105
 14982 05f2 10       		.sleb128 16
 14983 05f3 14       		.uleb128 0x14
 14984 05f4 1B080000 		.4byte	.LASF106
 14985 05f8 11       		.sleb128 17
 14986 05f9 14       		.uleb128 0x14
ARM GAS  /tmp/ccSqa4tb.s 			page 264


 14987 05fa 1B050000 		.4byte	.LASF107
 14988 05fe 12       		.sleb128 18
 14989 05ff 14       		.uleb128 0x14
 14990 0600 22030000 		.4byte	.LASF108
 14991 0604 13       		.sleb128 19
 14992 0605 14       		.uleb128 0x14
 14993 0606 6E0C0000 		.4byte	.LASF109
 14994 060a 14       		.sleb128 20
 14995 060b 14       		.uleb128 0x14
 14996 060c 03100000 		.4byte	.LASF110
 14997 0610 15       		.sleb128 21
 14998 0611 14       		.uleb128 0x14
 14999 0612 70010000 		.4byte	.LASF111
 15000 0616 16       		.sleb128 22
 15001 0617 14       		.uleb128 0x14
 15002 0618 620C0000 		.4byte	.LASF112
 15003 061c 17       		.sleb128 23
 15004 061d 14       		.uleb128 0x14
 15005 061e 100B0000 		.4byte	.LASF113
 15006 0622 18       		.sleb128 24
 15007 0623 14       		.uleb128 0x14
 15008 0624 12010000 		.4byte	.LASF114
 15009 0628 19       		.sleb128 25
 15010 0629 14       		.uleb128 0x14
 15011 062a 050C0000 		.4byte	.LASF115
 15012 062e 1A       		.sleb128 26
 15013 062f 14       		.uleb128 0x14
 15014 0630 04070000 		.4byte	.LASF116
 15015 0634 1B       		.sleb128 27
 15016 0635 14       		.uleb128 0x14
 15017 0636 C0000000 		.4byte	.LASF117
 15018 063a 1C       		.sleb128 28
 15019 063b 14       		.uleb128 0x14
 15020 063c D8010000 		.4byte	.LASF118
 15021 0640 1D       		.sleb128 29
 15022 0641 14       		.uleb128 0x14
 15023 0642 F80C0000 		.4byte	.LASF119
 15024 0646 1E       		.sleb128 30
 15025 0647 14       		.uleb128 0x14
 15026 0648 B8050000 		.4byte	.LASF120
 15027 064c 1F       		.sleb128 31
 15028 064d 14       		.uleb128 0x14
 15029 064e 07020000 		.4byte	.LASF121
 15030 0652 20       		.sleb128 32
 15031 0653 14       		.uleb128 0x14
 15032 0654 8D050000 		.4byte	.LASF122
 15033 0658 21       		.sleb128 33
 15034 0659 14       		.uleb128 0x14
 15035 065a 39060000 		.4byte	.LASF123
 15036 065e 22       		.sleb128 34
 15037 065f 14       		.uleb128 0x14
 15038 0660 160E0000 		.4byte	.LASF124
 15039 0664 23       		.sleb128 35
 15040 0665 14       		.uleb128 0x14
 15041 0666 F10C0000 		.4byte	.LASF125
 15042 066a 24       		.sleb128 36
 15043 066b 14       		.uleb128 0x14
ARM GAS  /tmp/ccSqa4tb.s 			page 265


 15044 066c 5E0F0000 		.4byte	.LASF126
 15045 0670 25       		.sleb128 37
 15046 0671 14       		.uleb128 0x14
 15047 0672 770F0000 		.4byte	.LASF127
 15048 0676 26       		.sleb128 38
 15049 0677 14       		.uleb128 0x14
 15050 0678 A6070000 		.4byte	.LASF128
 15051 067c 27       		.sleb128 39
 15052 067d 14       		.uleb128 0x14
 15053 067e 96010000 		.4byte	.LASF129
 15054 0682 28       		.sleb128 40
 15055 0683 14       		.uleb128 0x14
 15056 0684 9D0C0000 		.4byte	.LASF130
 15057 0688 29       		.sleb128 41
 15058 0689 14       		.uleb128 0x14
 15059 068a C8050000 		.4byte	.LASF131
 15060 068e 2A       		.sleb128 42
 15061 068f 14       		.uleb128 0x14
 15062 0690 9D090000 		.4byte	.LASF132
 15063 0694 2B       		.sleb128 43
 15064 0695 14       		.uleb128 0x14
 15065 0696 B4080000 		.4byte	.LASF133
 15066 069a 2C       		.sleb128 44
 15067 069b 14       		.uleb128 0x14
 15068 069c 1A0D0000 		.4byte	.LASF134
 15069 06a0 2D       		.sleb128 45
 15070 06a1 14       		.uleb128 0x14
 15071 06a2 1B030000 		.4byte	.LASF135
 15072 06a6 2E       		.sleb128 46
 15073 06a7 14       		.uleb128 0x14
 15074 06a8 4B080000 		.4byte	.LASF136
 15075 06ac 2F       		.sleb128 47
 15076 06ad 14       		.uleb128 0x14
 15077 06ae 32060000 		.4byte	.LASF137
 15078 06b2 30       		.sleb128 48
 15079 06b3 14       		.uleb128 0x14
 15080 06b4 E9060000 		.4byte	.LASF138
 15081 06b8 31       		.sleb128 49
 15082 06b9 14       		.uleb128 0x14
 15083 06ba 960C0000 		.4byte	.LASF139
 15084 06be 32       		.sleb128 50
 15085 06bf 14       		.uleb128 0x14
 15086 06c0 DB020000 		.4byte	.LASF140
 15087 06c4 33       		.sleb128 51
 15088 06c5 14       		.uleb128 0x14
 15089 06c6 2A0E0000 		.4byte	.LASF141
 15090 06ca 34       		.sleb128 52
 15091 06cb 14       		.uleb128 0x14
 15092 06cc C60C0000 		.4byte	.LASF142
 15093 06d0 35       		.sleb128 53
 15094 06d1 14       		.uleb128 0x14
 15095 06d2 24010000 		.4byte	.LASF143
 15096 06d6 36       		.sleb128 54
 15097 06d7 14       		.uleb128 0x14
 15098 06d8 0B080000 		.4byte	.LASF144
 15099 06dc 37       		.sleb128 55
 15100 06dd 14       		.uleb128 0x14
ARM GAS  /tmp/ccSqa4tb.s 			page 266


 15101 06de 69060000 		.4byte	.LASF145
 15102 06e2 38       		.sleb128 56
 15103 06e3 14       		.uleb128 0x14
 15104 06e4 25080000 		.4byte	.LASF146
 15105 06e8 39       		.sleb128 57
 15106 06e9 14       		.uleb128 0x14
 15107 06ea EC0A0000 		.4byte	.LASF147
 15108 06ee 3A       		.sleb128 58
 15109 06ef 14       		.uleb128 0x14
 15110 06f0 F70A0000 		.4byte	.LASF148
 15111 06f4 3B       		.sleb128 59
 15112 06f5 14       		.uleb128 0x14
 15113 06f6 6B0B0000 		.4byte	.LASF149
 15114 06fa 3C       		.sleb128 60
 15115 06fb 14       		.uleb128 0x14
 15116 06fc D0020000 		.4byte	.LASF150
 15117 0700 3D       		.sleb128 61
 15118 0701 14       		.uleb128 0x14
 15119 0702 51080000 		.4byte	.LASF151
 15120 0706 3E       		.sleb128 62
 15121 0707 14       		.uleb128 0x14
 15122 0708 830B0000 		.4byte	.LASF152
 15123 070c 3F       		.sleb128 63
 15124 070d 14       		.uleb128 0x14
 15125 070e F30B0000 		.4byte	.LASF153
 15126 0712 C000     		.sleb128 64
 15127 0714 14       		.uleb128 0x14
 15128 0715 4B000000 		.4byte	.LASF154
 15129 0719 C100     		.sleb128 65
 15130 071b 14       		.uleb128 0x14
 15131 071c 1F040000 		.4byte	.LASF155
 15132 0720 C200     		.sleb128 66
 15133 0722 14       		.uleb128 0x14
 15134 0723 E6030000 		.4byte	.LASF156
 15135 0727 C300     		.sleb128 67
 15136 0729 14       		.uleb128 0x14
 15137 072a A60A0000 		.4byte	.LASF157
 15138 072e C400     		.sleb128 68
 15139 0730 14       		.uleb128 0x14
 15140 0731 4A070000 		.4byte	.LASF158
 15141 0735 C500     		.sleb128 69
 15142 0737 14       		.uleb128 0x14
 15143 0738 25090000 		.4byte	.LASF159
 15144 073c C600     		.sleb128 70
 15145 073e 14       		.uleb128 0x14
 15146 073f 79090000 		.4byte	.LASF160
 15147 0743 C700     		.sleb128 71
 15148 0745 14       		.uleb128 0x14
 15149 0746 EE030000 		.4byte	.LASF161
 15150 074a C800     		.sleb128 72
 15151 074c 14       		.uleb128 0x14
 15152 074d 45040000 		.4byte	.LASF162
 15153 0751 C900     		.sleb128 73
 15154 0753 14       		.uleb128 0x14
 15155 0754 4F0D0000 		.4byte	.LASF163
 15156 0758 CA00     		.sleb128 74
 15157 075a 14       		.uleb128 0x14
ARM GAS  /tmp/ccSqa4tb.s 			page 267


 15158 075b FB010000 		.4byte	.LASF164
 15159 075f CB00     		.sleb128 75
 15160 0761 14       		.uleb128 0x14
 15161 0762 A7030000 		.4byte	.LASF165
 15162 0766 CC00     		.sleb128 76
 15163 0768 14       		.uleb128 0x14
 15164 0769 6F050000 		.4byte	.LASF166
 15165 076d CD00     		.sleb128 77
 15166 076f 14       		.uleb128 0x14
 15167 0770 5B030000 		.4byte	.LASF167
 15168 0774 CE00     		.sleb128 78
 15169 0776 14       		.uleb128 0x14
 15170 0777 F0060000 		.4byte	.LASF168
 15171 077b CF00     		.sleb128 79
 15172 077d 14       		.uleb128 0x14
 15173 077e 270B0000 		.4byte	.LASF169
 15174 0782 D000     		.sleb128 80
 15175 0784 14       		.uleb128 0x14
 15176 0785 3D030000 		.4byte	.LASF170
 15177 0789 D100     		.sleb128 81
 15178 078b 14       		.uleb128 0x14
 15179 078c FB0B0000 		.4byte	.LASF171
 15180 0790 D200     		.sleb128 82
 15181 0792 14       		.uleb128 0x14
 15182 0793 590A0000 		.4byte	.LASF172
 15183 0797 D300     		.sleb128 83
 15184 0799 14       		.uleb128 0x14
 15185 079a 21000000 		.4byte	.LASF173
 15186 079e D400     		.sleb128 84
 15187 07a0 14       		.uleb128 0x14
 15188 07a1 C8040000 		.4byte	.LASF174
 15189 07a5 D500     		.sleb128 85
 15190 07a7 14       		.uleb128 0x14
 15191 07a8 13050000 		.4byte	.LASF175
 15192 07ac D600     		.sleb128 86
 15193 07ae 14       		.uleb128 0x14
 15194 07af 09050000 		.4byte	.LASF176
 15195 07b3 D700     		.sleb128 87
 15196 07b5 14       		.uleb128 0x14
 15197 07b6 D20B0000 		.4byte	.LASF177
 15198 07ba D800     		.sleb128 88
 15199 07bc 14       		.uleb128 0x14
 15200 07bd 8A030000 		.4byte	.LASF178
 15201 07c1 D900     		.sleb128 89
 15202 07c3 14       		.uleb128 0x14
 15203 07c4 B00A0000 		.4byte	.LASF179
 15204 07c8 DA00     		.sleb128 90
 15205 07ca 14       		.uleb128 0x14
 15206 07cb 750D0000 		.4byte	.LASF180
 15207 07cf DB00     		.sleb128 91
 15208 07d1 14       		.uleb128 0x14
 15209 07d2 F9020000 		.4byte	.LASF181
 15210 07d6 DC00     		.sleb128 92
 15211 07d8 14       		.uleb128 0x14
 15212 07d9 E0070000 		.4byte	.LASF182
 15213 07dd DD00     		.sleb128 93
 15214 07df 14       		.uleb128 0x14
ARM GAS  /tmp/ccSqa4tb.s 			page 268


 15215 07e0 DC050000 		.4byte	.LASF183
 15216 07e4 DE00     		.sleb128 94
 15217 07e6 14       		.uleb128 0x14
 15218 07e7 55040000 		.4byte	.LASF184
 15219 07eb DF00     		.sleb128 95
 15220 07ed 14       		.uleb128 0x14
 15221 07ee BB0B0000 		.4byte	.LASF185
 15222 07f2 E000     		.sleb128 96
 15223 07f4 14       		.uleb128 0x14
 15224 07f5 E0010000 		.4byte	.LASF186
 15225 07f9 E100     		.sleb128 97
 15226 07fb 14       		.uleb128 0x14
 15227 07fc 780A0000 		.4byte	.LASF187
 15228 0800 E200     		.sleb128 98
 15229 0802 14       		.uleb128 0x14
 15230 0803 6D0A0000 		.4byte	.LASF188
 15231 0807 E300     		.sleb128 99
 15232 0809 14       		.uleb128 0x14
 15233 080a B1010000 		.4byte	.LASF189
 15234 080e E400     		.sleb128 100
 15235 0810 14       		.uleb128 0x14
 15236 0811 70000000 		.4byte	.LASF190
 15237 0815 E500     		.sleb128 101
 15238 0817 14       		.uleb128 0x14
 15239 0818 150C0000 		.4byte	.LASF191
 15240 081c E600     		.sleb128 102
 15241 081e 14       		.uleb128 0x14
 15242 081f 41060000 		.4byte	.LASF192
 15243 0823 E700     		.sleb128 103
 15244 0825 14       		.uleb128 0x14
 15245 0826 D8090000 		.4byte	.LASF193
 15246 082a E800     		.sleb128 104
 15247 082c 14       		.uleb128 0x14
 15248 082d 87020000 		.4byte	.LASF194
 15249 0831 E900     		.sleb128 105
 15250 0833 14       		.uleb128 0x14
 15251 0834 210D0000 		.4byte	.LASF195
 15252 0838 EA00     		.sleb128 106
 15253 083a 14       		.uleb128 0x14
 15254 083b 69070000 		.4byte	.LASF196
 15255 083f EB00     		.sleb128 107
 15256 0841 14       		.uleb128 0x14
 15257 0842 D0050000 		.4byte	.LASF197
 15258 0846 EC00     		.sleb128 108
 15259 0848 14       		.uleb128 0x14
 15260 0849 B20B0000 		.4byte	.LASF198
 15261 084d ED00     		.sleb128 109
 15262 084f 14       		.uleb128 0x14
 15263 0850 32020000 		.4byte	.LASF199
 15264 0854 EE00     		.sleb128 110
 15265 0856 14       		.uleb128 0x14
 15266 0857 FA030000 		.4byte	.LASF200
 15267 085b EF00     		.sleb128 111
 15268 085d 14       		.uleb128 0x14
 15269 085e 39020000 		.4byte	.LASF201
 15270 0862 F000     		.sleb128 112
 15271 0864 14       		.uleb128 0x14
ARM GAS  /tmp/ccSqa4tb.s 			page 269


 15272 0865 80000000 		.4byte	.LASF202
 15273 0869 F100     		.sleb128 113
 15274 086b 14       		.uleb128 0x14
 15275 086c 45020000 		.4byte	.LASF203
 15276 0870 F200     		.sleb128 114
 15277 0872 14       		.uleb128 0x14
 15278 0873 B5000000 		.4byte	.LASF204
 15279 0877 F300     		.sleb128 115
 15280 0879 14       		.uleb128 0x14
 15281 087a E9080000 		.4byte	.LASF205
 15282 087e F400     		.sleb128 116
 15283 0880 14       		.uleb128 0x14
 15284 0881 B4030000 		.4byte	.LASF206
 15285 0885 F500     		.sleb128 117
 15286 0887 14       		.uleb128 0x14
 15287 0888 13040000 		.4byte	.LASF207
 15288 088c F600     		.sleb128 118
 15289 088e 14       		.uleb128 0x14
 15290 088f 4B0F0000 		.4byte	.LASF208
 15291 0893 F700     		.sleb128 119
 15292 0895 14       		.uleb128 0x14
 15293 0896 640A0000 		.4byte	.LASF209
 15294 089a F800     		.sleb128 120
 15295 089c 14       		.uleb128 0x14
 15296 089d B2060000 		.4byte	.LASF210
 15297 08a1 F900     		.sleb128 121
 15298 08a3 14       		.uleb128 0x14
 15299 08a4 650F0000 		.4byte	.LASF211
 15300 08a8 FA00     		.sleb128 122
 15301 08aa 14       		.uleb128 0x14
 15302 08ab 9B0D0000 		.4byte	.LASF212
 15303 08af FB00     		.sleb128 123
 15304 08b1 14       		.uleb128 0x14
 15305 08b2 9E040000 		.4byte	.LASF213
 15306 08b6 FC00     		.sleb128 124
 15307 08b8 14       		.uleb128 0x14
 15308 08b9 020B0000 		.4byte	.LASF214
 15309 08bd FD00     		.sleb128 125
 15310 08bf 14       		.uleb128 0x14
 15311 08c0 59060000 		.4byte	.LASF215
 15312 08c4 FE00     		.sleb128 126
 15313 08c6 14       		.uleb128 0x14
 15314 08c7 2D010000 		.4byte	.LASF216
 15315 08cb FF00     		.sleb128 127
 15316 08cd 14       		.uleb128 0x14
 15317 08ce A8050000 		.4byte	.LASF217
 15318 08d2 8001     		.sleb128 128
 15319 08d4 14       		.uleb128 0x14
 15320 08d5 99000000 		.4byte	.LASF218
 15321 08d9 8101     		.sleb128 129
 15322 08db 14       		.uleb128 0x14
 15323 08dc 5B0E0000 		.4byte	.LASF219
 15324 08e0 8201     		.sleb128 130
 15325 08e2 14       		.uleb128 0x14
 15326 08e3 9C0F0000 		.4byte	.LASF220
 15327 08e7 8301     		.sleb128 131
 15328 08e9 14       		.uleb128 0x14
ARM GAS  /tmp/ccSqa4tb.s 			page 270


 15329 08ea 310A0000 		.4byte	.LASF221
 15330 08ee 8401     		.sleb128 132
 15331 08f0 14       		.uleb128 0x14
 15332 08f1 FE000000 		.4byte	.LASF222
 15333 08f5 8501     		.sleb128 133
 15334 08f7 14       		.uleb128 0x14
 15335 08f8 820D0000 		.4byte	.LASF223
 15336 08fc 8601     		.sleb128 134
 15337 08fe 14       		.uleb128 0x14
 15338 08ff 0F020000 		.4byte	.LASF224
 15339 0903 8701     		.sleb128 135
 15340 0905 14       		.uleb128 0x14
 15341 0906 9A070000 		.4byte	.LASF225
 15342 090a 8801     		.sleb128 136
 15343 090c 14       		.uleb128 0x14
 15344 090d 02090000 		.4byte	.LASF226
 15345 0911 8901     		.sleb128 137
 15346 0913 14       		.uleb128 0x14
 15347 0914 9A0A0000 		.4byte	.LASF227
 15348 0918 8A01     		.sleb128 138
 15349 091a 14       		.uleb128 0x14
 15350 091b A9000000 		.4byte	.LASF228
 15351 091f 8B01     		.sleb128 139
 15352 0921 14       		.uleb128 0x14
 15353 0922 2F090000 		.4byte	.LASF229
 15354 0926 8C01     		.sleb128 140
 15355 0928 14       		.uleb128 0x14
 15356 0929 3B070000 		.4byte	.LASF230
 15357 092d 8D01     		.sleb128 141
 15358 092f 14       		.uleb128 0x14
 15359 0930 040F0000 		.4byte	.LASF231
 15360 0934 8E01     		.sleb128 142
 15361 0936 14       		.uleb128 0x14
 15362 0937 FF040000 		.4byte	.LASF232
 15363 093b 8F01     		.sleb128 143
 15364 093d 14       		.uleb128 0x14
 15365 093e F2000000 		.4byte	.LASF233
 15366 0942 9001     		.sleb128 144
 15367 0944 14       		.uleb128 0x14
 15368 0945 3E090000 		.4byte	.LASF234
 15369 0949 9101     		.sleb128 145
 15370 094b 14       		.uleb128 0x14
 15371 094c 3E080000 		.4byte	.LASF235
 15372 0950 9201     		.sleb128 146
 15373 0952 14       		.uleb128 0x14
 15374 0953 A7080000 		.4byte	.LASF236
 15375 0957 9301     		.sleb128 147
 15376 0959 14       		.uleb128 0x14
 15377 095a B1090000 		.4byte	.LASF237
 15378 095e 9401     		.sleb128 148
 15379 0960 14       		.uleb128 0x14
 15380 0961 2F040000 		.4byte	.LASF238
 15381 0965 9501     		.sleb128 149
 15382 0967 14       		.uleb128 0x14
 15383 0968 9C030000 		.4byte	.LASF239
 15384 096c 9601     		.sleb128 150
 15385 096e 14       		.uleb128 0x14
ARM GAS  /tmp/ccSqa4tb.s 			page 271


 15386 096f 75040000 		.4byte	.LASF240
 15387 0973 9701     		.sleb128 151
 15388 0975 14       		.uleb128 0x14
 15389 0976 D60C0000 		.4byte	.LASF241
 15390 097a 9801     		.sleb128 152
 15391 097c 14       		.uleb128 0x14
 15392 097d 8B000000 		.4byte	.LASF242
 15393 0981 9901     		.sleb128 153
 15394 0983 14       		.uleb128 0x14
 15395 0984 7F070000 		.4byte	.LASF243
 15396 0988 9A01     		.sleb128 154
 15397 098a 14       		.uleb128 0x14
 15398 098b 3B0F0000 		.4byte	.LASF244
 15399 098f 9B01     		.sleb128 155
 15400 0991 14       		.uleb128 0x14
 15401 0992 590B0000 		.4byte	.LASF245
 15402 0996 9C01     		.sleb128 156
 15403 0998 14       		.uleb128 0x14
 15404 0999 670E0000 		.4byte	.LASF246
 15405 099d 9D01     		.sleb128 157
 15406 099f 14       		.uleb128 0x14
 15407 09a0 6A090000 		.4byte	.LASF247
 15408 09a4 9E01     		.sleb128 158
 15409 09a6 14       		.uleb128 0x14
 15410 09a7 D7030000 		.4byte	.LASF248
 15411 09ab 9F01     		.sleb128 159
 15412 09ad 14       		.uleb128 0x14
 15413 09ae 860E0000 		.4byte	.LASF249
 15414 09b2 A001     		.sleb128 160
 15415 09b4 14       		.uleb128 0x14
 15416 09b5 2F050000 		.4byte	.LASF250
 15417 09b9 A101     		.sleb128 161
 15418 09bb 14       		.uleb128 0x14
 15419 09bc 7D020000 		.4byte	.LASF251
 15420 09c0 A201     		.sleb128 162
 15421 09c2 14       		.uleb128 0x14
 15422 09c3 A5090000 		.4byte	.LASF252
 15423 09c7 A301     		.sleb128 163
 15424 09c9 14       		.uleb128 0x14
 15425 09ca 62000000 		.4byte	.LASF253
 15426 09ce A401     		.sleb128 164
 15427 09d0 14       		.uleb128 0x14
 15428 09d1 360B0000 		.4byte	.LASF254
 15429 09d5 A501     		.sleb128 165
 15430 09d7 14       		.uleb128 0x14
 15431 09d8 9C0B0000 		.4byte	.LASF255
 15432 09dc A601     		.sleb128 166
 15433 09de 14       		.uleb128 0x14
 15434 09df 5E070000 		.4byte	.LASF256
 15435 09e3 A701     		.sleb128 167
 15436 09e5 14       		.uleb128 0x14
 15437 09e6 E60F0000 		.4byte	.LASF257
 15438 09ea A801     		.sleb128 168
 15439 09ec 14       		.uleb128 0x14
 15440 09ed 910E0000 		.4byte	.LASF258
 15441 09f1 A901     		.sleb128 169
 15442 09f3 14       		.uleb128 0x14
ARM GAS  /tmp/ccSqa4tb.s 			page 272


 15443 09f4 C0090000 		.4byte	.LASF259
 15444 09f8 AA01     		.sleb128 170
 15445 09fa 14       		.uleb128 0x14
 15446 09fb 0C0E0000 		.4byte	.LASF260
 15447 09ff AB01     		.sleb128 171
 15448 0a01 14       		.uleb128 0x14
 15449 0a02 BF0F0000 		.4byte	.LASF261
 15450 0a06 AC01     		.sleb128 172
 15451 0a08 14       		.uleb128 0x14
 15452 0a09 51030000 		.4byte	.LASF262
 15453 0a0d AD01     		.sleb128 173
 15454 0a0f 14       		.uleb128 0x14
 15455 0a10 B6040000 		.4byte	.LASF263
 15456 0a14 AE01     		.sleb128 174
 15457 0a16 14       		.uleb128 0x14
 15458 0a17 23060000 		.4byte	.LASF264
 15459 0a1b AF01     		.sleb128 175
 15460 0a1d 00       		.byte	0x0
 15461 0a1e 06       		.uleb128 0x6
 15462 0a1f 340F0000 		.4byte	.LASF265
 15463 0a23 01       		.byte	0x1
 15464 0a24 7F01     		.2byte	0x17f
 15465 0a26 85050000 		.4byte	0x585
 15466 0a2a 16       		.uleb128 0x16
 15467 0a2b 01       		.byte	0x1
 15468 0a2c E3040000 		.4byte	.LASF266
 15469 0a30 01       		.byte	0x1
 15470 0a31 DF01     		.2byte	0x1df
 15471 0a33 01       		.byte	0x1
 15472 0a34 480A0000 		.4byte	0xa48
 15473 0a38 01       		.byte	0x1
 15474 0a39 480A0000 		.4byte	0xa48
 15475 0a3d 17       		.uleb128 0x17
 15476 0a3e 7600     		.ascii	"v\000"
 15477 0a40 01       		.byte	0x1
 15478 0a41 DF01     		.2byte	0x1df
 15479 0a43 480A0000 		.4byte	0xa48
 15480 0a47 00       		.byte	0x0
 15481 0a48 07       		.uleb128 0x7
 15482 0a49 04       		.byte	0x4
 15483 0a4a C7000000 		.4byte	0xc7
 15484 0a4e 16       		.uleb128 0x16
 15485 0a4f 01       		.byte	0x1
 15486 0a50 AB020000 		.4byte	.LASF267
 15487 0a54 01       		.byte	0x1
 15488 0a55 D501     		.2byte	0x1d5
 15489 0a57 01       		.byte	0x1
 15490 0a58 6C0A0000 		.4byte	0xa6c
 15491 0a5c 01       		.byte	0x1
 15492 0a5d 6C0A0000 		.4byte	0xa6c
 15493 0a61 17       		.uleb128 0x17
 15494 0a62 7600     		.ascii	"v\000"
 15495 0a64 01       		.byte	0x1
 15496 0a65 D501     		.2byte	0x1d5
 15497 0a67 6C0A0000 		.4byte	0xa6c
 15498 0a6b 00       		.byte	0x0
 15499 0a6c 07       		.uleb128 0x7
ARM GAS  /tmp/ccSqa4tb.s 			page 273


 15500 0a6d 04       		.byte	0x4
 15501 0a6e B1000000 		.4byte	0xb1
 15502 0a72 18       		.uleb128 0x18
 15503 0a73 01       		.byte	0x1
 15504 0a74 5A0D0000 		.4byte	.LASF271
 15505 0a78 01       		.byte	0x1
 15506 0a79 0902     		.2byte	0x209
 15507 0a7b 01       		.byte	0x1
 15508 0a7c 2B000000 		.4byte	0x2b
 15509 0a80 00000000 		.4byte	.LFB4
 15510 0a84 60000000 		.4byte	.LFE4
 15511 0a88 00000000 		.4byte	.LLST0
 15512 0a8c 230B0000 		.4byte	0xb23
 15513 0a90 19       		.uleb128 0x19
 15514 0a91 616D7800 		.ascii	"amx\000"
 15515 0a95 01       		.byte	0x1
 15516 0a96 0902     		.2byte	0x209
 15517 0a98 230B0000 		.4byte	0xb23
 15518 0a9c 20000000 		.4byte	.LLST1
 15519 0aa0 1A       		.uleb128 0x1a
 15520 0aa1 72030000 		.4byte	.LASF268
 15521 0aa5 01       		.byte	0x1
 15522 0aa6 0902     		.2byte	0x209
 15523 0aa8 E8000000 		.4byte	0xe8
 15524 0aac 3E000000 		.4byte	.LLST2
 15525 0ab0 1A       		.uleb128 0x1a
 15526 0ab1 95030000 		.4byte	.LASF269
 15527 0ab5 01       		.byte	0x1
 15528 0ab6 0902     		.2byte	0x209
 15529 0ab8 D0020000 		.4byte	0x2d0
 15530 0abc 6A000000 		.4byte	.LLST3
 15531 0ac0 1A       		.uleb128 0x1a
 15532 0ac1 C80A0000 		.4byte	.LASF270
 15533 0ac5 01       		.byte	0x1
 15534 0ac6 0902     		.2byte	0x209
 15535 0ac8 95020000 		.4byte	0x295
 15536 0acc 88000000 		.4byte	.LLST4
 15537 0ad0 1B       		.uleb128 0x1b
 15538 0ad1 CA090000 		.4byte	.LASF369
 15539 0ad5 01       		.byte	0x1
 15540 0ad6 0C02     		.2byte	0x20c
 15541 0ad8 340B0000 		.4byte	0xb34
 15542 0adc 01       		.byte	0x1
 15543 0add 01       		.byte	0x1
 15544 0ade 1C       		.uleb128 0x1c
 15545 0adf 68647200 		.ascii	"hdr\000"
 15546 0ae3 01       		.byte	0x1
 15547 0ae4 0E02     		.2byte	0x20e
 15548 0ae6 390B0000 		.4byte	0xb39
 15549 0aea 9B000000 		.4byte	.LLST5
 15550 0aee 1D       		.uleb128 0x1d
 15551 0aef 54020000 		.4byte	.LASF42
 15552 0af3 01       		.byte	0x1
 15553 0af4 0F02     		.2byte	0x20f
 15554 0af6 3F0B0000 		.4byte	0xb3f
 15555 0afa 1C       		.uleb128 0x1c
 15556 0afb 6600     		.ascii	"f\000"
ARM GAS  /tmp/ccSqa4tb.s 			page 274


 15557 0afd 01       		.byte	0x1
 15558 0afe 1002     		.2byte	0x210
 15559 0b00 F3000000 		.4byte	0xf3
 15560 0b04 B9000000 		.4byte	.LLST6
 15561 0b08 1E       		.uleb128 0x1e
 15562 0b09 26000000 		.4byte	.LBB7
 15563 0b0d 3E000000 		.4byte	.LBE7
 15564 0b11 1F       		.uleb128 0x1f
 15565 0b12 D7050000 		.4byte	.LASF21
 15566 0b16 01       		.byte	0x1
 15567 0b17 3002     		.2byte	0x230
 15568 0b19 88000000 		.4byte	0x88
 15569 0b1d DD000000 		.4byte	.LLST7
 15570 0b21 00       		.byte	0x0
 15571 0b22 00       		.byte	0x0
 15572 0b23 07       		.uleb128 0x7
 15573 0b24 04       		.byte	0x4
 15574 0b25 A5030000 		.4byte	0x3a5
 15575 0b29 10       		.uleb128 0x10
 15576 0b2a F3000000 		.4byte	0xf3
 15577 0b2e 340B0000 		.4byte	0xb34
 15578 0b32 20       		.uleb128 0x20
 15579 0b33 00       		.byte	0x0
 15580 0b34 08       		.uleb128 0x8
 15581 0b35 290B0000 		.4byte	0xb29
 15582 0b39 07       		.uleb128 0x7
 15583 0b3a 04       		.byte	0x4
 15584 0b3b CD040000 		.4byte	0x4cd
 15585 0b3f 07       		.uleb128 0x7
 15586 0b40 04       		.byte	0x4
 15587 0b41 7A030000 		.4byte	0x37a
 15588 0b45 21       		.uleb128 0x21
 15589 0b46 01       		.byte	0x1
 15590 0b47 4E0A0000 		.4byte	.LASF373
 15591 0b4b 01       		.byte	0x1
 15592 0b4c A901     		.2byte	0x1a9
 15593 0b4e 01       		.byte	0x1
 15594 0b4f 00000000 		.4byte	.LFB0
 15595 0b53 12000000 		.4byte	.LFE0
 15596 0b57 02       		.byte	0x2
 15597 0b58 7D       		.byte	0x7d
 15598 0b59 00       		.sleb128 0
 15599 0b5a 850B0000 		.4byte	0xb85
 15600 0b5e 22       		.uleb128 0x22
 15601 0b5f 7600     		.ascii	"v\000"
 15602 0b61 01       		.byte	0x1
 15603 0b62 A901     		.2byte	0x1a9
 15604 0b64 480A0000 		.4byte	0xa48
 15605 0b68 01       		.byte	0x1
 15606 0b69 50       		.byte	0x50
 15607 0b6a 23       		.uleb128 0x23
 15608 0b6b 7300     		.ascii	"s\000"
 15609 0b6d 01       		.byte	0x1
 15610 0b6e AB01     		.2byte	0x1ab
 15611 0b70 88000000 		.4byte	0x88
 15612 0b74 01       		.byte	0x1
 15613 0b75 50       		.byte	0x50
ARM GAS  /tmp/ccSqa4tb.s 			page 275


 15614 0b76 1C       		.uleb128 0x1c
 15615 0b77 7400     		.ascii	"t\000"
 15616 0b79 01       		.byte	0x1
 15617 0b7a AC01     		.2byte	0x1ac
 15618 0b7c 57000000 		.4byte	0x57
 15619 0b80 FB000000 		.4byte	.LLST8
 15620 0b84 00       		.byte	0x0
 15621 0b85 24       		.uleb128 0x24
 15622 0b86 4E0A0000 		.4byte	0xa4e
 15623 0b8a 00000000 		.4byte	.LFB1
 15624 0b8e 02000000 		.4byte	.LFE1
 15625 0b92 02       		.byte	0x2
 15626 0b93 7D       		.byte	0x7d
 15627 0b94 00       		.sleb128 0
 15628 0b95 A10B0000 		.4byte	0xba1
 15629 0b99 25       		.uleb128 0x25
 15630 0b9a 610A0000 		.4byte	0xa61
 15631 0b9e 01       		.byte	0x1
 15632 0b9f 50       		.byte	0x50
 15633 0ba0 00       		.byte	0x0
 15634 0ba1 24       		.uleb128 0x24
 15635 0ba2 2A0A0000 		.4byte	0xa2a
 15636 0ba6 00000000 		.4byte	.LFB2
 15637 0baa 02000000 		.4byte	.LFE2
 15638 0bae 02       		.byte	0x2
 15639 0baf 7D       		.byte	0x7d
 15640 0bb0 00       		.sleb128 0
 15641 0bb1 BD0B0000 		.4byte	0xbbd
 15642 0bb5 25       		.uleb128 0x25
 15643 0bb6 3D0A0000 		.4byte	0xa3d
 15644 0bba 01       		.byte	0x1
 15645 0bbb 50       		.byte	0x50
 15646 0bbc 00       		.byte	0x0
 15647 0bbd 26       		.uleb128 0x26
 15648 0bbe 01       		.byte	0x1
 15649 0bbf BA010000 		.4byte	.LASF272
 15650 0bc3 01       		.byte	0x1
 15651 0bc4 F701     		.2byte	0x1f7
 15652 0bc6 01       		.byte	0x1
 15653 0bc7 2B000000 		.4byte	0x2b
 15654 0bcb 00000000 		.4byte	.LFB3
 15655 0bcf 38000000 		.4byte	.LFE3
 15656 0bd3 02       		.byte	0x2
 15657 0bd4 7D       		.byte	0x7d
 15658 0bd5 00       		.sleb128 0
 15659 0bd6 090C0000 		.4byte	0xc09
 15660 0bda 19       		.uleb128 0x19
 15661 0bdb 616D7800 		.ascii	"amx\000"
 15662 0bdf 01       		.byte	0x1
 15663 0be0 F701     		.2byte	0x1f7
 15664 0be2 230B0000 		.4byte	0xb23
 15665 0be6 19010000 		.4byte	.LLST9
 15666 0bea 27       		.uleb128 0x27
 15667 0beb 0C010000 		.4byte	.LASF26
 15668 0bef 01       		.byte	0x1
 15669 0bf0 F701     		.2byte	0x1f7
 15670 0bf2 6C0A0000 		.4byte	0xa6c
ARM GAS  /tmp/ccSqa4tb.s 			page 276


 15671 0bf6 01       		.byte	0x1
 15672 0bf7 51       		.byte	0x51
 15673 0bf8 1C       		.uleb128 0x1c
 15674 0bf9 68647200 		.ascii	"hdr\000"
 15675 0bfd 01       		.byte	0x1
 15676 0bfe F901     		.2byte	0x1f9
 15677 0c00 390B0000 		.4byte	0xb39
 15678 0c04 2C010000 		.4byte	.LLST10
 15679 0c08 00       		.byte	0x0
 15680 0c09 26       		.uleb128 0x26
 15681 0c0a 01       		.byte	0x1
 15682 0c0b 440B0000 		.4byte	.LASF273
 15683 0c0f 01       		.byte	0x1
 15684 0c10 9205     		.2byte	0x592
 15685 0c12 01       		.byte	0x1
 15686 0c13 2B000000 		.4byte	0x2b
 15687 0c17 00000000 		.4byte	.LFB7
 15688 0c1b 04000000 		.4byte	.LFE7
 15689 0c1f 02       		.byte	0x2
 15690 0c20 7D       		.byte	0x7d
 15691 0c21 00       		.sleb128 0
 15692 0c22 530C0000 		.4byte	0xc53
 15693 0c26 19       		.uleb128 0x19
 15694 0c27 616D7800 		.ascii	"amx\000"
 15695 0c2b 01       		.byte	0x1
 15696 0c2c 9205     		.2byte	0x592
 15697 0c2e 230B0000 		.4byte	0xb23
 15698 0c32 4A010000 		.4byte	.LLST11
 15699 0c36 27       		.uleb128 0x27
 15700 0c37 170A0000 		.4byte	.LASF274
 15701 0c3b 01       		.byte	0x1
 15702 0c3c 9205     		.2byte	0x592
 15703 0c3e 29000000 		.4byte	0x29
 15704 0c42 01       		.byte	0x1
 15705 0c43 51       		.byte	0x51
 15706 0c44 27       		.uleb128 0x27
 15707 0c45 F4090000 		.4byte	.LASF275
 15708 0c49 01       		.byte	0x1
 15709 0c4a 9205     		.2byte	0x592
 15710 0c4c 29000000 		.4byte	0x29
 15711 0c50 01       		.byte	0x1
 15712 0c51 52       		.byte	0x52
 15713 0c52 00       		.byte	0x0
 15714 0c53 26       		.uleb128 0x26
 15715 0c54 01       		.byte	0x1
 15716 0c55 7C0C0000 		.4byte	.LASF276
 15717 0c59 01       		.byte	0x1
 15718 0c5a 9F05     		.2byte	0x59f
 15719 0c5c 01       		.byte	0x1
 15720 0c5d 2B000000 		.4byte	0x2b
 15721 0c61 00000000 		.4byte	.LFB8
 15722 0c65 04000000 		.4byte	.LFE8
 15723 0c69 02       		.byte	0x2
 15724 0c6a 7D       		.byte	0x7d
 15725 0c6b 00       		.sleb128 0
 15726 0c6c 810C0000 		.4byte	0xc81
 15727 0c70 19       		.uleb128 0x19
ARM GAS  /tmp/ccSqa4tb.s 			page 277


 15728 0c71 616D7800 		.ascii	"amx\000"
 15729 0c75 01       		.byte	0x1
 15730 0c76 9F05     		.2byte	0x59f
 15731 0c78 230B0000 		.4byte	0xb23
 15732 0c7c 5D010000 		.4byte	.LLST12
 15733 0c80 00       		.byte	0x0
 15734 0c81 18       		.uleb128 0x18
 15735 0c82 01       		.byte	0x1
 15736 0c83 73020000 		.4byte	.LASF277
 15737 0c87 01       		.byte	0x1
 15738 0c88 CA05     		.2byte	0x5ca
 15739 0c8a 01       		.byte	0x1
 15740 0c8b 2B000000 		.4byte	0x2b
 15741 0c8f 00000000 		.4byte	.LFB9
 15742 0c93 8C000000 		.4byte	.LFE9
 15743 0c97 70010000 		.4byte	.LLST13
 15744 0c9b F00C0000 		.4byte	0xcf0
 15745 0c9f 1A       		.uleb128 0x1a
 15746 0ca0 AE070000 		.4byte	.LASF278
 15747 0ca4 01       		.byte	0x1
 15748 0ca5 CA05     		.2byte	0x5ca
 15749 0ca7 230B0000 		.4byte	0xb23
 15750 0cab 90010000 		.4byte	.LLST14
 15751 0caf 1A       		.uleb128 0x1a
 15752 0cb0 78030000 		.4byte	.LASF279
 15753 0cb4 01       		.byte	0x1
 15754 0cb5 CA05     		.2byte	0x5ca
 15755 0cb7 230B0000 		.4byte	0xb23
 15756 0cbb AE010000 		.4byte	.LLST15
 15757 0cbf 1A       		.uleb128 0x1a
 15758 0cc0 1C070000 		.4byte	.LASF22
 15759 0cc4 01       		.byte	0x1
 15760 0cc5 CA05     		.2byte	0x5ca
 15761 0cc7 29000000 		.4byte	0x29
 15762 0ccb E2010000 		.4byte	.LLST16
 15763 0ccf 1C       		.uleb128 0x1c
 15764 0cd0 68647200 		.ascii	"hdr\000"
 15765 0cd4 01       		.byte	0x1
 15766 0cd5 CC05     		.2byte	0x5cc
 15767 0cd7 390B0000 		.4byte	0xb39
 15768 0cdb 37020000 		.4byte	.LLST17
 15769 0cdf 1F       		.uleb128 0x1f
 15770 0ce0 900D0000 		.4byte	.LASF280
 15771 0ce4 01       		.byte	0x1
 15772 0ce5 CD05     		.2byte	0x5cd
 15773 0ce7 88000000 		.4byte	0x88
 15774 0ceb 55020000 		.4byte	.LLST18
 15775 0cef 00       		.byte	0x0
 15776 0cf0 18       		.uleb128 0x18
 15777 0cf1 01       		.byte	0x1
 15778 0cf2 8F060000 		.4byte	.LASF281
 15779 0cf6 01       		.byte	0x1
 15780 0cf7 F905     		.2byte	0x5f9
 15781 0cf9 01       		.byte	0x1
 15782 0cfa 2B000000 		.4byte	0x2b
 15783 0cfe 00000000 		.4byte	.LFB10
 15784 0d02 46000000 		.4byte	.LFE10
ARM GAS  /tmp/ccSqa4tb.s 			page 278


 15785 0d06 68020000 		.4byte	.LLST19
 15786 0d0a 5D0D0000 		.4byte	0xd5d
 15787 0d0e 19       		.uleb128 0x19
 15788 0d0f 616D7800 		.ascii	"amx\000"
 15789 0d13 01       		.byte	0x1
 15790 0d14 F905     		.2byte	0x5f9
 15791 0d16 230B0000 		.4byte	0xb23
 15792 0d1a 88020000 		.4byte	.LLST20
 15793 0d1e 1A       		.uleb128 0x1a
 15794 0d1f 8C0B0000 		.4byte	.LASF35
 15795 0d23 01       		.byte	0x1
 15796 0d24 F905     		.2byte	0x5f9
 15797 0d26 5D0D0000 		.4byte	0xd5d
 15798 0d2a B1020000 		.4byte	.LLST21
 15799 0d2e 1A       		.uleb128 0x1a
 15800 0d2f BF050000 		.4byte	.LASF282
 15801 0d33 01       		.byte	0x1
 15802 0d34 F905     		.2byte	0x5f9
 15803 0d36 5D0D0000 		.4byte	0xd5d
 15804 0d3a CF020000 		.4byte	.LLST22
 15805 0d3e 27       		.uleb128 0x27
 15806 0d3f 54070000 		.4byte	.LASF283
 15807 0d43 01       		.byte	0x1
 15808 0d44 F905     		.2byte	0x5f9
 15809 0d46 5D0D0000 		.4byte	0xd5d
 15810 0d4a 01       		.byte	0x1
 15811 0d4b 53       		.byte	0x53
 15812 0d4c 1C       		.uleb128 0x1c
 15813 0d4d 68647200 		.ascii	"hdr\000"
 15814 0d51 01       		.byte	0x1
 15815 0d52 FB05     		.2byte	0x5fb
 15816 0d54 390B0000 		.4byte	0xb39
 15817 0d58 ED020000 		.4byte	.LLST23
 15818 0d5c 00       		.byte	0x0
 15819 0d5d 07       		.uleb128 0x7
 15820 0d5e 04       		.byte	0x4
 15821 0d5f 7A000000 		.4byte	0x7a
 15822 0d63 26       		.uleb128 0x26
 15823 0d64 01       		.byte	0x1
 15824 0d65 C9000000 		.4byte	.LASF284
 15825 0d69 01       		.byte	0x1
 15826 0d6a 1106     		.2byte	0x611
 15827 0d6c 01       		.byte	0x1
 15828 0d6d 2B000000 		.4byte	0x2b
 15829 0d71 00000000 		.4byte	.LFB11
 15830 0d75 0C000000 		.4byte	.LFE11
 15831 0d79 02       		.byte	0x2
 15832 0d7a 7D       		.byte	0x7d
 15833 0d7b 00       		.sleb128 0
 15834 0d7c BF0D0000 		.4byte	0xdbf
 15835 0d80 19       		.uleb128 0x19
 15836 0d81 616D7800 		.ascii	"amx\000"
 15837 0d85 01       		.byte	0x1
 15838 0d86 1106     		.2byte	0x611
 15839 0d88 230B0000 		.4byte	0xb23
 15840 0d8c 0B030000 		.4byte	.LLST24
 15841 0d90 27       		.uleb128 0x27
ARM GAS  /tmp/ccSqa4tb.s 			page 279


 15842 0d91 740B0000 		.4byte	.LASF285
 15843 0d95 01       		.byte	0x1
 15844 0d96 1106     		.2byte	0x611
 15845 0d98 BF0D0000 		.4byte	0xdbf
 15846 0d9c 01       		.byte	0x1
 15847 0d9d 51       		.byte	0x51
 15848 0d9e 1C       		.uleb128 0x1c
 15849 0d9f 68647200 		.ascii	"hdr\000"
 15850 0da3 01       		.byte	0x1
 15851 0da4 1306     		.2byte	0x613
 15852 0da6 390B0000 		.4byte	0xb39
 15853 0daa 1E030000 		.4byte	.LLST25
 15854 0dae 1F       		.uleb128 0x1f
 15855 0daf 03040000 		.4byte	.LASF286
 15856 0db3 01       		.byte	0x1
 15857 0db4 1406     		.2byte	0x614
 15858 0db6 6C0A0000 		.4byte	0xa6c
 15859 0dba 31030000 		.4byte	.LLST26
 15860 0dbe 00       		.byte	0x0
 15861 0dbf 07       		.uleb128 0x7
 15862 0dc0 04       		.byte	0x4
 15863 0dc1 2B000000 		.4byte	0x2b
 15864 0dc5 26       		.uleb128 0x26
 15865 0dc6 01       		.byte	0x1
 15866 0dc7 840A0000 		.4byte	.LASF287
 15867 0dcb 01       		.byte	0x1
 15868 0dcc 2106     		.2byte	0x621
 15869 0dce 01       		.byte	0x1
 15870 0dcf 2B000000 		.4byte	0x2b
 15871 0dd3 00000000 		.4byte	.LFB12
 15872 0dd7 16000000 		.4byte	.LFE12
 15873 0ddb 02       		.byte	0x2
 15874 0ddc 7D       		.byte	0x7d
 15875 0ddd 00       		.sleb128 0
 15876 0dde 110E0000 		.4byte	0xe11
 15877 0de2 19       		.uleb128 0x19
 15878 0de3 616D7800 		.ascii	"amx\000"
 15879 0de7 01       		.byte	0x1
 15880 0de8 2106     		.2byte	0x621
 15881 0dea 230B0000 		.4byte	0xb23
 15882 0dee 4A030000 		.4byte	.LLST27
 15883 0df2 27       		.uleb128 0x27
 15884 0df3 5B0C0000 		.4byte	.LASF288
 15885 0df7 01       		.byte	0x1
 15886 0df8 2106     		.2byte	0x621
 15887 0dfa BF0D0000 		.4byte	0xdbf
 15888 0dfe 01       		.byte	0x1
 15889 0dff 51       		.byte	0x51
 15890 0e00 1C       		.uleb128 0x1c
 15891 0e01 68647200 		.ascii	"hdr\000"
 15892 0e05 01       		.byte	0x1
 15893 0e06 2306     		.2byte	0x623
 15894 0e08 390B0000 		.4byte	0xb39
 15895 0e0c 5D030000 		.4byte	.LLST28
 15896 0e10 00       		.byte	0x0
 15897 0e11 18       		.uleb128 0x18
 15898 0e12 01       		.byte	0x1
ARM GAS  /tmp/ccSqa4tb.s 			page 280


 15899 0e13 FE0D0000 		.4byte	.LASF289
 15900 0e17 01       		.byte	0x1
 15901 0e18 2B06     		.2byte	0x62b
 15902 0e1a 01       		.byte	0x1
 15903 0e1b 2B000000 		.4byte	0x2b
 15904 0e1f 00000000 		.4byte	.LFB13
 15905 0e23 2E000000 		.4byte	.LFE13
 15906 0e27 70030000 		.4byte	.LLST29
 15907 0e2b 7C0E0000 		.4byte	0xe7c
 15908 0e2f 19       		.uleb128 0x19
 15909 0e30 616D7800 		.ascii	"amx\000"
 15910 0e34 01       		.byte	0x1
 15911 0e35 2B06     		.2byte	0x62b
 15912 0e37 230B0000 		.4byte	0xb23
 15913 0e3b 90030000 		.4byte	.LLST30
 15914 0e3f 1A       		.uleb128 0x1a
 15915 0e40 72030000 		.4byte	.LASF268
 15916 0e44 01       		.byte	0x1
 15917 0e45 2B06     		.2byte	0x62b
 15918 0e47 2B000000 		.4byte	0x2b
 15919 0e4b A3030000 		.4byte	.LLST31
 15920 0e4f 1A       		.uleb128 0x1a
 15921 0e50 770C0000 		.4byte	.LASF41
 15922 0e54 01       		.byte	0x1
 15923 0e55 2B06     		.2byte	0x62b
 15924 0e57 8E000000 		.4byte	0x8e
 15925 0e5b C1030000 		.4byte	.LLST32
 15926 0e5f 1C       		.uleb128 0x1c
 15927 0e60 68647200 		.ascii	"hdr\000"
 15928 0e64 01       		.byte	0x1
 15929 0e65 2D06     		.2byte	0x62d
 15930 0e67 390B0000 		.4byte	0xb39
 15931 0e6b DF030000 		.4byte	.LLST33
 15932 0e6f 1D       		.uleb128 0x1d
 15933 0e70 54020000 		.4byte	.LASF42
 15934 0e74 01       		.byte	0x1
 15935 0e75 2E06     		.2byte	0x62e
 15936 0e77 3F0B0000 		.4byte	0xb3f
 15937 0e7b 00       		.byte	0x0
 15938 0e7c 18       		.uleb128 0x18
 15939 0e7d 01       		.byte	0x1
 15940 0e7e 57010000 		.4byte	.LASF290
 15941 0e82 01       		.byte	0x1
 15942 0e83 3C06     		.2byte	0x63c
 15943 0e85 01       		.byte	0x1
 15944 0e86 2B000000 		.4byte	0x2b
 15945 0e8a 00000000 		.4byte	.LFB14
 15946 0e8e 40000000 		.4byte	.LFE14
 15947 0e92 FD030000 		.4byte	.LLST34
 15948 0e96 FA0E0000 		.4byte	0xefa
 15949 0e9a 19       		.uleb128 0x19
 15950 0e9b 616D7800 		.ascii	"amx\000"
 15951 0e9f 01       		.byte	0x1
 15952 0ea0 3C06     		.2byte	0x63c
 15953 0ea2 230B0000 		.4byte	0xb23
 15954 0ea6 2A040000 		.4byte	.LLST35
 15955 0eaa 1A       		.uleb128 0x1a
ARM GAS  /tmp/ccSqa4tb.s 			page 281


 15956 0eab 770C0000 		.4byte	.LASF41
 15957 0eaf 01       		.byte	0x1
 15958 0eb0 3C06     		.2byte	0x63c
 15959 0eb2 9B000000 		.4byte	0x9b
 15960 0eb6 48040000 		.4byte	.LLST36
 15961 0eba 1A       		.uleb128 0x1a
 15962 0ebb 72030000 		.4byte	.LASF268
 15963 0ebf 01       		.byte	0x1
 15964 0ec0 3C06     		.2byte	0x63c
 15965 0ec2 BF0D0000 		.4byte	0xdbf
 15966 0ec6 66040000 		.4byte	.LLST37
 15967 0eca 1C       		.uleb128 0x1c
 15968 0ecb 69647800 		.ascii	"idx\000"
 15969 0ecf 01       		.byte	0x1
 15970 0ed0 3E06     		.2byte	0x63e
 15971 0ed2 2B000000 		.4byte	0x2b
 15972 0ed6 84040000 		.4byte	.LLST38
 15973 0eda 1F       		.uleb128 0x1f
 15974 0edb F7050000 		.4byte	.LASF291
 15975 0edf 01       		.byte	0x1
 15976 0ee0 3E06     		.2byte	0x63e
 15977 0ee2 2B000000 		.4byte	0x2b
 15978 0ee6 AE040000 		.4byte	.LLST39
 15979 0eea 28       		.uleb128 0x28
 15980 0eeb AB010000 		.4byte	.LASF292
 15981 0eef 01       		.byte	0x1
 15982 0ef0 3F06     		.2byte	0x63f
 15983 0ef2 FA0E0000 		.4byte	0xefa
 15984 0ef6 02       		.byte	0x2
 15985 0ef7 91       		.byte	0x91
 15986 0ef8 44       		.sleb128 -60
 15987 0ef9 00       		.byte	0x0
 15988 0efa 10       		.uleb128 0x10
 15989 0efb 94000000 		.4byte	0x94
 15990 0eff 0A0F0000 		.4byte	0xf0a
 15991 0f03 11       		.uleb128 0x11
 15992 0f04 3D000000 		.4byte	0x3d
 15993 0f08 1F       		.byte	0x1f
 15994 0f09 00       		.byte	0x0
 15995 0f0a 26       		.uleb128 0x26
 15996 0f0b 01       		.byte	0x1
 15997 0f0c CF0A0000 		.4byte	.LASF293
 15998 0f10 01       		.byte	0x1
 15999 0f11 5006     		.2byte	0x650
 16000 0f13 01       		.byte	0x1
 16001 0f14 2B000000 		.4byte	0x2b
 16002 0f18 00000000 		.4byte	.LFB15
 16003 0f1c 16000000 		.4byte	.LFE15
 16004 0f20 02       		.byte	0x2
 16005 0f21 7D       		.byte	0x7d
 16006 0f22 00       		.sleb128 0
 16007 0f23 560F0000 		.4byte	0xf56
 16008 0f27 19       		.uleb128 0x19
 16009 0f28 616D7800 		.ascii	"amx\000"
 16010 0f2c 01       		.byte	0x1
 16011 0f2d 5006     		.2byte	0x650
 16012 0f2f 230B0000 		.4byte	0xb23
ARM GAS  /tmp/ccSqa4tb.s 			page 282


 16013 0f33 CD040000 		.4byte	.LLST40
 16014 0f37 27       		.uleb128 0x27
 16015 0f38 5B0C0000 		.4byte	.LASF288
 16016 0f3c 01       		.byte	0x1
 16017 0f3d 5006     		.2byte	0x650
 16018 0f3f BF0D0000 		.4byte	0xdbf
 16019 0f43 01       		.byte	0x1
 16020 0f44 51       		.byte	0x51
 16021 0f45 1C       		.uleb128 0x1c
 16022 0f46 68647200 		.ascii	"hdr\000"
 16023 0f4a 01       		.byte	0x1
 16024 0f4b 5206     		.2byte	0x652
 16025 0f4d 390B0000 		.4byte	0xb39
 16026 0f51 E0040000 		.4byte	.LLST41
 16027 0f55 00       		.byte	0x0
 16028 0f56 18       		.uleb128 0x18
 16029 0f57 01       		.byte	0x1
 16030 0f58 0B100000 		.4byte	.LASF294
 16031 0f5c 01       		.byte	0x1
 16032 0f5d 5A06     		.2byte	0x65a
 16033 0f5f 01       		.byte	0x1
 16034 0f60 2B000000 		.4byte	0x2b
 16035 0f64 00000000 		.4byte	.LFB16
 16036 0f68 3C000000 		.4byte	.LFE16
 16037 0f6c F3040000 		.4byte	.LLST42
 16038 0f70 D50F0000 		.4byte	0xfd5
 16039 0f74 19       		.uleb128 0x19
 16040 0f75 616D7800 		.ascii	"amx\000"
 16041 0f79 01       		.byte	0x1
 16042 0f7a 5A06     		.2byte	0x65a
 16043 0f7c 230B0000 		.4byte	0xb23
 16044 0f80 13050000 		.4byte	.LLST43
 16045 0f84 1A       		.uleb128 0x1a
 16046 0f85 72030000 		.4byte	.LASF268
 16047 0f89 01       		.byte	0x1
 16048 0f8a 5A06     		.2byte	0x65a
 16049 0f8c 2B000000 		.4byte	0x2b
 16050 0f90 26050000 		.4byte	.LLST44
 16051 0f94 1A       		.uleb128 0x1a
 16052 0f95 770C0000 		.4byte	.LASF41
 16053 0f99 01       		.byte	0x1
 16054 0f9a 5A06     		.2byte	0x65a
 16055 0f9c 8E000000 		.4byte	0x8e
 16056 0fa0 44050000 		.4byte	.LLST45
 16057 0fa4 1A       		.uleb128 0x1a
 16058 0fa5 120D0000 		.4byte	.LASF45
 16059 0fa9 01       		.byte	0x1
 16060 0faa 5A06     		.2byte	0x65a
 16061 0fac D50F0000 		.4byte	0xfd5
 16062 0fb0 62050000 		.4byte	.LLST46
 16063 0fb4 1C       		.uleb128 0x1c
 16064 0fb5 68647200 		.ascii	"hdr\000"
 16065 0fb9 01       		.byte	0x1
 16066 0fba 5C06     		.2byte	0x65c
 16067 0fbc 390B0000 		.4byte	0xb39
 16068 0fc0 80050000 		.4byte	.LLST47
 16069 0fc4 1F       		.uleb128 0x1f
ARM GAS  /tmp/ccSqa4tb.s 			page 283


 16070 0fc5 54020000 		.4byte	.LASF42
 16071 0fc9 01       		.byte	0x1
 16072 0fca 5D06     		.2byte	0x65d
 16073 0fcc 3F0B0000 		.4byte	0xb3f
 16074 0fd0 9E050000 		.4byte	.LLST48
 16075 0fd4 00       		.byte	0x0
 16076 0fd5 07       		.uleb128 0x7
 16077 0fd6 04       		.byte	0x4
 16078 0fd7 DD000000 		.4byte	0xdd
 16079 0fdb 18       		.uleb128 0x18
 16080 0fdc 01       		.byte	0x1
 16081 0fdd 770E0000 		.4byte	.LASF295
 16082 0fe1 01       		.byte	0x1
 16083 0fe2 6E06     		.2byte	0x66e
 16084 0fe4 01       		.byte	0x1
 16085 0fe5 2B000000 		.4byte	0x2b
 16086 0fe9 00000000 		.4byte	.LFB17
 16087 0fed 60000000 		.4byte	.LFE17
 16088 0ff1 BC050000 		.4byte	.LLST49
 16089 0ff5 78100000 		.4byte	0x1078
 16090 0ff9 19       		.uleb128 0x19
 16091 0ffa 616D7800 		.ascii	"amx\000"
 16092 0ffe 01       		.byte	0x1
 16093 0fff 6E06     		.2byte	0x66e
 16094 1001 230B0000 		.4byte	0xb23
 16095 1005 E9050000 		.4byte	.LLST50
 16096 1009 1A       		.uleb128 0x1a
 16097 100a 770C0000 		.4byte	.LASF41
 16098 100e 01       		.byte	0x1
 16099 100f 6E06     		.2byte	0x66e
 16100 1011 9B000000 		.4byte	0x9b
 16101 1015 07060000 		.4byte	.LLST51
 16102 1019 1A       		.uleb128 0x1a
 16103 101a 72030000 		.4byte	.LASF268
 16104 101e 01       		.byte	0x1
 16105 101f 6E06     		.2byte	0x66e
 16106 1021 BF0D0000 		.4byte	0xdbf
 16107 1025 25060000 		.4byte	.LLST52
 16108 1029 1F       		.uleb128 0x1f
 16109 102a 710E0000 		.4byte	.LASF296
 16110 102e 01       		.byte	0x1
 16111 102f 7006     		.2byte	0x670
 16112 1031 2B000000 		.4byte	0x2b
 16113 1035 43060000 		.4byte	.LLST53
 16114 1039 28       		.uleb128 0x28
 16115 103a F7050000 		.4byte	.LASF291
 16116 103e 01       		.byte	0x1
 16117 103f 7006     		.2byte	0x670
 16118 1041 2B000000 		.4byte	0x2b
 16119 1045 02       		.byte	0x2
 16120 1046 91       		.byte	0x91
 16121 1047 64       		.sleb128 -28
 16122 1048 1C       		.uleb128 0x1c
 16123 1049 6D696400 		.ascii	"mid\000"
 16124 104d 01       		.byte	0x1
 16125 104e 7006     		.2byte	0x670
 16126 1050 2B000000 		.4byte	0x2b
ARM GAS  /tmp/ccSqa4tb.s 			page 284


 16127 1054 78060000 		.4byte	.LLST54
 16128 1058 1F       		.uleb128 0x1f
 16129 1059 95030000 		.4byte	.LASF269
 16130 105d 01       		.byte	0x1
 16131 105e 7006     		.2byte	0x670
 16132 1060 2B000000 		.4byte	0x2b
 16133 1064 A3060000 		.4byte	.LLST55
 16134 1068 28       		.uleb128 0x28
 16135 1069 AB010000 		.4byte	.LASF292
 16136 106d 01       		.byte	0x1
 16137 106e 7106     		.2byte	0x671
 16138 1070 FA0E0000 		.4byte	0xefa
 16139 1074 02       		.byte	0x2
 16140 1075 91       		.byte	0x91
 16141 1076 44       		.sleb128 -60
 16142 1077 00       		.byte	0x0
 16143 1078 26       		.uleb128 0x26
 16144 1079 01       		.byte	0x1
 16145 107a 4C0C0000 		.4byte	.LASF297
 16146 107e 01       		.byte	0x1
 16147 107f 8D06     		.2byte	0x68d
 16148 1081 01       		.byte	0x1
 16149 1082 2B000000 		.4byte	0x2b
 16150 1086 00000000 		.4byte	.LFB18
 16151 108a 16000000 		.4byte	.LFE18
 16152 108e 02       		.byte	0x2
 16153 108f 7D       		.byte	0x7d
 16154 1090 00       		.sleb128 0
 16155 1091 C4100000 		.4byte	0x10c4
 16156 1095 19       		.uleb128 0x19
 16157 1096 616D7800 		.ascii	"amx\000"
 16158 109a 01       		.byte	0x1
 16159 109b 8D06     		.2byte	0x68d
 16160 109d 230B0000 		.4byte	0xb23
 16161 10a1 B6060000 		.4byte	.LLST56
 16162 10a5 27       		.uleb128 0x27
 16163 10a6 5B0C0000 		.4byte	.LASF288
 16164 10aa 01       		.byte	0x1
 16165 10ab 8D06     		.2byte	0x68d
 16166 10ad BF0D0000 		.4byte	0xdbf
 16167 10b1 01       		.byte	0x1
 16168 10b2 51       		.byte	0x51
 16169 10b3 1C       		.uleb128 0x1c
 16170 10b4 68647200 		.ascii	"hdr\000"
 16171 10b8 01       		.byte	0x1
 16172 10b9 8F06     		.2byte	0x68f
 16173 10bb 390B0000 		.4byte	0xb39
 16174 10bf C9060000 		.4byte	.LLST57
 16175 10c3 00       		.byte	0x0
 16176 10c4 18       		.uleb128 0x18
 16177 10c5 01       		.byte	0x1
 16178 10c6 880C0000 		.4byte	.LASF298
 16179 10ca 01       		.byte	0x1
 16180 10cb 9A06     		.2byte	0x69a
 16181 10cd 01       		.byte	0x1
 16182 10ce 2B000000 		.4byte	0x2b
 16183 10d2 00000000 		.4byte	.LFB19
ARM GAS  /tmp/ccSqa4tb.s 			page 285


 16184 10d6 42000000 		.4byte	.LFE19
 16185 10da DC060000 		.4byte	.LLST58
 16186 10de 51110000 		.4byte	0x1151
 16187 10e2 19       		.uleb128 0x19
 16188 10e3 616D7800 		.ascii	"amx\000"
 16189 10e7 01       		.byte	0x1
 16190 10e8 9A06     		.2byte	0x69a
 16191 10ea 230B0000 		.4byte	0xb23
 16192 10ee FC060000 		.4byte	.LLST59
 16193 10f2 1A       		.uleb128 0x1a
 16194 10f3 72030000 		.4byte	.LASF268
 16195 10f7 01       		.byte	0x1
 16196 10f8 9A06     		.2byte	0x69a
 16197 10fa 2B000000 		.4byte	0x2b
 16198 10fe 1A070000 		.4byte	.LLST60
 16199 1102 1A       		.uleb128 0x1a
 16200 1103 770C0000 		.4byte	.LASF41
 16201 1107 01       		.byte	0x1
 16202 1108 9A06     		.2byte	0x69a
 16203 110a 8E000000 		.4byte	0x8e
 16204 110e 38070000 		.4byte	.LLST61
 16205 1112 1A       		.uleb128 0x1a
 16206 1113 120D0000 		.4byte	.LASF45
 16207 1117 01       		.byte	0x1
 16208 1118 9A06     		.2byte	0x69a
 16209 111a 51110000 		.4byte	0x1151
 16210 111e 56070000 		.4byte	.LLST62
 16211 1122 23       		.uleb128 0x23
 16212 1123 68647200 		.ascii	"hdr\000"
 16213 1127 01       		.byte	0x1
 16214 1128 9C06     		.2byte	0x69c
 16215 112a 390B0000 		.4byte	0xb39
 16216 112e 01       		.byte	0x1
 16217 112f 55       		.byte	0x55
 16218 1130 1C       		.uleb128 0x1c
 16219 1131 76617200 		.ascii	"var\000"
 16220 1135 01       		.byte	0x1
 16221 1136 9D06     		.2byte	0x69d
 16222 1138 3F0B0000 		.4byte	0xb3f
 16223 113c 74070000 		.4byte	.LLST63
 16224 1140 1F       		.uleb128 0x1f
 16225 1141 1C070000 		.4byte	.LASF22
 16226 1145 01       		.byte	0x1
 16227 1146 9E06     		.2byte	0x69e
 16228 1148 88000000 		.4byte	0x88
 16229 114c 87070000 		.4byte	.LLST64
 16230 1150 00       		.byte	0x0
 16231 1151 07       		.uleb128 0x7
 16232 1152 04       		.byte	0x4
 16233 1153 D0020000 		.4byte	0x2d0
 16234 1157 18       		.uleb128 0x18
 16235 1158 01       		.byte	0x1
 16236 1159 14060000 		.4byte	.LASF299
 16237 115d 01       		.byte	0x1
 16238 115e B006     		.2byte	0x6b0
 16239 1160 01       		.byte	0x1
 16240 1161 2B000000 		.4byte	0x2b
ARM GAS  /tmp/ccSqa4tb.s 			page 286


 16241 1165 00000000 		.4byte	.LFB20
 16242 1169 58000000 		.4byte	.LFE20
 16243 116d 9A070000 		.4byte	.LLST65
 16244 1171 F4110000 		.4byte	0x11f4
 16245 1175 19       		.uleb128 0x19
 16246 1176 616D7800 		.ascii	"amx\000"
 16247 117a 01       		.byte	0x1
 16248 117b B006     		.2byte	0x6b0
 16249 117d 230B0000 		.4byte	0xb23
 16250 1181 C7070000 		.4byte	.LLST66
 16251 1185 1A       		.uleb128 0x1a
 16252 1186 770C0000 		.4byte	.LASF41
 16253 118a 01       		.byte	0x1
 16254 118b B006     		.2byte	0x6b0
 16255 118d 9B000000 		.4byte	0x9b
 16256 1191 E5070000 		.4byte	.LLST67
 16257 1195 1A       		.uleb128 0x1a
 16258 1196 120D0000 		.4byte	.LASF45
 16259 119a 01       		.byte	0x1
 16260 119b B006     		.2byte	0x6b0
 16261 119d 51110000 		.4byte	0x1151
 16262 11a1 03080000 		.4byte	.LLST68
 16263 11a5 1F       		.uleb128 0x1f
 16264 11a6 710E0000 		.4byte	.LASF296
 16265 11aa 01       		.byte	0x1
 16266 11ab B206     		.2byte	0x6b2
 16267 11ad 2B000000 		.4byte	0x2b
 16268 11b1 21080000 		.4byte	.LLST69
 16269 11b5 28       		.uleb128 0x28
 16270 11b6 F7050000 		.4byte	.LASF291
 16271 11ba 01       		.byte	0x1
 16272 11bb B206     		.2byte	0x6b2
 16273 11bd 2B000000 		.4byte	0x2b
 16274 11c1 02       		.byte	0x2
 16275 11c2 91       		.byte	0x91
 16276 11c3 64       		.sleb128 -28
 16277 11c4 1C       		.uleb128 0x1c
 16278 11c5 6D696400 		.ascii	"mid\000"
 16279 11c9 01       		.byte	0x1
 16280 11ca B206     		.2byte	0x6b2
 16281 11cc 2B000000 		.4byte	0x2b
 16282 11d0 4B080000 		.4byte	.LLST70
 16283 11d4 1F       		.uleb128 0x1f
 16284 11d5 95030000 		.4byte	.LASF269
 16285 11d9 01       		.byte	0x1
 16286 11da B206     		.2byte	0x6b2
 16287 11dc 2B000000 		.4byte	0x2b
 16288 11e0 76080000 		.4byte	.LLST71
 16289 11e4 28       		.uleb128 0x28
 16290 11e5 AB010000 		.4byte	.LASF292
 16291 11e9 01       		.byte	0x1
 16292 11ea B306     		.2byte	0x6b3
 16293 11ec FA0E0000 		.4byte	0xefa
 16294 11f0 02       		.byte	0x2
 16295 11f1 91       		.byte	0x91
 16296 11f2 44       		.sleb128 -60
 16297 11f3 00       		.byte	0x0
ARM GAS  /tmp/ccSqa4tb.s 			page 287


 16298 11f4 26       		.uleb128 0x26
 16299 11f5 01       		.byte	0x1
 16300 11f6 E50E0000 		.4byte	.LASF300
 16301 11fa 01       		.byte	0x1
 16302 11fb CC06     		.2byte	0x6cc
 16303 11fd 01       		.byte	0x1
 16304 11fe 2B000000 		.4byte	0x2b
 16305 1202 00000000 		.4byte	.LFB21
 16306 1206 36000000 		.4byte	.LFE21
 16307 120a 02       		.byte	0x2
 16308 120b 7D       		.byte	0x7d
 16309 120c 00       		.sleb128 0
 16310 120d 40120000 		.4byte	0x1240
 16311 1211 19       		.uleb128 0x19
 16312 1212 616D7800 		.ascii	"amx\000"
 16313 1216 01       		.byte	0x1
 16314 1217 CC06     		.2byte	0x6cc
 16315 1219 230B0000 		.4byte	0xb23
 16316 121d 89080000 		.4byte	.LLST72
 16317 1221 27       		.uleb128 0x27
 16318 1222 5B0C0000 		.4byte	.LASF288
 16319 1226 01       		.byte	0x1
 16320 1227 CC06     		.2byte	0x6cc
 16321 1229 BF0D0000 		.4byte	0xdbf
 16322 122d 01       		.byte	0x1
 16323 122e 51       		.byte	0x51
 16324 122f 1C       		.uleb128 0x1c
 16325 1230 68647200 		.ascii	"hdr\000"
 16326 1234 01       		.byte	0x1
 16327 1235 CE06     		.2byte	0x6ce
 16328 1237 390B0000 		.4byte	0xb39
 16329 123b A7080000 		.4byte	.LLST73
 16330 123f 00       		.byte	0x0
 16331 1240 18       		.uleb128 0x18
 16332 1241 01       		.byte	0x1
 16333 1242 E7000000 		.4byte	.LASF301
 16334 1246 01       		.byte	0x1
 16335 1247 DF06     		.2byte	0x6df
 16336 1249 01       		.byte	0x1
 16337 124a 2B000000 		.4byte	0x2b
 16338 124e 00000000 		.4byte	.LFB22
 16339 1252 5C000000 		.4byte	.LFE22
 16340 1256 D0080000 		.4byte	.LLST74
 16341 125a BF120000 		.4byte	0x12bf
 16342 125e 19       		.uleb128 0x19
 16343 125f 616D7800 		.ascii	"amx\000"
 16344 1263 01       		.byte	0x1
 16345 1264 DF06     		.2byte	0x6df
 16346 1266 230B0000 		.4byte	0xb23
 16347 126a F0080000 		.4byte	.LLST75
 16348 126e 1A       		.uleb128 0x1a
 16349 126f 72030000 		.4byte	.LASF268
 16350 1273 01       		.byte	0x1
 16351 1274 DF06     		.2byte	0x6df
 16352 1276 2B000000 		.4byte	0x2b
 16353 127a 03090000 		.4byte	.LLST76
 16354 127e 1A       		.uleb128 0x1a
ARM GAS  /tmp/ccSqa4tb.s 			page 288


 16355 127f 59020000 		.4byte	.LASF302
 16356 1283 01       		.byte	0x1
 16357 1284 DF06     		.2byte	0x6df
 16358 1286 8E000000 		.4byte	0x8e
 16359 128a 21090000 		.4byte	.LLST77
 16360 128e 1A       		.uleb128 0x1a
 16361 128f F6080000 		.4byte	.LASF303
 16362 1293 01       		.byte	0x1
 16363 1294 DF06     		.2byte	0x6df
 16364 1296 D0020000 		.4byte	0x2d0
 16365 129a 3F090000 		.4byte	.LLST78
 16366 129e 1C       		.uleb128 0x1c
 16367 129f 68647200 		.ascii	"hdr\000"
 16368 12a3 01       		.byte	0x1
 16369 12a4 E106     		.2byte	0x6e1
 16370 12a6 390B0000 		.4byte	0xb39
 16371 12aa 5D090000 		.4byte	.LLST79
 16372 12ae 1C       		.uleb128 0x1c
 16373 12af 74616700 		.ascii	"tag\000"
 16374 12b3 01       		.byte	0x1
 16375 12b4 E206     		.2byte	0x6e2
 16376 12b6 3F0B0000 		.4byte	0xb3f
 16377 12ba 86090000 		.4byte	.LLST80
 16378 12be 00       		.byte	0x0
 16379 12bf 18       		.uleb128 0x18
 16380 12c0 01       		.byte	0x1
 16381 12c1 670D0000 		.4byte	.LASF304
 16382 12c5 01       		.byte	0x1
 16383 12c6 FE06     		.2byte	0x6fe
 16384 12c8 01       		.byte	0x1
 16385 12c9 2B000000 		.4byte	0x2b
 16386 12cd 00000000 		.4byte	.LFB23
 16387 12d1 52000000 		.4byte	.LFE23
 16388 12d5 99090000 		.4byte	.LLST81
 16389 12d9 4C130000 		.4byte	0x134c
 16390 12dd 19       		.uleb128 0x19
 16391 12de 616D7800 		.ascii	"amx\000"
 16392 12e2 01       		.byte	0x1
 16393 12e3 FE06     		.2byte	0x6fe
 16394 12e5 230B0000 		.4byte	0xb23
 16395 12e9 B9090000 		.4byte	.LLST82
 16396 12ed 1A       		.uleb128 0x1a
 16397 12ee F6080000 		.4byte	.LASF303
 16398 12f2 01       		.byte	0x1
 16399 12f3 FE06     		.2byte	0x6fe
 16400 12f5 E8000000 		.4byte	0xe8
 16401 12f9 D7090000 		.4byte	.LLST83
 16402 12fd 1A       		.uleb128 0x1a
 16403 12fe 59020000 		.4byte	.LASF302
 16404 1302 01       		.byte	0x1
 16405 1303 FE06     		.2byte	0x6fe
 16406 1305 8E000000 		.4byte	0x8e
 16407 1309 F5090000 		.4byte	.LLST84
 16408 130d 1F       		.uleb128 0x1f
 16409 130e 710E0000 		.4byte	.LASF296
 16410 1312 01       		.byte	0x1
 16411 1313 0007     		.2byte	0x700
ARM GAS  /tmp/ccSqa4tb.s 			page 289


 16412 1315 2B000000 		.4byte	0x2b
 16413 1319 130A0000 		.4byte	.LLST85
 16414 131d 28       		.uleb128 0x28
 16415 131e F7050000 		.4byte	.LASF291
 16416 1322 01       		.byte	0x1
 16417 1323 0007     		.2byte	0x700
 16418 1325 2B000000 		.4byte	0x2b
 16419 1329 02       		.byte	0x2
 16420 132a 91       		.byte	0x91
 16421 132b 64       		.sleb128 -28
 16422 132c 1C       		.uleb128 0x1c
 16423 132d 6D696400 		.ascii	"mid\000"
 16424 1331 01       		.byte	0x1
 16425 1332 0007     		.2byte	0x700
 16426 1334 2B000000 		.4byte	0x2b
 16427 1338 3D0A0000 		.4byte	.LLST86
 16428 133c 28       		.uleb128 0x28
 16429 133d 4E040000 		.4byte	.LASF305
 16430 1341 01       		.byte	0x1
 16431 1342 0107     		.2byte	0x701
 16432 1344 E8000000 		.4byte	0xe8
 16433 1348 02       		.byte	0x2
 16434 1349 91       		.byte	0x91
 16435 134a 60       		.sleb128 -32
 16436 134b 00       		.byte	0x0
 16437 134c 18       		.uleb128 0x18
 16438 134d 01       		.byte	0x1
 16439 134e 15090000 		.4byte	.LASF306
 16440 1352 01       		.byte	0x1
 16441 1353 2607     		.2byte	0x726
 16442 1355 01       		.byte	0x1
 16443 1356 2B000000 		.4byte	0x2b
 16444 135a 00000000 		.4byte	.LFB24
 16445 135e 2E000000 		.4byte	.LFE24
 16446 1362 730A0000 		.4byte	.LLST87
 16447 1366 A7130000 		.4byte	0x13a7
 16448 136a 19       		.uleb128 0x19
 16449 136b 616D7800 		.ascii	"amx\000"
 16450 136f 01       		.byte	0x1
 16451 1370 2607     		.2byte	0x726
 16452 1372 230B0000 		.4byte	0xb23
 16453 1376 930A0000 		.4byte	.LLST88
 16454 137a 22       		.uleb128 0x22
 16455 137b 74616700 		.ascii	"tag\000"
 16456 137f 01       		.byte	0x1
 16457 1380 2607     		.2byte	0x726
 16458 1382 7A000000 		.4byte	0x7a
 16459 1386 01       		.byte	0x1
 16460 1387 51       		.byte	0x51
 16461 1388 22       		.uleb128 0x22
 16462 1389 70747200 		.ascii	"ptr\000"
 16463 138d 01       		.byte	0x1
 16464 138e 2607     		.2byte	0x726
 16465 1390 A7130000 		.4byte	0x13a7
 16466 1394 01       		.byte	0x1
 16467 1395 52       		.byte	0x52
 16468 1396 1F       		.uleb128 0x1f
ARM GAS  /tmp/ccSqa4tb.s 			page 290


 16469 1397 72030000 		.4byte	.LASF268
 16470 139b 01       		.byte	0x1
 16471 139c 2807     		.2byte	0x728
 16472 139e 2B000000 		.4byte	0x2b
 16473 13a2 B10A0000 		.4byte	.LLST89
 16474 13a6 00       		.byte	0x0
 16475 13a7 07       		.uleb128 0x7
 16476 13a8 04       		.byte	0x4
 16477 13a9 29000000 		.4byte	0x29
 16478 13ad 18       		.uleb128 0x18
 16479 13ae 01       		.byte	0x1
 16480 13af 5A090000 		.4byte	.LASF307
 16481 13b3 01       		.byte	0x1
 16482 13b4 3407     		.2byte	0x734
 16483 13b6 01       		.byte	0x1
 16484 13b7 2B000000 		.4byte	0x2b
 16485 13bb 00000000 		.4byte	.LFB25
 16486 13bf 42000000 		.4byte	.LFE25
 16487 13c3 DB0A0000 		.4byte	.LLST90
 16488 13c7 08140000 		.4byte	0x1408
 16489 13cb 19       		.uleb128 0x19
 16490 13cc 616D7800 		.ascii	"amx\000"
 16491 13d0 01       		.byte	0x1
 16492 13d1 3407     		.2byte	0x734
 16493 13d3 230B0000 		.4byte	0xb23
 16494 13d7 FB0A0000 		.4byte	.LLST91
 16495 13db 22       		.uleb128 0x22
 16496 13dc 74616700 		.ascii	"tag\000"
 16497 13e0 01       		.byte	0x1
 16498 13e1 3407     		.2byte	0x734
 16499 13e3 7A000000 		.4byte	0x7a
 16500 13e7 01       		.byte	0x1
 16501 13e8 51       		.byte	0x51
 16502 13e9 22       		.uleb128 0x22
 16503 13ea 70747200 		.ascii	"ptr\000"
 16504 13ee 01       		.byte	0x1
 16505 13ef 3407     		.2byte	0x734
 16506 13f1 29000000 		.4byte	0x29
 16507 13f5 01       		.byte	0x1
 16508 13f6 52       		.byte	0x52
 16509 13f7 1F       		.uleb128 0x1f
 16510 13f8 72030000 		.4byte	.LASF268
 16511 13fc 01       		.byte	0x1
 16512 13fd 3607     		.2byte	0x736
 16513 13ff 2B000000 		.4byte	0x2b
 16514 1403 190B0000 		.4byte	.LLST92
 16515 1407 00       		.byte	0x0
 16516 1408 29       		.uleb128 0x29
 16517 1409 DE0B0000 		.4byte	.LASF374
 16518 140d 01       		.byte	0x1
 16519 140e 4C07     		.2byte	0x74c
 16520 1410 01       		.byte	0x1
 16521 1411 F3000000 		.4byte	0xf3
 16522 1415 01       		.byte	0x1
 16523 1416 49140000 		.4byte	0x1449
 16524 141a 2A       		.uleb128 0x2a
 16525 141b 770C0000 		.4byte	.LASF41
ARM GAS  /tmp/ccSqa4tb.s 			page 291


 16526 141f 01       		.byte	0x1
 16527 1420 4C07     		.2byte	0x74c
 16528 1422 8E000000 		.4byte	0x8e
 16529 1426 2A       		.uleb128 0x2a
 16530 1427 E5020000 		.4byte	.LASF308
 16531 142b 01       		.byte	0x1
 16532 142c 4C07     		.2byte	0x74c
 16533 142e 49140000 		.4byte	0x1449
 16534 1432 2A       		.uleb128 0x2a
 16535 1433 5B0C0000 		.4byte	.LASF288
 16536 1437 01       		.byte	0x1
 16537 1438 4C07     		.2byte	0x74c
 16538 143a 2B000000 		.4byte	0x2b
 16539 143e 2B       		.uleb128 0x2b
 16540 143f 6900     		.ascii	"i\000"
 16541 1441 01       		.byte	0x1
 16542 1442 4E07     		.2byte	0x74e
 16543 1444 2B000000 		.4byte	0x2b
 16544 1448 00       		.byte	0x0
 16545 1449 07       		.uleb128 0x7
 16546 144a 04       		.byte	0x4
 16547 144b 4F140000 		.4byte	0x144f
 16548 144f 08       		.uleb128 0x8
 16549 1450 46030000 		.4byte	0x346
 16550 1454 18       		.uleb128 0x18
 16551 1455 01       		.byte	0x1
 16552 1456 3D010000 		.4byte	.LASF309
 16553 145a 01       		.byte	0x1
 16554 145b 5707     		.2byte	0x757
 16555 145d 01       		.byte	0x1
 16556 145e 2B000000 		.4byte	0x2b
 16557 1462 00000000 		.4byte	.LFB27
 16558 1466 AA000000 		.4byte	.LFE27
 16559 146a 4E0B0000 		.4byte	.LLST93
 16560 146e 3A150000 		.4byte	0x153a
 16561 1472 19       		.uleb128 0x19
 16562 1473 616D7800 		.ascii	"amx\000"
 16563 1477 01       		.byte	0x1
 16564 1478 5707     		.2byte	0x757
 16565 147a 230B0000 		.4byte	0xb23
 16566 147e 7A0B0000 		.4byte	.LLST94
 16567 1482 1A       		.uleb128 0x1a
 16568 1483 E5020000 		.4byte	.LASF308
 16569 1487 01       		.byte	0x1
 16570 1488 5707     		.2byte	0x757
 16571 148a 49140000 		.4byte	0x1449
 16572 148e 990B0000 		.4byte	.LLST95
 16573 1492 1A       		.uleb128 0x1a
 16574 1493 5B0C0000 		.4byte	.LASF288
 16575 1497 01       		.byte	0x1
 16576 1498 5707     		.2byte	0x757
 16577 149a 2B000000 		.4byte	0x2b
 16578 149e B70B0000 		.4byte	.LLST96
 16579 14a2 1F       		.uleb128 0x1f
 16580 14a3 54020000 		.4byte	.LASF42
 16581 14a7 01       		.byte	0x1
 16582 14a8 5907     		.2byte	0x759
ARM GAS  /tmp/ccSqa4tb.s 			page 292


 16583 14aa 3F0B0000 		.4byte	0xb3f
 16584 14ae D50B0000 		.4byte	.LLST97
 16585 14b2 23       		.uleb128 0x23
 16586 14b3 68647200 		.ascii	"hdr\000"
 16587 14b7 01       		.byte	0x1
 16588 14b8 5A07     		.2byte	0x75a
 16589 14ba 390B0000 		.4byte	0xb39
 16590 14be 01       		.byte	0x1
 16591 14bf 56       		.byte	0x56
 16592 14c0 1C       		.uleb128 0x1c
 16593 14c1 6900     		.ascii	"i\000"
 16594 14c3 01       		.byte	0x1
 16595 14c4 5B07     		.2byte	0x75b
 16596 14c6 2B000000 		.4byte	0x2b
 16597 14ca 140C0000 		.4byte	.LLST98
 16598 14ce 1F       		.uleb128 0x1f
 16599 14cf F10E0000 		.4byte	.LASF310
 16600 14d3 01       		.byte	0x1
 16601 14d4 5B07     		.2byte	0x75b
 16602 14d6 2B000000 		.4byte	0x2b
 16603 14da 4A0C0000 		.4byte	.LLST99
 16604 14de 1C       		.uleb128 0x1c
 16605 14df 65727200 		.ascii	"err\000"
 16606 14e3 01       		.byte	0x1
 16607 14e4 5B07     		.2byte	0x75b
 16608 14e6 2B000000 		.4byte	0x2b
 16609 14ea 680C0000 		.4byte	.LLST100
 16610 14ee 1F       		.uleb128 0x1f
 16611 14ef F3010000 		.4byte	.LASF311
 16612 14f3 01       		.byte	0x1
 16613 14f4 5C07     		.2byte	0x75c
 16614 14f6 F3000000 		.4byte	0xf3
 16615 14fa 9D0C0000 		.4byte	.LLST101
 16616 14fe 2C       		.uleb128 0x2c
 16617 14ff 08140000 		.4byte	0x1408
 16618 1503 4A000000 		.4byte	.LBB10
 16619 1507 00000000 		.4byte	.Ldebug_ranges0+0x0
 16620 150b 01       		.byte	0x1
 16621 150c 6A07     		.2byte	0x76a
 16622 150e 2D       		.uleb128 0x2d
 16623 150f 32140000 		.4byte	0x1432
 16624 1513 BB0C0000 		.4byte	.LLST102
 16625 1517 2D       		.uleb128 0x2d
 16626 1518 26140000 		.4byte	0x1426
 16627 151c CE0C0000 		.4byte	.LLST103
 16628 1520 2D       		.uleb128 0x2d
 16629 1521 1A140000 		.4byte	0x141a
 16630 1525 E10C0000 		.4byte	.LLST104
 16631 1529 2E       		.uleb128 0x2e
 16632 152a 20000000 		.4byte	.Ldebug_ranges0+0x20
 16633 152e 2F       		.uleb128 0x2f
 16634 152f 3E140000 		.4byte	0x143e
 16635 1533 150D0000 		.4byte	.LLST105
 16636 1537 00       		.byte	0x0
 16637 1538 00       		.byte	0x0
 16638 1539 00       		.byte	0x0
 16639 153a 26       		.uleb128 0x26
ARM GAS  /tmp/ccSqa4tb.s 			page 293


 16640 153b 01       		.byte	0x1
 16641 153c 4C0E0000 		.4byte	.LASF312
 16642 1540 01       		.byte	0x1
 16643 1541 7907     		.2byte	0x779
 16644 1543 01       		.byte	0x1
 16645 1544 86150000 		.4byte	0x1586
 16646 1548 00000000 		.4byte	.LFB28
 16647 154c 10000000 		.4byte	.LFE28
 16648 1550 02       		.byte	0x2
 16649 1551 7D       		.byte	0x7d
 16650 1552 00       		.sleb128 0
 16651 1553 86150000 		.4byte	0x1586
 16652 1557 1A       		.uleb128 0x1a
 16653 1558 770C0000 		.4byte	.LASF41
 16654 155c 01       		.byte	0x1
 16655 155d 7907     		.2byte	0x779
 16656 155f 9B000000 		.4byte	0x9b
 16657 1563 550D0000 		.4byte	.LLST106
 16658 1567 27       		.uleb128 0x27
 16659 1568 54020000 		.4byte	.LASF42
 16660 156c 01       		.byte	0x1
 16661 156d 7907     		.2byte	0x779
 16662 156f F3000000 		.4byte	0xf3
 16663 1573 01       		.byte	0x1
 16664 1574 51       		.byte	0x51
 16665 1575 23       		.uleb128 0x23
 16666 1576 6E00     		.ascii	"n\000"
 16667 1578 01       		.byte	0x1
 16668 1579 7B07     		.2byte	0x77b
 16669 157b 46030000 		.4byte	0x346
 16670 157f 05       		.byte	0x5
 16671 1580 03       		.byte	0x3
 16672 1581 00000000 		.4byte	n.6308
 16673 1585 00       		.byte	0x0
 16674 1586 07       		.uleb128 0x7
 16675 1587 04       		.byte	0x4
 16676 1588 46030000 		.4byte	0x346
 16677 158c 18       		.uleb128 0x18
 16678 158d 01       		.byte	0x1
 16679 158e 3C040000 		.4byte	.LASF313
 16680 1592 01       		.byte	0x1
 16681 1593 8707     		.2byte	0x787
 16682 1595 01       		.byte	0x1
 16683 1596 2B000000 		.4byte	0x2b
 16684 159a 00000000 		.4byte	.LFB29
 16685 159e 2A000000 		.4byte	.LFE29
 16686 15a2 680D0000 		.4byte	.LLST107
 16687 15a6 E9150000 		.4byte	0x15e9
 16688 15aa 19       		.uleb128 0x19
 16689 15ab 616D7800 		.ascii	"amx\000"
 16690 15af 01       		.byte	0x1
 16691 15b0 8707     		.2byte	0x787
 16692 15b2 230B0000 		.4byte	0xb23
 16693 15b6 880D0000 		.4byte	.LLST108
 16694 15ba 27       		.uleb128 0x27
 16695 15bb C2040000 		.4byte	.LASF314
 16696 15bf 01       		.byte	0x1
ARM GAS  /tmp/ccSqa4tb.s 			page 294


 16697 15c0 8707     		.2byte	0x787
 16698 15c2 E8000000 		.4byte	0xe8
 16699 15c6 01       		.byte	0x1
 16700 15c7 51       		.byte	0x51
 16701 15c8 1C       		.uleb128 0x1c
 16702 15c9 68647200 		.ascii	"hdr\000"
 16703 15cd 01       		.byte	0x1
 16704 15ce 8907     		.2byte	0x789
 16705 15d0 390B0000 		.4byte	0xb39
 16706 15d4 A60D0000 		.4byte	.LLST109
 16707 15d8 1F       		.uleb128 0x1f
 16708 15d9 1C070000 		.4byte	.LASF22
 16709 15dd 01       		.byte	0x1
 16710 15de 8A07     		.2byte	0x78a
 16711 15e0 88000000 		.4byte	0x88
 16712 15e4 B90D0000 		.4byte	.LLST110
 16713 15e8 00       		.byte	0x0
 16714 15e9 26       		.uleb128 0x26
 16715 15ea 01       		.byte	0x1
 16716 15eb 8C0F0000 		.4byte	.LASF315
 16717 15ef 01       		.byte	0x1
 16718 15f0 9607     		.2byte	0x796
 16719 15f2 01       		.byte	0x1
 16720 15f3 2B000000 		.4byte	0x2b
 16721 15f7 00000000 		.4byte	.LFB30
 16722 15fb 1A000000 		.4byte	.LFE30
 16723 15ff 02       		.byte	0x2
 16724 1600 7D       		.byte	0x7d
 16725 1601 00       		.sleb128 0
 16726 1602 57160000 		.4byte	0x1657
 16727 1606 19       		.uleb128 0x19
 16728 1607 616D7800 		.ascii	"amx\000"
 16729 160b 01       		.byte	0x1
 16730 160c 9607     		.2byte	0x796
 16731 160e 230B0000 		.4byte	0xb23
 16732 1612 CC0D0000 		.4byte	.LLST111
 16733 1616 1A       		.uleb128 0x1a
 16734 1617 120D0000 		.4byte	.LASF45
 16735 161b 01       		.byte	0x1
 16736 161c 9607     		.2byte	0x796
 16737 161e D0020000 		.4byte	0x2d0
 16738 1622 EA0D0000 		.4byte	.LLST112
 16739 1626 1C       		.uleb128 0x1c
 16740 1627 68647200 		.ascii	"hdr\000"
 16741 162b 01       		.byte	0x1
 16742 162c 9807     		.2byte	0x798
 16743 162e 390B0000 		.4byte	0xb39
 16744 1632 FD0D0000 		.4byte	.LLST113
 16745 1636 1F       		.uleb128 0x1f
 16746 1637 1C070000 		.4byte	.LASF22
 16747 163b 01       		.byte	0x1
 16748 163c 9907     		.2byte	0x799
 16749 163e 88000000 		.4byte	0x88
 16750 1642 1B0E0000 		.4byte	.LLST114
 16751 1646 1F       		.uleb128 0x1f
 16752 1647 0C070000 		.4byte	.LASF316
 16753 164b 01       		.byte	0x1
ARM GAS  /tmp/ccSqa4tb.s 			page 295


 16754 164c 9A07     		.2byte	0x79a
 16755 164e E8000000 		.4byte	0xe8
 16756 1652 2E0E0000 		.4byte	.LLST115
 16757 1656 00       		.byte	0x0
 16758 1657 26       		.uleb128 0x26
 16759 1658 01       		.byte	0x1
 16760 1659 8F090000 		.4byte	.LASF317
 16761 165d 01       		.byte	0x1
 16762 165e 0508     		.2byte	0x805
 16763 1660 01       		.byte	0x1
 16764 1661 2B000000 		.4byte	0x2b
 16765 1665 00000000 		.4byte	.LFB33
 16766 1669 0A000000 		.4byte	.LFE33
 16767 166d 02       		.byte	0x2
 16768 166e 7D       		.byte	0x7d
 16769 166f 00       		.sleb128 0
 16770 1670 A1160000 		.4byte	0x16a1
 16771 1674 19       		.uleb128 0x19
 16772 1675 616D7800 		.ascii	"amx\000"
 16773 1679 01       		.byte	0x1
 16774 167a 0508     		.2byte	0x805
 16775 167c 230B0000 		.4byte	0xb23
 16776 1680 4C0E0000 		.4byte	.LLST116
 16777 1684 27       		.uleb128 0x27
 16778 1685 B7070000 		.4byte	.LASF318
 16779 1689 01       		.byte	0x1
 16780 168a 0508     		.2byte	0x805
 16781 168c A1160000 		.4byte	0x16a1
 16782 1690 01       		.byte	0x1
 16783 1691 51       		.byte	0x51
 16784 1692 27       		.uleb128 0x27
 16785 1693 7C010000 		.4byte	.LASF319
 16786 1697 01       		.byte	0x1
 16787 1698 0508     		.2byte	0x805
 16788 169a BF0D0000 		.4byte	0xdbf
 16789 169e 01       		.byte	0x1
 16790 169f 52       		.byte	0x52
 16791 16a0 00       		.byte	0x0
 16792 16a1 07       		.uleb128 0x7
 16793 16a2 04       		.byte	0x4
 16794 16a3 95020000 		.4byte	0x295
 16795 16a7 30       		.uleb128 0x30
 16796 16a8 E50C0000 		.4byte	.LASF375
 16797 16ac 01       		.byte	0x1
 16798 16ad 6702     		.2byte	0x267
 16799 16af 01       		.byte	0x1
 16800 16b0 2B000000 		.4byte	0x2b
 16801 16b4 00000000 		.4byte	.LFB5
 16802 16b8 04030000 		.4byte	.LFE5
 16803 16bc 5F0E0000 		.4byte	.LLST117
 16804 16c0 BE170000 		.4byte	0x17be
 16805 16c4 19       		.uleb128 0x19
 16806 16c5 616D7800 		.ascii	"amx\000"
 16807 16c9 01       		.byte	0x1
 16808 16ca 6702     		.2byte	0x267
 16809 16cc 230B0000 		.4byte	0xb23
 16810 16d0 7F0E0000 		.4byte	.LLST118
ARM GAS  /tmp/ccSqa4tb.s 			page 296


 16811 16d4 1C       		.uleb128 0x1c
 16812 16d5 68647200 		.ascii	"hdr\000"
 16813 16d9 01       		.byte	0x1
 16814 16da 6902     		.2byte	0x269
 16815 16dc 390B0000 		.4byte	0xb39
 16816 16e0 9D0E0000 		.4byte	.LLST119
 16817 16e4 1C       		.uleb128 0x1c
 16818 16e5 6F7000   		.ascii	"op\000"
 16819 16e8 01       		.byte	0x1
 16820 16e9 6A02     		.2byte	0x26a
 16821 16eb E8000000 		.4byte	0xe8
 16822 16ef B00E0000 		.4byte	.LLST120
 16823 16f3 1C       		.uleb128 0x1c
 16824 16f4 63697000 		.ascii	"cip\000"
 16825 16f8 01       		.byte	0x1
 16826 16f9 6A02     		.2byte	0x26a
 16827 16fb E8000000 		.4byte	0xe8
 16828 16ff CD0F0000 		.4byte	.LLST121
 16829 1703 1C       		.uleb128 0x1c
 16830 1704 74677400 		.ascii	"tgt\000"
 16831 1708 01       		.byte	0x1
 16832 1709 6A02     		.2byte	0x26a
 16833 170b E8000000 		.4byte	0xe8
 16834 170f 7D100000 		.4byte	.LLST122
 16835 1713 31       		.uleb128 0x31
 16836 1714 950B0000 		.4byte	.LASF320
 16837 1718 01       		.byte	0x1
 16838 1719 6A02     		.2byte	0x26a
 16839 171b E8000000 		.4byte	0xe8
 16840 171f FFFF     		.2byte	0xffff
 16841 1721 1F       		.uleb128 0x1f
 16842 1722 370C0000 		.4byte	.LASF321
 16843 1726 01       		.byte	0x1
 16844 1727 6B02     		.2byte	0x26b
 16845 1729 2B000000 		.4byte	0x2b
 16846 172d C6110000 		.4byte	.LLST123
 16847 1731 28       		.uleb128 0x28
 16848 1732 B40F0000 		.4byte	.LASF322
 16849 1736 01       		.byte	0x1
 16850 1737 6B02     		.2byte	0x26b
 16851 1739 2B000000 		.4byte	0x2b
 16852 173d 02       		.byte	0x2
 16853 173e 91       		.byte	0x91
 16854 173f 5C       		.sleb128 -36
 16855 1740 28       		.uleb128 0x28
 16856 1741 BF050000 		.4byte	.LASF282
 16857 1745 01       		.byte	0x1
 16858 1746 6C02     		.2byte	0x26c
 16859 1748 2B000000 		.4byte	0x2b
 16860 174c 01       		.byte	0x1
 16861 174d 56       		.byte	0x56
 16862 174e 28       		.uleb128 0x28
 16863 174f 75070000 		.4byte	.LASF323
 16864 1753 01       		.byte	0x1
 16865 1754 6C02     		.2byte	0x26c
 16866 1756 2B000000 		.4byte	0x2b
 16867 175a 01       		.byte	0x1
ARM GAS  /tmp/ccSqa4tb.s 			page 297


 16868 175b 55       		.byte	0x55
 16869 175c 28       		.uleb128 0x28
 16870 175d 69040000 		.4byte	.LASF324
 16871 1761 01       		.byte	0x1
 16872 1762 6D02     		.2byte	0x26d
 16873 1764 95020000 		.4byte	0x295
 16874 1768 02       		.byte	0x2
 16875 1769 91       		.byte	0x91
 16876 176a 58       		.sleb128 -40
 16877 176b 32       		.uleb128 0x32
 16878 176c 40000000 		.4byte	.Ldebug_ranges0+0x40
 16879 1770 85170000 		.4byte	0x1785
 16880 1774 1C       		.uleb128 0x1c
 16881 1775 6E756D00 		.ascii	"num\000"
 16882 1779 01       		.byte	0x1
 16883 177a F503     		.2byte	0x3f5
 16884 177c E8000000 		.4byte	0xe8
 16885 1780 1C120000 		.4byte	.LLST124
 16886 1784 00       		.byte	0x0
 16887 1785 1E       		.uleb128 0x1e
 16888 1786 92020000 		.4byte	.LBB17
 16889 178a D0020000 		.4byte	.LBE17
 16890 178e 1C       		.uleb128 0x1c
 16891 178f 6E756D00 		.ascii	"num\000"
 16892 1793 01       		.byte	0x1
 16893 1794 0A04     		.2byte	0x40a
 16894 1796 E8000000 		.4byte	0xe8
 16895 179a 2F120000 		.4byte	.LLST125
 16896 179e 1F       		.uleb128 0x1f
 16897 179f 300E0000 		.4byte	.LASF325
 16898 17a3 01       		.byte	0x1
 16899 17a4 0A04     		.2byte	0x40a
 16900 17a6 E8000000 		.4byte	0xe8
 16901 17aa 63120000 		.4byte	.LLST126
 16902 17ae 1C       		.uleb128 0x1c
 16903 17af 6900     		.ascii	"i\000"
 16904 17b1 01       		.byte	0x1
 16905 17b2 0B04     		.2byte	0x40b
 16906 17b4 2B000000 		.4byte	0x2b
 16907 17b8 90120000 		.4byte	.LLST127
 16908 17bc 00       		.byte	0x0
 16909 17bd 00       		.byte	0x0
 16910 17be 18       		.uleb128 0x18
 16911 17bf 01       		.byte	0x1
 16912 17c0 6E0F0000 		.4byte	.LASF326
 16913 17c4 01       		.byte	0x1
 16914 17c5 4A04     		.2byte	0x44a
 16915 17c7 01       		.byte	0x1
 16916 17c8 2B000000 		.4byte	0x2b
 16917 17cc 00000000 		.4byte	.LFB6
 16918 17d0 E8000000 		.4byte	.LFE6
 16919 17d4 C5120000 		.4byte	.LLST128
 16920 17d8 55180000 		.4byte	0x1855
 16921 17dc 19       		.uleb128 0x19
 16922 17dd 616D7800 		.ascii	"amx\000"
 16923 17e1 01       		.byte	0x1
 16924 17e2 4A04     		.2byte	0x44a
ARM GAS  /tmp/ccSqa4tb.s 			page 298


 16925 17e4 230B0000 		.4byte	0xb23
 16926 17e8 E5120000 		.4byte	.LLST129
 16927 17ec 1A       		.uleb128 0x1a
 16928 17ed 62050000 		.4byte	.LASF327
 16929 17f1 01       		.byte	0x1
 16930 17f2 4A04     		.2byte	0x44a
 16931 17f4 29000000 		.4byte	0x29
 16932 17f8 03130000 		.4byte	.LLST130
 16933 17fc 1C       		.uleb128 0x1c
 16934 17fd 68647200 		.ascii	"hdr\000"
 16935 1801 01       		.byte	0x1
 16936 1802 4C04     		.2byte	0x44c
 16937 1804 390B0000 		.4byte	0xb39
 16938 1808 21130000 		.4byte	.LLST131
 16939 180c 1C       		.uleb128 0x1c
 16940 180d 65727200 		.ascii	"err\000"
 16941 1811 01       		.byte	0x1
 16942 1812 4D04     		.2byte	0x44d
 16943 1814 2B000000 		.4byte	0x2b
 16944 1818 4A130000 		.4byte	.LLST132
 16945 181c 1F       		.uleb128 0x1f
 16946 181d 03040000 		.4byte	.LASF286
 16947 1821 01       		.byte	0x1
 16948 1822 4E04     		.2byte	0x44e
 16949 1824 6C0A0000 		.4byte	0xa6c
 16950 1828 7E130000 		.4byte	.LLST133
 16951 182c 1F       		.uleb128 0x1f
 16952 182d 1C070000 		.4byte	.LASF22
 16953 1831 01       		.byte	0x1
 16954 1832 4F04     		.2byte	0x44f
 16955 1834 88000000 		.4byte	0x88
 16956 1838 B9130000 		.4byte	.LLST134
 16957 183c 1E       		.uleb128 0x1e
 16958 183d A4000000 		.4byte	.LBB19
 16959 1841 D2000000 		.4byte	.LBE19
 16960 1845 1C       		.uleb128 0x1c
 16961 1846 6900     		.ascii	"i\000"
 16962 1848 01       		.byte	0x1
 16963 1849 F204     		.2byte	0x4f2
 16964 184b 2B000000 		.4byte	0x2b
 16965 184f D7130000 		.4byte	.LLST135
 16966 1853 00       		.byte	0x0
 16967 1854 00       		.byte	0x0
 16968 1855 18       		.uleb128 0x18
 16969 1856 01       		.byte	0x1
 16970 1857 00030000 		.4byte	.LASF328
 16971 185b 01       		.byte	0x1
 16972 185c 1008     		.2byte	0x810
 16973 185e 01       		.byte	0x1
 16974 185f 2B000000 		.4byte	0x2b
 16975 1863 00000000 		.4byte	.LFB34
 16976 1867 8E130000 		.4byte	.LFE34
 16977 186b F5130000 		.4byte	.LLST136
 16978 186f 271A0000 		.4byte	0x1a27
 16979 1873 19       		.uleb128 0x19
 16980 1874 616D7800 		.ascii	"amx\000"
 16981 1878 01       		.byte	0x1
ARM GAS  /tmp/ccSqa4tb.s 			page 299


 16982 1879 1008     		.2byte	0x810
 16983 187b 230B0000 		.4byte	0xb23
 16984 187f 22140000 		.4byte	.LLST137
 16985 1883 1A       		.uleb128 0x1a
 16986 1884 D9070000 		.4byte	.LASF329
 16987 1888 01       		.byte	0x1
 16988 1889 1008     		.2byte	0x810
 16989 188b D0020000 		.4byte	0x2d0
 16990 188f AE140000 		.4byte	.LLST138
 16991 1893 1A       		.uleb128 0x1a
 16992 1894 72030000 		.4byte	.LASF268
 16993 1898 01       		.byte	0x1
 16994 1899 1008     		.2byte	0x810
 16995 189b 2B000000 		.4byte	0x2b
 16996 189f CD140000 		.4byte	.LLST139
 16997 18a3 1C       		.uleb128 0x1c
 16998 18a4 68647200 		.ascii	"hdr\000"
 16999 18a8 01       		.byte	0x1
 17000 18a9 1208     		.2byte	0x812
 17001 18ab 390B0000 		.4byte	0xb39
 17002 18af 01150000 		.4byte	.LLST140
 17003 18b3 1F       		.uleb128 0x1f
 17004 18b4 54020000 		.4byte	.LASF42
 17005 18b8 01       		.byte	0x1
 17006 18b9 1308     		.2byte	0x813
 17007 18bb 3F0B0000 		.4byte	0xb3f
 17008 18bf 43150000 		.4byte	.LLST141
 17009 18c3 1F       		.uleb128 0x1f
 17010 18c4 1C070000 		.4byte	.LASF22
 17011 18c8 01       		.byte	0x1
 17012 18c9 1408     		.2byte	0x814
 17013 18cb 88000000 		.4byte	0x88
 17014 18cf 61150000 		.4byte	.LLST142
 17015 18d3 1F       		.uleb128 0x1f
 17016 18d4 12070000 		.4byte	.LASF31
 17017 18d8 01       		.byte	0x1
 17018 18d9 1508     		.2byte	0x815
 17019 18db E8000000 		.4byte	0xe8
 17020 18df A0150000 		.4byte	.LLST143
 17021 18e3 1F       		.uleb128 0x1f
 17022 18e4 66010000 		.4byte	.LASF32
 17023 18e8 01       		.byte	0x1
 17024 18e9 1508     		.2byte	0x815
 17025 18eb E8000000 		.4byte	0xe8
 17026 18ef EE150000 		.4byte	.LLST144
 17027 18f3 1C       		.uleb128 0x1c
 17028 18f4 6900     		.ascii	"i\000"
 17029 18f6 01       		.byte	0x1
 17030 18f7 1608     		.2byte	0x816
 17031 18f9 2B000000 		.4byte	0x2b
 17032 18fd 45160000 		.4byte	.LLST145
 17033 1901 1C       		.uleb128 0x1c
 17034 1902 70726900 		.ascii	"pri\000"
 17035 1906 01       		.byte	0x1
 17036 1907 1808     		.2byte	0x818
 17037 1909 E8000000 		.4byte	0xe8
 17038 190d 21170000 		.4byte	.LLST146
ARM GAS  /tmp/ccSqa4tb.s 			page 300


 17039 1911 1C       		.uleb128 0x1c
 17040 1912 616C7400 		.ascii	"alt\000"
 17041 1916 01       		.byte	0x1
 17042 1917 1808     		.2byte	0x818
 17043 1919 E8000000 		.4byte	0xe8
 17044 191d 85170000 		.4byte	.LLST147
 17045 1921 1C       		.uleb128 0x1c
 17046 1922 73746B00 		.ascii	"stk\000"
 17047 1926 01       		.byte	0x1
 17048 1927 1808     		.2byte	0x818
 17049 1929 E8000000 		.4byte	0xe8
 17050 192d DC190000 		.4byte	.LLST148
 17051 1931 1C       		.uleb128 0x1c
 17052 1932 66726D00 		.ascii	"frm\000"
 17053 1936 01       		.byte	0x1
 17054 1937 1808     		.2byte	0x818
 17055 1939 E8000000 		.4byte	0xe8
 17056 193d FC1C0000 		.4byte	.LLST149
 17057 1941 1C       		.uleb128 0x1c
 17058 1942 68656100 		.ascii	"hea\000"
 17059 1946 01       		.byte	0x1
 17060 1947 1808     		.2byte	0x818
 17061 1949 E8000000 		.4byte	0xe8
 17062 194d EF1D0000 		.4byte	.LLST150
 17063 1951 1C       		.uleb128 0x1c
 17064 1952 63697000 		.ascii	"cip\000"
 17065 1956 01       		.byte	0x1
 17066 1957 1908     		.2byte	0x819
 17067 1959 D0020000 		.4byte	0x2d0
 17068 195d CB1E0000 		.4byte	.LLST151
 17069 1961 1C       		.uleb128 0x1c
 17070 1962 6F7000   		.ascii	"op\000"
 17071 1965 01       		.byte	0x1
 17072 1966 1908     		.2byte	0x819
 17073 1968 E8000000 		.4byte	0xe8
 17074 196c 23240000 		.4byte	.LLST152
 17075 1970 1F       		.uleb128 0x1f
 17076 1971 300E0000 		.4byte	.LASF325
 17077 1975 01       		.byte	0x1
 17078 1976 1908     		.2byte	0x819
 17079 1978 E8000000 		.4byte	0xe8
 17080 197c 2B290000 		.4byte	.LLST153
 17081 1980 1C       		.uleb128 0x1c
 17082 1981 76616C00 		.ascii	"val\000"
 17083 1985 01       		.byte	0x1
 17084 1986 1908     		.2byte	0x819
 17085 1988 E8000000 		.4byte	0xe8
 17086 198c 7B320000 		.4byte	.LLST154
 17087 1990 33       		.uleb128 0x33
 17088 1991 E8070000 		.4byte	.LASF330
 17089 1995 01       		.byte	0x1
 17090 1996 E408     		.2byte	0x8e4
 17091 1998 C6040000 		.4byte	.L415
 17092 199c 33       		.uleb128 0x33
 17093 199d 91020000 		.4byte	.LASF331
 17094 19a1 01       		.byte	0x1
 17095 19a2 1709     		.2byte	0x917
ARM GAS  /tmp/ccSqa4tb.s 			page 301


 17096 19a4 60050000 		.4byte	.L425
 17097 19a8 33       		.uleb128 0x33
 17098 19a9 930A0000 		.4byte	.LASF332
 17099 19ad 01       		.byte	0x1
 17100 19ae 200A     		.2byte	0xa20
 17101 19b0 96080000 		.4byte	.L450
 17102 19b4 33       		.uleb128 0x33
 17103 19b5 640B0000 		.4byte	.LASF333
 17104 19b9 01       		.byte	0x1
 17105 19ba 3B0A     		.2byte	0xa3b
 17106 19bc EE080000 		.4byte	.L463
 17107 19c0 33       		.uleb128 0x33
 17108 19c1 0E090000 		.4byte	.LASF334
 17109 19c5 01       		.byte	0x1
 17110 19c6 530A     		.2byte	0xa53
 17111 19c8 48090000 		.4byte	.L476
 17112 19cc 33       		.uleb128 0x33
 17113 19cd E2080000 		.4byte	.LASF335
 17114 19d1 01       		.byte	0x1
 17115 19d2 5E0A     		.2byte	0xa5e
 17116 19d4 94090000 		.4byte	.L484
 17117 19d8 34       		.uleb128 0x34
 17118 19d9 28000000 		.4byte	.LBB20
 17119 19dd 5E000000 		.4byte	.LBE20
 17120 19e1 F6190000 		.4byte	0x19f6
 17121 19e5 1F       		.uleb128 0x1f
 17122 19e6 F10E0000 		.4byte	.LASF310
 17123 19ea 01       		.byte	0x1
 17124 19eb 2A08     		.2byte	0x82a
 17125 19ed 2B000000 		.4byte	0x2b
 17126 19f1 D9340000 		.4byte	.LLST155
 17127 19f5 00       		.byte	0x0
 17128 19f6 32       		.uleb128 0x32
 17129 19f7 58000000 		.4byte	.Ldebug_ranges0+0x58
 17130 19fb 101A0000 		.4byte	0x1a10
 17131 19ff 1F       		.uleb128 0x1f
 17132 1a00 590F0000 		.4byte	.LASF336
 17133 1a04 01       		.byte	0x1
 17134 1a05 890A     		.2byte	0xa89
 17135 1a07 D0020000 		.4byte	0x2d0
 17136 1a0b F7340000 		.4byte	.LLST156
 17137 1a0f 00       		.byte	0x0
 17138 1a10 2E       		.uleb128 0x2e
 17139 1a11 70000000 		.4byte	.Ldebug_ranges0+0x70
 17140 1a15 1F       		.uleb128 0x1f
 17141 1a16 590F0000 		.4byte	.LASF336
 17142 1a1a 01       		.byte	0x1
 17143 1a1b FB0A     		.2byte	0xafb
 17144 1a1d D0020000 		.4byte	0x2d0
 17145 1a21 45350000 		.4byte	.LLST157
 17146 1a25 00       		.byte	0x0
 17147 1a26 00       		.byte	0x0
 17148 1a27 26       		.uleb128 0x26
 17149 1a28 01       		.byte	0x1
 17150 1a29 BB080000 		.4byte	.LASF337
 17151 1a2d 01       		.byte	0x1
 17152 1a2e 2A0D     		.2byte	0xd2a
ARM GAS  /tmp/ccSqa4tb.s 			page 302


 17153 1a30 01       		.byte	0x1
 17154 1a31 2B000000 		.4byte	0x2b
 17155 1a35 00000000 		.4byte	.LFB35
 17156 1a39 06000000 		.4byte	.LFE35
 17157 1a3d 02       		.byte	0x2
 17158 1a3e 7D       		.byte	0x7d
 17159 1a3f 00       		.sleb128 0
 17160 1a40 631A0000 		.4byte	0x1a63
 17161 1a44 19       		.uleb128 0x19
 17162 1a45 616D7800 		.ascii	"amx\000"
 17163 1a49 01       		.byte	0x1
 17164 1a4a 2A0D     		.2byte	0xd2a
 17165 1a4c 230B0000 		.4byte	0xb23
 17166 1a50 93350000 		.4byte	.LLST158
 17167 1a54 27       		.uleb128 0x27
 17168 1a55 430E0000 		.4byte	.LASF23
 17169 1a59 01       		.byte	0x1
 17170 1a5a 2A0D     		.2byte	0xd2a
 17171 1a5c A0020000 		.4byte	0x2a0
 17172 1a60 01       		.byte	0x1
 17173 1a61 51       		.byte	0x51
 17174 1a62 00       		.byte	0x0
 17175 1a63 26       		.uleb128 0x26
 17176 1a64 01       		.byte	0x1
 17177 1a65 E6050000 		.4byte	.LASF338
 17178 1a69 01       		.byte	0x1
 17179 1a6a 340D     		.2byte	0xd34
 17180 1a6c 01       		.byte	0x1
 17181 1a6d 2B000000 		.4byte	0x2b
 17182 1a71 00000000 		.4byte	.LFB36
 17183 1a75 06000000 		.4byte	.LFE36
 17184 1a79 02       		.byte	0x2
 17185 1a7a 7D       		.byte	0x7d
 17186 1a7b 00       		.sleb128 0
 17187 1a7c 9F1A0000 		.4byte	0x1a9f
 17188 1a80 19       		.uleb128 0x19
 17189 1a81 616D7800 		.ascii	"amx\000"
 17190 1a85 01       		.byte	0x1
 17191 1a86 340D     		.2byte	0xd34
 17192 1a88 230B0000 		.4byte	0xb23
 17193 1a8c A6350000 		.4byte	.LLST159
 17194 1a90 27       		.uleb128 0x27
 17195 1a91 7A000000 		.4byte	.LASF24
 17196 1a95 01       		.byte	0x1
 17197 1a96 340D     		.2byte	0xd34
 17198 1a98 D6020000 		.4byte	0x2d6
 17199 1a9c 01       		.byte	0x1
 17200 1a9d 51       		.byte	0x51
 17201 1a9e 00       		.byte	0x0
 17202 1a9f 26       		.uleb128 0x26
 17203 1aa0 01       		.byte	0x1
 17204 1aa1 C1020000 		.4byte	.LASF339
 17205 1aa5 01       		.byte	0x1
 17206 1aa6 3D0D     		.2byte	0xd3d
 17207 1aa8 01       		.byte	0x1
 17208 1aa9 2B000000 		.4byte	0x2b
 17209 1aad 00000000 		.4byte	.LFB37
ARM GAS  /tmp/ccSqa4tb.s 			page 303


 17210 1ab1 06000000 		.4byte	.LFE37
 17211 1ab5 02       		.byte	0x2
 17212 1ab6 7D       		.byte	0x7d
 17213 1ab7 00       		.sleb128 0
 17214 1ab8 DB1A0000 		.4byte	0x1adb
 17215 1abc 19       		.uleb128 0x19
 17216 1abd 616D7800 		.ascii	"amx\000"
 17217 1ac1 01       		.byte	0x1
 17218 1ac2 3D0D     		.2byte	0xd3d
 17219 1ac4 230B0000 		.4byte	0xb23
 17220 1ac8 B9350000 		.4byte	.LLST160
 17221 1acc 27       		.uleb128 0x27
 17222 1acd 4E020000 		.4byte	.LASF29
 17223 1ad1 01       		.byte	0x1
 17224 1ad2 3D0D     		.2byte	0xd3d
 17225 1ad4 2B000000 		.4byte	0x2b
 17226 1ad8 01       		.byte	0x1
 17227 1ad9 51       		.byte	0x51
 17228 1ada 00       		.byte	0x0
 17229 1adb 18       		.uleb128 0x18
 17230 1adc 01       		.byte	0x1
 17231 1add 2D0C0000 		.4byte	.LASF340
 17232 1ae1 01       		.byte	0x1
 17233 1ae2 460D     		.2byte	0xd46
 17234 1ae4 01       		.byte	0x1
 17235 1ae5 2B000000 		.4byte	0x2b
 17236 1ae9 00000000 		.4byte	.LFB38
 17237 1aed 2C000000 		.4byte	.LFE38
 17238 1af1 CC350000 		.4byte	.LLST161
 17239 1af5 481B0000 		.4byte	0x1b48
 17240 1af9 19       		.uleb128 0x19
 17241 1afa 616D7800 		.ascii	"amx\000"
 17242 1afe 01       		.byte	0x1
 17243 1aff 460D     		.2byte	0xd46
 17244 1b01 230B0000 		.4byte	0xb23
 17245 1b05 EC350000 		.4byte	.LLST162
 17246 1b09 1A       		.uleb128 0x1a
 17247 1b0a D5060000 		.4byte	.LASF341
 17248 1b0e 01       		.byte	0x1
 17249 1b0f 460D     		.2byte	0xd46
 17250 1b11 2B000000 		.4byte	0x2b
 17251 1b15 0A360000 		.4byte	.LLST163
 17252 1b19 27       		.uleb128 0x27
 17253 1b1a 120D0000 		.4byte	.LASF45
 17254 1b1e 01       		.byte	0x1
 17255 1b1f 460D     		.2byte	0xd46
 17256 1b21 51110000 		.4byte	0x1151
 17257 1b25 01       		.byte	0x1
 17258 1b26 52       		.byte	0x52
 17259 1b27 1C       		.uleb128 0x1c
 17260 1b28 68647200 		.ascii	"hdr\000"
 17261 1b2c 01       		.byte	0x1
 17262 1b2d 480D     		.2byte	0xd48
 17263 1b2f 390B0000 		.4byte	0xb39
 17264 1b33 1D360000 		.4byte	.LLST164
 17265 1b37 1F       		.uleb128 0x1f
 17266 1b38 1C070000 		.4byte	.LASF22
ARM GAS  /tmp/ccSqa4tb.s 			page 304


 17267 1b3c 01       		.byte	0x1
 17268 1b3d 490D     		.2byte	0xd49
 17269 1b3f 88000000 		.4byte	0x88
 17270 1b43 30360000 		.4byte	.LLST165
 17271 1b47 00       		.byte	0x0
 17272 1b48 18       		.uleb128 0x18
 17273 1b49 01       		.byte	0x1
 17274 1b4a 400A0000 		.4byte	.LASF342
 17275 1b4e 01       		.byte	0x1
 17276 1b4f A807     		.2byte	0x7a8
 17277 1b51 01       		.byte	0x1
 17278 1b52 2B000000 		.4byte	0x2b
 17279 1b56 00000000 		.4byte	.LFB31
 17280 1b5a 34000000 		.4byte	.LFE31
 17281 1b5e 4E360000 		.4byte	.LLST166
 17282 1b62 C51B0000 		.4byte	0x1bc5
 17283 1b66 19       		.uleb128 0x19
 17284 1b67 616D7800 		.ascii	"amx\000"
 17285 1b6b 01       		.byte	0x1
 17286 1b6c A807     		.2byte	0x7a8
 17287 1b6e 230B0000 		.4byte	0xb23
 17288 1b72 6E360000 		.4byte	.LLST167
 17289 1b76 1A       		.uleb128 0x1a
 17290 1b77 120D0000 		.4byte	.LASF45
 17291 1b7b 01       		.byte	0x1
 17292 1b7c A807     		.2byte	0x7a8
 17293 1b7e 51110000 		.4byte	0x1151
 17294 1b82 8C360000 		.4byte	.LLST168
 17295 1b86 1A       		.uleb128 0x1a
 17296 1b87 E0090000 		.4byte	.LASF343
 17297 1b8b 01       		.byte	0x1
 17298 1b8c A807     		.2byte	0x7a8
 17299 1b8e 95020000 		.4byte	0x295
 17300 1b92 AA360000 		.4byte	.LLST169
 17301 1b96 1A       		.uleb128 0x1a
 17302 1b97 2D0D0000 		.4byte	.LASF344
 17303 1b9b 01       		.byte	0x1
 17304 1b9c A807     		.2byte	0x7a8
 17305 1b9e 2B000000 		.4byte	0x2b
 17306 1ba2 C8360000 		.4byte	.LLST170
 17307 1ba6 28       		.uleb128 0x28
 17308 1ba7 0C070000 		.4byte	.LASF316
 17309 1bab 01       		.byte	0x1
 17310 1bac AA07     		.2byte	0x7aa
 17311 1bae E8000000 		.4byte	0xe8
 17312 1bb2 01       		.byte	0x1
 17313 1bb3 58       		.byte	0x58
 17314 1bb4 1C       		.uleb128 0x1c
 17315 1bb5 65727200 		.ascii	"err\000"
 17316 1bb9 01       		.byte	0x1
 17317 1bba AB07     		.2byte	0x7ab
 17318 1bbc 2B000000 		.4byte	0x2b
 17319 1bc0 E6360000 		.4byte	.LLST171
 17320 1bc4 00       		.byte	0x0
 17321 1bc5 26       		.uleb128 0x26
 17322 1bc6 01       		.byte	0x1
 17323 1bc7 BD060000 		.4byte	.LASF345
ARM GAS  /tmp/ccSqa4tb.s 			page 305


 17324 1bcb 01       		.byte	0x1
 17325 1bcc 590D     		.2byte	0xd59
 17326 1bce 01       		.byte	0x1
 17327 1bcf 2B000000 		.4byte	0x2b
 17328 1bd3 00000000 		.4byte	.LFB39
 17329 1bd7 18000000 		.4byte	.LFE39
 17330 1bdb 02       		.byte	0x2
 17331 1bdc 7D       		.byte	0x7d
 17332 1bdd 00       		.sleb128 0
 17333 1bde 2F1C0000 		.4byte	0x1c2f
 17334 1be2 19       		.uleb128 0x19
 17335 1be3 616D7800 		.ascii	"amx\000"
 17336 1be7 01       		.byte	0x1
 17337 1be8 590D     		.2byte	0xd59
 17338 1bea 230B0000 		.4byte	0xb23
 17339 1bee F9360000 		.4byte	.LLST172
 17340 1bf2 27       		.uleb128 0x27
 17341 1bf3 120D0000 		.4byte	.LASF45
 17342 1bf7 01       		.byte	0x1
 17343 1bf8 590D     		.2byte	0xd59
 17344 1bfa D0020000 		.4byte	0x2d0
 17345 1bfe 01       		.byte	0x1
 17346 1bff 51       		.byte	0x51
 17347 1c00 1C       		.uleb128 0x1c
 17348 1c01 68647200 		.ascii	"hdr\000"
 17349 1c05 01       		.byte	0x1
 17350 1c06 5B0D     		.2byte	0xd5b
 17351 1c08 390B0000 		.4byte	0xb39
 17352 1c0c 0C370000 		.4byte	.LLST173
 17353 1c10 1F       		.uleb128 0x1f
 17354 1c11 1C070000 		.4byte	.LASF22
 17355 1c15 01       		.byte	0x1
 17356 1c16 5C0D     		.2byte	0xd5c
 17357 1c18 88000000 		.4byte	0x88
 17358 1c1c 1F370000 		.4byte	.LLST174
 17359 1c20 28       		.uleb128 0x28
 17360 1c21 84050000 		.4byte	.LASF346
 17361 1c25 01       		.byte	0x1
 17362 1c26 5D0D     		.2byte	0xd5d
 17363 1c28 E8000000 		.4byte	0xe8
 17364 1c2c 01       		.byte	0x1
 17365 1c2d 53       		.byte	0x53
 17366 1c2e 00       		.byte	0x0
 17367 1c2f 18       		.uleb128 0x18
 17368 1c30 01       		.byte	0x1
 17369 1c31 D7080000 		.4byte	.LASF347
 17370 1c35 01       		.byte	0x1
 17371 1c36 780D     		.2byte	0xd78
 17372 1c38 01       		.byte	0x1
 17373 1c39 2B000000 		.4byte	0x2b
 17374 1c3d 00000000 		.4byte	.LFB40
 17375 1c41 46000000 		.4byte	.LFE40
 17376 1c45 32370000 		.4byte	.LLST175
 17377 1c49 8C1C0000 		.4byte	0x1c8c
 17378 1c4d 1A       		.uleb128 0x1a
 17379 1c4e 6A050000 		.4byte	.LASF348
 17380 1c52 01       		.byte	0x1
ARM GAS  /tmp/ccSqa4tb.s 			page 306


 17381 1c53 780D     		.2byte	0xd78
 17382 1c55 95020000 		.4byte	0x295
 17383 1c59 52370000 		.4byte	.LLST176
 17384 1c5d 1A       		.uleb128 0x1a
 17385 1c5e 740B0000 		.4byte	.LASF285
 17386 1c62 01       		.byte	0x1
 17387 1c63 780D     		.2byte	0xd78
 17388 1c65 BF0D0000 		.4byte	0xdbf
 17389 1c69 70370000 		.4byte	.LLST177
 17390 1c6d 1C       		.uleb128 0x1c
 17391 1c6e 6C656E00 		.ascii	"len\000"
 17392 1c72 01       		.byte	0x1
 17393 1c73 7A0D     		.2byte	0xd7a
 17394 1c75 2B000000 		.4byte	0x2b
 17395 1c79 8E370000 		.4byte	.LLST178
 17396 1c7d 1C       		.uleb128 0x1c
 17397 1c7e 6300     		.ascii	"c\000"
 17398 1c80 01       		.byte	0x1
 17399 1c81 7C0D     		.2byte	0xd7c
 17400 1c83 E8000000 		.4byte	0xe8
 17401 1c87 CE370000 		.4byte	.LLST179
 17402 1c8b 00       		.byte	0x0
 17403 1c8c 18       		.uleb128 0x18
 17404 1c8d 01       		.byte	0x1
 17405 1c8e C90F0000 		.4byte	.LASF349
 17406 1c92 01       		.byte	0x1
 17407 1c93 9D0D     		.2byte	0xd9d
 17408 1c95 01       		.byte	0x1
 17409 1c96 2B000000 		.4byte	0x2b
 17410 1c9a 00000000 		.4byte	.LFB41
 17411 1c9e BC000000 		.4byte	.LFE41
 17412 1ca2 EC370000 		.4byte	.LLST180
 17413 1ca6 281D0000 		.4byte	0x1d28
 17414 1caa 1A       		.uleb128 0x1a
 17415 1cab E10F0000 		.4byte	.LASF350
 17416 1caf 01       		.byte	0x1
 17417 1cb0 9D0D     		.2byte	0xd9d
 17418 1cb2 D0020000 		.4byte	0x2d0
 17419 1cb6 0C380000 		.4byte	.LLST181
 17420 1cba 1A       		.uleb128 0x1a
 17421 1cbb 6A080000 		.4byte	.LASF351
 17422 1cbf 01       		.byte	0x1
 17423 1cc0 9D0D     		.2byte	0xd9d
 17424 1cc2 9B000000 		.4byte	0x9b
 17425 1cc6 35380000 		.4byte	.LLST182
 17426 1cca 1A       		.uleb128 0x1a
 17427 1ccb 0E040000 		.4byte	.LASF352
 17428 1ccf 01       		.byte	0x1
 17429 1cd0 9D0D     		.2byte	0xd9d
 17430 1cd2 2B000000 		.4byte	0x2b
 17431 1cd6 69380000 		.4byte	.LLST183
 17432 1cda 1A       		.uleb128 0x1a
 17433 1cdb 85090000 		.4byte	.LASF353
 17434 1cdf 01       		.byte	0x1
 17435 1ce0 9D0D     		.2byte	0xd9d
 17436 1ce2 2B000000 		.4byte	0x2b
 17437 1ce6 92380000 		.4byte	.LLST184
ARM GAS  /tmp/ccSqa4tb.s 			page 307


 17438 1cea 27       		.uleb128 0x27
 17439 1ceb FD080000 		.4byte	.LASF49
 17440 1cef 01       		.byte	0x1
 17441 1cf0 9D0D     		.2byte	0xd9d
 17442 1cf2 32000000 		.4byte	0x32
 17443 1cf6 02       		.byte	0x2
 17444 1cf7 91       		.byte	0x91
 17445 1cf8 00       		.sleb128 0
 17446 1cf9 1C       		.uleb128 0x1c
 17447 1cfa 6C656E00 		.ascii	"len\000"
 17448 1cfe 01       		.byte	0x1
 17449 1cff 9F0D     		.2byte	0xd9f
 17450 1d01 2B000000 		.4byte	0x2b
 17451 1d05 B0380000 		.4byte	.LLST185
 17452 1d09 1C       		.uleb128 0x1c
 17453 1d0a 6900     		.ascii	"i\000"
 17454 1d0c 01       		.byte	0x1
 17455 1d0d 9F0D     		.2byte	0xd9f
 17456 1d0f 2B000000 		.4byte	0x2b
 17457 1d13 FA380000 		.4byte	.LLST186
 17458 1d17 35       		.uleb128 0x35
 17459 1d18 01       		.byte	0x1
 17460 1d19 FC0F0000 		.4byte	.LASF356
 17461 1d1d 01       		.byte	0x1
 17462 1d1e C407     		.2byte	0x7c4
 17463 1d20 2B000000 		.4byte	0x2b
 17464 1d24 01       		.byte	0x1
 17465 1d25 36       		.uleb128 0x36
 17466 1d26 00       		.byte	0x0
 17467 1d27 00       		.byte	0x0
 17468 1d28 18       		.uleb128 0x18
 17469 1d29 01       		.byte	0x1
 17470 1d2a D8000000 		.4byte	.LASF354
 17471 1d2e 01       		.byte	0x1
 17472 1d2f B907     		.2byte	0x7b9
 17473 1d31 01       		.byte	0x1
 17474 1d32 2B000000 		.4byte	0x2b
 17475 1d36 00000000 		.4byte	.LFB32
 17476 1d3a 62000000 		.4byte	.LFE32
 17477 1d3e 5C390000 		.4byte	.LLST187
 17478 1d42 D41D0000 		.4byte	0x1dd4
 17479 1d46 19       		.uleb128 0x19
 17480 1d47 616D7800 		.ascii	"amx\000"
 17481 1d4b 01       		.byte	0x1
 17482 1d4c B907     		.2byte	0x7b9
 17483 1d4e 230B0000 		.4byte	0xb23
 17484 1d52 7C390000 		.4byte	.LLST188
 17485 1d56 1A       		.uleb128 0x1a
 17486 1d57 120D0000 		.4byte	.LASF45
 17487 1d5b 01       		.byte	0x1
 17488 1d5c B907     		.2byte	0x7b9
 17489 1d5e 51110000 		.4byte	0x1151
 17490 1d62 9A390000 		.4byte	.LLST189
 17491 1d66 1A       		.uleb128 0x1a
 17492 1d67 E2060000 		.4byte	.LASF355
 17493 1d6b 01       		.byte	0x1
 17494 1d6c B907     		.2byte	0x7b9
ARM GAS  /tmp/ccSqa4tb.s 			page 308


 17495 1d6e 9B000000 		.4byte	0x9b
 17496 1d72 B8390000 		.4byte	.LLST190
 17497 1d76 1A       		.uleb128 0x1a
 17498 1d77 0E040000 		.4byte	.LASF352
 17499 1d7b 01       		.byte	0x1
 17500 1d7c B907     		.2byte	0x7b9
 17501 1d7e 2B000000 		.4byte	0x2b
 17502 1d82 D6390000 		.4byte	.LLST191
 17503 1d86 27       		.uleb128 0x27
 17504 1d87 85090000 		.4byte	.LASF353
 17505 1d8b 01       		.byte	0x1
 17506 1d8c B907     		.2byte	0x7b9
 17507 1d8e 2B000000 		.4byte	0x2b
 17508 1d92 02       		.byte	0x2
 17509 1d93 91       		.byte	0x91
 17510 1d94 00       		.sleb128 0
 17511 1d95 28       		.uleb128 0x28
 17512 1d96 0C070000 		.4byte	.LASF316
 17513 1d9a 01       		.byte	0x1
 17514 1d9b BB07     		.2byte	0x7bb
 17515 1d9d E8000000 		.4byte	0xe8
 17516 1da1 01       		.byte	0x1
 17517 1da2 56       		.byte	0x56
 17518 1da3 1F       		.uleb128 0x1f
 17519 1da4 2D0D0000 		.4byte	.LASF344
 17520 1da8 01       		.byte	0x1
 17521 1da9 BC07     		.2byte	0x7bc
 17522 1dab 2B000000 		.4byte	0x2b
 17523 1daf F4390000 		.4byte	.LLST192
 17524 1db3 1C       		.uleb128 0x1c
 17525 1db4 65727200 		.ascii	"err\000"
 17526 1db8 01       		.byte	0x1
 17527 1db9 BC07     		.2byte	0x7bc
 17528 1dbb 2B000000 		.4byte	0x2b
 17529 1dbf 1F3A0000 		.4byte	.LLST193
 17530 1dc3 35       		.uleb128 0x35
 17531 1dc4 01       		.byte	0x1
 17532 1dc5 FC0F0000 		.4byte	.LASF356
 17533 1dc9 01       		.byte	0x1
 17534 1dca C407     		.2byte	0x7c4
 17535 1dcc 2B000000 		.4byte	0x2b
 17536 1dd0 01       		.byte	0x1
 17537 1dd1 36       		.uleb128 0x36
 17538 1dd2 00       		.byte	0x0
 17539 1dd3 00       		.byte	0x0
 17540 1dd4 18       		.uleb128 0x18
 17541 1dd5 01       		.byte	0x1
 17542 1dd6 5C080000 		.4byte	.LASF357
 17543 1dda 01       		.byte	0x1
 17544 1ddb D70D     		.2byte	0xdd7
 17545 1ddd 01       		.byte	0x1
 17546 1dde 2B000000 		.4byte	0x2b
 17547 1de2 00000000 		.4byte	.LFB42
 17548 1de6 80000000 		.4byte	.LFE42
 17549 1dea 323A0000 		.4byte	.LLST194
 17550 1dee 761E0000 		.4byte	0x1e76
 17551 1df2 1A       		.uleb128 0x1a
ARM GAS  /tmp/ccSqa4tb.s 			page 309


 17552 1df3 E10F0000 		.4byte	.LASF350
 17553 1df7 01       		.byte	0x1
 17554 1df8 D70D     		.2byte	0xdd7
 17555 1dfa 8E000000 		.4byte	0x8e
 17556 1dfe 523A0000 		.4byte	.LLST195
 17557 1e02 1A       		.uleb128 0x1a
 17558 1e03 6A080000 		.4byte	.LASF351
 17559 1e07 01       		.byte	0x1
 17560 1e08 D70D     		.2byte	0xdd7
 17561 1e0a 95020000 		.4byte	0x295
 17562 1e0e 653A0000 		.4byte	.LLST196
 17563 1e12 27       		.uleb128 0x27
 17564 1e13 85090000 		.4byte	.LASF353
 17565 1e17 01       		.byte	0x1
 17566 1e18 D70D     		.2byte	0xdd7
 17567 1e1a 2B000000 		.4byte	0x2b
 17568 1e1e 01       		.byte	0x1
 17569 1e1f 52       		.byte	0x52
 17570 1e20 1A       		.uleb128 0x1a
 17571 1e21 FD080000 		.4byte	.LASF49
 17572 1e25 01       		.byte	0x1
 17573 1e26 D70D     		.2byte	0xdd7
 17574 1e28 32000000 		.4byte	0x32
 17575 1e2c 833A0000 		.4byte	.LLST197
 17576 1e30 1C       		.uleb128 0x1c
 17577 1e31 6C656E00 		.ascii	"len\000"
 17578 1e35 01       		.byte	0x1
 17579 1e36 D90D     		.2byte	0xdd9
 17580 1e38 2B000000 		.4byte	0x2b
 17581 1e3c A13A0000 		.4byte	.LLST198
 17582 1e40 1E       		.uleb128 0x1e
 17583 1e41 12000000 		.4byte	.LBB25
 17584 1e45 3E000000 		.4byte	.LBE25
 17585 1e49 1C       		.uleb128 0x1c
 17586 1e4a 6300     		.ascii	"c\000"
 17587 1e4c 01       		.byte	0x1
 17588 1e4d DF0D     		.2byte	0xddf
 17589 1e4f E8000000 		.4byte	0xe8
 17590 1e53 263B0000 		.4byte	.LLST199
 17591 1e57 1C       		.uleb128 0x1c
 17592 1e58 6900     		.ascii	"i\000"
 17593 1e5a 01       		.byte	0x1
 17594 1e5b E00D     		.2byte	0xde0
 17595 1e5d 2B000000 		.4byte	0x2b
 17596 1e61 4F3B0000 		.4byte	.LLST200
 17597 1e65 1C       		.uleb128 0x1c
 17598 1e66 636800   		.ascii	"ch\000"
 17599 1e69 01       		.byte	0x1
 17600 1e6a E10D     		.2byte	0xde1
 17601 1e6c 94000000 		.4byte	0x94
 17602 1e70 853B0000 		.4byte	.LLST201
 17603 1e74 00       		.byte	0x0
 17604 1e75 00       		.byte	0x0
 17605 1e76 18       		.uleb128 0x18
 17606 1e77 01       		.byte	0x1
 17607 1e78 1E0E0000 		.4byte	.LASF358
 17608 1e7c 01       		.byte	0x1
ARM GAS  /tmp/ccSqa4tb.s 			page 310


 17609 1e7d 1D0E     		.2byte	0xe1d
 17610 1e7f 01       		.byte	0x1
 17611 1e80 2B000000 		.4byte	0x2b
 17612 1e84 00000000 		.4byte	.LFB43
 17613 1e88 E4000000 		.4byte	.LFE43
 17614 1e8c 983B0000 		.4byte	.LLST202
 17615 1e90 1F1F0000 		.4byte	0x1f1f
 17616 1e94 1A       		.uleb128 0x1a
 17617 1e95 E2060000 		.4byte	.LASF355
 17618 1e99 01       		.byte	0x1
 17619 1e9a 1D0E     		.2byte	0xe1d
 17620 1e9c 9B000000 		.4byte	0x9b
 17621 1ea0 B83B0000 		.4byte	.LLST203
 17622 1ea4 27       		.uleb128 0x27
 17623 1ea5 D1010000 		.4byte	.LASF359
 17624 1ea9 01       		.byte	0x1
 17625 1eaa 1D0E     		.2byte	0xe1d
 17626 1eac 1F1F0000 		.4byte	0x1f1f
 17627 1eb0 01       		.byte	0x1
 17628 1eb1 51       		.byte	0x51
 17629 1eb2 27       		.uleb128 0x27
 17630 1eb3 C2040000 		.4byte	.LASF314
 17631 1eb7 01       		.byte	0x1
 17632 1eb8 1D0E     		.2byte	0xe1d
 17633 1eba D0020000 		.4byte	0x2d0
 17634 1ebe 01       		.byte	0x1
 17635 1ebf 52       		.byte	0x52
 17636 1ec0 28       		.uleb128 0x28
 17637 1ec1 5E040000 		.4byte	.LASF360
 17638 1ec5 01       		.byte	0x1
 17639 1ec6 1F0E     		.2byte	0xe1f
 17640 1ec8 351F0000 		.4byte	0x1f35
 17641 1ecc 05       		.byte	0x5
 17642 1ecd 03       		.byte	0x3
 17643 1ece 00000000 		.4byte	utf8_count.6724
 17644 1ed2 28       		.uleb128 0x28
 17645 1ed3 C50B0000 		.4byte	.LASF361
 17646 1ed7 01       		.byte	0x1
 17647 1ed8 200E     		.2byte	0xe20
 17648 1eda 4A1F0000 		.4byte	0x1f4a
 17649 1ede 05       		.byte	0x5
 17650 1edf 03       		.byte	0x3
 17651 1ee0 00000000 		.4byte	utf8_lowmark.6725
 17652 1ee4 1C       		.uleb128 0x1c
 17653 1ee5 6300     		.ascii	"c\000"
 17654 1ee7 01       		.byte	0x1
 17655 1ee8 210E     		.2byte	0xe21
 17656 1eea 57000000 		.4byte	0x57
 17657 1eee 593C0000 		.4byte	.LLST204
 17658 1ef2 1F       		.uleb128 0x1f
 17659 1ef3 95030000 		.4byte	.LASF269
 17660 1ef7 01       		.byte	0x1
 17661 1ef8 220E     		.2byte	0xe22
 17662 1efa E8000000 		.4byte	0xe8
 17663 1efe B43C0000 		.4byte	.LLST205
 17664 1f02 1F       		.uleb128 0x1f
 17665 1f03 34030000 		.4byte	.LASF362
ARM GAS  /tmp/ccSqa4tb.s 			page 311


 17666 1f07 01       		.byte	0x1
 17667 1f08 230E     		.2byte	0xe23
 17668 1f0a 2B000000 		.4byte	0x2b
 17669 1f0e 143D0000 		.4byte	.LLST206
 17670 1f12 33       		.uleb128 0x33
 17671 1f13 4E020000 		.4byte	.LASF29
 17672 1f17 01       		.byte	0x1
 17673 1f18 650E     		.2byte	0xe65
 17674 1f1a D8000000 		.4byte	.L655
 17675 1f1e 00       		.byte	0x0
 17676 1f1f 07       		.uleb128 0x7
 17677 1f20 04       		.byte	0x4
 17678 1f21 9B000000 		.4byte	0x9b
 17679 1f25 10       		.uleb128 0x10
 17680 1f26 94000000 		.4byte	0x94
 17681 1f2a 351F0000 		.4byte	0x1f35
 17682 1f2e 11       		.uleb128 0x11
 17683 1f2f 3D000000 		.4byte	0x3d
 17684 1f33 0F       		.byte	0xf
 17685 1f34 00       		.byte	0x0
 17686 1f35 08       		.uleb128 0x8
 17687 1f36 251F0000 		.4byte	0x1f25
 17688 1f3a 10       		.uleb128 0x10
 17689 1f3b 7A000000 		.4byte	0x7a
 17690 1f3f 4A1F0000 		.4byte	0x1f4a
 17691 1f43 11       		.uleb128 0x11
 17692 1f44 3D000000 		.4byte	0x3d
 17693 1f48 04       		.byte	0x4
 17694 1f49 00       		.byte	0x0
 17695 1f4a 08       		.uleb128 0x8
 17696 1f4b 3A1F0000 		.4byte	0x1f3a
 17697 1f4f 18       		.uleb128 0x18
 17698 1f50 01       		.byte	0x1
 17699 1f51 CD070000 		.4byte	.LASF363
 17700 1f55 01       		.byte	0x1
 17701 1f56 700E     		.2byte	0xe70
 17702 1f58 01       		.byte	0x1
 17703 1f59 2B000000 		.4byte	0x2b
 17704 1f5d 00000000 		.4byte	.LFB44
 17705 1f61 5C010000 		.4byte	.LFE44
 17706 1f65 273D0000 		.4byte	.LLST207
 17707 1f69 B81F0000 		.4byte	0x1fb8
 17708 1f6d 1A       		.uleb128 0x1a
 17709 1f6e E2060000 		.4byte	.LASF355
 17710 1f72 01       		.byte	0x1
 17711 1f73 700E     		.2byte	0xe70
 17712 1f75 8E000000 		.4byte	0x8e
 17713 1f79 473D0000 		.4byte	.LLST208
 17714 1f7d 27       		.uleb128 0x27
 17715 1f7e D1010000 		.4byte	.LASF359
 17716 1f82 01       		.byte	0x1
 17717 1f83 700E     		.2byte	0xe70
 17718 1f85 B81F0000 		.4byte	0x1fb8
 17719 1f89 01       		.byte	0x1
 17720 1f8a 51       		.byte	0x51
 17721 1f8b 1A       		.uleb128 0x1a
 17722 1f8c 7B050000 		.4byte	.LASF364
ARM GAS  /tmp/ccSqa4tb.s 			page 312


 17723 1f90 01       		.byte	0x1
 17724 1f91 700E     		.2byte	0xe70
 17725 1f93 2B000000 		.4byte	0x2b
 17726 1f97 183E0000 		.4byte	.LLST209
 17727 1f9b 1A       		.uleb128 0x1a
 17728 1f9c C2040000 		.4byte	.LASF314
 17729 1fa0 01       		.byte	0x1
 17730 1fa1 700E     		.2byte	0xe70
 17731 1fa3 E8000000 		.4byte	0xe8
 17732 1fa7 573E0000 		.4byte	.LLST210
 17733 1fab 33       		.uleb128 0x33
 17734 1fac 4E020000 		.4byte	.LASF29
 17735 1fb0 01       		.byte	0x1
 17736 1fb1 A50E     		.2byte	0xea5
 17737 1fb3 58010000 		.4byte	.L680
 17738 1fb7 00       		.byte	0x0
 17739 1fb8 07       		.uleb128 0x7
 17740 1fb9 04       		.byte	0x4
 17741 1fba 8E000000 		.4byte	0x8e
 17742 1fbe 18       		.uleb128 0x18
 17743 1fbf 01       		.byte	0x1
 17744 1fc0 4C090000 		.4byte	.LASF365
 17745 1fc4 01       		.byte	0x1
 17746 1fc5 AE0E     		.2byte	0xeae
 17747 1fc7 01       		.byte	0x1
 17748 1fc8 2B000000 		.4byte	0x2b
 17749 1fcc 00000000 		.4byte	.LFB45
 17750 1fd0 26000000 		.4byte	.LFE45
 17751 1fd4 963E0000 		.4byte	.LLST211
 17752 1fd8 1D200000 		.4byte	0x201d
 17753 1fdc 1A       		.uleb128 0x1a
 17754 1fdd E2060000 		.4byte	.LASF355
 17755 1fe1 01       		.byte	0x1
 17756 1fe2 AE0E     		.2byte	0xeae
 17757 1fe4 9B000000 		.4byte	0x9b
 17758 1fe8 B63E0000 		.4byte	.LLST212
 17759 1fec 1A       		.uleb128 0x1a
 17760 1fed 740B0000 		.4byte	.LASF285
 17761 1ff1 01       		.byte	0x1
 17762 1ff2 AE0E     		.2byte	0xeae
 17763 1ff4 BF0D0000 		.4byte	0xdbf
 17764 1ff8 D53E0000 		.4byte	.LLST213
 17765 1ffc 1C       		.uleb128 0x1c
 17766 1ffd 65727200 		.ascii	"err\000"
 17767 2001 01       		.byte	0x1
 17768 2002 B00E     		.2byte	0xeb0
 17769 2004 2B000000 		.4byte	0x2b
 17770 2008 F33E0000 		.4byte	.LLST214
 17771 200c 1C       		.uleb128 0x1c
 17772 200d 6C656E00 		.ascii	"len\000"
 17773 2011 01       		.byte	0x1
 17774 2012 B10E     		.2byte	0xeb1
 17775 2014 2B000000 		.4byte	0x2b
 17776 2018 123F0000 		.4byte	.LLST215
 17777 201c 00       		.byte	0x0
 17778 201d 18       		.uleb128 0x18
 17779 201e 01       		.byte	0x1
ARM GAS  /tmp/ccSqa4tb.s 			page 313


 17780 201f F20D0000 		.4byte	.LASF366
 17781 2023 01       		.byte	0x1
 17782 2024 C00E     		.2byte	0xec0
 17783 2026 01       		.byte	0x1
 17784 2027 2B000000 		.4byte	0x2b
 17785 202b 00000000 		.4byte	.LFB46
 17786 202f 4C000000 		.4byte	.LFE46
 17787 2033 313F0000 		.4byte	.LLST216
 17788 2037 B5200000 		.4byte	0x20b5
 17789 203b 1A       		.uleb128 0x1a
 17790 203c 6A050000 		.4byte	.LASF348
 17791 2040 01       		.byte	0x1
 17792 2041 C00E     		.2byte	0xec0
 17793 2043 95020000 		.4byte	0x295
 17794 2047 5D3F0000 		.4byte	.LLST217
 17795 204b 1A       		.uleb128 0x1a
 17796 204c 740B0000 		.4byte	.LASF285
 17797 2050 01       		.byte	0x1
 17798 2051 C00E     		.2byte	0xec0
 17799 2053 BF0D0000 		.4byte	0xdbf
 17800 2057 933F0000 		.4byte	.LLST218
 17801 205b 1C       		.uleb128 0x1c
 17802 205c 65727200 		.ascii	"err\000"
 17803 2060 01       		.byte	0x1
 17804 2061 C20E     		.2byte	0xec2
 17805 2063 2B000000 		.4byte	0x2b
 17806 2067 B13F0000 		.4byte	.LLST219
 17807 206b 1E       		.uleb128 0x1e
 17808 206c 1E000000 		.4byte	.LBB26
 17809 2070 44000000 		.4byte	.LBE26
 17810 2074 28       		.uleb128 0x28
 17811 2075 1D010000 		.4byte	.LASF367
 17812 2079 01       		.byte	0x1
 17813 207a C70E     		.2byte	0xec7
 17814 207c B5200000 		.4byte	0x20b5
 17815 2080 02       		.byte	0x2
 17816 2081 91       		.byte	0x91
 17817 2082 50       		.sleb128 -48
 17818 2083 1F       		.uleb128 0x1f
 17819 2084 D1010000 		.4byte	.LASF359
 17820 2088 01       		.byte	0x1
 17821 2089 C80E     		.2byte	0xec8
 17822 208b 8E000000 		.4byte	0x8e
 17823 208f CF3F0000 		.4byte	.LLST220
 17824 2093 1C       		.uleb128 0x1c
 17825 2094 6C656E00 		.ascii	"len\000"
 17826 2098 01       		.byte	0x1
 17827 2099 C90E     		.2byte	0xec9
 17828 209b 2B000000 		.4byte	0x2b
 17829 209f EE3F0000 		.4byte	.LLST221
 17830 20a3 1F       		.uleb128 0x1f
 17831 20a4 6C030000 		.4byte	.LASF368
 17832 20a8 01       		.byte	0x1
 17833 20a9 C90E     		.2byte	0xec9
 17834 20ab 2B000000 		.4byte	0x2b
 17835 20af 02400000 		.4byte	.LLST222
 17836 20b3 00       		.byte	0x0
ARM GAS  /tmp/ccSqa4tb.s 			page 314


 17837 20b4 00       		.byte	0x0
 17838 20b5 10       		.uleb128 0x10
 17839 20b6 94000000 		.4byte	0x94
 17840 20ba C5200000 		.4byte	0x20c5
 17841 20be 11       		.uleb128 0x11
 17842 20bf 3D000000 		.4byte	0x3d
 17843 20c3 09       		.byte	0x9
 17844 20c4 00       		.byte	0x0
 17845 20c5 1B       		.uleb128 0x1b
 17846 20c6 CA090000 		.4byte	.LASF369
 17847 20ca 01       		.byte	0x1
 17848 20cb 0C02     		.2byte	0x20c
 17849 20cd D3200000 		.4byte	0x20d3
 17850 20d1 01       		.byte	0x1
 17851 20d2 01       		.byte	0x1
 17852 20d3 08       		.uleb128 0x8
 17853 20d4 290B0000 		.4byte	0xb29
 17854 20d8 00       		.byte	0x0
 17855              		.section	.debug_abbrev
 17856 0000 01       		.uleb128 0x1
 17857 0001 11       		.uleb128 0x11
 17858 0002 01       		.byte	0x1
 17859 0003 25       		.uleb128 0x25
 17860 0004 0E       		.uleb128 0xe
 17861 0005 13       		.uleb128 0x13
 17862 0006 0B       		.uleb128 0xb
 17863 0007 03       		.uleb128 0x3
 17864 0008 0E       		.uleb128 0xe
 17865 0009 1B       		.uleb128 0x1b
 17866 000a 0E       		.uleb128 0xe
 17867 000b 11       		.uleb128 0x11
 17868 000c 01       		.uleb128 0x1
 17869 000d 52       		.uleb128 0x52
 17870 000e 01       		.uleb128 0x1
 17871 000f 55       		.uleb128 0x55
 17872 0010 06       		.uleb128 0x6
 17873 0011 10       		.uleb128 0x10
 17874 0012 06       		.uleb128 0x6
 17875 0013 00       		.byte	0x0
 17876 0014 00       		.byte	0x0
 17877 0015 02       		.uleb128 0x2
 17878 0016 0F       		.uleb128 0xf
 17879 0017 00       		.byte	0x0
 17880 0018 0B       		.uleb128 0xb
 17881 0019 0B       		.uleb128 0xb
 17882 001a 00       		.byte	0x0
 17883 001b 00       		.byte	0x0
 17884 001c 03       		.uleb128 0x3
 17885 001d 24       		.uleb128 0x24
 17886 001e 00       		.byte	0x0
 17887 001f 0B       		.uleb128 0xb
 17888 0020 0B       		.uleb128 0xb
 17889 0021 3E       		.uleb128 0x3e
 17890 0022 0B       		.uleb128 0xb
 17891 0023 03       		.uleb128 0x3
 17892 0024 08       		.uleb128 0x8
 17893 0025 00       		.byte	0x0
ARM GAS  /tmp/ccSqa4tb.s 			page 315


 17894 0026 00       		.byte	0x0
 17895 0027 04       		.uleb128 0x4
 17896 0028 16       		.uleb128 0x16
 17897 0029 00       		.byte	0x0
 17898 002a 03       		.uleb128 0x3
 17899 002b 0E       		.uleb128 0xe
 17900 002c 3A       		.uleb128 0x3a
 17901 002d 0B       		.uleb128 0xb
 17902 002e 3B       		.uleb128 0x3b
 17903 002f 0B       		.uleb128 0xb
 17904 0030 49       		.uleb128 0x49
 17905 0031 13       		.uleb128 0x13
 17906 0032 00       		.byte	0x0
 17907 0033 00       		.byte	0x0
 17908 0034 05       		.uleb128 0x5
 17909 0035 24       		.uleb128 0x24
 17910 0036 00       		.byte	0x0
 17911 0037 0B       		.uleb128 0xb
 17912 0038 0B       		.uleb128 0xb
 17913 0039 3E       		.uleb128 0x3e
 17914 003a 0B       		.uleb128 0xb
 17915 003b 03       		.uleb128 0x3
 17916 003c 0E       		.uleb128 0xe
 17917 003d 00       		.byte	0x0
 17918 003e 00       		.byte	0x0
 17919 003f 06       		.uleb128 0x6
 17920 0040 16       		.uleb128 0x16
 17921 0041 00       		.byte	0x0
 17922 0042 03       		.uleb128 0x3
 17923 0043 0E       		.uleb128 0xe
 17924 0044 3A       		.uleb128 0x3a
 17925 0045 0B       		.uleb128 0xb
 17926 0046 3B       		.uleb128 0x3b
 17927 0047 05       		.uleb128 0x5
 17928 0048 49       		.uleb128 0x49
 17929 0049 13       		.uleb128 0x13
 17930 004a 00       		.byte	0x0
 17931 004b 00       		.byte	0x0
 17932 004c 07       		.uleb128 0x7
 17933 004d 0F       		.uleb128 0xf
 17934 004e 00       		.byte	0x0
 17935 004f 0B       		.uleb128 0xb
 17936 0050 0B       		.uleb128 0xb
 17937 0051 49       		.uleb128 0x49
 17938 0052 13       		.uleb128 0x13
 17939 0053 00       		.byte	0x0
 17940 0054 00       		.byte	0x0
 17941 0055 08       		.uleb128 0x8
 17942 0056 26       		.uleb128 0x26
 17943 0057 00       		.byte	0x0
 17944 0058 49       		.uleb128 0x49
 17945 0059 13       		.uleb128 0x13
 17946 005a 00       		.byte	0x0
 17947 005b 00       		.byte	0x0
 17948 005c 09       		.uleb128 0x9
 17949 005d 15       		.uleb128 0x15
 17950 005e 01       		.byte	0x1
ARM GAS  /tmp/ccSqa4tb.s 			page 316


 17951 005f 27       		.uleb128 0x27
 17952 0060 0C       		.uleb128 0xc
 17953 0061 49       		.uleb128 0x49
 17954 0062 13       		.uleb128 0x13
 17955 0063 01       		.uleb128 0x1
 17956 0064 13       		.uleb128 0x13
 17957 0065 00       		.byte	0x0
 17958 0066 00       		.byte	0x0
 17959 0067 0A       		.uleb128 0xa
 17960 0068 05       		.uleb128 0x5
 17961 0069 00       		.byte	0x0
 17962 006a 49       		.uleb128 0x49
 17963 006b 13       		.uleb128 0x13
 17964 006c 00       		.byte	0x0
 17965 006d 00       		.byte	0x0
 17966 006e 0B       		.uleb128 0xb
 17967 006f 13       		.uleb128 0x13
 17968 0070 01       		.byte	0x1
 17969 0071 03       		.uleb128 0x3
 17970 0072 0E       		.uleb128 0xe
 17971 0073 0B       		.uleb128 0xb
 17972 0074 0B       		.uleb128 0xb
 17973 0075 3A       		.uleb128 0x3a
 17974 0076 0B       		.uleb128 0xb
 17975 0077 3B       		.uleb128 0x3b
 17976 0078 05       		.uleb128 0x5
 17977 0079 01       		.uleb128 0x1
 17978 007a 13       		.uleb128 0x13
 17979 007b 00       		.byte	0x0
 17980 007c 00       		.byte	0x0
 17981 007d 0C       		.uleb128 0xc
 17982 007e 0D       		.uleb128 0xd
 17983 007f 00       		.byte	0x0
 17984 0080 03       		.uleb128 0x3
 17985 0081 0E       		.uleb128 0xe
 17986 0082 3A       		.uleb128 0x3a
 17987 0083 0B       		.uleb128 0xb
 17988 0084 3B       		.uleb128 0x3b
 17989 0085 05       		.uleb128 0x5
 17990 0086 49       		.uleb128 0x49
 17991 0087 13       		.uleb128 0x13
 17992 0088 38       		.uleb128 0x38
 17993 0089 0A       		.uleb128 0xa
 17994 008a 00       		.byte	0x0
 17995 008b 00       		.byte	0x0
 17996 008c 0D       		.uleb128 0xd
 17997 008d 0D       		.uleb128 0xd
 17998 008e 00       		.byte	0x0
 17999 008f 03       		.uleb128 0x3
 18000 0090 08       		.uleb128 0x8
 18001 0091 3A       		.uleb128 0x3a
 18002 0092 0B       		.uleb128 0xb
 18003 0093 3B       		.uleb128 0x3b
 18004 0094 05       		.uleb128 0x5
 18005 0095 49       		.uleb128 0x49
 18006 0096 13       		.uleb128 0x13
 18007 0097 38       		.uleb128 0x38
ARM GAS  /tmp/ccSqa4tb.s 			page 317


 18008 0098 0A       		.uleb128 0xa
 18009 0099 00       		.byte	0x0
 18010 009a 00       		.byte	0x0
 18011 009b 0E       		.uleb128 0xe
 18012 009c 13       		.uleb128 0x13
 18013 009d 01       		.byte	0x1
 18014 009e 03       		.uleb128 0x3
 18015 009f 0E       		.uleb128 0xe
 18016 00a0 0B       		.uleb128 0xb
 18017 00a1 0B       		.uleb128 0xb
 18018 00a2 3A       		.uleb128 0x3a
 18019 00a3 0B       		.uleb128 0xb
 18020 00a4 3B       		.uleb128 0x3b
 18021 00a5 0B       		.uleb128 0xb
 18022 00a6 01       		.uleb128 0x1
 18023 00a7 13       		.uleb128 0x13
 18024 00a8 00       		.byte	0x0
 18025 00a9 00       		.byte	0x0
 18026 00aa 0F       		.uleb128 0xf
 18027 00ab 0D       		.uleb128 0xd
 18028 00ac 00       		.byte	0x0
 18029 00ad 03       		.uleb128 0x3
 18030 00ae 0E       		.uleb128 0xe
 18031 00af 3A       		.uleb128 0x3a
 18032 00b0 0B       		.uleb128 0xb
 18033 00b1 3B       		.uleb128 0x3b
 18034 00b2 0B       		.uleb128 0xb
 18035 00b3 49       		.uleb128 0x49
 18036 00b4 13       		.uleb128 0x13
 18037 00b5 38       		.uleb128 0x38
 18038 00b6 0A       		.uleb128 0xa
 18039 00b7 00       		.byte	0x0
 18040 00b8 00       		.byte	0x0
 18041 00b9 10       		.uleb128 0x10
 18042 00ba 01       		.uleb128 0x1
 18043 00bb 01       		.byte	0x1
 18044 00bc 49       		.uleb128 0x49
 18045 00bd 13       		.uleb128 0x13
 18046 00be 01       		.uleb128 0x1
 18047 00bf 13       		.uleb128 0x13
 18048 00c0 00       		.byte	0x0
 18049 00c1 00       		.byte	0x0
 18050 00c2 11       		.uleb128 0x11
 18051 00c3 21       		.uleb128 0x21
 18052 00c4 00       		.byte	0x0
 18053 00c5 49       		.uleb128 0x49
 18054 00c6 13       		.uleb128 0x13
 18055 00c7 2F       		.uleb128 0x2f
 18056 00c8 0B       		.uleb128 0xb
 18057 00c9 00       		.byte	0x0
 18058 00ca 00       		.byte	0x0
 18059 00cb 12       		.uleb128 0x12
 18060 00cc 16       		.uleb128 0x16
 18061 00cd 00       		.byte	0x0
 18062 00ce 03       		.uleb128 0x3
 18063 00cf 08       		.uleb128 0x8
 18064 00d0 3A       		.uleb128 0x3a
ARM GAS  /tmp/ccSqa4tb.s 			page 318


 18065 00d1 0B       		.uleb128 0xb
 18066 00d2 3B       		.uleb128 0x3b
 18067 00d3 05       		.uleb128 0x5
 18068 00d4 49       		.uleb128 0x49
 18069 00d5 13       		.uleb128 0x13
 18070 00d6 00       		.byte	0x0
 18071 00d7 00       		.byte	0x0
 18072 00d8 13       		.uleb128 0x13
 18073 00d9 04       		.uleb128 0x4
 18074 00da 01       		.byte	0x1
 18075 00db 0B       		.uleb128 0xb
 18076 00dc 0B       		.uleb128 0xb
 18077 00dd 3A       		.uleb128 0x3a
 18078 00de 0B       		.uleb128 0xb
 18079 00df 3B       		.uleb128 0x3b
 18080 00e0 05       		.uleb128 0x5
 18081 00e1 01       		.uleb128 0x1
 18082 00e2 13       		.uleb128 0x13
 18083 00e3 00       		.byte	0x0
 18084 00e4 00       		.byte	0x0
 18085 00e5 14       		.uleb128 0x14
 18086 00e6 28       		.uleb128 0x28
 18087 00e7 00       		.byte	0x0
 18088 00e8 03       		.uleb128 0x3
 18089 00e9 0E       		.uleb128 0xe
 18090 00ea 1C       		.uleb128 0x1c
 18091 00eb 0D       		.uleb128 0xd
 18092 00ec 00       		.byte	0x0
 18093 00ed 00       		.byte	0x0
 18094 00ee 15       		.uleb128 0x15
 18095 00ef 04       		.uleb128 0x4
 18096 00f0 01       		.byte	0x1
 18097 00f1 0B       		.uleb128 0xb
 18098 00f2 0B       		.uleb128 0xb
 18099 00f3 3A       		.uleb128 0x3a
 18100 00f4 0B       		.uleb128 0xb
 18101 00f5 3B       		.uleb128 0x3b
 18102 00f6 0B       		.uleb128 0xb
 18103 00f7 01       		.uleb128 0x1
 18104 00f8 13       		.uleb128 0x13
 18105 00f9 00       		.byte	0x0
 18106 00fa 00       		.byte	0x0
 18107 00fb 16       		.uleb128 0x16
 18108 00fc 2E       		.uleb128 0x2e
 18109 00fd 01       		.byte	0x1
 18110 00fe 3F       		.uleb128 0x3f
 18111 00ff 0C       		.uleb128 0xc
 18112 0100 03       		.uleb128 0x3
 18113 0101 0E       		.uleb128 0xe
 18114 0102 3A       		.uleb128 0x3a
 18115 0103 0B       		.uleb128 0xb
 18116 0104 3B       		.uleb128 0x3b
 18117 0105 05       		.uleb128 0x5
 18118 0106 27       		.uleb128 0x27
 18119 0107 0C       		.uleb128 0xc
 18120 0108 49       		.uleb128 0x49
 18121 0109 13       		.uleb128 0x13
ARM GAS  /tmp/ccSqa4tb.s 			page 319


 18122 010a 20       		.uleb128 0x20
 18123 010b 0B       		.uleb128 0xb
 18124 010c 01       		.uleb128 0x1
 18125 010d 13       		.uleb128 0x13
 18126 010e 00       		.byte	0x0
 18127 010f 00       		.byte	0x0
 18128 0110 17       		.uleb128 0x17
 18129 0111 05       		.uleb128 0x5
 18130 0112 00       		.byte	0x0
 18131 0113 03       		.uleb128 0x3
 18132 0114 08       		.uleb128 0x8
 18133 0115 3A       		.uleb128 0x3a
 18134 0116 0B       		.uleb128 0xb
 18135 0117 3B       		.uleb128 0x3b
 18136 0118 05       		.uleb128 0x5
 18137 0119 49       		.uleb128 0x49
 18138 011a 13       		.uleb128 0x13
 18139 011b 00       		.byte	0x0
 18140 011c 00       		.byte	0x0
 18141 011d 18       		.uleb128 0x18
 18142 011e 2E       		.uleb128 0x2e
 18143 011f 01       		.byte	0x1
 18144 0120 3F       		.uleb128 0x3f
 18145 0121 0C       		.uleb128 0xc
 18146 0122 03       		.uleb128 0x3
 18147 0123 0E       		.uleb128 0xe
 18148 0124 3A       		.uleb128 0x3a
 18149 0125 0B       		.uleb128 0xb
 18150 0126 3B       		.uleb128 0x3b
 18151 0127 05       		.uleb128 0x5
 18152 0128 27       		.uleb128 0x27
 18153 0129 0C       		.uleb128 0xc
 18154 012a 49       		.uleb128 0x49
 18155 012b 13       		.uleb128 0x13
 18156 012c 11       		.uleb128 0x11
 18157 012d 01       		.uleb128 0x1
 18158 012e 12       		.uleb128 0x12
 18159 012f 01       		.uleb128 0x1
 18160 0130 40       		.uleb128 0x40
 18161 0131 06       		.uleb128 0x6
 18162 0132 01       		.uleb128 0x1
 18163 0133 13       		.uleb128 0x13
 18164 0134 00       		.byte	0x0
 18165 0135 00       		.byte	0x0
 18166 0136 19       		.uleb128 0x19
 18167 0137 05       		.uleb128 0x5
 18168 0138 00       		.byte	0x0
 18169 0139 03       		.uleb128 0x3
 18170 013a 08       		.uleb128 0x8
 18171 013b 3A       		.uleb128 0x3a
 18172 013c 0B       		.uleb128 0xb
 18173 013d 3B       		.uleb128 0x3b
 18174 013e 05       		.uleb128 0x5
 18175 013f 49       		.uleb128 0x49
 18176 0140 13       		.uleb128 0x13
 18177 0141 02       		.uleb128 0x2
 18178 0142 06       		.uleb128 0x6
ARM GAS  /tmp/ccSqa4tb.s 			page 320


 18179 0143 00       		.byte	0x0
 18180 0144 00       		.byte	0x0
 18181 0145 1A       		.uleb128 0x1a
 18182 0146 05       		.uleb128 0x5
 18183 0147 00       		.byte	0x0
 18184 0148 03       		.uleb128 0x3
 18185 0149 0E       		.uleb128 0xe
 18186 014a 3A       		.uleb128 0x3a
 18187 014b 0B       		.uleb128 0xb
 18188 014c 3B       		.uleb128 0x3b
 18189 014d 05       		.uleb128 0x5
 18190 014e 49       		.uleb128 0x49
 18191 014f 13       		.uleb128 0x13
 18192 0150 02       		.uleb128 0x2
 18193 0151 06       		.uleb128 0x6
 18194 0152 00       		.byte	0x0
 18195 0153 00       		.byte	0x0
 18196 0154 1B       		.uleb128 0x1b
 18197 0155 34       		.uleb128 0x34
 18198 0156 00       		.byte	0x0
 18199 0157 03       		.uleb128 0x3
 18200 0158 0E       		.uleb128 0xe
 18201 0159 3A       		.uleb128 0x3a
 18202 015a 0B       		.uleb128 0xb
 18203 015b 3B       		.uleb128 0x3b
 18204 015c 05       		.uleb128 0x5
 18205 015d 49       		.uleb128 0x49
 18206 015e 13       		.uleb128 0x13
 18207 015f 3F       		.uleb128 0x3f
 18208 0160 0C       		.uleb128 0xc
 18209 0161 3C       		.uleb128 0x3c
 18210 0162 0C       		.uleb128 0xc
 18211 0163 00       		.byte	0x0
 18212 0164 00       		.byte	0x0
 18213 0165 1C       		.uleb128 0x1c
 18214 0166 34       		.uleb128 0x34
 18215 0167 00       		.byte	0x0
 18216 0168 03       		.uleb128 0x3
 18217 0169 08       		.uleb128 0x8
 18218 016a 3A       		.uleb128 0x3a
 18219 016b 0B       		.uleb128 0xb
 18220 016c 3B       		.uleb128 0x3b
 18221 016d 05       		.uleb128 0x5
 18222 016e 49       		.uleb128 0x49
 18223 016f 13       		.uleb128 0x13
 18224 0170 02       		.uleb128 0x2
 18225 0171 06       		.uleb128 0x6
 18226 0172 00       		.byte	0x0
 18227 0173 00       		.byte	0x0
 18228 0174 1D       		.uleb128 0x1d
 18229 0175 34       		.uleb128 0x34
 18230 0176 00       		.byte	0x0
 18231 0177 03       		.uleb128 0x3
 18232 0178 0E       		.uleb128 0xe
 18233 0179 3A       		.uleb128 0x3a
 18234 017a 0B       		.uleb128 0xb
 18235 017b 3B       		.uleb128 0x3b
ARM GAS  /tmp/ccSqa4tb.s 			page 321


 18236 017c 05       		.uleb128 0x5
 18237 017d 49       		.uleb128 0x49
 18238 017e 13       		.uleb128 0x13
 18239 017f 00       		.byte	0x0
 18240 0180 00       		.byte	0x0
 18241 0181 1E       		.uleb128 0x1e
 18242 0182 0B       		.uleb128 0xb
 18243 0183 01       		.byte	0x1
 18244 0184 11       		.uleb128 0x11
 18245 0185 01       		.uleb128 0x1
 18246 0186 12       		.uleb128 0x12
 18247 0187 01       		.uleb128 0x1
 18248 0188 00       		.byte	0x0
 18249 0189 00       		.byte	0x0
 18250 018a 1F       		.uleb128 0x1f
 18251 018b 34       		.uleb128 0x34
 18252 018c 00       		.byte	0x0
 18253 018d 03       		.uleb128 0x3
 18254 018e 0E       		.uleb128 0xe
 18255 018f 3A       		.uleb128 0x3a
 18256 0190 0B       		.uleb128 0xb
 18257 0191 3B       		.uleb128 0x3b
 18258 0192 05       		.uleb128 0x5
 18259 0193 49       		.uleb128 0x49
 18260 0194 13       		.uleb128 0x13
 18261 0195 02       		.uleb128 0x2
 18262 0196 06       		.uleb128 0x6
 18263 0197 00       		.byte	0x0
 18264 0198 00       		.byte	0x0
 18265 0199 20       		.uleb128 0x20
 18266 019a 21       		.uleb128 0x21
 18267 019b 00       		.byte	0x0
 18268 019c 00       		.byte	0x0
 18269 019d 00       		.byte	0x0
 18270 019e 21       		.uleb128 0x21
 18271 019f 2E       		.uleb128 0x2e
 18272 01a0 01       		.byte	0x1
 18273 01a1 3F       		.uleb128 0x3f
 18274 01a2 0C       		.uleb128 0xc
 18275 01a3 03       		.uleb128 0x3
 18276 01a4 0E       		.uleb128 0xe
 18277 01a5 3A       		.uleb128 0x3a
 18278 01a6 0B       		.uleb128 0xb
 18279 01a7 3B       		.uleb128 0x3b
 18280 01a8 05       		.uleb128 0x5
 18281 01a9 27       		.uleb128 0x27
 18282 01aa 0C       		.uleb128 0xc
 18283 01ab 11       		.uleb128 0x11
 18284 01ac 01       		.uleb128 0x1
 18285 01ad 12       		.uleb128 0x12
 18286 01ae 01       		.uleb128 0x1
 18287 01af 40       		.uleb128 0x40
 18288 01b0 0A       		.uleb128 0xa
 18289 01b1 01       		.uleb128 0x1
 18290 01b2 13       		.uleb128 0x13
 18291 01b3 00       		.byte	0x0
 18292 01b4 00       		.byte	0x0
ARM GAS  /tmp/ccSqa4tb.s 			page 322


 18293 01b5 22       		.uleb128 0x22
 18294 01b6 05       		.uleb128 0x5
 18295 01b7 00       		.byte	0x0
 18296 01b8 03       		.uleb128 0x3
 18297 01b9 08       		.uleb128 0x8
 18298 01ba 3A       		.uleb128 0x3a
 18299 01bb 0B       		.uleb128 0xb
 18300 01bc 3B       		.uleb128 0x3b
 18301 01bd 05       		.uleb128 0x5
 18302 01be 49       		.uleb128 0x49
 18303 01bf 13       		.uleb128 0x13
 18304 01c0 02       		.uleb128 0x2
 18305 01c1 0A       		.uleb128 0xa
 18306 01c2 00       		.byte	0x0
 18307 01c3 00       		.byte	0x0
 18308 01c4 23       		.uleb128 0x23
 18309 01c5 34       		.uleb128 0x34
 18310 01c6 00       		.byte	0x0
 18311 01c7 03       		.uleb128 0x3
 18312 01c8 08       		.uleb128 0x8
 18313 01c9 3A       		.uleb128 0x3a
 18314 01ca 0B       		.uleb128 0xb
 18315 01cb 3B       		.uleb128 0x3b
 18316 01cc 05       		.uleb128 0x5
 18317 01cd 49       		.uleb128 0x49
 18318 01ce 13       		.uleb128 0x13
 18319 01cf 02       		.uleb128 0x2
 18320 01d0 0A       		.uleb128 0xa
 18321 01d1 00       		.byte	0x0
 18322 01d2 00       		.byte	0x0
 18323 01d3 24       		.uleb128 0x24
 18324 01d4 2E       		.uleb128 0x2e
 18325 01d5 01       		.byte	0x1
 18326 01d6 31       		.uleb128 0x31
 18327 01d7 13       		.uleb128 0x13
 18328 01d8 11       		.uleb128 0x11
 18329 01d9 01       		.uleb128 0x1
 18330 01da 12       		.uleb128 0x12
 18331 01db 01       		.uleb128 0x1
 18332 01dc 40       		.uleb128 0x40
 18333 01dd 0A       		.uleb128 0xa
 18334 01de 01       		.uleb128 0x1
 18335 01df 13       		.uleb128 0x13
 18336 01e0 00       		.byte	0x0
 18337 01e1 00       		.byte	0x0
 18338 01e2 25       		.uleb128 0x25
 18339 01e3 05       		.uleb128 0x5
 18340 01e4 00       		.byte	0x0
 18341 01e5 31       		.uleb128 0x31
 18342 01e6 13       		.uleb128 0x13
 18343 01e7 02       		.uleb128 0x2
 18344 01e8 0A       		.uleb128 0xa
 18345 01e9 00       		.byte	0x0
 18346 01ea 00       		.byte	0x0
 18347 01eb 26       		.uleb128 0x26
 18348 01ec 2E       		.uleb128 0x2e
 18349 01ed 01       		.byte	0x1
ARM GAS  /tmp/ccSqa4tb.s 			page 323


 18350 01ee 3F       		.uleb128 0x3f
 18351 01ef 0C       		.uleb128 0xc
 18352 01f0 03       		.uleb128 0x3
 18353 01f1 0E       		.uleb128 0xe
 18354 01f2 3A       		.uleb128 0x3a
 18355 01f3 0B       		.uleb128 0xb
 18356 01f4 3B       		.uleb128 0x3b
 18357 01f5 05       		.uleb128 0x5
 18358 01f6 27       		.uleb128 0x27
 18359 01f7 0C       		.uleb128 0xc
 18360 01f8 49       		.uleb128 0x49
 18361 01f9 13       		.uleb128 0x13
 18362 01fa 11       		.uleb128 0x11
 18363 01fb 01       		.uleb128 0x1
 18364 01fc 12       		.uleb128 0x12
 18365 01fd 01       		.uleb128 0x1
 18366 01fe 40       		.uleb128 0x40
 18367 01ff 0A       		.uleb128 0xa
 18368 0200 01       		.uleb128 0x1
 18369 0201 13       		.uleb128 0x13
 18370 0202 00       		.byte	0x0
 18371 0203 00       		.byte	0x0
 18372 0204 27       		.uleb128 0x27
 18373 0205 05       		.uleb128 0x5
 18374 0206 00       		.byte	0x0
 18375 0207 03       		.uleb128 0x3
 18376 0208 0E       		.uleb128 0xe
 18377 0209 3A       		.uleb128 0x3a
 18378 020a 0B       		.uleb128 0xb
 18379 020b 3B       		.uleb128 0x3b
 18380 020c 05       		.uleb128 0x5
 18381 020d 49       		.uleb128 0x49
 18382 020e 13       		.uleb128 0x13
 18383 020f 02       		.uleb128 0x2
 18384 0210 0A       		.uleb128 0xa
 18385 0211 00       		.byte	0x0
 18386 0212 00       		.byte	0x0
 18387 0213 28       		.uleb128 0x28
 18388 0214 34       		.uleb128 0x34
 18389 0215 00       		.byte	0x0
 18390 0216 03       		.uleb128 0x3
 18391 0217 0E       		.uleb128 0xe
 18392 0218 3A       		.uleb128 0x3a
 18393 0219 0B       		.uleb128 0xb
 18394 021a 3B       		.uleb128 0x3b
 18395 021b 05       		.uleb128 0x5
 18396 021c 49       		.uleb128 0x49
 18397 021d 13       		.uleb128 0x13
 18398 021e 02       		.uleb128 0x2
 18399 021f 0A       		.uleb128 0xa
 18400 0220 00       		.byte	0x0
 18401 0221 00       		.byte	0x0
 18402 0222 29       		.uleb128 0x29
 18403 0223 2E       		.uleb128 0x2e
 18404 0224 01       		.byte	0x1
 18405 0225 03       		.uleb128 0x3
 18406 0226 0E       		.uleb128 0xe
ARM GAS  /tmp/ccSqa4tb.s 			page 324


 18407 0227 3A       		.uleb128 0x3a
 18408 0228 0B       		.uleb128 0xb
 18409 0229 3B       		.uleb128 0x3b
 18410 022a 05       		.uleb128 0x5
 18411 022b 27       		.uleb128 0x27
 18412 022c 0C       		.uleb128 0xc
 18413 022d 49       		.uleb128 0x49
 18414 022e 13       		.uleb128 0x13
 18415 022f 20       		.uleb128 0x20
 18416 0230 0B       		.uleb128 0xb
 18417 0231 01       		.uleb128 0x1
 18418 0232 13       		.uleb128 0x13
 18419 0233 00       		.byte	0x0
 18420 0234 00       		.byte	0x0
 18421 0235 2A       		.uleb128 0x2a
 18422 0236 05       		.uleb128 0x5
 18423 0237 00       		.byte	0x0
 18424 0238 03       		.uleb128 0x3
 18425 0239 0E       		.uleb128 0xe
 18426 023a 3A       		.uleb128 0x3a
 18427 023b 0B       		.uleb128 0xb
 18428 023c 3B       		.uleb128 0x3b
 18429 023d 05       		.uleb128 0x5
 18430 023e 49       		.uleb128 0x49
 18431 023f 13       		.uleb128 0x13
 18432 0240 00       		.byte	0x0
 18433 0241 00       		.byte	0x0
 18434 0242 2B       		.uleb128 0x2b
 18435 0243 34       		.uleb128 0x34
 18436 0244 00       		.byte	0x0
 18437 0245 03       		.uleb128 0x3
 18438 0246 08       		.uleb128 0x8
 18439 0247 3A       		.uleb128 0x3a
 18440 0248 0B       		.uleb128 0xb
 18441 0249 3B       		.uleb128 0x3b
 18442 024a 05       		.uleb128 0x5
 18443 024b 49       		.uleb128 0x49
 18444 024c 13       		.uleb128 0x13
 18445 024d 00       		.byte	0x0
 18446 024e 00       		.byte	0x0
 18447 024f 2C       		.uleb128 0x2c
 18448 0250 1D       		.uleb128 0x1d
 18449 0251 01       		.byte	0x1
 18450 0252 31       		.uleb128 0x31
 18451 0253 13       		.uleb128 0x13
 18452 0254 52       		.uleb128 0x52
 18453 0255 01       		.uleb128 0x1
 18454 0256 55       		.uleb128 0x55
 18455 0257 06       		.uleb128 0x6
 18456 0258 58       		.uleb128 0x58
 18457 0259 0B       		.uleb128 0xb
 18458 025a 59       		.uleb128 0x59
 18459 025b 05       		.uleb128 0x5
 18460 025c 00       		.byte	0x0
 18461 025d 00       		.byte	0x0
 18462 025e 2D       		.uleb128 0x2d
 18463 025f 05       		.uleb128 0x5
ARM GAS  /tmp/ccSqa4tb.s 			page 325


 18464 0260 00       		.byte	0x0
 18465 0261 31       		.uleb128 0x31
 18466 0262 13       		.uleb128 0x13
 18467 0263 02       		.uleb128 0x2
 18468 0264 06       		.uleb128 0x6
 18469 0265 00       		.byte	0x0
 18470 0266 00       		.byte	0x0
 18471 0267 2E       		.uleb128 0x2e
 18472 0268 0B       		.uleb128 0xb
 18473 0269 01       		.byte	0x1
 18474 026a 55       		.uleb128 0x55
 18475 026b 06       		.uleb128 0x6
 18476 026c 00       		.byte	0x0
 18477 026d 00       		.byte	0x0
 18478 026e 2F       		.uleb128 0x2f
 18479 026f 34       		.uleb128 0x34
 18480 0270 00       		.byte	0x0
 18481 0271 31       		.uleb128 0x31
 18482 0272 13       		.uleb128 0x13
 18483 0273 02       		.uleb128 0x2
 18484 0274 06       		.uleb128 0x6
 18485 0275 00       		.byte	0x0
 18486 0276 00       		.byte	0x0
 18487 0277 30       		.uleb128 0x30
 18488 0278 2E       		.uleb128 0x2e
 18489 0279 01       		.byte	0x1
 18490 027a 03       		.uleb128 0x3
 18491 027b 0E       		.uleb128 0xe
 18492 027c 3A       		.uleb128 0x3a
 18493 027d 0B       		.uleb128 0xb
 18494 027e 3B       		.uleb128 0x3b
 18495 027f 05       		.uleb128 0x5
 18496 0280 27       		.uleb128 0x27
 18497 0281 0C       		.uleb128 0xc
 18498 0282 49       		.uleb128 0x49
 18499 0283 13       		.uleb128 0x13
 18500 0284 11       		.uleb128 0x11
 18501 0285 01       		.uleb128 0x1
 18502 0286 12       		.uleb128 0x12
 18503 0287 01       		.uleb128 0x1
 18504 0288 40       		.uleb128 0x40
 18505 0289 06       		.uleb128 0x6
 18506 028a 01       		.uleb128 0x1
 18507 028b 13       		.uleb128 0x13
 18508 028c 00       		.byte	0x0
 18509 028d 00       		.byte	0x0
 18510 028e 31       		.uleb128 0x31
 18511 028f 34       		.uleb128 0x34
 18512 0290 00       		.byte	0x0
 18513 0291 03       		.uleb128 0x3
 18514 0292 0E       		.uleb128 0xe
 18515 0293 3A       		.uleb128 0x3a
 18516 0294 0B       		.uleb128 0xb
 18517 0295 3B       		.uleb128 0x3b
 18518 0296 05       		.uleb128 0x5
 18519 0297 49       		.uleb128 0x49
 18520 0298 13       		.uleb128 0x13
ARM GAS  /tmp/ccSqa4tb.s 			page 326


 18521 0299 1C       		.uleb128 0x1c
 18522 029a 05       		.uleb128 0x5
 18523 029b 00       		.byte	0x0
 18524 029c 00       		.byte	0x0
 18525 029d 32       		.uleb128 0x32
 18526 029e 0B       		.uleb128 0xb
 18527 029f 01       		.byte	0x1
 18528 02a0 55       		.uleb128 0x55
 18529 02a1 06       		.uleb128 0x6
 18530 02a2 01       		.uleb128 0x1
 18531 02a3 13       		.uleb128 0x13
 18532 02a4 00       		.byte	0x0
 18533 02a5 00       		.byte	0x0
 18534 02a6 33       		.uleb128 0x33
 18535 02a7 0A       		.uleb128 0xa
 18536 02a8 00       		.byte	0x0
 18537 02a9 03       		.uleb128 0x3
 18538 02aa 0E       		.uleb128 0xe
 18539 02ab 3A       		.uleb128 0x3a
 18540 02ac 0B       		.uleb128 0xb
 18541 02ad 3B       		.uleb128 0x3b
 18542 02ae 05       		.uleb128 0x5
 18543 02af 11       		.uleb128 0x11
 18544 02b0 01       		.uleb128 0x1
 18545 02b1 00       		.byte	0x0
 18546 02b2 00       		.byte	0x0
 18547 02b3 34       		.uleb128 0x34
 18548 02b4 0B       		.uleb128 0xb
 18549 02b5 01       		.byte	0x1
 18550 02b6 11       		.uleb128 0x11
 18551 02b7 01       		.uleb128 0x1
 18552 02b8 12       		.uleb128 0x12
 18553 02b9 01       		.uleb128 0x1
 18554 02ba 01       		.uleb128 0x1
 18555 02bb 13       		.uleb128 0x13
 18556 02bc 00       		.byte	0x0
 18557 02bd 00       		.byte	0x0
 18558 02be 35       		.uleb128 0x35
 18559 02bf 2E       		.uleb128 0x2e
 18560 02c0 01       		.byte	0x1
 18561 02c1 3F       		.uleb128 0x3f
 18562 02c2 0C       		.uleb128 0xc
 18563 02c3 03       		.uleb128 0x3
 18564 02c4 0E       		.uleb128 0xe
 18565 02c5 3A       		.uleb128 0x3a
 18566 02c6 0B       		.uleb128 0xb
 18567 02c7 3B       		.uleb128 0x3b
 18568 02c8 05       		.uleb128 0x5
 18569 02c9 49       		.uleb128 0x49
 18570 02ca 13       		.uleb128 0x13
 18571 02cb 3C       		.uleb128 0x3c
 18572 02cc 0C       		.uleb128 0xc
 18573 02cd 00       		.byte	0x0
 18574 02ce 00       		.byte	0x0
 18575 02cf 36       		.uleb128 0x36
 18576 02d0 18       		.uleb128 0x18
 18577 02d1 00       		.byte	0x0
ARM GAS  /tmp/ccSqa4tb.s 			page 327


 18578 02d2 00       		.byte	0x0
 18579 02d3 00       		.byte	0x0
 18580 02d4 00       		.byte	0x0
 18581              		.section	.debug_pubnames,"",%progbits
 18582 0000 13030000 		.4byte	0x313
 18583 0004 0200     		.2byte	0x2
 18584 0006 00000000 		.4byte	.Ldebug_info0
 18585 000a D9200000 		.4byte	0x20d9
 18586 000e 720A0000 		.4byte	0xa72
 18587 0012 616D785F 		.ascii	"amx_Callback\000"
 18587      43616C6C 
 18587      6261636B 
 18587      00
 18588 001f 450B0000 		.4byte	0xb45
 18589 0023 616D785F 		.ascii	"amx_Swap32\000"
 18589      53776170 
 18589      333200
 18590 002e 850B0000 		.4byte	0xb85
 18591 0032 616D785F 		.ascii	"amx_Align16\000"
 18591      416C6967 
 18591      6E313600 
 18592 003e A10B0000 		.4byte	0xba1
 18593 0042 616D785F 		.ascii	"amx_Align32\000"
 18593      416C6967 
 18593      6E333200 
 18594 004e BD0B0000 		.4byte	0xbbd
 18595 0052 616D785F 		.ascii	"amx_Flags\000"
 18595      466C6167 
 18595      7300
 18596 005c 090C0000 		.4byte	0xc09
 18597 0060 616D785F 		.ascii	"amx_InitJIT\000"
 18597      496E6974 
 18597      4A495400 
 18598 006c 530C0000 		.4byte	0xc53
 18599 0070 616D785F 		.ascii	"amx_Cleanup\000"
 18599      436C6561 
 18599      6E757000 
 18600 007c 810C0000 		.4byte	0xc81
 18601 0080 616D785F 		.ascii	"amx_Clone\000"
 18601      436C6F6E 
 18601      6500
 18602 008a F00C0000 		.4byte	0xcf0
 18603 008e 616D785F 		.ascii	"amx_MemInfo\000"
 18603      4D656D49 
 18603      6E666F00 
 18604 009a 630D0000 		.4byte	0xd63
 18605 009e 616D785F 		.ascii	"amx_NameLength\000"
 18605      4E616D65 
 18605      4C656E67 
 18605      746800
 18606 00ad C50D0000 		.4byte	0xdc5
 18607 00b1 616D785F 		.ascii	"amx_NumNatives\000"
 18607      4E756D4E 
 18607      61746976 
 18607      657300
 18608 00c0 110E0000 		.4byte	0xe11
 18609 00c4 616D785F 		.ascii	"amx_GetNative\000"
ARM GAS  /tmp/ccSqa4tb.s 			page 328


 18609      4765744E 
 18609      61746976 
 18609      6500
 18610 00d2 7C0E0000 		.4byte	0xe7c
 18611 00d6 616D785F 		.ascii	"amx_FindNative\000"
 18611      46696E64 
 18611      4E617469 
 18611      766500
 18612 00e5 0A0F0000 		.4byte	0xf0a
 18613 00e9 616D785F 		.ascii	"amx_NumPublics\000"
 18613      4E756D50 
 18613      75626C69 
 18613      637300
 18614 00f8 560F0000 		.4byte	0xf56
 18615 00fc 616D785F 		.ascii	"amx_GetPublic\000"
 18615      47657450 
 18615      75626C69 
 18615      6300
 18616 010a DB0F0000 		.4byte	0xfdb
 18617 010e 616D785F 		.ascii	"amx_FindPublic\000"
 18617      46696E64 
 18617      5075626C 
 18617      696300
 18618 011d 78100000 		.4byte	0x1078
 18619 0121 616D785F 		.ascii	"amx_NumPubVars\000"
 18619      4E756D50 
 18619      75625661 
 18619      727300
 18620 0130 C4100000 		.4byte	0x10c4
 18621 0134 616D785F 		.ascii	"amx_GetPubVar\000"
 18621      47657450 
 18621      75625661 
 18621      7200
 18622 0142 57110000 		.4byte	0x1157
 18623 0146 616D785F 		.ascii	"amx_FindPubVar\000"
 18623      46696E64 
 18623      50756256 
 18623      617200
 18624 0155 F4110000 		.4byte	0x11f4
 18625 0159 616D785F 		.ascii	"amx_NumTags\000"
 18625      4E756D54 
 18625      61677300 
 18626 0165 40120000 		.4byte	0x1240
 18627 0169 616D785F 		.ascii	"amx_GetTag\000"
 18627      47657454 
 18627      616700
 18628 0174 BF120000 		.4byte	0x12bf
 18629 0178 616D785F 		.ascii	"amx_FindTagId\000"
 18629      46696E64 
 18629      54616749 
 18629      6400
 18630 0186 4C130000 		.4byte	0x134c
 18631 018a 616D785F 		.ascii	"amx_GetUserData\000"
 18631      47657455 
 18631      73657244 
 18631      61746100 
 18632 019a AD130000 		.4byte	0x13ad
ARM GAS  /tmp/ccSqa4tb.s 			page 329


 18633 019e 616D785F 		.ascii	"amx_SetUserData\000"
 18633      53657455 
 18633      73657244 
 18633      61746100 
 18634 01ae 54140000 		.4byte	0x1454
 18635 01b2 616D785F 		.ascii	"amx_Register\000"
 18635      52656769 
 18635      73746572 
 18635      00
 18636 01bf 3A150000 		.4byte	0x153a
 18637 01c3 616D785F 		.ascii	"amx_NativeInfo\000"
 18637      4E617469 
 18637      7665496E 
 18637      666F00
 18638 01d2 8C150000 		.4byte	0x158c
 18639 01d6 616D785F 		.ascii	"amx_Push\000"
 18639      50757368 
 18639      00
 18640 01df E9150000 		.4byte	0x15e9
 18641 01e3 616D785F 		.ascii	"amx_PushAddress\000"
 18641      50757368 
 18641      41646472 
 18641      65737300 
 18642 01f3 57160000 		.4byte	0x1657
 18643 01f7 616D785F 		.ascii	"amx_exec_list\000"
 18643      65786563 
 18643      5F6C6973 
 18643      7400
 18644 0205 BE170000 		.4byte	0x17be
 18645 0209 616D785F 		.ascii	"amx_Init\000"
 18645      496E6974 
 18645      00
 18646 0212 55180000 		.4byte	0x1855
 18647 0216 616D785F 		.ascii	"amx_Exec\000"
 18647      45786563 
 18647      00
 18648 021f 271A0000 		.4byte	0x1a27
 18649 0223 616D785F 		.ascii	"amx_SetCallback\000"
 18649      53657443 
 18649      616C6C62 
 18649      61636B00 
 18650 0233 631A0000 		.4byte	0x1a63
 18651 0237 616D785F 		.ascii	"amx_SetDebugHook\000"
 18651      53657444 
 18651      65627567 
 18651      486F6F6B 
 18651      00
 18652 0248 9F1A0000 		.4byte	0x1a9f
 18653 024c 616D785F 		.ascii	"amx_RaiseError\000"
 18653      52616973 
 18653      65457272 
 18653      6F7200
 18654 025b DB1A0000 		.4byte	0x1adb
 18655 025f 616D785F 		.ascii	"amx_Allot\000"
 18655      416C6C6F 
 18655      7400
 18656 0269 481B0000 		.4byte	0x1b48
ARM GAS  /tmp/ccSqa4tb.s 			page 330


 18657 026d 616D785F 		.ascii	"amx_PushArray\000"
 18657      50757368 
 18657      41727261 
 18657      7900
 18658 027b C51B0000 		.4byte	0x1bc5
 18659 027f 616D785F 		.ascii	"amx_Release\000"
 18659      52656C65 
 18659      61736500 
 18660 028b 2F1C0000 		.4byte	0x1c2f
 18661 028f 616D785F 		.ascii	"amx_StrLen\000"
 18661      5374724C 
 18661      656E00
 18662 029a 8C1C0000 		.4byte	0x1c8c
 18663 029e 616D785F 		.ascii	"amx_SetString\000"
 18663      53657453 
 18663      7472696E 
 18663      6700
 18664 02ac 281D0000 		.4byte	0x1d28
 18665 02b0 616D785F 		.ascii	"amx_PushString\000"
 18665      50757368 
 18665      53747269 
 18665      6E6700
 18666 02bf D41D0000 		.4byte	0x1dd4
 18667 02c3 616D785F 		.ascii	"amx_GetString\000"
 18667      47657453 
 18667      7472696E 
 18667      6700
 18668 02d1 761E0000 		.4byte	0x1e76
 18669 02d5 616D785F 		.ascii	"amx_UTF8Get\000"
 18669      55544638 
 18669      47657400 
 18670 02e1 4F1F0000 		.4byte	0x1f4f
 18671 02e5 616D785F 		.ascii	"amx_UTF8Put\000"
 18671      55544638 
 18671      50757400 
 18672 02f1 BE1F0000 		.4byte	0x1fbe
 18673 02f5 616D785F 		.ascii	"amx_UTF8Check\000"
 18673      55544638 
 18673      43686563 
 18673      6B00
 18674 0303 1D200000 		.4byte	0x201d
 18675 0307 616D785F 		.ascii	"amx_UTF8Len\000"
 18675      55544638 
 18675      4C656E00 
 18676 0313 00000000 		.4byte	0x0
 18677              		.section	.debug_pubtypes,"",%progbits
 18678 0000 40010000 		.4byte	0x140
 18679 0004 0200     		.2byte	0x2
 18680 0006 00000000 		.4byte	.Ldebug_info0
 18681 000a D9200000 		.4byte	0x20d9
 18682 000e 32000000 		.4byte	0x32
 18683 0012 73697A65 		.ascii	"size_t\000"
 18683      5F7400
 18684 0019 44000000 		.4byte	0x44
 18685 001d 77636861 		.ascii	"wchar_t\000"
 18685      725F7400 
 18686 0025 A6000000 		.4byte	0xa6
ARM GAS  /tmp/ccSqa4tb.s 			page 331


 18687 0029 696E7431 		.ascii	"int16_t\000"
 18687      365F7400 
 18688 0031 B1000000 		.4byte	0xb1
 18689 0035 75696E74 		.ascii	"uint16_t\000"
 18689      31365F74 
 18689      00
 18690 003e BC000000 		.4byte	0xbc
 18691 0042 696E7433 		.ascii	"int32_t\000"
 18691      325F7400 
 18692 004a C7000000 		.4byte	0xc7
 18693 004e 75696E74 		.ascii	"uint32_t\000"
 18693      33325F74 
 18693      00
 18694 0057 D2000000 		.4byte	0xd2
 18695 005b 696E7470 		.ascii	"intptr_t\000"
 18695      74725F74 
 18695      00
 18696 0064 DD000000 		.4byte	0xdd
 18697 0068 7563656C 		.ascii	"ucell\000"
 18697      6C00
 18698 006e E8000000 		.4byte	0xe8
 18699 0072 63656C6C 		.ascii	"cell\000"
 18699      00
 18700 0077 F3000000 		.4byte	0xf3
 18701 007b 414D585F 		.ascii	"AMX_NATIVE\000"
 18701      4E415449 
 18701      564500
 18702 0086 A0020000 		.4byte	0x2a0
 18703 008a 414D585F 		.ascii	"AMX_CALLBACK\000"
 18703      43414C4C 
 18703      4241434B 
 18703      00
 18704 0097 D6020000 		.4byte	0x2d6
 18705 009b 414D585F 		.ascii	"AMX_DEBUG\000"
 18705      44454255 
 18705      4700
 18706 00a5 F7020000 		.4byte	0x2f7
 18707 00a9 414D585F 		.ascii	"AMX_OVERLAY\000"
 18707      4F564552 
 18707      4C415900 
 18708 00b5 1D030000 		.4byte	0x31d
 18709 00b9 74616741 		.ascii	"tagAMX_NATIVE_INFO\000"
 18709      4D585F4E 
 18709      41544956 
 18709      455F494E 
 18709      464F00
 18710 00cc 46030000 		.4byte	0x346
 18711 00d0 414D585F 		.ascii	"AMX_NATIVE_INFO\000"
 18711      4E415449 
 18711      56455F49 
 18711      4E464F00 
 18712 00e0 51030000 		.4byte	0x351
 18713 00e4 74616746 		.ascii	"tagFUNCSTUB\000"
 18713      554E4353 
 18713      54554200 
 18714 00f0 7A030000 		.4byte	0x37a
 18715 00f4 414D585F 		.ascii	"AMX_FUNCSTUB\000"
ARM GAS  /tmp/ccSqa4tb.s 			page 332


 18715      46554E43 
 18715      53545542 
 18715      00
 18716 0101 1F010000 		.4byte	0x11f
 18717 0105 74616741 		.ascii	"tagAMX\000"
 18717      4D5800
 18718 010c A5030000 		.4byte	0x3a5
 18719 0110 414D5800 		.ascii	"AMX\000"
 18720 0114 B1030000 		.4byte	0x3b1
 18721 0118 74616741 		.ascii	"tagAMX_HEADER\000"
 18721      4D585F48 
 18721      45414445 
 18721      5200
 18722 0126 CD040000 		.4byte	0x4cd
 18723 012a 414D585F 		.ascii	"AMX_HEADER\000"
 18723      48454144 
 18723      455200
 18724 0135 1E0A0000 		.4byte	0xa1e
 18725 0139 4F50434F 		.ascii	"OPCODE\000"
 18725      444500
 18726 0140 00000000 		.4byte	0x0
 18727              		.section	.debug_aranges,"",%progbits
 18728 0000 84010000 		.4byte	0x184
 18729 0004 0200     		.2byte	0x2
 18730 0006 00000000 		.4byte	.Ldebug_info0
 18731 000a 04       		.byte	0x4
 18732 000b 00       		.byte	0x0
 18733 000c 0000     		.2byte	0x0
 18734 000e 0000     		.2byte	0x0
 18735 0010 00000000 		.4byte	.LFB4
 18736 0014 60000000 		.4byte	.LFE4-.LFB4
 18737 0018 00000000 		.4byte	.LFB0
 18738 001c 12000000 		.4byte	.LFE0-.LFB0
 18739 0020 00000000 		.4byte	.LFB1
 18740 0024 02000000 		.4byte	.LFE1-.LFB1
 18741 0028 00000000 		.4byte	.LFB2
 18742 002c 02000000 		.4byte	.LFE2-.LFB2
 18743 0030 00000000 		.4byte	.LFB3
 18744 0034 38000000 		.4byte	.LFE3-.LFB3
 18745 0038 00000000 		.4byte	.LFB7
 18746 003c 04000000 		.4byte	.LFE7-.LFB7
 18747 0040 00000000 		.4byte	.LFB8
 18748 0044 04000000 		.4byte	.LFE8-.LFB8
 18749 0048 00000000 		.4byte	.LFB9
 18750 004c 8C000000 		.4byte	.LFE9-.LFB9
 18751 0050 00000000 		.4byte	.LFB10
 18752 0054 46000000 		.4byte	.LFE10-.LFB10
 18753 0058 00000000 		.4byte	.LFB11
 18754 005c 0C000000 		.4byte	.LFE11-.LFB11
 18755 0060 00000000 		.4byte	.LFB12
 18756 0064 16000000 		.4byte	.LFE12-.LFB12
 18757 0068 00000000 		.4byte	.LFB13
 18758 006c 2E000000 		.4byte	.LFE13-.LFB13
 18759 0070 00000000 		.4byte	.LFB14
 18760 0074 40000000 		.4byte	.LFE14-.LFB14
 18761 0078 00000000 		.4byte	.LFB15
 18762 007c 16000000 		.4byte	.LFE15-.LFB15
ARM GAS  /tmp/ccSqa4tb.s 			page 333


 18763 0080 00000000 		.4byte	.LFB16
 18764 0084 3C000000 		.4byte	.LFE16-.LFB16
 18765 0088 00000000 		.4byte	.LFB17
 18766 008c 60000000 		.4byte	.LFE17-.LFB17
 18767 0090 00000000 		.4byte	.LFB18
 18768 0094 16000000 		.4byte	.LFE18-.LFB18
 18769 0098 00000000 		.4byte	.LFB19
 18770 009c 42000000 		.4byte	.LFE19-.LFB19
 18771 00a0 00000000 		.4byte	.LFB20
 18772 00a4 58000000 		.4byte	.LFE20-.LFB20
 18773 00a8 00000000 		.4byte	.LFB21
 18774 00ac 36000000 		.4byte	.LFE21-.LFB21
 18775 00b0 00000000 		.4byte	.LFB22
 18776 00b4 5C000000 		.4byte	.LFE22-.LFB22
 18777 00b8 00000000 		.4byte	.LFB23
 18778 00bc 52000000 		.4byte	.LFE23-.LFB23
 18779 00c0 00000000 		.4byte	.LFB24
 18780 00c4 2E000000 		.4byte	.LFE24-.LFB24
 18781 00c8 00000000 		.4byte	.LFB25
 18782 00cc 42000000 		.4byte	.LFE25-.LFB25
 18783 00d0 00000000 		.4byte	.LFB27
 18784 00d4 AA000000 		.4byte	.LFE27-.LFB27
 18785 00d8 00000000 		.4byte	.LFB28
 18786 00dc 10000000 		.4byte	.LFE28-.LFB28
 18787 00e0 00000000 		.4byte	.LFB29
 18788 00e4 2A000000 		.4byte	.LFE29-.LFB29
 18789 00e8 00000000 		.4byte	.LFB30
 18790 00ec 1A000000 		.4byte	.LFE30-.LFB30
 18791 00f0 00000000 		.4byte	.LFB33
 18792 00f4 0A000000 		.4byte	.LFE33-.LFB33
 18793 00f8 00000000 		.4byte	.LFB5
 18794 00fc 04030000 		.4byte	.LFE5-.LFB5
 18795 0100 00000000 		.4byte	.LFB6
 18796 0104 E8000000 		.4byte	.LFE6-.LFB6
 18797 0108 00000000 		.4byte	.LFB34
 18798 010c 8E130000 		.4byte	.LFE34-.LFB34
 18799 0110 00000000 		.4byte	.LFB35
 18800 0114 06000000 		.4byte	.LFE35-.LFB35
 18801 0118 00000000 		.4byte	.LFB36
 18802 011c 06000000 		.4byte	.LFE36-.LFB36
 18803 0120 00000000 		.4byte	.LFB37
 18804 0124 06000000 		.4byte	.LFE37-.LFB37
 18805 0128 00000000 		.4byte	.LFB38
 18806 012c 2C000000 		.4byte	.LFE38-.LFB38
 18807 0130 00000000 		.4byte	.LFB31
 18808 0134 34000000 		.4byte	.LFE31-.LFB31
 18809 0138 00000000 		.4byte	.LFB39
 18810 013c 18000000 		.4byte	.LFE39-.LFB39
 18811 0140 00000000 		.4byte	.LFB40
 18812 0144 46000000 		.4byte	.LFE40-.LFB40
 18813 0148 00000000 		.4byte	.LFB41
 18814 014c BC000000 		.4byte	.LFE41-.LFB41
 18815 0150 00000000 		.4byte	.LFB32
 18816 0154 62000000 		.4byte	.LFE32-.LFB32
 18817 0158 00000000 		.4byte	.LFB42
 18818 015c 80000000 		.4byte	.LFE42-.LFB42
 18819 0160 00000000 		.4byte	.LFB43
ARM GAS  /tmp/ccSqa4tb.s 			page 334


 18820 0164 E4000000 		.4byte	.LFE43-.LFB43
 18821 0168 00000000 		.4byte	.LFB44
 18822 016c 5C010000 		.4byte	.LFE44-.LFB44
 18823 0170 00000000 		.4byte	.LFB45
 18824 0174 26000000 		.4byte	.LFE45-.LFB45
 18825 0178 00000000 		.4byte	.LFB46
 18826 017c 4C000000 		.4byte	.LFE46-.LFB46
 18827 0180 00000000 		.4byte	0x0
 18828 0184 00000000 		.4byte	0x0
 18829              		.section	.debug_ranges,"",%progbits
 18830              	.Ldebug_ranges0:
 18831 0000 4A000000 		.4byte	.LBB10
 18832 0004 64000000 		.4byte	.LBE10
 18833 0008 86000000 		.4byte	.LBB15
 18834 000c 88000000 		.4byte	.LBE15
 18835 0010 68000000 		.4byte	.LBB14
 18836 0014 7C000000 		.4byte	.LBE14
 18837 0018 00000000 		.4byte	0x0
 18838 001c 00000000 		.4byte	0x0
 18839 0020 4A000000 		.4byte	.LBB12
 18840 0024 64000000 		.4byte	.LBE12
 18841 0028 86000000 		.4byte	.LBB13
 18842 002c 88000000 		.4byte	.LBE13
 18843 0030 68000000 		.4byte	.LBB11
 18844 0034 7C000000 		.4byte	.LBE11
 18845 0038 00000000 		.4byte	0x0
 18846 003c 00000000 		.4byte	0x0
 18847 0040 72020000 		.4byte	.LBB16
 18848 0044 82020000 		.4byte	.LBE16
 18849 0048 FE020000 		.4byte	.LBB18
 18850 004c 00030000 		.4byte	.LBE18
 18851 0050 00000000 		.4byte	0x0
 18852 0054 00000000 		.4byte	0x0
 18853 0058 F8090000 		.4byte	.LBB21
 18854 005c 280A0000 		.4byte	.LBE21
 18855 0060 7A130000 		.4byte	.LBB23
 18856 0064 84130000 		.4byte	.LBE23
 18857 0068 00000000 		.4byte	0x0
 18858 006c 00000000 		.4byte	0x0
 18859 0070 FE0A0000 		.4byte	.LBB22
 18860 0074 460B0000 		.4byte	.LBE22
 18861 0078 84130000 		.4byte	.LBB24
 18862 007c 8E130000 		.4byte	.LBE24
 18863 0080 00000000 		.4byte	0x0
 18864 0084 00000000 		.4byte	0x0
 18865 0088 00000000 		.4byte	.LFB4
 18866 008c 60000000 		.4byte	.LFE4
 18867 0090 00000000 		.4byte	.LFB0
 18868 0094 12000000 		.4byte	.LFE0
 18869 0098 00000000 		.4byte	.LFB1
 18870 009c 02000000 		.4byte	.LFE1
 18871 00a0 00000000 		.4byte	.LFB2
 18872 00a4 02000000 		.4byte	.LFE2
 18873 00a8 00000000 		.4byte	.LFB3
 18874 00ac 38000000 		.4byte	.LFE3
 18875 00b0 00000000 		.4byte	.LFB7
 18876 00b4 04000000 		.4byte	.LFE7
ARM GAS  /tmp/ccSqa4tb.s 			page 335


 18877 00b8 00000000 		.4byte	.LFB8
 18878 00bc 04000000 		.4byte	.LFE8
 18879 00c0 00000000 		.4byte	.LFB9
 18880 00c4 8C000000 		.4byte	.LFE9
 18881 00c8 00000000 		.4byte	.LFB10
 18882 00cc 46000000 		.4byte	.LFE10
 18883 00d0 00000000 		.4byte	.LFB11
 18884 00d4 0C000000 		.4byte	.LFE11
 18885 00d8 00000000 		.4byte	.LFB12
 18886 00dc 16000000 		.4byte	.LFE12
 18887 00e0 00000000 		.4byte	.LFB13
 18888 00e4 2E000000 		.4byte	.LFE13
 18889 00e8 00000000 		.4byte	.LFB14
 18890 00ec 40000000 		.4byte	.LFE14
 18891 00f0 00000000 		.4byte	.LFB15
 18892 00f4 16000000 		.4byte	.LFE15
 18893 00f8 00000000 		.4byte	.LFB16
 18894 00fc 3C000000 		.4byte	.LFE16
 18895 0100 00000000 		.4byte	.LFB17
 18896 0104 60000000 		.4byte	.LFE17
 18897 0108 00000000 		.4byte	.LFB18
 18898 010c 16000000 		.4byte	.LFE18
 18899 0110 00000000 		.4byte	.LFB19
 18900 0114 42000000 		.4byte	.LFE19
 18901 0118 00000000 		.4byte	.LFB20
 18902 011c 58000000 		.4byte	.LFE20
 18903 0120 00000000 		.4byte	.LFB21
 18904 0124 36000000 		.4byte	.LFE21
 18905 0128 00000000 		.4byte	.LFB22
 18906 012c 5C000000 		.4byte	.LFE22
 18907 0130 00000000 		.4byte	.LFB23
 18908 0134 52000000 		.4byte	.LFE23
 18909 0138 00000000 		.4byte	.LFB24
 18910 013c 2E000000 		.4byte	.LFE24
 18911 0140 00000000 		.4byte	.LFB25
 18912 0144 42000000 		.4byte	.LFE25
 18913 0148 00000000 		.4byte	.LFB27
 18914 014c AA000000 		.4byte	.LFE27
 18915 0150 00000000 		.4byte	.LFB28
 18916 0154 10000000 		.4byte	.LFE28
 18917 0158 00000000 		.4byte	.LFB29
 18918 015c 2A000000 		.4byte	.LFE29
 18919 0160 00000000 		.4byte	.LFB30
 18920 0164 1A000000 		.4byte	.LFE30
 18921 0168 00000000 		.4byte	.LFB33
 18922 016c 0A000000 		.4byte	.LFE33
 18923 0170 00000000 		.4byte	.LFB5
 18924 0174 04030000 		.4byte	.LFE5
 18925 0178 00000000 		.4byte	.LFB6
 18926 017c E8000000 		.4byte	.LFE6
 18927 0180 00000000 		.4byte	.LFB34
 18928 0184 8E130000 		.4byte	.LFE34
 18929 0188 00000000 		.4byte	.LFB35
 18930 018c 06000000 		.4byte	.LFE35
 18931 0190 00000000 		.4byte	.LFB36
 18932 0194 06000000 		.4byte	.LFE36
 18933 0198 00000000 		.4byte	.LFB37
ARM GAS  /tmp/ccSqa4tb.s 			page 336


 18934 019c 06000000 		.4byte	.LFE37
 18935 01a0 00000000 		.4byte	.LFB38
 18936 01a4 2C000000 		.4byte	.LFE38
 18937 01a8 00000000 		.4byte	.LFB31
 18938 01ac 34000000 		.4byte	.LFE31
 18939 01b0 00000000 		.4byte	.LFB39
 18940 01b4 18000000 		.4byte	.LFE39
 18941 01b8 00000000 		.4byte	.LFB40
 18942 01bc 46000000 		.4byte	.LFE40
 18943 01c0 00000000 		.4byte	.LFB41
 18944 01c4 BC000000 		.4byte	.LFE41
 18945 01c8 00000000 		.4byte	.LFB32
 18946 01cc 62000000 		.4byte	.LFE32
 18947 01d0 00000000 		.4byte	.LFB42
 18948 01d4 80000000 		.4byte	.LFE42
 18949 01d8 00000000 		.4byte	.LFB43
 18950 01dc E4000000 		.4byte	.LFE43
 18951 01e0 00000000 		.4byte	.LFB44
 18952 01e4 5C010000 		.4byte	.LFE44
 18953 01e8 00000000 		.4byte	.LFB45
 18954 01ec 26000000 		.4byte	.LFE45
 18955 01f0 00000000 		.4byte	.LFB46
 18956 01f4 4C000000 		.4byte	.LFE46
 18957 01f8 00000000 		.4byte	0x0
 18958 01fc 00000000 		.4byte	0x0
 18959              		.section	.debug_str,"MS",%progbits,1
 18960              	.LASF68:
 18961 0000 414D585F 		.ascii	"AMX_ERR_INVINSTR\000"
 18961      4552525F 
 18961      494E5649 
 18961      4E535452 
 18961      00
 18962              	.LASF87:
 18963 0011 414D585F 		.ascii	"AMX_ERR_GENERAL\000"
 18963      4552525F 
 18963      47454E45 
 18963      52414C00 
 18964              	.LASF173:
 18965 0021 4F505F49 		.ascii	"OP_IDXADDR_B\000"
 18965      44584144 
 18965      44525F42 
 18965      00
 18966              	.LASF86:
 18967 002e 414D585F 		.ascii	"AMX_ERR_DOMAIN\000"
 18967      4552525F 
 18967      444F4D41 
 18967      494E00
 18968              	.LASF95:
 18969 003d 4F505F4C 		.ascii	"OP_LREF_S_ALT\000"
 18969      5245465F 
 18969      535F414C 
 18969      5400
 18970              	.LASF154:
 18971 004b 4F505F43 		.ascii	"OP_CMPS\000"
 18971      4D505300 
 18972              	.LASF72:
 18973 0053 414D585F 		.ascii	"AMX_ERR_NATIVE\000"
ARM GAS  /tmp/ccSqa4tb.s 			page 337


 18973      4552525F 
 18973      4E415449 
 18973      564500
 18974              	.LASF253:
 18975 0062 4F505F45 		.ascii	"OP_EQ_P_C_PRI\000"
 18975      515F505F 
 18975      435F5052 
 18975      4900
 18976              	.LASF190:
 18977 0070 4F505F53 		.ascii	"OP_SMUL_C\000"
 18977      4D554C5F 
 18977      4300
 18978              	.LASF24:
 18979 007a 64656275 		.ascii	"debug\000"
 18979      6700
 18980              	.LASF202:
 18981 0080 4F505F50 		.ascii	"OP_PUSHM_C\000"
 18981      5553484D 
 18981      5F4300
 18982              	.LASF242:
 18983 008b 4F505F50 		.ascii	"OP_PUSHRM_P_C\000"
 18983      55534852 
 18983      4D5F505F 
 18983      4300
 18984              	.LASF218:
 18985 0099 4F505F4C 		.ascii	"OP_LREF_P_S_ALT\000"
 18985      5245465F 
 18985      505F535F 
 18985      414C5400 
 18986              	.LASF228:
 18987 00a9 4F505F4C 		.ascii	"OP_LIDX_P_B\000"
 18987      4944585F 
 18987      505F4200 
 18988              	.LASF204:
 18989 00b5 4F505F50 		.ascii	"OP_PUSHM_S\000"
 18989      5553484D 
 18989      5F5300
 18990              	.LASF117:
 18991 00c0 4F505F53 		.ascii	"OP_STACK\000"
 18991      5441434B 
 18991      00
 18992              	.LASF284:
 18993 00c9 616D785F 		.ascii	"amx_NameLength\000"
 18993      4E616D65 
 18993      4C656E67 
 18993      746800
 18994              	.LASF354:
 18995 00d8 616D785F 		.ascii	"amx_PushString\000"
 18995      50757368 
 18995      53747269 
 18995      6E6700
 18996              	.LASF301:
 18997 00e7 616D785F 		.ascii	"amx_GetTag\000"
 18997      47657454 
 18997      616700
 18998              	.LASF233:
 18999 00f2 4F505F50 		.ascii	"OP_PUSH_P_S\000"
ARM GAS  /tmp/ccSqa4tb.s 			page 338


 18999      5553485F 
 18999      505F5300 
 19000              	.LASF222:
 19001 00fe 4F505F41 		.ascii	"OP_ADDR_P_PRI\000"
 19001      4444525F 
 19001      505F5052 
 19001      4900
 19002              	.LASF26:
 19003 010c 666C6167 		.ascii	"flags\000"
 19003      7300
 19004              	.LASF114:
 19005 0112 4F505F50 		.ascii	"OP_POP_PRI\000"
 19005      4F505F50 
 19005      524900
 19006              	.LASF367:
 19007 011d 62756666 		.ascii	"buffer\000"
 19007      657200
 19008              	.LASF143:
 19009 0124 4F505F53 		.ascii	"OP_SLESS\000"
 19009      4C455353 
 19009      00
 19010              	.LASF216:
 19011 012d 4F505F4C 		.ascii	"OP_LOAD_P_S_ALT\000"
 19011      4F41445F 
 19011      505F535F 
 19011      414C5400 
 19012              	.LASF309:
 19013 013d 616D785F 		.ascii	"amx_Register\000"
 19013      52656769 
 19013      73746572 
 19013      00
 19014              	.LASF0:
 19015 014a 756E7369 		.ascii	"unsigned int\000"
 19015      676E6564 
 19015      20696E74 
 19015      00
 19016              	.LASF290:
 19017 0157 616D785F 		.ascii	"amx_FindNative\000"
 19017      46696E64 
 19017      4E617469 
 19017      766500
 19018              	.LASF32:
 19019 0166 72657365 		.ascii	"reset_hea\000"
 19019      745F6865 
 19019      6100
 19020              	.LASF111:
 19021 0170 4F505F50 		.ascii	"OP_PUSH_PRI\000"
 19021      5553485F 
 19021      50524900 
 19022              	.LASF319:
 19023 017c 6E756D6F 		.ascii	"numopcodes\000"
 19023      70636F64 
 19023      657300
 19024              	.LASF77:
 19025 0187 414D585F 		.ascii	"AMX_ERR_FORMAT\000"
 19025      4552525F 
 19025      464F524D 
ARM GAS  /tmp/ccSqa4tb.s 			page 339


 19025      415400
 19026              	.LASF129:
 19027 0196 4F505F53 		.ascii	"OP_SHL_C_PRI\000"
 19027      484C5F43 
 19027      5F505249 
 19027      00
 19028              	.LASF2:
 19029 01a3 77636861 		.ascii	"wchar_t\000"
 19029      725F7400 
 19030              	.LASF292:
 19031 01ab 706E616D 		.ascii	"pname\000"
 19031      6500
 19032              	.LASF189:
 19033 01b1 4F505F41 		.ascii	"OP_ADD_C\000"
 19033      44445F43 
 19033      00
 19034              	.LASF272:
 19035 01ba 616D785F 		.ascii	"amx_Flags\000"
 19035      466C6167 
 19035      7300
 19036              	.LASF82:
 19037 01c4 414D585F 		.ascii	"AMX_ERR_INIT\000"
 19037      4552525F 
 19037      494E4954 
 19037      00
 19038              	.LASF359:
 19039 01d1 656E6470 		.ascii	"endptr\000"
 19039      747200
 19040              	.LASF118:
 19041 01d8 4F505F48 		.ascii	"OP_HEAP\000"
 19041      45415000 
 19042              	.LASF186:
 19043 01e0 4F505F4A 		.ascii	"OP_JSGEQ\000"
 19043      53474551 
 19043      00
 19044              	.LASF105:
 19045 01e9 4F505F53 		.ascii	"OP_STOR_I\000"
 19045      544F525F 
 19045      4900
 19046              	.LASF311:
 19047 01f3 66756E63 		.ascii	"funcptr\000"
 19047      70747200 
 19048              	.LASF164:
 19049 01fb 4F505F53 		.ascii	"OP_SYSREQ_D\000"
 19049      59535245 
 19049      515F4400 
 19050              	.LASF121:
 19051 0207 4F505F52 		.ascii	"OP_RETN\000"
 19051      45544E00 
 19052              	.LASF224:
 19053 020f 4F505F53 		.ascii	"OP_STOR_P\000"
 19053      544F525F 
 19053      5000
 19054              	.LASF73:
 19055 0219 414D585F 		.ascii	"AMX_ERR_DIVIDE\000"
 19055      4552525F 
 19055      44495649 
ARM GAS  /tmp/ccSqa4tb.s 			page 340


 19055      444500
 19056              	.LASF103:
 19057 0228 4F505F53 		.ascii	"OP_STOR_S\000"
 19057      544F525F 
 19057      5300
 19058              	.LASF199:
 19059 0232 4F505F44 		.ascii	"OP_DEC\000"
 19059      454300
 19060              	.LASF201:
 19061 0239 4F505F53 		.ascii	"OP_SYSREQ_N\000"
 19061      59535245 
 19061      515F4E00 
 19062              	.LASF203:
 19063 0245 4F505F50 		.ascii	"OP_PUSHM\000"
 19063      5553484D 
 19063      00
 19064              	.LASF29:
 19065 024e 6572726F 		.ascii	"error\000"
 19065      7200
 19066              	.LASF42:
 19067 0254 66756E63 		.ascii	"func\000"
 19067      00
 19068              	.LASF302:
 19069 0259 7461676E 		.ascii	"tagname\000"
 19069      616D6500 
 19070              	.LASF54:
 19071 0261 7075626C 		.ascii	"publics\000"
 19071      69637300 
 19072              	.LASF56:
 19073 0269 6C696272 		.ascii	"libraries\000"
 19073      61726965 
 19073      7300
 19074              	.LASF277:
 19075 0273 616D785F 		.ascii	"amx_Clone\000"
 19075      436C6F6E 
 19075      6500
 19076              	.LASF251:
 19077 027d 4F505F5A 		.ascii	"OP_ZERO_P\000"
 19077      45524F5F 
 19077      5000
 19078              	.LASF194:
 19079 0287 4F505F5A 		.ascii	"OP_ZERO_S\000"
 19079      45524F5F 
 19079      5300
 19080              	.LASF331:
 19081 0291 5F5F7374 		.ascii	"__strb_i\000"
 19081      72625F69 
 19081      00
 19082              	.LASF79:
 19083 029a 414D585F 		.ascii	"AMX_ERR_NOTFOUND\000"
 19083      4552525F 
 19083      4E4F5446 
 19083      4F554E44 
 19083      00
 19084              	.LASF267:
 19085 02ab 616D785F 		.ascii	"amx_Align16\000"
 19085      416C6967 
ARM GAS  /tmp/ccSqa4tb.s 			page 341


 19085      6E313600 
 19086              	.LASF37:
 19087 02b7 414D585F 		.ascii	"AMX_DEBUG\000"
 19087      44454255 
 19087      4700
 19088              	.LASF339:
 19089 02c1 616D785F 		.ascii	"amx_RaiseError\000"
 19089      52616973 
 19089      65457272 
 19089      6F7200
 19090              	.LASF150:
 19091 02d0 4F505F44 		.ascii	"OP_DEC_PRI\000"
 19091      45435F50 
 19091      524900
 19092              	.LASF140:
 19093 02db 4F505F49 		.ascii	"OP_INVERT\000"
 19093      4E564552 
 19093      5400
 19094              	.LASF308:
 19095 02e5 6C697374 		.ascii	"list\000"
 19095      00
 19096              	.LASF76:
 19097 02ea 414D585F 		.ascii	"AMX_ERR_MEMORY\000"
 19097      4552525F 
 19097      4D454D4F 
 19097      525900
 19098              	.LASF181:
 19099 02f9 4F505F4A 		.ascii	"OP_JEQ\000"
 19099      455100
 19100              	.LASF328:
 19101 0300 616D785F 		.ascii	"amx_Exec\000"
 19101      45786563 
 19101      00
 19102              	.LASF67:
 19103 0309 414D585F 		.ascii	"AMX_ERR_MEMACCESS\000"
 19103      4552525F 
 19103      4D454D41 
 19103      43434553 
 19103      5300
 19104              	.LASF135:
 19105 031b 4F505F41 		.ascii	"OP_AND\000"
 19105      4E4400
 19106              	.LASF108:
 19107 0322 4F505F4C 		.ascii	"OP_LCTRL\000"
 19107      4354524C 
 19107      00
 19108              	.LASF15:
 19109 032b 75696E74 		.ascii	"uint32_t\000"
 19109      33325F74 
 19109      00
 19110              	.LASF362:
 19111 0334 666F6C6C 		.ascii	"followup\000"
 19111      6F777570 
 19111      00
 19112              	.LASF170:
 19113 033d 4F505F4C 		.ascii	"OP_LIDX\000"
 19113      49445800 
ARM GAS  /tmp/ccSqa4tb.s 			page 342


 19114              	.LASF101:
 19115 0345 4F505F41 		.ascii	"OP_ADDR_ALT\000"
 19115      4444525F 
 19115      414C5400 
 19116              	.LASF262:
 19117 0351 4F505F48 		.ascii	"OP_HALT_P\000"
 19117      414C545F 
 19117      5000
 19118              	.LASF167:
 19119 035b 4F505F52 		.ascii	"OP_RETN_OVL\000"
 19119      45544E5F 
 19119      4F564C00 
 19120              	.LASF20:
 19121 0367 62617365 		.ascii	"base\000"
 19121      00
 19122              	.LASF368:
 19123 036c 636F756E 		.ascii	"count\000"
 19123      7400
 19124              	.LASF268:
 19125 0372 696E6465 		.ascii	"index\000"
 19125      7800
 19126              	.LASF279:
 19127 0378 616D7853 		.ascii	"amxSource\000"
 19127      6F757263 
 19127      6500
 19128              	.LASF12:
 19129 0382 696E7431 		.ascii	"int16_t\000"
 19129      365F7400 
 19130              	.LASF178:
 19131 038a 4F505F50 		.ascii	"OP_PUSHR_C\000"
 19131      55534852 
 19131      5F4300
 19132              	.LASF269:
 19133 0395 72657375 		.ascii	"result\000"
 19133      6C7400
 19134              	.LASF239:
 19135 039c 4F505F50 		.ascii	"OP_PUSHM_P\000"
 19135      5553484D 
 19135      5F5000
 19136              	.LASF165:
 19137 03a7 4F505F53 		.ascii	"OP_SYSREQ_ND\000"
 19137      59535245 
 19137      515F4E44 
 19137      00
 19138              	.LASF206:
 19139 03b4 4F505F50 		.ascii	"OP_PUSHRM_C\000"
 19139      55534852 
 19139      4D5F4300 
 19140              	.LASF8:
 19141 03c0 6C6F6E67 		.ascii	"long long unsigned int\000"
 19141      206C6F6E 
 19141      6720756E 
 19141      7369676E 
 19141      65642069 
 19142              	.LASF248:
 19143 03d7 4F505F53 		.ascii	"OP_SHL_P_C_ALT\000"
 19143      484C5F50 
ARM GAS  /tmp/ccSqa4tb.s 			page 343


 19143      5F435F41 
 19143      4C5400
 19144              	.LASF156:
 19145 03e6 4F505F48 		.ascii	"OP_HALT\000"
 19145      414C5400 
 19146              	.LASF161:
 19147 03ee 4F505F53 		.ascii	"OP_SWAP_ALT\000"
 19147      5741505F 
 19147      414C5400 
 19148              	.LASF200:
 19149 03fa 4F505F44 		.ascii	"OP_DEC_S\000"
 19149      45435F53 
 19149      00
 19150              	.LASF286:
 19151 0403 6E616D65 		.ascii	"namelength\000"
 19151      6C656E67 
 19151      746800
 19152              	.LASF352:
 19153 040e 7061636B 		.ascii	"pack\000"
 19153      00
 19154              	.LASF207:
 19155 0413 4F505F50 		.ascii	"OP_PUSHRM_S\000"
 19155      55534852 
 19155      4D5F5300 
 19156              	.LASF155:
 19157 041f 4F505F46 		.ascii	"OP_FILL\000"
 19157      494C4C00 
 19158              	.LASF55:
 19159 0427 6E617469 		.ascii	"natives\000"
 19159      76657300 
 19160              	.LASF238:
 19161 042f 4F505F50 		.ascii	"OP_PUSHM_P_C\000"
 19161      5553484D 
 19161      5F505F43 
 19161      00
 19162              	.LASF313:
 19163 043c 616D785F 		.ascii	"amx_Push\000"
 19163      50757368 
 19163      00
 19164              	.LASF162:
 19165 0445 4F505F42 		.ascii	"OP_BREAK\000"
 19165      5245414B 
 19165      00
 19166              	.LASF305:
 19167 044e 6D69645F 		.ascii	"mid_id\000"
 19167      696400
 19168              	.LASF184:
 19169 0455 4F505F4A 		.ascii	"OP_JSLEQ\000"
 19169      534C4551 
 19169      00
 19170              	.LASF360:
 19171 045e 75746638 		.ascii	"utf8_count\000"
 19171      5F636F75 
 19171      6E7400
 19172              	.LASF324:
 19173 0469 6F70636F 		.ascii	"opcode_list\000"
 19173      64655F6C 
ARM GAS  /tmp/ccSqa4tb.s 			page 344


 19173      69737400 
 19174              	.LASF240:
 19175 0475 4F505F50 		.ascii	"OP_PUSHM_P_S\000"
 19175      5553484D 
 19175      5F505F53 
 19175      00
 19176              	.LASF36:
 19177 0482 414D585F 		.ascii	"AMX_CALLBACK\000"
 19177      43414C4C 
 19177      4241434B 
 19177      00
 19178              	.LASF66:
 19179 048f 414D585F 		.ascii	"AMX_ERR_BOUNDS\000"
 19179      4552525F 
 19179      424F554E 
 19179      445300
 19180              	.LASF213:
 19181 049e 4F505F4C 		.ascii	"OP_LOAD_P_PRI\000"
 19181      4F41445F 
 19181      505F5052 
 19181      4900
 19182              	.LASF59:
 19183 04ac 6E616D65 		.ascii	"nametable\000"
 19183      7461626C 
 19183      6500
 19184              	.LASF263:
 19185 04b6 4F505F42 		.ascii	"OP_BOUNDS_P\000"
 19185      4F554E44 
 19185      535F5000 
 19186              	.LASF314:
 19187 04c2 76616C75 		.ascii	"value\000"
 19187      6500
 19188              	.LASF174:
 19189 04c8 4F505F50 		.ascii	"OP_PUSH_C\000"
 19189      5553485F 
 19189      4300
 19190              	.LASF104:
 19191 04d2 4F505F53 		.ascii	"OP_SREF_S\000"
 19191      5245465F 
 19191      5300
 19192              	.LASF39:
 19193 04dc 74616741 		.ascii	"tagAMX\000"
 19193      4D5800
 19194              	.LASF266:
 19195 04e3 616D785F 		.ascii	"amx_Align32\000"
 19195      416C6967 
 19195      6E333200 
 19196              	.LASF78:
 19197 04ef 414D585F 		.ascii	"AMX_ERR_VERSION\000"
 19197      4552525F 
 19197      56455253 
 19197      494F4E00 
 19198              	.LASF232:
 19199 04ff 4F505F50 		.ascii	"OP_PUSH_P\000"
 19199      5553485F 
 19199      5000
 19200              	.LASF176:
ARM GAS  /tmp/ccSqa4tb.s 			page 345


 19201 0509 4F505F50 		.ascii	"OP_PUSH_S\000"
 19201      5553485F 
 19201      5300
 19202              	.LASF175:
 19203 0513 4F505F50 		.ascii	"OP_PUSH\000"
 19203      55534800 
 19204              	.LASF107:
 19205 051b 4F505F41 		.ascii	"OP_ALIGN_PRI\000"
 19205      4C49474E 
 19205      5F505249 
 19205      00
 19206              	.LASF1:
 19207 0528 73697A65 		.ascii	"size_t\000"
 19207      5F7400
 19208              	.LASF250:
 19209 052f 4F505F53 		.ascii	"OP_SMUL_P_C\000"
 19209      4D554C5F 
 19209      505F4300 
 19210              	.LASF102:
 19211 053b 4F505F53 		.ascii	"OP_STOR\000"
 19211      544F5200 
 19212              	.LASF71:
 19213 0543 414D585F 		.ascii	"AMX_ERR_CALLBACK\000"
 19213      4552525F 
 19213      43414C4C 
 19213      4241434B 
 19213      00
 19214              	.LASF94:
 19215 0554 4F505F4C 		.ascii	"OP_LREF_S_PRI\000"
 19215      5245465F 
 19215      535F5052 
 19215      4900
 19216              	.LASF327:
 19217 0562 70726F67 		.ascii	"program\000"
 19217      72616D00 
 19218              	.LASF348:
 19219 056a 63737472 		.ascii	"cstr\000"
 19219      00
 19220              	.LASF166:
 19221 056f 4F505F43 		.ascii	"OP_CALL_OVL\000"
 19221      414C4C5F 
 19221      4F564C00 
 19222              	.LASF364:
 19223 057b 6D617863 		.ascii	"maxchars\000"
 19223      68617273 
 19223      00
 19224              	.LASF346:
 19225 0584 616D785F 		.ascii	"amx_addr\000"
 19225      61646472 
 19225      00
 19226              	.LASF122:
 19227 058d 4F505F43 		.ascii	"OP_CALL\000"
 19227      414C4C00 
 19228              	.LASF40:
 19229 0595 74616741 		.ascii	"tagAMX_NATIVE_INFO\000"
 19229      4D585F4E 
 19229      41544956 
ARM GAS  /tmp/ccSqa4tb.s 			page 346


 19229      455F494E 
 19229      464F00
 19230              	.LASF217:
 19231 05a8 4F505F4C 		.ascii	"OP_LREF_P_S_PRI\000"
 19231      5245465F 
 19231      505F535F 
 19231      50524900 
 19232              	.LASF120:
 19233 05b8 4F505F52 		.ascii	"OP_RET\000"
 19233      455400
 19234              	.LASF282:
 19235 05bf 64617461 		.ascii	"datasize\000"
 19235      73697A65 
 19235      00
 19236              	.LASF131:
 19237 05c8 4F505F53 		.ascii	"OP_SMUL\000"
 19237      4D554C00 
 19238              	.LASF197:
 19239 05d0 4F505F49 		.ascii	"OP_INC\000"
 19239      4E4300
 19240              	.LASF21:
 19241 05d7 636F6465 		.ascii	"code\000"
 19241      00
 19242              	.LASF183:
 19243 05dc 4F505F4A 		.ascii	"OP_JSLESS\000"
 19243      534C4553 
 19243      5300
 19244              	.LASF338:
 19245 05e6 616D785F 		.ascii	"amx_SetDebugHook\000"
 19245      53657444 
 19245      65627567 
 19245      486F6F6B 
 19245      00
 19246              	.LASF291:
 19247 05f7 6C617374 		.ascii	"last\000"
 19247      00
 19248              	.LASF28:
 19249 05fc 75736572 		.ascii	"userdata\000"
 19249      64617461 
 19249      00
 19250              	.LASF85:
 19251 0605 414D585F 		.ascii	"AMX_ERR_PARAMS\000"
 19251      4552525F 
 19251      50415241 
 19251      4D5300
 19252              	.LASF299:
 19253 0614 616D785F 		.ascii	"amx_FindPubVar\000"
 19253      46696E64 
 19253      50756256 
 19253      617200
 19254              	.LASF264:
 19255 0623 4F505F4E 		.ascii	"OP_NUM_OPCODES\000"
 19255      554D5F4F 
 19255      50434F44 
 19255      455300
 19256              	.LASF137:
 19257 0632 4F505F58 		.ascii	"OP_XOR\000"
ARM GAS  /tmp/ccSqa4tb.s 			page 347


 19257      4F5200
 19258              	.LASF123:
 19259 0639 4F505F4A 		.ascii	"OP_JUMP\000"
 19259      554D5000 
 19260              	.LASF192:
 19261 0641 4F505F5A 		.ascii	"OP_ZERO_ALT\000"
 19261      45524F5F 
 19261      414C5400 
 19262              	.LASF91:
 19263 064d 4F505F4C 		.ascii	"OP_LOAD_ALT\000"
 19263      4F41445F 
 19263      414C5400 
 19264              	.LASF215:
 19265 0659 4F505F4C 		.ascii	"OP_LOAD_P_S_PRI\000"
 19265      4F41445F 
 19265      505F535F 
 19265      50524900 
 19266              	.LASF145:
 19267 0669 4F505F53 		.ascii	"OP_SGRTR\000"
 19267      47525452 
 19267      00
 19268              	.LASF47:
 19269 0672 414D585F 		.ascii	"AMX_FUNCSTUB\000"
 19269      46554E43 
 19269      53545542 
 19269      00
 19270              	.LASF11:
 19271 067f 63686172 		.ascii	"char\000"
 19271      00
 19272              	.LASF61:
 19273 0684 414D585F 		.ascii	"AMX_HEADER\000"
 19273      48454144 
 19273      455200
 19274              	.LASF281:
 19275 068f 616D785F 		.ascii	"amx_MemInfo\000"
 19275      4D656D49 
 19275      6E666F00 
 19276              	.LASF30:
 19277 069b 70617261 		.ascii	"paramcount\000"
 19277      6D636F75 
 19277      6E7400
 19278              	.LASF370:
 19279 06a6 474E5520 		.ascii	"GNU C 4.5.2\000"
 19279      4320342E 
 19279      352E3200 
 19280              	.LASF210:
 19281 06b2 4F505F4C 		.ascii	"OP_LOAD2_S\000"
 19281      4F414432 
 19281      5F5300
 19282              	.LASF345:
 19283 06bd 616D785F 		.ascii	"amx_Release\000"
 19283      52656C65 
 19283      61736500 
 19284              	.LASF52:
 19285 06c9 616D785F 		.ascii	"amx_version\000"
 19285      76657273 
 19285      696F6E00 
ARM GAS  /tmp/ccSqa4tb.s 			page 348


 19286              	.LASF341:
 19287 06d5 63656C6C 		.ascii	"cells\000"
 19287      7300
 19288              	.LASF89:
 19289 06db 4F505F4E 		.ascii	"OP_NOP\000"
 19289      4F5000
 19290              	.LASF355:
 19291 06e2 73747269 		.ascii	"string\000"
 19291      6E6700
 19292              	.LASF138:
 19293 06e9 4F505F4E 		.ascii	"OP_NOT\000"
 19293      4F5400
 19294              	.LASF168:
 19295 06f0 4F505F53 		.ascii	"OP_SWITCH_OVL\000"
 19295      57495443 
 19295      485F4F56 
 19295      4C00
 19296              	.LASF17:
 19297 06fe 7563656C 		.ascii	"ucell\000"
 19297      6C00
 19298              	.LASF116:
 19299 0704 4F505F50 		.ascii	"OP_PICK\000"
 19299      49434B00 
 19300              	.LASF316:
 19301 070c 78616464 		.ascii	"xaddr\000"
 19301      7200
 19302              	.LASF31:
 19303 0712 72657365 		.ascii	"reset_stk\000"
 19303      745F7374 
 19303      6B00
 19304              	.LASF22:
 19305 071c 64617461 		.ascii	"data\000"
 19305      00
 19306              	.LASF64:
 19307 0721 414D585F 		.ascii	"AMX_ERR_ASSERT\000"
 19307      4552525F 
 19307      41535345 
 19307      525400
 19308              	.LASF371:
 19309 0730 7061776E 		.ascii	"pawn/amx.c\000"
 19309      2F616D78 
 19309      2E6300
 19310              	.LASF230:
 19311 073b 4F505F41 		.ascii	"OP_ALIGN_P_PRI\000"
 19311      4C49474E 
 19311      5F505F50 
 19311      524900
 19312              	.LASF158:
 19313 074a 4F505F53 		.ascii	"OP_SYSREQ\000"
 19313      59535245 
 19313      5100
 19314              	.LASF283:
 19315 0754 73746163 		.ascii	"stackheap\000"
 19315      6B686561 
 19315      7000
 19316              	.LASF256:
 19317 075e 4F505F49 		.ascii	"OP_INC_P_S\000"
ARM GAS  /tmp/ccSqa4tb.s 			page 349


 19317      4E435F50 
 19317      5F5300
 19318              	.LASF196:
 19319 0769 4F505F45 		.ascii	"OP_EQ_C_ALT\000"
 19319      515F435F 
 19319      414C5400 
 19320              	.LASF323:
 19321 0775 73746163 		.ascii	"stacksize\000"
 19321      6B73697A 
 19321      6500
 19322              	.LASF243:
 19323 077f 4F505F50 		.ascii	"OP_PUSHRM_P_S\000"
 19323      55534852 
 19323      4D5F505F 
 19323      5300
 19324              	.LASF51:
 19325 078d 66696C65 		.ascii	"file_version\000"
 19325      5F766572 
 19325      73696F6E 
 19325      00
 19326              	.LASF225:
 19327 079a 4F505F53 		.ascii	"OP_STOR_P_S\000"
 19327      544F525F 
 19327      505F5300 
 19328              	.LASF128:
 19329 07a6 4F505F53 		.ascii	"OP_SSHR\000"
 19329      53485200 
 19330              	.LASF278:
 19331 07ae 616D7843 		.ascii	"amxClone\000"
 19331      6C6F6E65 
 19331      00
 19332              	.LASF318:
 19333 07b7 6F70636F 		.ascii	"opcodelist\000"
 19333      64656C69 
 19333      737400
 19334              	.LASF19:
 19335 07c2 414D585F 		.ascii	"AMX_NATIVE\000"
 19335      4E415449 
 19335      564500
 19336              	.LASF363:
 19337 07cd 616D785F 		.ascii	"amx_UTF8Put\000"
 19337      55544638 
 19337      50757400 
 19338              	.LASF329:
 19339 07d9 72657476 		.ascii	"retval\000"
 19339      616C00
 19340              	.LASF182:
 19341 07e0 4F505F4A 		.ascii	"OP_JNEQ\000"
 19341      4E455100 
 19342              	.LASF330:
 19343 07e8 5F5F6C6F 		.ascii	"__lodb_i\000"
 19343      64625F69 
 19343      00
 19344              	.LASF38:
 19345 07f1 414D585F 		.ascii	"AMX_OVERLAY\000"
 19345      4F564552 
 19345      4C415900 
ARM GAS  /tmp/ccSqa4tb.s 			page 350


 19346              	.LASF7:
 19347 07fd 6C6F6E67 		.ascii	"long long int\000"
 19347      206C6F6E 
 19347      6720696E 
 19347      7400
 19348              	.LASF144:
 19349 080b 4F505F53 		.ascii	"OP_SLEQ\000"
 19349      4C455100 
 19350              	.LASF46:
 19351 0813 6E616D65 		.ascii	"nameofs\000"
 19351      6F667300 
 19352              	.LASF106:
 19353 081b 4F505F53 		.ascii	"OP_STRB_I\000"
 19353      5452425F 
 19353      4900
 19354              	.LASF146:
 19355 0825 4F505F53 		.ascii	"OP_SGEQ\000"
 19355      47455100 
 19356              	.LASF69:
 19357 082d 414D585F 		.ascii	"AMX_ERR_STACKLOW\000"
 19357      4552525F 
 19357      53544143 
 19357      4B4C4F57 
 19357      00
 19358              	.LASF235:
 19359 083e 4F505F50 		.ascii	"OP_PUSHR_P_C\000"
 19359      55534852 
 19359      5F505F43 
 19359      00
 19360              	.LASF136:
 19361 084b 4F505F4F 		.ascii	"OP_OR\000"
 19361      5200
 19362              	.LASF151:
 19363 0851 4F505F44 		.ascii	"OP_DEC_ALT\000"
 19363      45435F41 
 19363      4C5400
 19364              	.LASF357:
 19365 085c 616D785F 		.ascii	"amx_GetString\000"
 19365      47657453 
 19365      7472696E 
 19365      6700
 19366              	.LASF351:
 19367 086a 736F7572 		.ascii	"source\000"
 19367      636500
 19368              	.LASF372:
 19369 0871 2F686F6D 		.ascii	"/home/z80/projects/dfu.git/firmware-pawn-dev/firmwa"
 19369      652F7A38 
 19369      302F7072 
 19369      6F6A6563 
 19369      74732F64 
 19370 08a4 726500   		.ascii	"re\000"
 19371              	.LASF236:
 19372 08a7 4F505F50 		.ascii	"OP_PUSHR_P_S\000"
 19372      55534852 
 19372      5F505F53 
 19372      00
 19373              	.LASF133:
ARM GAS  /tmp/ccSqa4tb.s 			page 351


 19374 08b4 4F505F41 		.ascii	"OP_ADD\000"
 19374      444400
 19375              	.LASF337:
 19376 08bb 616D785F 		.ascii	"amx_SetCallback\000"
 19376      53657443 
 19376      616C6C62 
 19376      61636B00 
 19377              	.LASF100:
 19378 08cb 4F505F41 		.ascii	"OP_ADDR_PRI\000"
 19378      4444525F 
 19378      50524900 
 19379              	.LASF347:
 19380 08d7 616D785F 		.ascii	"amx_StrLen\000"
 19380      5374724C 
 19380      656E00
 19381              	.LASF335:
 19382 08e2 5F5F6861 		.ascii	"__halt\000"
 19382      6C7400
 19383              	.LASF205:
 19384 08e9 4F505F50 		.ascii	"OP_PUSHM_ADR\000"
 19384      5553484D 
 19384      5F414452 
 19384      00
 19385              	.LASF303:
 19386 08f6 7461675F 		.ascii	"tag_id\000"
 19386      696400
 19387              	.LASF49:
 19388 08fd 73697A65 		.ascii	"size\000"
 19388      00
 19389              	.LASF226:
 19390 0902 4F505F53 		.ascii	"OP_SREF_P_S\000"
 19390      5245465F 
 19390      505F5300 
 19391              	.LASF334:
 19392 090e 5F5F6669 		.ascii	"__fill\000"
 19392      6C6C00
 19393              	.LASF306:
 19394 0915 616D785F 		.ascii	"amx_GetUserData\000"
 19394      47657455 
 19394      73657244 
 19394      61746100 
 19395              	.LASF159:
 19396 0925 4F505F53 		.ascii	"OP_SWITCH\000"
 19396      57495443 
 19396      4800
 19397              	.LASF229:
 19398 092f 4F505F49 		.ascii	"OP_IDXADDR_P_B\000"
 19398      44584144 
 19398      44525F50 
 19398      5F4200
 19399              	.LASF234:
 19400 093e 4F505F50 		.ascii	"OP_PUSH_P_ADR\000"
 19400      5553485F 
 19400      505F4144 
 19400      5200
 19401              	.LASF365:
 19402 094c 616D785F 		.ascii	"amx_UTF8Check\000"
ARM GAS  /tmp/ccSqa4tb.s 			page 352


 19402      55544638 
 19402      43686563 
 19402      6B00
 19403              	.LASF307:
 19404 095a 616D785F 		.ascii	"amx_SetUserData\000"
 19404      53657455 
 19404      73657244 
 19404      61746100 
 19405              	.LASF247:
 19406 096a 4F505F53 		.ascii	"OP_SHL_P_C_PRI\000"
 19406      484C5F50 
 19406      5F435F50 
 19406      524900
 19407              	.LASF160:
 19408 0979 4F505F53 		.ascii	"OP_SWAP_PRI\000"
 19408      5741505F 
 19408      50524900 
 19409              	.LASF353:
 19410 0985 7573655F 		.ascii	"use_wchar\000"
 19410      77636861 
 19410      7200
 19411              	.LASF317:
 19412 098f 616D785F 		.ascii	"amx_exec_list\000"
 19412      65786563 
 19412      5F6C6973 
 19412      7400
 19413              	.LASF132:
 19414 099d 4F505F53 		.ascii	"OP_SDIV\000"
 19414      44495600 
 19415              	.LASF252:
 19416 09a5 4F505F5A 		.ascii	"OP_ZERO_P_S\000"
 19416      45524F5F 
 19416      505F5300 
 19417              	.LASF237:
 19418 09b1 4F505F50 		.ascii	"OP_PUSHR_P_ADR\000"
 19418      55534852 
 19418      5F505F41 
 19418      445200
 19419              	.LASF259:
 19420 09c0 4F505F4D 		.ascii	"OP_MOVS_P\000"
 19420      4F56535F 
 19420      5000
 19421              	.LASF369:
 19422 09ca 675F6E61 		.ascii	"g_nativetable\000"
 19422      74697665 
 19422      7461626C 
 19422      6500
 19423              	.LASF193:
 19424 09d8 4F505F5A 		.ascii	"OP_ZERO\000"
 19424      45524F00 
 19425              	.LASF343:
 19426 09e0 61727261 		.ascii	"array\000"
 19426      7900
 19427              	.LASF74:
 19428 09e6 414D585F 		.ascii	"AMX_ERR_SLEEP\000"
 19428      4552525F 
 19428      534C4545 
ARM GAS  /tmp/ccSqa4tb.s 			page 353


 19428      5000
 19429              	.LASF275:
 19430 09f4 72656C6F 		.ascii	"reloc_table\000"
 19430      635F7461 
 19430      626C6500 
 19431              	.LASF93:
 19432 0a00 4F505F4C 		.ascii	"OP_LOAD_S_ALT\000"
 19432      4F41445F 
 19432      535F414C 
 19432      5400
 19433              	.LASF16:
 19434 0a0e 696E7470 		.ascii	"intptr_t\000"
 19434      74725F74 
 19434      00
 19435              	.LASF274:
 19436 0a17 636F6D70 		.ascii	"compiled_program\000"
 19436      696C6564 
 19436      5F70726F 
 19436      6772616D 
 19436      00
 19437              	.LASF13:
 19438 0a28 75696E74 		.ascii	"uint16_t\000"
 19438      31365F74 
 19438      00
 19439              	.LASF221:
 19440 0a31 4F505F43 		.ascii	"OP_CONST_P_ALT\000"
 19440      4F4E5354 
 19440      5F505F41 
 19440      4C5400
 19441              	.LASF342:
 19442 0a40 616D785F 		.ascii	"amx_PushArray\000"
 19442      50757368 
 19442      41727261 
 19442      7900
 19443              	.LASF373:
 19444 0a4e 616D785F 		.ascii	"amx_Swap32\000"
 19444      53776170 
 19444      333200
 19445              	.LASF172:
 19446 0a59 4F505F49 		.ascii	"OP_IDXADDR\000"
 19446      44584144 
 19446      445200
 19447              	.LASF209:
 19448 0a64 4F505F4C 		.ascii	"OP_LOAD2\000"
 19448      4F414432 
 19448      00
 19449              	.LASF188:
 19450 0a6d 4F505F53 		.ascii	"OP_SUB_INV\000"
 19450      55425F49 
 19450      4E5600
 19451              	.LASF187:
 19452 0a78 4F505F53 		.ascii	"OP_SDIV_INV\000"
 19452      4449565F 
 19452      494E5600 
 19453              	.LASF287:
 19454 0a84 616D785F 		.ascii	"amx_NumNatives\000"
 19454      4E756D4E 
ARM GAS  /tmp/ccSqa4tb.s 			page 354


 19454      61746976 
 19454      657300
 19455              	.LASF332:
 19456 0a93 5F5F6D6F 		.ascii	"__movs\000"
 19456      767300
 19457              	.LASF227:
 19458 0a9a 4F505F53 		.ascii	"OP_STRB_P_I\000"
 19458      5452425F 
 19458      505F4900 
 19459              	.LASF157:
 19460 0aa6 4F505F42 		.ascii	"OP_BOUNDS\000"
 19460      4F554E44 
 19460      5300
 19461              	.LASF179:
 19462 0ab0 4F505F50 		.ascii	"OP_PUSHR_S\000"
 19462      55534852 
 19462      5F5300
 19463              	.LASF99:
 19464 0abb 4F505F43 		.ascii	"OP_CONST_ALT\000"
 19464      4F4E5354 
 19464      5F414C54 
 19464      00
 19465              	.LASF270:
 19466 0ac8 70617261 		.ascii	"params\000"
 19466      6D7300
 19467              	.LASF293:
 19468 0acf 616D785F 		.ascii	"amx_NumPublics\000"
 19468      4E756D50 
 19468      75626C69 
 19468      637300
 19469              	.LASF81:
 19470 0ade 414D585F 		.ascii	"AMX_ERR_DEBUG\000"
 19470      4552525F 
 19470      44454255 
 19470      4700
 19471              	.LASF147:
 19472 0aec 4F505F49 		.ascii	"OP_INC_PRI\000"
 19472      4E435F50 
 19472      524900
 19473              	.LASF148:
 19474 0af7 4F505F49 		.ascii	"OP_INC_ALT\000"
 19474      4E435F41 
 19474      4C5400
 19475              	.LASF214:
 19476 0b02 4F505F4C 		.ascii	"OP_LOAD_P_ALT\000"
 19476      4F41445F 
 19476      505F414C 
 19476      5400
 19477              	.LASF113:
 19478 0b10 4F505F50 		.ascii	"OP_PUSHR_PRI\000"
 19478      55534852 
 19478      5F505249 
 19478      00
 19479              	.LASF5:
 19480 0b1d 73686F72 		.ascii	"short int\000"
 19480      7420696E 
 19480      7400
ARM GAS  /tmp/ccSqa4tb.s 			page 355


 19481              	.LASF169:
 19482 0b27 4F505F43 		.ascii	"OP_CASETBL_OVL\000"
 19482      41534554 
 19482      424C5F4F 
 19482      564C00
 19483              	.LASF254:
 19484 0b36 4F505F45 		.ascii	"OP_EQ_P_C_ALT\000"
 19484      515F505F 
 19484      435F414C 
 19484      5400
 19485              	.LASF273:
 19486 0b44 616D785F 		.ascii	"amx_InitJIT\000"
 19486      496E6974 
 19486      4A495400 
 19487              	.LASF9:
 19488 0b50 6C6F6E67 		.ascii	"long int\000"
 19488      20696E74 
 19488      00
 19489              	.LASF245:
 19490 0b59 4F505F53 		.ascii	"OP_STACK_P\000"
 19490      5441434B 
 19490      5F5000
 19491              	.LASF333:
 19492 0b64 5F5F636D 		.ascii	"__cmps\000"
 19492      707300
 19493              	.LASF149:
 19494 0b6b 4F505F49 		.ascii	"OP_INC_I\000"
 19494      4E435F49 
 19494      00
 19495              	.LASF285:
 19496 0b74 6C656E67 		.ascii	"length\000"
 19496      746800
 19497              	.LASF25:
 19498 0b7b 6F766572 		.ascii	"overlay\000"
 19498      6C617900 
 19499              	.LASF152:
 19500 0b83 4F505F44 		.ascii	"OP_DEC_I\000"
 19500      45435F49 
 19500      00
 19501              	.LASF35:
 19502 0b8c 636F6465 		.ascii	"codesize\000"
 19502      73697A65 
 19502      00
 19503              	.LASF320:
 19504 0b95 6F706D61 		.ascii	"opmask\000"
 19504      736B00
 19505              	.LASF255:
 19506 0b9c 4F505F49 		.ascii	"OP_INC_P\000"
 19506      4E435F50 
 19506      00
 19507              	.LASF62:
 19508 0ba5 414D585F 		.ascii	"AMX_ERR_NONE\000"
 19508      4552525F 
 19508      4E4F4E45 
 19508      00
 19509              	.LASF198:
 19510 0bb2 4F505F49 		.ascii	"OP_INC_S\000"
ARM GAS  /tmp/ccSqa4tb.s 			page 356


 19510      4E435F53 
 19510      00
 19511              	.LASF185:
 19512 0bbb 4F505F4A 		.ascii	"OP_JSGRTR\000"
 19512      53475254 
 19512      5200
 19513              	.LASF361:
 19514 0bc5 75746638 		.ascii	"utf8_lowmark\000"
 19514      5F6C6F77 
 19514      6D61726B 
 19514      00
 19515              	.LASF177:
 19516 0bd2 4F505F50 		.ascii	"OP_PUSH_ADR\000"
 19516      5553485F 
 19516      41445200 
 19517              	.LASF374:
 19518 0bde 66696E64 		.ascii	"findfunction\000"
 19518      66756E63 
 19518      74696F6E 
 19518      00
 19519              	.LASF57:
 19520 0beb 70756276 		.ascii	"pubvars\000"
 19520      61727300 
 19521              	.LASF153:
 19522 0bf3 4F505F4D 		.ascii	"OP_MOVS\000"
 19522      4F565300 
 19523              	.LASF171:
 19524 0bfb 4F505F4C 		.ascii	"OP_LIDX_B\000"
 19524      4944585F 
 19524      4200
 19525              	.LASF115:
 19526 0c05 4F505F50 		.ascii	"OP_POP_ALT\000"
 19526      4F505F41 
 19526      4C5400
 19527              	.LASF58:
 19528 0c10 74616773 		.ascii	"tags\000"
 19528      00
 19529              	.LASF191:
 19530 0c15 4F505F5A 		.ascii	"OP_ZERO_PRI\000"
 19530      45524F5F 
 19530      50524900 
 19531              	.LASF90:
 19532 0c21 4F505F4C 		.ascii	"OP_LOAD_PRI\000"
 19532      4F41445F 
 19532      50524900 
 19533              	.LASF340:
 19534 0c2d 616D785F 		.ascii	"amx_Allot\000"
 19534      416C6C6F 
 19534      7400
 19535              	.LASF321:
 19536 0c37 73797372 		.ascii	"sysreq_flg\000"
 19536      65715F66 
 19536      6C6700
 19537              	.LASF34:
 19538 0c42 6F766C5F 		.ascii	"ovl_index\000"
 19538      696E6465 
 19538      7800
ARM GAS  /tmp/ccSqa4tb.s 			page 357


 19539              	.LASF297:
 19540 0c4c 616D785F 		.ascii	"amx_NumPubVars\000"
 19540      4E756D50 
 19540      75625661 
 19540      727300
 19541              	.LASF288:
 19542 0c5b 6E756D62 		.ascii	"number\000"
 19542      657200
 19543              	.LASF112:
 19544 0c62 4F505F50 		.ascii	"OP_PUSH_ALT\000"
 19544      5553485F 
 19544      414C5400 
 19545              	.LASF109:
 19546 0c6e 4F505F53 		.ascii	"OP_SCTRL\000"
 19546      4354524C 
 19546      00
 19547              	.LASF41:
 19548 0c77 6E616D65 		.ascii	"name\000"
 19548      00
 19549              	.LASF276:
 19550 0c7c 616D785F 		.ascii	"amx_Cleanup\000"
 19550      436C6561 
 19550      6E757000 
 19551              	.LASF298:
 19552 0c88 616D785F 		.ascii	"amx_GetPubVar\000"
 19552      47657450 
 19552      75625661 
 19552      7200
 19553              	.LASF139:
 19554 0c96 4F505F4E 		.ascii	"OP_NEG\000"
 19554      454700
 19555              	.LASF130:
 19556 0c9d 4F505F53 		.ascii	"OP_SHL_C_ALT\000"
 19556      484C5F43 
 19556      5F414C54 
 19556      00
 19557              	.LASF50:
 19558 0caa 6D616769 		.ascii	"magic\000"
 19558      6300
 19559              	.LASF63:
 19560 0cb0 414D585F 		.ascii	"AMX_ERR_EXIT\000"
 19560      4552525F 
 19560      45584954 
 19560      00
 19561              	.LASF27:
 19562 0cbd 75736572 		.ascii	"usertags\000"
 19562      74616773 
 19562      00
 19563              	.LASF142:
 19564 0cc6 4F505F4E 		.ascii	"OP_NEQ\000"
 19564      455100
 19565              	.LASF60:
 19566 0ccd 6F766572 		.ascii	"overlays\000"
 19566      6C617973 
 19566      00
 19567              	.LASF241:
 19568 0cd6 4F505F50 		.ascii	"OP_PUSHM_P_ADR\000"
ARM GAS  /tmp/ccSqa4tb.s 			page 358


 19568      5553484D 
 19568      5F505F41 
 19568      445200
 19569              	.LASF375:
 19570 0ce5 56657269 		.ascii	"VerifyPcode\000"
 19570      66795063 
 19570      6F646500 
 19571              	.LASF125:
 19572 0cf1 4F505F4A 		.ascii	"OP_JNZ\000"
 19572      4E5A00
 19573              	.LASF119:
 19574 0cf8 4F505F50 		.ascii	"OP_PROC\000"
 19574      524F4300 
 19575              	.LASF10:
 19576 0d00 6C6F6E67 		.ascii	"long unsigned int\000"
 19576      20756E73 
 19576      69676E65 
 19576      6420696E 
 19576      7400
 19577              	.LASF45:
 19578 0d12 61646472 		.ascii	"address\000"
 19578      65737300 
 19579              	.LASF134:
 19580 0d1a 4F505F53 		.ascii	"OP_SUB\000"
 19580      554200
 19581              	.LASF195:
 19582 0d21 4F505F45 		.ascii	"OP_EQ_C_PRI\000"
 19582      515F435F 
 19582      50524900 
 19583              	.LASF344:
 19584 0d2d 6E756D63 		.ascii	"numcells\000"
 19584      656C6C73 
 19584      00
 19585              	.LASF14:
 19586 0d36 696E7433 		.ascii	"int32_t\000"
 19586      325F7400 
 19587              	.LASF84:
 19588 0d3e 414D585F 		.ascii	"AMX_ERR_INIT_JIT\000"
 19588      4552525F 
 19588      494E4954 
 19588      5F4A4954 
 19588      00
 19589              	.LASF163:
 19590 0d4f 4F505F43 		.ascii	"OP_CASETBL\000"
 19590      41534554 
 19590      424C00
 19591              	.LASF271:
 19592 0d5a 616D785F 		.ascii	"amx_Callback\000"
 19592      43616C6C 
 19592      6261636B 
 19592      00
 19593              	.LASF304:
 19594 0d67 616D785F 		.ascii	"amx_FindTagId\000"
 19594      46696E64 
 19594      54616749 
 19594      6400
 19595              	.LASF180:
ARM GAS  /tmp/ccSqa4tb.s 			page 359


 19596 0d75 4F505F50 		.ascii	"OP_PUSHR_ADR\000"
 19596      55534852 
 19596      5F414452 
 19596      00
 19597              	.LASF223:
 19598 0d82 4F505F41 		.ascii	"OP_ADDR_P_ALT\000"
 19598      4444525F 
 19598      505F414C 
 19598      5400
 19599              	.LASF280:
 19600 0d90 64617461 		.ascii	"dataSource\000"
 19600      536F7572 
 19600      636500
 19601              	.LASF212:
 19602 0d9b 4F505F43 		.ascii	"OP_CONST_S\000"
 19602      4F4E5354 
 19602      5F5300
 19603              	.LASF75:
 19604 0da6 414D585F 		.ascii	"AMX_ERR_INVSTATE\000"
 19604      4552525F 
 19604      494E5653 
 19604      54415445 
 19604      00
 19605              	.LASF83:
 19606 0db7 414D585F 		.ascii	"AMX_ERR_USERDATA\000"
 19606      4552525F 
 19606      55534552 
 19606      44415441 
 19606      00
 19607              	.LASF4:
 19608 0dc8 756E7369 		.ascii	"unsigned char\000"
 19608      676E6564 
 19608      20636861 
 19608      7200
 19609              	.LASF44:
 19610 0dd6 74616746 		.ascii	"tagFUNCSTUB\000"
 19610      554E4353 
 19610      54554200 
 19611              	.LASF43:
 19612 0de2 414D585F 		.ascii	"AMX_NATIVE_INFO\000"
 19612      4E415449 
 19612      56455F49 
 19612      4E464F00 
 19613              	.LASF366:
 19614 0df2 616D785F 		.ascii	"amx_UTF8Len\000"
 19614      55544638 
 19614      4C656E00 
 19615              	.LASF289:
 19616 0dfe 616D785F 		.ascii	"amx_GetNative\000"
 19616      4765744E 
 19616      61746976 
 19616      6500
 19617              	.LASF260:
 19618 0e0c 4F505F43 		.ascii	"OP_CMPS_P\000"
 19618      4D50535F 
 19618      5000
 19619              	.LASF124:
ARM GAS  /tmp/ccSqa4tb.s 			page 360


 19620 0e16 4F505F4A 		.ascii	"OP_JZER\000"
 19620      5A455200 
 19621              	.LASF358:
 19622 0e1e 616D785F 		.ascii	"amx_UTF8Get\000"
 19622      55544638 
 19622      47657400 
 19623              	.LASF141:
 19624 0e2a 4F505F45 		.ascii	"OP_EQ\000"
 19624      5100
 19625              	.LASF325:
 19626 0e30 6F666673 		.ascii	"offs\000"
 19626      00
 19627              	.LASF80:
 19628 0e35 414D585F 		.ascii	"AMX_ERR_INDEX\000"
 19628      4552525F 
 19628      494E4445 
 19628      5800
 19629              	.LASF23:
 19630 0e43 63616C6C 		.ascii	"callback\000"
 19630      6261636B 
 19630      00
 19631              	.LASF312:
 19632 0e4c 616D785F 		.ascii	"amx_NativeInfo\000"
 19632      4E617469 
 19632      7665496E 
 19632      666F00
 19633              	.LASF219:
 19634 0e5b 4F505F4C 		.ascii	"OP_LODB_P_I\000"
 19634      4F44425F 
 19634      505F4900 
 19635              	.LASF246:
 19636 0e67 4F505F48 		.ascii	"OP_HEAP_P\000"
 19636      4541505F 
 19636      5000
 19637              	.LASF296:
 19638 0e71 66697273 		.ascii	"first\000"
 19638      7400
 19639              	.LASF295:
 19640 0e77 616D785F 		.ascii	"amx_FindPublic\000"
 19640      46696E64 
 19640      5075626C 
 19640      696300
 19641              	.LASF249:
 19642 0e86 4F505F41 		.ascii	"OP_ADD_P_C\000"
 19642      44445F50 
 19642      5F4300
 19643              	.LASF258:
 19644 0e91 4F505F44 		.ascii	"OP_DEC_P_S\000"
 19644      45435F50 
 19644      5F5300
 19645              	.LASF70:
 19646 0e9c 414D585F 		.ascii	"AMX_ERR_HEAPLOW\000"
 19646      4552525F 
 19646      48454150 
 19646      4C4F5700 
 19647              	.LASF3:
 19648 0eac 7369676E 		.ascii	"signed char\000"
ARM GAS  /tmp/ccSqa4tb.s 			page 361


 19648      65642063 
 19648      68617200 
 19649              	.LASF97:
 19650 0eb8 4F505F4C 		.ascii	"OP_LODB_I\000"
 19650      4F44425F 
 19650      4900
 19651              	.LASF6:
 19652 0ec2 73686F72 		.ascii	"short unsigned int\000"
 19652      7420756E 
 19652      7369676E 
 19652      65642069 
 19652      6E7400
 19653              	.LASF88:
 19654 0ed5 414D585F 		.ascii	"AMX_ERR_OVERLAY\000"
 19654      4552525F 
 19654      4F564552 
 19654      4C415900 
 19655              	.LASF300:
 19656 0ee5 616D785F 		.ascii	"amx_NumTags\000"
 19656      4E756D54 
 19656      61677300 
 19657              	.LASF310:
 19658 0ef1 6E756D6E 		.ascii	"numnatives\000"
 19658      61746976 
 19658      657300
 19659              	.LASF53:
 19660 0efc 64656673 		.ascii	"defsize\000"
 19660      697A6500 
 19661              	.LASF231:
 19662 0f04 4F505F50 		.ascii	"OP_PUSH_P_C\000"
 19662      5553485F 
 19662      505F4300 
 19663              	.LASF65:
 19664 0f10 414D585F 		.ascii	"AMX_ERR_STACKERR\000"
 19664      4552525F 
 19664      53544143 
 19664      4B455252 
 19664      00
 19665              	.LASF48:
 19666 0f21 74616741 		.ascii	"tagAMX_HEADER\000"
 19666      4D585F48 
 19666      45414445 
 19666      5200
 19667              	.LASF18:
 19668 0f2f 63656C6C 		.ascii	"cell\000"
 19668      00
 19669              	.LASF265:
 19670 0f34 4F50434F 		.ascii	"OPCODE\000"
 19670      444500
 19671              	.LASF244:
 19672 0f3b 4F505F50 		.ascii	"OP_PUSHRM_P_ADR\000"
 19672      55534852 
 19672      4D5F505F 
 19672      41445200 
 19673              	.LASF208:
 19674 0f4b 4F505F50 		.ascii	"OP_PUSHRM_ADR\000"
 19674      55534852 
ARM GAS  /tmp/ccSqa4tb.s 			page 362


 19674      4D5F4144 
 19674      5200
 19675              	.LASF336:
 19676 0f59 63707472 		.ascii	"cptr\000"
 19676      00
 19677              	.LASF126:
 19678 0f5e 4F505F53 		.ascii	"OP_SHL\000"
 19678      484C00
 19679              	.LASF211:
 19680 0f65 4F505F43 		.ascii	"OP_CONST\000"
 19680      4F4E5354 
 19680      00
 19681              	.LASF326:
 19682 0f6e 616D785F 		.ascii	"amx_Init\000"
 19682      496E6974 
 19682      00
 19683              	.LASF127:
 19684 0f77 4F505F53 		.ascii	"OP_SHR\000"
 19684      485200
 19685              	.LASF92:
 19686 0f7e 4F505F4C 		.ascii	"OP_LOAD_S_PRI\000"
 19686      4F41445F 
 19686      535F5052 
 19686      4900
 19687              	.LASF315:
 19688 0f8c 616D785F 		.ascii	"amx_PushAddress\000"
 19688      50757368 
 19688      41646472 
 19688      65737300 
 19689              	.LASF220:
 19690 0f9c 4F505F43 		.ascii	"OP_CONST_P_PRI\000"
 19690      4F4E5354 
 19690      5F505F50 
 19690      524900
 19691              	.LASF33:
 19692 0fab 73797372 		.ascii	"sysreq_d\000"
 19692      65715F64 
 19692      00
 19693              	.LASF322:
 19694 0fb4 6D61785F 		.ascii	"max_opcode\000"
 19694      6F70636F 
 19694      646500
 19695              	.LASF261:
 19696 0fbf 4F505F46 		.ascii	"OP_FILL_P\000"
 19696      494C4C5F 
 19696      5000
 19697              	.LASF349:
 19698 0fc9 616D785F 		.ascii	"amx_SetString\000"
 19698      53657453 
 19698      7472696E 
 19698      6700
 19699              	.LASF96:
 19700 0fd7 4F505F4C 		.ascii	"OP_LOAD_I\000"
 19700      4F41445F 
 19700      4900
 19701              	.LASF350:
 19702 0fe1 64657374 		.ascii	"dest\000"
ARM GAS  /tmp/ccSqa4tb.s 			page 363


 19702      00
 19703              	.LASF257:
 19704 0fe6 4F505F44 		.ascii	"OP_DEC_P\000"
 19704      45435F50 
 19704      00
 19705              	.LASF98:
 19706 0fef 4F505F43 		.ascii	"OP_CONST_PRI\000"
 19706      4F4E5354 
 19706      5F505249 
 19706      00
 19707              	.LASF356:
 19708 0ffc 7763736C 		.ascii	"wcslen\000"
 19708      656E00
 19709              	.LASF110:
 19710 1003 4F505F58 		.ascii	"OP_XCHG\000"
 19710      43484700 
 19711              	.LASF294:
 19712 100b 616D785F 		.ascii	"amx_GetPublic\000"
 19712      47657450 
 19712      75626C69 
 19712      6300
 19713              		.ident	"GCC: (Sourcery G++ Lite 2011.03-42) 4.5.2"
ARM GAS  /tmp/ccSqa4tb.s 			page 364


DEFINED SYMBOLS
                            *ABS*:00000000 amx.c
     /tmp/ccSqa4tb.s:24     .text.amx_Callback:00000000 $t
     /tmp/ccSqa4tb.s:29     .text.amx_Callback:00000000 amx_Callback
     /tmp/ccSqa4tb.s:115    .text.amx_Callback:0000005c $d
     /tmp/ccSqa4tb.s:120    .text.amx_Swap32:00000000 $t
     /tmp/ccSqa4tb.s:125    .text.amx_Swap32:00000000 amx_Swap32
     /tmp/ccSqa4tb.s:157    .text.amx_Align16:00000000 $t
     /tmp/ccSqa4tb.s:162    .text.amx_Align16:00000000 amx_Align16
     /tmp/ccSqa4tb.s:176    .text.amx_Align32:00000000 $t
     /tmp/ccSqa4tb.s:181    .text.amx_Align32:00000000 amx_Align32
     /tmp/ccSqa4tb.s:195    .text.amx_Flags:00000000 $t
     /tmp/ccSqa4tb.s:200    .text.amx_Flags:00000000 amx_Flags
     /tmp/ccSqa4tb.s:258    .text.amx_InitJIT:00000000 $t
     /tmp/ccSqa4tb.s:263    .text.amx_InitJIT:00000000 amx_InitJIT
     /tmp/ccSqa4tb.s:279    .text.amx_Cleanup:00000000 $t
     /tmp/ccSqa4tb.s:284    .text.amx_Cleanup:00000000 amx_Cleanup
     /tmp/ccSqa4tb.s:300    .text.amx_Clone:00000000 $t
     /tmp/ccSqa4tb.s:305    .text.amx_Clone:00000000 amx_Clone
     /tmp/ccSqa4tb.s:444    .text.amx_MemInfo:00000000 $t
     /tmp/ccSqa4tb.s:449    .text.amx_MemInfo:00000000 amx_MemInfo
     /tmp/ccSqa4tb.s:531    .text.amx_NameLength:00000000 $t
     /tmp/ccSqa4tb.s:536    .text.amx_NameLength:00000000 amx_NameLength
     /tmp/ccSqa4tb.s:562    .text.amx_NumNatives:00000000 $t
     /tmp/ccSqa4tb.s:567    .text.amx_NumNatives:00000000 amx_NumNatives
     /tmp/ccSqa4tb.s:594    .text.amx_GetNative:00000000 $t
     /tmp/ccSqa4tb.s:599    .text.amx_GetNative:00000000 amx_GetNative
     /tmp/ccSqa4tb.s:647    .text.amx_FindNative:00000000 $t
     /tmp/ccSqa4tb.s:652    .text.amx_FindNative:00000000 amx_FindNative
     /tmp/ccSqa4tb.s:724    .text.amx_NumPublics:00000000 $t
     /tmp/ccSqa4tb.s:729    .text.amx_NumPublics:00000000 amx_NumPublics
     /tmp/ccSqa4tb.s:756    .text.amx_GetPublic:00000000 $t
     /tmp/ccSqa4tb.s:761    .text.amx_GetPublic:00000000 amx_GetPublic
     /tmp/ccSqa4tb.s:827    .text.amx_FindPublic:00000000 $t
     /tmp/ccSqa4tb.s:832    .text.amx_FindPublic:00000000 amx_FindPublic
     /tmp/ccSqa4tb.s:930    .text.amx_NumPubVars:00000000 $t
     /tmp/ccSqa4tb.s:935    .text.amx_NumPubVars:00000000 amx_NumPubVars
     /tmp/ccSqa4tb.s:962    .text.amx_GetPubVar:00000000 $t
     /tmp/ccSqa4tb.s:967    .text.amx_GetPubVar:00000000 amx_GetPubVar
     /tmp/ccSqa4tb.s:1039   .text.amx_FindPubVar:00000000 $t
     /tmp/ccSqa4tb.s:1044   .text.amx_FindPubVar:00000000 amx_FindPubVar
     /tmp/ccSqa4tb.s:1135   .text.amx_NumTags:00000000 $t
     /tmp/ccSqa4tb.s:1140   .text.amx_NumTags:00000000 amx_NumTags
     /tmp/ccSqa4tb.s:1196   .text.amx_GetTag:00000000 $t
     /tmp/ccSqa4tb.s:1201   .text.amx_GetTag:00000000 amx_GetTag
     /tmp/ccSqa4tb.s:1291   .text.amx_FindTagId:00000000 $t
     /tmp/ccSqa4tb.s:1296   .text.amx_FindTagId:00000000 amx_FindTagId
     /tmp/ccSqa4tb.s:1387   .text.amx_GetUserData:00000000 $t
     /tmp/ccSqa4tb.s:1392   .text.amx_GetUserData:00000000 amx_GetUserData
     /tmp/ccSqa4tb.s:1447   .text.amx_SetUserData:00000000 $t
     /tmp/ccSqa4tb.s:1452   .text.amx_SetUserData:00000000 amx_SetUserData
     /tmp/ccSqa4tb.s:1521   .text.amx_Register:00000000 $t
     /tmp/ccSqa4tb.s:1526   .text.amx_Register:00000000 amx_Register
     /tmp/ccSqa4tb.s:1687   .text.amx_NativeInfo:00000000 $t
     /tmp/ccSqa4tb.s:1692   .text.amx_NativeInfo:00000000 amx_NativeInfo
     /tmp/ccSqa4tb.s:1712   .text.amx_NativeInfo:0000000c $d
     /tmp/ccSqa4tb.s:1717   .text.amx_Push:00000000 $t
ARM GAS  /tmp/ccSqa4tb.s 			page 365


     /tmp/ccSqa4tb.s:1722   .text.amx_Push:00000000 amx_Push
     /tmp/ccSqa4tb.s:1780   .text.amx_PushAddress:00000000 $t
     /tmp/ccSqa4tb.s:1785   .text.amx_PushAddress:00000000 amx_PushAddress
     /tmp/ccSqa4tb.s:1826   .text.amx_exec_list:00000000 $t
     /tmp/ccSqa4tb.s:1831   .text.amx_exec_list:00000000 amx_exec_list
     /tmp/ccSqa4tb.s:1854   .text.VerifyPcode:00000000 $t
     /tmp/ccSqa4tb.s:1858   .text.VerifyPcode:00000000 VerifyPcode
     /tmp/ccSqa4tb.s:1961   .text.VerifyPcode:00000070 $d
     /tmp/ccSqa4tb.s:2139   .text.VerifyPcode:000001ce $t
     /tmp/ccSqa4tb.s:2457   .text.amx_Init:00000000 $t
     /tmp/ccSqa4tb.s:2462   .text.amx_Init:00000000 amx_Init
     /tmp/ccSqa4tb.s:2662   .text.amx_Init:000000e4 $d
     /tmp/ccSqa4tb.s:2667   .text.amx_Exec:00000000 $t
     /tmp/ccSqa4tb.s:2672   .text.amx_Exec:00000000 amx_Exec
     /tmp/ccSqa4tb.s:2977   .text.amx_Exec:000001a4 $d
     /tmp/ccSqa4tb.s:3154   .text.amx_Exec:00000460 $t
     /tmp/ccSqa4tb.s:3488   .text.amx_Exec:000005bc $d
     /tmp/ccSqa4tb.s:3553   .text.amx_Exec:0000060c $d
     /tmp/ccSqa4tb.s:3560   .text.amx_Exec:00000620 $t
     /tmp/ccSqa4tb.s:6249   .text.amx_SetCallback:00000000 $t
     /tmp/ccSqa4tb.s:6254   .text.amx_SetCallback:00000000 amx_SetCallback
     /tmp/ccSqa4tb.s:6272   .text.amx_SetDebugHook:00000000 $t
     /tmp/ccSqa4tb.s:6277   .text.amx_SetDebugHook:00000000 amx_SetDebugHook
     /tmp/ccSqa4tb.s:6295   .text.amx_RaiseError:00000000 $t
     /tmp/ccSqa4tb.s:6300   .text.amx_RaiseError:00000000 amx_RaiseError
     /tmp/ccSqa4tb.s:6318   .text.amx_Allot:00000000 $t
     /tmp/ccSqa4tb.s:6323   .text.amx_Allot:00000000 amx_Allot
     /tmp/ccSqa4tb.s:6383   .text.amx_PushArray:00000000 $t
     /tmp/ccSqa4tb.s:6388   .text.amx_PushArray:00000000 amx_PushArray
     /tmp/ccSqa4tb.s:6444   .text.amx_Release:00000000 $t
     /tmp/ccSqa4tb.s:6449   .text.amx_Release:00000000 amx_Release
     /tmp/ccSqa4tb.s:6488   .text.amx_StrLen:00000000 $t
     /tmp/ccSqa4tb.s:6493   .text.amx_StrLen:00000000 amx_StrLen
     /tmp/ccSqa4tb.s:6572   .text.amx_SetString:00000000 $t
     /tmp/ccSqa4tb.s:6577   .text.amx_SetString:00000000 amx_SetString
     /tmp/ccSqa4tb.s:6741   .text.amx_SetString:000000b4 $d
     /tmp/ccSqa4tb.s:6747   .text.amx_PushString:00000000 $t
     /tmp/ccSqa4tb.s:6752   .text.amx_PushString:00000000 amx_PushString
     /tmp/ccSqa4tb.s:6840   .text.amx_GetString:00000000 $t
     /tmp/ccSqa4tb.s:6845   .text.amx_GetString:00000000 amx_GetString
     /tmp/ccSqa4tb.s:6985   .text.amx_UTF8Get:00000000 $t
     /tmp/ccSqa4tb.s:6990   .text.amx_UTF8Get:00000000 amx_UTF8Get
     /tmp/ccSqa4tb.s:7043   .text.amx_UTF8Get:0000003c $d
     /tmp/ccSqa4tb.s:7171   .text.amx_UTF8Get:000000dc $d
     /tmp/ccSqa4tb.s:7177   .text.amx_UTF8Put:00000000 $t
     /tmp/ccSqa4tb.s:7182   .text.amx_UTF8Put:00000000 amx_UTF8Put
     /tmp/ccSqa4tb.s:7424   .text.amx_UTF8Check:00000000 $t
     /tmp/ccSqa4tb.s:7429   .text.amx_UTF8Check:00000000 amx_UTF8Check
     /tmp/ccSqa4tb.s:7484   .text.amx_UTF8Len:00000000 $t
     /tmp/ccSqa4tb.s:7489   .text.amx_UTF8Len:00000000 amx_UTF8Len
     /tmp/ccSqa4tb.s:7569   .bss.n.6308:00000000 n.6308
     /tmp/ccSqa4tb.s:7570   .bss.n.6308:00000000 $d
     /tmp/ccSqa4tb.s:7575   .rodata.utf8_count.6724:00000000 utf8_count.6724
     /tmp/ccSqa4tb.s:7593   .rodata.utf8_lowmark.6725:00000000 $d
     /tmp/ccSqa4tb.s:7597   .rodata.utf8_lowmark.6725:00000000 utf8_lowmark.6725
                     .debug_frame:00000010 $d
     /tmp/ccSqa4tb.s:3495   .text.amx_Exec:000005c3 $d
ARM GAS  /tmp/ccSqa4tb.s 			page 366


     /tmp/ccSqa4tb.s:3495   .text.amx_Exec:000005c4 $t
     /tmp/ccSqa4tb.s:7048   .text.amx_UTF8Get:00000041 $d
     /tmp/ccSqa4tb.s:7048   .text.amx_UTF8Get:00000042 $t

UNDEFINED SYMBOLS
g_nativetable
memcpy
strcpy
strcmp
memcmp
strlen
wcslen
