ARM GAS  /tmp/ccSqa4tb.s 			page 1


   1              		.syntax unified
   2              		.cpu cortex-m3
   3              		.fpu softvfp
   4              		.eabi_attribute 20, 1
   5              		.eabi_attribute 21, 1
   6              		.eabi_attribute 23, 3
   7              		.eabi_attribute 24, 1
   8              		.eabi_attribute 25, 1
   9              		.eabi_attribute 26, 1
  10              		.eabi_attribute 30, 4
  11              		.eabi_attribute 18, 4
  12              		.thumb
  13              		.file	"amx.c"
  20 0000 2B0F0000 		.text
  20      02000A01 
  20      00000201 
  20      FB0E0D00 
  20      01010101 
  21              	.Ltext0:
  22              		.cfi_sections	.debug_frame
  23              		.section	.text.amx_Callback,"ax",%progbits
  24              		.align	1
  25              		.global	amx_Callback
  26              		.thumb
  27              		.thumb_func
  28              		.type	amx_Callback, %function
  29              	amx_Callback:
  30              	.LFB4:
  31              		.file 1 "pawn/amx.c"
  32              		.loc 1 522 0
  33              		.cfi_startproc
  34              		@ args = 0, pretend = 0, frame = 0
  35              		@ frame_needed = 0, uses_anonymous_args = 0
  36              	.LVL0:
  37 0000 70B5     		push	{r4, r5, r6, lr}
  38              	.LCFI0:
  39              		.cfi_def_cfa_offset 16
  40              		.loc 1 536 0
  41 0002 0029     		cmp	r1, #0
  42              		.loc 1 522 0
  43 0004 1546     		mov	r5, r2
  44              		.cfi_offset 14, -4
  45              		.cfi_offset 6, -8
  46              		.cfi_offset 5, -12
  47              		.cfi_offset 4, -16
  48 0006 0446     		mov	r4, r0
  49              		.loc 1 531 0
  50 0008 0268     		ldr	r2, [r0, #0]	@ unaligned
  51              	.LVL1:
  52              		.loc 1 536 0
  53 000a 04DA     		bge	.L2
ARM GAS  /tmp/ccSqa4tb.s 			page 2


  54              		.loc 1 538 0
  55 000c 1348     		ldr	r0, .L6
  56              	.LVL2:
  57 000e C943     		mvns	r1, r1
  58              	.LVL3:
  59 0010 50F82120 		ldr	r2, [r0, r1, lsl #2]
  60              	.LVL4:
  61 0014 05E0     		b	.L3
  62              	.LVL5:
  63              	.L2:
  64              		.loc 1 542 0
  65 0016 B2F90A60 		ldrsh	r6, [r2, #10]	@ unaligned
  66 001a 506A     		ldr	r0, [r2, #36]	@ unaligned
  67              		.loc 1 543 0
  68 001c 06FB0122 		mla	r2, r6, r1, r2
  69              	.LVL6:
  70 0020 1258     		ldr	r2, [r2, r0]	@ unaligned
  71              	.LVL7:
  72              	.L3:
  73              		.loc 1 556 0
  74 0022 E06E     		ldr	r0, [r4, #108]	@ unaligned
  75 0024 58B1     		cbz	r0, .L4
  76              	.LBB7:
  77              		.loc 1 560 0
  78 0026 A169     		ldr	r1, [r4, #24]	@ unaligned
  79 0028 6668     		ldr	r6, [r4, #4]	@ unaligned
  80 002a 0439     		subs	r1, r1, #4
  81 002c 7118     		adds	r1, r6, r1
  82              	.LVL8:
  83              		.loc 1 561 0
  84 002e 266B     		ldr	r6, [r4, #48]	@ unaligned
  85 0030 16F4006F 		tst	r6, #2048
  86              		.loc 1 562 0
  87 0034 18BF     		it	ne
  88 0036 0439     		subne	r1, r1, #4
  89              	.LVL9:
  90              		.loc 1 571 0
  91 0038 41F8040C 		str	r0, [r1, #-4]
  92              		.loc 1 572 0
  93 003c 0A60     		str	r2, [r1, #0]
  94              	.LVL10:
  95              	.L4:
  96              	.LBE7:
  97              		.loc 1 581 0
  98 003e 0021     		movs	r1, #0
  99 0040 84F85410 		strb	r1, [r4, #84]
 100 0044 84F85510 		strb	r1, [r4, #85]
 101 0048 84F85610 		strb	r1, [r4, #86]
 102 004c 84F85710 		strb	r1, [r4, #87]
 103              		.loc 1 582 0
 104 0050 2046     		mov	r0, r4
 105 0052 1946     		mov	r1, r3
 106 0054 9047     		blx	r2
 107              	.LVL11:
 108 0056 2860     		str	r0, [r5, #0]
 109              		.loc 1 584 0
 110 0058 606D     		ldr	r0, [r4, #84]	@ unaligned
ARM GAS  /tmp/ccSqa4tb.s 			page 3


 111 005a 70BD     		pop	{r4, r5, r6, pc}
 112              	.L7:
 113              		.align	2
 114              	.L6:
 115 005c 00000000 		.word	g_nativetable
 116              		.cfi_endproc
 117              	.LFE4:
 118              		.size	amx_Callback, .-amx_Callback
 119              		.section	.text.amx_Swap32,"ax",%progbits
 120              		.align	1
 121              		.global	amx_Swap32
 122              		.thumb
 123              		.thumb_func
 124              		.type	amx_Swap32, %function
 125              	amx_Swap32:
 126              	.LFB0:
 127              		.loc 1 426 0
 128              		.cfi_startproc
 129              		@ args = 0, pretend = 0, frame = 0
 130              		@ frame_needed = 0, uses_anonymous_args = 0
 131              		@ link register save eliminated.
 132              	.LVL12:
 133              		.loc 1 432 0
 134 0000 0378     		ldrb	r3, [r0, #0]	@ zero_extendqisi2
 135              	.LVL13:
 136              		.loc 1 433 0
 137 0002 C278     		ldrb	r2, [r0, #3]	@ zero_extendqisi2
 138              		.loc 1 434 0
 139 0004 C370     		strb	r3, [r0, #3]
 140              		.loc 1 433 0
 141 0006 0270     		strb	r2, [r0, #0]
 142              		.loc 1 436 0
 143 0008 4378     		ldrb	r3, [r0, #1]	@ zero_extendqisi2
 144              	.LVL14:
 145              		.loc 1 437 0
 146 000a 8278     		ldrb	r2, [r0, #2]	@ zero_extendqisi2
 147              		.loc 1 438 0
 148 000c 8370     		strb	r3, [r0, #2]
 149              		.loc 1 437 0
 150 000e 4270     		strb	r2, [r0, #1]
 151              		.loc 1 439 0
 152 0010 7047     		bx	lr
 153              		.cfi_endproc
 154              	.LFE0:
 155              		.size	amx_Swap32, .-amx_Swap32
 156              		.section	.text.amx_Align16,"ax",%progbits
 157              		.align	1
 158              		.global	amx_Align16
 159              		.thumb
 160              		.thumb_func
 161              		.type	amx_Align16, %function
 162              	amx_Align16:
 163              	.LFB1:
 164              		.loc 1 470 0
 165              		.cfi_startproc
 166              		@ args = 0, pretend = 0, frame = 0
 167              		@ frame_needed = 0, uses_anonymous_args = 0
ARM GAS  /tmp/ccSqa4tb.s 			page 4


 168              		@ link register save eliminated.
 169              	.LVL15:
 170              		.loc 1 477 0
 171 0000 7047     		bx	lr
 172              		.cfi_endproc
 173              	.LFE1:
 174              		.size	amx_Align16, .-amx_Align16
 175              		.section	.text.amx_Align32,"ax",%progbits
 176              		.align	1
 177              		.global	amx_Align32
 178              		.thumb
 179              		.thumb_func
 180              		.type	amx_Align32, %function
 181              	amx_Align32:
 182              	.LFB2:
 183              		.loc 1 480 0
 184              		.cfi_startproc
 185              		@ args = 0, pretend = 0, frame = 0
 186              		@ frame_needed = 0, uses_anonymous_args = 0
 187              		@ link register save eliminated.
 188              	.LVL16:
 189              		.loc 1 487 0
 190 0000 7047     		bx	lr
 191              		.cfi_endproc
 192              	.LFE2:
 193              		.size	amx_Align32, .-amx_Align32
 194              		.section	.text.amx_Flags,"ax",%progbits
 195              		.align	1
 196              		.global	amx_Flags
 197              		.thumb
 198              		.thumb_func
 199              		.type	amx_Flags, %function
 200              	amx_Flags:
 201              	.LFB3:
 202              		.loc 1 504 0
 203              		.cfi_startproc
 204              		@ args = 0, pretend = 0, frame = 0
 205              		@ frame_needed = 0, uses_anonymous_args = 0
 206              		@ link register save eliminated.
 207              	.LVL17:
 208              		.loc 1 507 0
 209 0000 0023     		movs	r3, #0
 210 0002 0B80     		strh	r3, [r1, #0]	@ movhi
 211              		.loc 1 508 0
 212 0004 90B1     		cbz	r0, .L14
 213              		.loc 1 510 0
 214 0006 0368     		ldr	r3, [r0, #0]	@ unaligned
 215              	.LVL18:
 216              		.loc 1 511 0
 217 0008 4FF2E012 		movw	r2, #61920
 218 000c 9888     		ldrh	r0, [r3, #4]	@ unaligned
 219              	.LVL19:
 220 000e 9042     		cmp	r0, r2
 221 0010 0CD1     		bne	.L14
 222              		.loc 1 513 0
 223 0012 9A79     		ldrb	r2, [r3, #6]	@ zero_extendqisi2
 224 0014 0B2A     		cmp	r2, #11
ARM GAS  /tmp/ccSqa4tb.s 			page 5


 225 0016 0BD8     		bhi	.L15
 226              		.loc 1 513 0 is_stmt 0 discriminator 1
 227 0018 DA79     		ldrb	r2, [r3, #7]	@ zero_extendqisi2
 228 001a 0A2A     		cmp	r2, #10
 229 001c 0AD9     		bls	.L16
 230              		.loc 1 515 0 is_stmt 1
 231 001e 1A7A     		ldrb	r2, [r3, #8]	@ zero_extendqisi2
 232 0020 5B7A     		ldrb	r3, [r3, #9]	@ zero_extendqisi2
 233              	.LVL20:
 234              		.loc 1 516 0
 235 0022 0020     		movs	r0, #0
 236              		.loc 1 515 0
 237 0024 42EA0323 		orr	r3, r2, r3, lsl #8
 238 0028 0B80     		strh	r3, [r1, #0]	@ movhi
 239              		.loc 1 516 0
 240 002a 7047     		bx	lr
 241              	.L14:
 242              		.loc 1 512 0
 243 002c 1120     		movs	r0, #17
 244 002e 7047     		bx	lr
 245              	.LVL21:
 246              	.L15:
 247              		.loc 1 514 0
 248 0030 1220     		movs	r0, #18
 249 0032 7047     		bx	lr
 250              	.L16:
 251 0034 1220     		movs	r0, #18
 252              		.loc 1 517 0
 253 0036 7047     		bx	lr
 254              		.cfi_endproc
 255              	.LFE3:
 256              		.size	amx_Flags, .-amx_Flags
 257              		.section	.text.amx_InitJIT,"ax",%progbits
 258              		.align	1
 259              		.global	amx_InitJIT
 260              		.thumb
 261              		.thumb_func
 262              		.type	amx_InitJIT, %function
 263              	amx_InitJIT:
 264              	.LFB7:
 265              		.loc 1 1427 0
 266              		.cfi_startproc
 267              		@ args = 0, pretend = 0, frame = 0
 268              		@ frame_needed = 0, uses_anonymous_args = 0
 269              		@ link register save eliminated.
 270              	.LVL22:
 271              		.loc 1 1432 0
 272 0000 1820     		movs	r0, #24
 273              	.LVL23:
 274 0002 7047     		bx	lr
 275              		.cfi_endproc
 276              	.LFE7:
 277              		.size	amx_InitJIT, .-amx_InitJIT
 278              		.section	.text.amx_Cleanup,"ax",%progbits
 279              		.align	1
 280              		.global	amx_Cleanup
 281              		.thumb
ARM GAS  /tmp/ccSqa4tb.s 			page 6


 282              		.thumb_func
 283              		.type	amx_Cleanup, %function
 284              	amx_Cleanup:
 285              	.LFB8:
 286              		.loc 1 1440 0
 287              		.cfi_startproc
 288              		@ args = 0, pretend = 0, frame = 0
 289              		@ frame_needed = 0, uses_anonymous_args = 0
 290              		@ link register save eliminated.
 291              	.LVL24:
 292              		.loc 1 1478 0
 293 0000 0020     		movs	r0, #0
 294              	.LVL25:
 295 0002 7047     		bx	lr
 296              		.cfi_endproc
 297              	.LFE8:
 298              		.size	amx_Cleanup, .-amx_Cleanup
 299              		.section	.text.amx_Clone,"ax",%progbits
 300              		.align	1
 301              		.global	amx_Clone
 302              		.thumb
 303              		.thumb_func
 304              		.type	amx_Clone, %function
 305              	amx_Clone:
 306              	.LFB9:
 307              		.loc 1 1483 0
 308              		.cfi_startproc
 309              		@ args = 0, pretend = 0, frame = 0
 310              		@ frame_needed = 0, uses_anonymous_args = 0
 311              	.LVL26:
 312 0000 70B5     		push	{r4, r5, r6, lr}
 313              	.LCFI1:
 314              		.cfi_def_cfa_offset 16
 315              		.loc 1 1487 0
 316 0002 0B46     		mov	r3, r1
 317              		.loc 1 1483 0
 318 0004 0446     		mov	r4, r0
 319              		.cfi_offset 14, -4
 320              		.cfi_offset 6, -8
 321              		.cfi_offset 5, -12
 322              		.cfi_offset 4, -16
 323 0006 1046     		mov	r0, r2
 324              	.LVL27:
 325              		.loc 1 1487 0
 326 0008 0029     		cmp	r1, #0
 327 000a 39D0     		beq	.L27
 328              	.LVL28:
 329              		.loc 1 1489 0
 330 000c 002C     		cmp	r4, #0
 331 000e 33D0     		beq	.L25
 332              		.loc 1 1491 0
 333 0010 0D6B     		ldr	r5, [r1, #48]	@ unaligned
 334 0012 15F4004F 		tst	r5, #32768
 335 0016 31D0     		beq	.L26
 336              		.loc 1 1493 0
 337 0018 0968     		ldr	r1, [r1, #0]	@ unaligned
 338              	.LVL29:
ARM GAS  /tmp/ccSqa4tb.s 			page 7


 339              		.loc 1 1494 0
 340 001a 4FF2E012 		movw	r2, #61920
 341 001e 8E88     		ldrh	r6, [r1, #4]	@ unaligned
 342 0020 9642     		cmp	r6, r2
 343 0022 2DD1     		bne	.L27
 344              		.loc 1 1496 0
 345 0024 8A79     		ldrb	r2, [r1, #6]	@ zero_extendqisi2
 346 0026 0B2A     		cmp	r2, #11
 347 0028 2CD8     		bhi	.L28
 348              		.loc 1 1496 0 is_stmt 0 discriminator 1
 349 002a CA79     		ldrb	r2, [r1, #7]	@ zero_extendqisi2
 350 002c 0A2A     		cmp	r2, #10
 351 002e 2BD9     		bls	.L29
 352              		.loc 1 1500 0 is_stmt 1
 353 0030 2160     		str	r1, [r4, #0]	@ unaligned
 354              		.loc 1 1501 0
 355 0032 5A68     		ldr	r2, [r3, #4]	@ unaligned
 356 0034 6260     		str	r2, [r4, #4]	@ unaligned
 357              		.loc 1 1502 0
 358 0036 5A6F     		ldr	r2, [r3, #116]	@ unaligned
 359 0038 6267     		str	r2, [r4, #116]	@ unaligned
 360              		.loc 1 1503 0
 361 003a 0E69     		ldr	r6, [r1, #16]	@ unaligned
 362 003c 4A69     		ldr	r2, [r1, #20]	@ unaligned
 363 003e 921B     		subs	r2, r2, r6
 364 0040 6262     		str	r2, [r4, #36]	@ unaligned
 365              		.loc 1 1504 0
 366 0042 8969     		ldr	r1, [r1, #24]	@ unaligned
 367              	.LVL30:
 368              		.loc 1 1505 0
 369 0044 2262     		str	r2, [r4, #32]	@ unaligned
 370              		.loc 1 1504 0
 371 0046 891B     		subs	r1, r1, r6
 372 0048 0439     		subs	r1, r1, #4
 373 004a E162     		str	r1, [r4, #44]	@ unaligned
 374              		.loc 1 1506 0
 375 004c A162     		str	r1, [r4, #40]	@ unaligned
 376              		.loc 1 1507 0
 377 004e E168     		ldr	r1, [r4, #12]	@ unaligned
 378 0050 09B9     		cbnz	r1, .L21
 379              		.loc 1 1508 0
 380 0052 D968     		ldr	r1, [r3, #12]	@ unaligned
 381 0054 E160     		str	r1, [r4, #12]	@ unaligned
 382              	.L21:
 383              		.loc 1 1509 0
 384 0056 2169     		ldr	r1, [r4, #16]	@ unaligned
 385 0058 09B9     		cbnz	r1, .L22
 386              		.loc 1 1510 0
 387 005a 1969     		ldr	r1, [r3, #16]	@ unaligned
 388 005c 2161     		str	r1, [r4, #16]	@ unaligned
 389              	.L22:
 390              		.loc 1 1511 0
 391 005e 2563     		str	r5, [r4, #48]	@ unaligned
 392              		.loc 1 1515 0
 393 0060 A060     		str	r0, [r4, #8]	@ unaligned
 394              		.loc 1 1516 0
 395 0062 9968     		ldr	r1, [r3, #8]	@ unaligned
ARM GAS  /tmp/ccSqa4tb.s 			page 8


 396 0064 09B9     		cbnz	r1, .L23
 397              		.loc 1 1516 0 is_stmt 0 discriminator 2
 398 0066 1968     		ldr	r1, [r3, #0]	@ unaligned
 399 0068 8919     		adds	r1, r1, r6
 400              	.L23:
 401              	.LVL31:
 402              		.loc 1 1517 0 is_stmt 1 discriminator 3
 403 006a FFF7FEFF 		bl	memcpy
 404              	.LVL32:
 405              		.loc 1 1522 0 discriminator 3
 406 006e A268     		ldr	r2, [r4, #8]	@ unaligned
 407 0070 E36A     		ldr	r3, [r4, #44]	@ unaligned
 408 0072 0020     		movs	r0, #0
 409 0074 D050     		str	r0, [r2, r3]
 410              		.loc 1 1524 0 discriminator 3
 411 0076 70BD     		pop	{r4, r5, r6, pc}
 412              	.LVL33:
 413              	.L25:
 414              		.loc 1 1490 0
 415 0078 1920     		movs	r0, #25
 416              	.LVL34:
 417 007a 70BD     		pop	{r4, r5, r6, pc}
 418              	.L26:
 419              		.loc 1 1492 0
 420 007c 1620     		movs	r0, #22
 421 007e 70BD     		pop	{r4, r5, r6, pc}
 422              	.LVL35:
 423              	.L27:
 424              		.loc 1 1495 0
 425 0080 1120     		movs	r0, #17
 426              	.LVL36:
 427 0082 70BD     		pop	{r4, r5, r6, pc}
 428              	.LVL37:
 429              	.L28:
 430              		.loc 1 1497 0
 431 0084 1220     		movs	r0, #18
 432              	.LVL38:
 433 0086 70BD     		pop	{r4, r5, r6, pc}
 434              	.LVL39:
 435              	.L29:
 436 0088 1220     		movs	r0, #18
 437              	.LVL40:
 438              		.loc 1 1525 0
 439 008a 70BD     		pop	{r4, r5, r6, pc}
 440              		.cfi_endproc
 441              	.LFE9:
 442              		.size	amx_Clone, .-amx_Clone
 443              		.section	.text.amx_MemInfo,"ax",%progbits
 444              		.align	1
 445              		.global	amx_MemInfo
 446              		.thumb
 447              		.thumb_func
 448              		.type	amx_MemInfo, %function
 449              	amx_MemInfo:
 450              	.LFB10:
 451              		.loc 1 1530 0
 452              		.cfi_startproc
ARM GAS  /tmp/ccSqa4tb.s 			page 9


 453              		@ args = 0, pretend = 0, frame = 0
 454              		@ frame_needed = 0, uses_anonymous_args = 0
 455              	.LVL41:
 456 0000 70B5     		push	{r4, r5, r6, lr}
 457              	.LCFI2:
 458              		.cfi_def_cfa_offset 16
 459              		.loc 1 1533 0
 460 0002 D0B1     		cbz	r0, .L35
 461              		.cfi_offset 14, -4
 462              		.cfi_offset 6, -8
 463              		.cfi_offset 5, -12
 464              		.cfi_offset 4, -16
 465              		.loc 1 1535 0
 466 0004 0468     		ldr	r4, [r0, #0]	@ unaligned
 467              	.LVL42:
 468              		.loc 1 1536 0
 469 0006 4FF2E015 		movw	r5, #61920
 470 000a A688     		ldrh	r6, [r4, #4]	@ unaligned
 471 000c AE42     		cmp	r6, r5
 472 000e 14D1     		bne	.L35
 473              		.loc 1 1538 0
 474 0010 A579     		ldrb	r5, [r4, #6]	@ zero_extendqisi2
 475 0012 0B2D     		cmp	r5, #11
 476 0014 13D8     		bhi	.L37
 477              		.loc 1 1538 0 is_stmt 0 discriminator 1
 478 0016 E579     		ldrb	r5, [r4, #7]	@ zero_extendqisi2
 479 0018 0A2D     		cmp	r5, #10
 480 001a 10D9     		bls	.L37
 481              		.loc 1 1541 0 is_stmt 1
 482 001c 09B1     		cbz	r1, .L32
 483              		.loc 1 1542 0
 484 001e 406F     		ldr	r0, [r0, #116]	@ unaligned
 485              	.LVL43:
 486 0020 0860     		str	r0, [r1, #0]
 487              	.L32:
 488              		.loc 1 1543 0
 489 0022 1AB1     		cbz	r2, .L33
 490              		.loc 1 1544 0
 491 0024 6069     		ldr	r0, [r4, #20]	@ unaligned
 492 0026 2169     		ldr	r1, [r4, #16]	@ unaligned
 493              	.LVL44:
 494 0028 411A     		subs	r1, r0, r1
 495 002a 1160     		str	r1, [r2, #0]
 496              	.L33:
 497              		.loc 1 1545 0
 498 002c 4BB1     		cbz	r3, .L38
 499              		.loc 1 1546 0
 500 002e A169     		ldr	r1, [r4, #24]	@ unaligned
 501 0030 6269     		ldr	r2, [r4, #20]	@ unaligned
 502              	.LVL45:
 503              		.loc 1 1548 0
 504 0032 0020     		movs	r0, #0
 505              		.loc 1 1546 0
 506 0034 8A1A     		subs	r2, r1, r2
 507 0036 1A60     		str	r2, [r3, #0]
 508 0038 70BD     		pop	{r4, r5, r6, pc}
 509              	.LVL46:
ARM GAS  /tmp/ccSqa4tb.s 			page 10


 510              	.L35:
 511              		.loc 1 1537 0
 512 003a 1120     		movs	r0, #17
 513              	.LVL47:
 514 003c 70BD     		pop	{r4, r5, r6, pc}
 515              	.LVL48:
 516              	.L37:
 517              		.loc 1 1539 0
 518 003e 1220     		movs	r0, #18
 519              	.LVL49:
 520 0040 70BD     		pop	{r4, r5, r6, pc}
 521              	.LVL50:
 522              	.L38:
 523              		.loc 1 1548 0
 524 0042 1846     		mov	r0, r3
 525              		.loc 1 1549 0
 526 0044 70BD     		pop	{r4, r5, r6, pc}
 527              		.cfi_endproc
 528              	.LFE10:
 529              		.size	amx_MemInfo, .-amx_MemInfo
 530              		.section	.text.amx_NameLength,"ax",%progbits
 531              		.align	1
 532              		.global	amx_NameLength
 533              		.thumb
 534              		.thumb_func
 535              		.type	amx_NameLength, %function
 536              	amx_NameLength:
 537              	.LFB11:
 538              		.loc 1 1554 0
 539              		.cfi_startproc
 540              		@ args = 0, pretend = 0, frame = 0
 541              		@ frame_needed = 0, uses_anonymous_args = 0
 542              		@ link register save eliminated.
 543              	.LVL51:
 544              		.loc 1 1559 0
 545 0000 0368     		ldr	r3, [r0, #0]	@ unaligned
 546              	.LVL52:
 547              		.loc 1 1565 0
 548 0002 0020     		movs	r0, #0
 549              	.LVL53:
 550              		.loc 1 1562 0
 551 0004 5A6B     		ldr	r2, [r3, #52]	@ unaligned
 552              		.loc 1 1563 0
 553 0006 9B5A     		ldrh	r3, [r3, r2]
 554              	.LVL54:
 555 0008 0B60     		str	r3, [r1, #0]
 556              		.loc 1 1565 0
 557 000a 7047     		bx	lr
 558              		.cfi_endproc
 559              	.LFE11:
 560              		.size	amx_NameLength, .-amx_NameLength
 561              		.section	.text.amx_NumNatives,"ax",%progbits
 562              		.align	1
 563              		.global	amx_NumNatives
 564              		.thumb
 565              		.thumb_func
 566              		.type	amx_NumNatives, %function
ARM GAS  /tmp/ccSqa4tb.s 			page 11


 567              	amx_NumNatives:
 568              	.LFB12:
 569              		.loc 1 1570 0
 570              		.cfi_startproc
 571              		@ args = 0, pretend = 0, frame = 0
 572              		@ frame_needed = 0, uses_anonymous_args = 0
 573              		@ link register save eliminated.
 574              	.LVL55:
 575              		.loc 1 1571 0
 576 0000 0368     		ldr	r3, [r0, #0]	@ unaligned
 577              	.LVL56:
 578              		.loc 1 1575 0
 579 0002 5A6A     		ldr	r2, [r3, #36]	@ unaligned
 580 0004 986A     		ldr	r0, [r3, #40]	@ unaligned
 581              	.LVL57:
 582 0006 801A     		subs	r0, r0, r2
 583 0008 B3F90A20 		ldrsh	r2, [r3, #10]	@ unaligned
 584 000c 90FBF2F3 		sdiv	r3, r0, r2
 585              	.LVL58:
 586 0010 0B60     		str	r3, [r1, #0]
 587              		.loc 1 1577 0
 588 0012 0020     		movs	r0, #0
 589 0014 7047     		bx	lr
 590              		.cfi_endproc
 591              	.LFE12:
 592              		.size	amx_NumNatives, .-amx_NumNatives
 593              		.section	.text.amx_GetNative,"ax",%progbits
 594              		.align	1
 595              		.global	amx_GetNative
 596              		.thumb
 597              		.thumb_func
 598              		.type	amx_GetNative, %function
 599              	amx_GetNative:
 600              	.LFB13:
 601              		.loc 1 1580 0
 602              		.cfi_startproc
 603              		@ args = 0, pretend = 0, frame = 0
 604              		@ frame_needed = 0, uses_anonymous_args = 0
 605              	.LVL59:
 606 0000 38B5     		push	{r3, r4, r5, lr}
 607              	.LCFI3:
 608              		.cfi_def_cfa_offset 16
 609              		.loc 1 1584 0
 610 0002 0368     		ldr	r3, [r0, #0]	@ unaligned
 611              		.cfi_offset 14, -4
 612              		.cfi_offset 5, -8
 613              		.cfi_offset 4, -12
 614              		.cfi_offset 3, -16
 615              	.LVL60:
 616              		.loc 1 1588 0
 617 0004 5C6A     		ldr	r4, [r3, #36]	@ unaligned
 618 0006 9D6A     		ldr	r5, [r3, #40]	@ unaligned
 619 0008 B3F90A00 		ldrsh	r0, [r3, #10]	@ unaligned
 620              	.LVL61:
 621 000c 2D1B     		subs	r5, r5, r4
 622 000e 95FBF0F5 		sdiv	r5, r5, r0
 623 0012 A942     		cmp	r1, r5
ARM GAS  /tmp/ccSqa4tb.s 			page 12


 624 0014 09DA     		bge	.L43
 625              		.loc 1 1592 0
 626 0016 1C19     		adds	r4, r3, r4
 627 0018 00FB0141 		mla	r1, r0, r1, r4
 628              	.LVL62:
 629 001c 4968     		ldr	r1, [r1, #4]	@ unaligned
 630 001e 1046     		mov	r0, r2
 631 0020 5918     		adds	r1, r3, r1
 632 0022 FFF7FEFF 		bl	strcpy
 633              	.LVL63:
 634              		.loc 1 1593 0
 635 0026 0020     		movs	r0, #0
 636 0028 38BD     		pop	{r3, r4, r5, pc}
 637              	.LVL64:
 638              	.L43:
 639              		.loc 1 1589 0
 640 002a 1420     		movs	r0, #20
 641              		.loc 1 1594 0
 642 002c 38BD     		pop	{r3, r4, r5, pc}
 643              		.cfi_endproc
 644              	.LFE13:
 645              		.size	amx_GetNative, .-amx_GetNative
 646              		.section	.text.amx_FindNative,"ax",%progbits
 647              		.align	1
 648              		.global	amx_FindNative
 649              		.thumb
 650              		.thumb_func
 651              		.type	amx_FindNative, %function
 652              	amx_FindNative:
 653              	.LFB14:
 654              		.loc 1 1597 0
 655              		.cfi_startproc
 656              		@ args = 0, pretend = 0, frame = 40
 657              		@ frame_needed = 0, uses_anonymous_args = 0
 658              	.LVL65:
 659 0000 F0B5     		push	{r4, r5, r6, r7, lr}
 660              	.LCFI4:
 661              		.cfi_def_cfa_offset 20
 662 0002 8BB0     		sub	sp, sp, #44
 663              	.LCFI5:
 664              		.cfi_def_cfa_offset 64
 665              		.loc 1 1597 0
 666 0004 0E46     		mov	r6, r1
 667              		.cfi_offset 14, -4
 668              		.cfi_offset 7, -8
 669              		.cfi_offset 6, -12
 670              		.cfi_offset 5, -16
 671              		.cfi_offset 4, -20
 672              		.loc 1 1601 0
 673 0006 09A9     		add	r1, sp, #36
 674              	.LVL66:
 675              		.loc 1 1597 0
 676 0008 0746     		mov	r7, r0
 677 000a 1546     		mov	r5, r2
 678              		.loc 1 1603 0
 679 000c 0024     		movs	r4, #0
 680              		.loc 1 1601 0
ARM GAS  /tmp/ccSqa4tb.s 			page 13


 681 000e FFF7FEFF 		bl	amx_NumNatives
 682              	.LVL67:
 683              		.loc 1 1603 0
 684 0012 0CE0     		b	.L45
 685              	.LVL68:
 686              	.L48:
 687              		.loc 1 1604 0
 688 0014 2146     		mov	r1, r4
 689 0016 3846     		mov	r0, r7
 690 0018 01AA     		add	r2, sp, #4
 691 001a FFF7FEFF 		bl	amx_GetNative
 692              	.LVL69:
 693              		.loc 1 1605 0
 694 001e 01A8     		add	r0, sp, #4
 695 0020 3146     		mov	r1, r6
 696 0022 FFF7FEFF 		bl	strcmp
 697 0026 08B9     		cbnz	r0, .L46
 698              		.loc 1 1606 0
 699 0028 2C60     		str	r4, [r5, #0]
 700              		.loc 1 1607 0
 701 002a 07E0     		b	.L47
 702              	.L46:
 703              		.loc 1 1603 0
 704 002c 0134     		adds	r4, r4, #1
 705              	.LVL70:
 706              	.L45:
 707              		.loc 1 1603 0 is_stmt 0 discriminator 1
 708 002e 099B     		ldr	r3, [sp, #36]
 709 0030 9C42     		cmp	r4, r3
 710 0032 EFDB     		blt	.L48
 711              		.loc 1 1610 0 is_stmt 1
 712 0034 6FF00043 		mvn	r3, #-2147483648
 713 0038 2B60     		str	r3, [r5, #0]
 714              		.loc 1 1611 0
 715 003a 1320     		movs	r0, #19
 716              	.L47:
 717              		.loc 1 1612 0
 718 003c 0BB0     		add	sp, sp, #44
 719 003e F0BD     		pop	{r4, r5, r6, r7, pc}
 720              		.cfi_endproc
 721              	.LFE14:
 722              		.size	amx_FindNative, .-amx_FindNative
 723              		.section	.text.amx_NumPublics,"ax",%progbits
 724              		.align	1
 725              		.global	amx_NumPublics
 726              		.thumb
 727              		.thumb_func
 728              		.type	amx_NumPublics, %function
 729              	amx_NumPublics:
 730              	.LFB15:
 731              		.loc 1 1617 0
 732              		.cfi_startproc
 733              		@ args = 0, pretend = 0, frame = 0
 734              		@ frame_needed = 0, uses_anonymous_args = 0
 735              		@ link register save eliminated.
 736              	.LVL71:
 737              		.loc 1 1618 0
ARM GAS  /tmp/ccSqa4tb.s 			page 14


 738 0000 0368     		ldr	r3, [r0, #0]	@ unaligned
 739              	.LVL72:
 740              		.loc 1 1622 0
 741 0002 1A6A     		ldr	r2, [r3, #32]	@ unaligned
 742 0004 586A     		ldr	r0, [r3, #36]	@ unaligned
 743              	.LVL73:
 744 0006 801A     		subs	r0, r0, r2
 745 0008 B3F90A20 		ldrsh	r2, [r3, #10]	@ unaligned
 746 000c 90FBF2F3 		sdiv	r3, r0, r2
 747              	.LVL74:
 748 0010 0B60     		str	r3, [r1, #0]
 749              		.loc 1 1624 0
 750 0012 0020     		movs	r0, #0
 751 0014 7047     		bx	lr
 752              		.cfi_endproc
 753              	.LFE15:
 754              		.size	amx_NumPublics, .-amx_NumPublics
 755              		.section	.text.amx_GetPublic,"ax",%progbits
 756              		.align	1
 757              		.global	amx_GetPublic
 758              		.thumb
 759              		.thumb_func
 760              		.type	amx_GetPublic, %function
 761              	amx_GetPublic:
 762              	.LFB16:
 763              		.loc 1 1627 0
 764              		.cfi_startproc
 765              		@ args = 0, pretend = 0, frame = 0
 766              		@ frame_needed = 0, uses_anonymous_args = 0
 767              	.LVL75:
 768 0000 70B5     		push	{r4, r5, r6, lr}
 769              	.LCFI6:
 770              		.cfi_def_cfa_offset 16
 771              		.loc 1 1627 0
 772 0002 1C46     		mov	r4, r3
 773              		.cfi_offset 14, -4
 774              		.cfi_offset 6, -8
 775              		.cfi_offset 5, -12
 776              		.cfi_offset 4, -16
 777              		.loc 1 1631 0
 778 0004 0368     		ldr	r3, [r0, #0]	@ unaligned
 779              	.LVL76:
 780              		.loc 1 1635 0
 781 0006 186A     		ldr	r0, [r3, #32]	@ unaligned
 782              	.LVL77:
 783 0008 5E6A     		ldr	r6, [r3, #36]	@ unaligned
 784 000a B3F90A50 		ldrsh	r5, [r3, #10]	@ unaligned
 785 000e 361A     		subs	r6, r6, r0
 786 0010 96FBF5F6 		sdiv	r6, r6, r5
 787 0014 B142     		cmp	r1, r6
 788 0016 0DDA     		bge	.L53
 789              		.loc 1 1638 0
 790 0018 05FB0105 		mla	r5, r5, r1, r0
 791 001c 5D19     		adds	r5, r3, r5
 792              	.LVL78:
 793              		.loc 1 1639 0
 794 001e 22B1     		cbz	r2, .L52
ARM GAS  /tmp/ccSqa4tb.s 			page 15


 795              		.loc 1 1640 0
 796 0020 6968     		ldr	r1, [r5, #4]	@ unaligned
 797              	.LVL79:
 798 0022 1046     		mov	r0, r2
 799 0024 5918     		adds	r1, r3, r1
 800 0026 FFF7FEFF 		bl	strcpy
 801              	.LVL80:
 802              	.L52:
 803              		.loc 1 1641 0
 804 002a 2CB1     		cbz	r4, .L54
 805              		.loc 1 1642 0
 806 002c 2B68     		ldr	r3, [r5, #0]	@ unaligned
 807              		.loc 1 1643 0
 808 002e 0020     		movs	r0, #0
 809              		.loc 1 1642 0
 810 0030 2360     		str	r3, [r4, #0]
 811 0032 70BD     		pop	{r4, r5, r6, pc}
 812              	.LVL81:
 813              	.L53:
 814              		.loc 1 1636 0
 815 0034 1420     		movs	r0, #20
 816 0036 70BD     		pop	{r4, r5, r6, pc}
 817              	.LVL82:
 818              	.L54:
 819              		.loc 1 1643 0
 820 0038 2046     		mov	r0, r4
 821              		.loc 1 1644 0
 822 003a 70BD     		pop	{r4, r5, r6, pc}
 823              		.cfi_endproc
 824              	.LFE16:
 825              		.size	amx_GetPublic, .-amx_GetPublic
 826              		.section	.text.amx_FindPublic,"ax",%progbits
 827              		.align	1
 828              		.global	amx_FindPublic
 829              		.thumb
 830              		.thumb_func
 831              		.type	amx_FindPublic, %function
 832              	amx_FindPublic:
 833              	.LFB17:
 834              		.loc 1 1647 0
 835              		.cfi_startproc
 836              		@ args = 0, pretend = 0, frame = 40
 837              		@ frame_needed = 0, uses_anonymous_args = 0
 838              	.LVL83:
 839 0000 2DE9F041 		push	{r4, r5, r6, r7, r8, lr}
 840              	.LCFI7:
 841              		.cfi_def_cfa_offset 24
 842 0004 8AB0     		sub	sp, sp, #40
 843              	.LCFI8:
 844              		.cfi_def_cfa_offset 64
 845              		.loc 1 1647 0
 846 0006 8846     		mov	r8, r1
 847              		.cfi_offset 14, -4
 848              		.cfi_offset 8, -8
 849              		.cfi_offset 7, -12
 850              		.cfi_offset 6, -16
 851              		.cfi_offset 5, -20
ARM GAS  /tmp/ccSqa4tb.s 			page 16


 852              		.cfi_offset 4, -24
 853              		.loc 1 1651 0
 854 0008 09A9     		add	r1, sp, #36
 855              	.LVL84:
 856              		.loc 1 1647 0
 857 000a 0746     		mov	r7, r0
 858 000c 1646     		mov	r6, r2
 859              		.loc 1 1651 0
 860 000e FFF7FEFF 		bl	amx_NumPublics
 861              	.LVL85:
 862              		.loc 1 1652 0
 863 0012 099B     		ldr	r3, [sp, #36]
 864              		.loc 1 1653 0
 865 0014 0025     		movs	r5, #0
 866              		.loc 1 1652 0
 867 0016 013B     		subs	r3, r3, #1
 868 0018 0993     		str	r3, [sp, #36]
 869              	.LVL86:
 870              		.loc 1 1655 0
 871 001a 17E0     		b	.L62
 872              	.LVL87:
 873              	.L61:
 874              		.loc 1 1656 0
 875 001c 2C19     		adds	r4, r5, r4
 876 001e 04EBD474 		add	r4, r4, r4, lsr #31
 877 0022 6410     		asrs	r4, r4, #1
 878              	.LVL88:
 879              		.loc 1 1657 0
 880 0024 0023     		movs	r3, #0
 881 0026 2146     		mov	r1, r4
 882 0028 01AA     		add	r2, sp, #4
 883 002a 3846     		mov	r0, r7
 884 002c FFF7FEFF 		bl	amx_GetPublic
 885              		.loc 1 1658 0
 886 0030 01A8     		add	r0, sp, #4
 887 0032 4146     		mov	r1, r8
 888 0034 FFF7FEFF 		bl	strcmp
 889              	.LVL89:
 890              		.loc 1 1659 0
 891 0038 0028     		cmp	r0, #0
 892 003a 02DD     		ble	.L57
 893              		.loc 1 1660 0
 894 003c 013C     		subs	r4, r4, #1
 895              	.LVL90:
 896 003e 0994     		str	r4, [sp, #36]
 897 0040 04E0     		b	.L62
 898              	.LVL91:
 899              	.L57:
 900              		.loc 1 1661 0
 901 0042 01D0     		beq	.L59
 902              		.loc 1 1662 0
 903 0044 651C     		adds	r5, r4, #1
 904              	.LVL92:
 905 0046 01E0     		b	.L62
 906              	.L59:
 907              		.loc 1 1664 0
 908 0048 3460     		str	r4, [r6, #0]
ARM GAS  /tmp/ccSqa4tb.s 			page 17


 909              		.loc 1 1665 0
 910 004a 06E0     		b	.L60
 911              	.LVL93:
 912              	.L62:
 913              		.loc 1 1655 0 discriminator 1
 914 004c 099C     		ldr	r4, [sp, #36]
 915 004e A542     		cmp	r5, r4
 916 0050 E4DD     		ble	.L61
 917              		.loc 1 1671 0
 918 0052 6FF00043 		mvn	r3, #-2147483648
 919 0056 3360     		str	r3, [r6, #0]
 920              		.loc 1 1672 0
 921 0058 1320     		movs	r0, #19
 922              	.L60:
 923              		.loc 1 1673 0
 924 005a 0AB0     		add	sp, sp, #40
 925 005c BDE8F081 		pop	{r4, r5, r6, r7, r8, pc}
 926              		.cfi_endproc
 927              	.LFE17:
 928              		.size	amx_FindPublic, .-amx_FindPublic
 929              		.section	.text.amx_NumPubVars,"ax",%progbits
 930              		.align	1
 931              		.global	amx_NumPubVars
 932              		.thumb
 933              		.thumb_func
 934              		.type	amx_NumPubVars, %function
 935              	amx_NumPubVars:
 936              	.LFB18:
 937              		.loc 1 1678 0
 938              		.cfi_startproc
 939              		@ args = 0, pretend = 0, frame = 0
 940              		@ frame_needed = 0, uses_anonymous_args = 0
 941              		@ link register save eliminated.
 942              	.LVL94:
 943              		.loc 1 1682 0
 944 0000 0368     		ldr	r3, [r0, #0]	@ unaligned
 945              	.LVL95:
 946              		.loc 1 1686 0
 947 0002 DA6A     		ldr	r2, [r3, #44]	@ unaligned
 948 0004 186B     		ldr	r0, [r3, #48]	@ unaligned
 949              	.LVL96:
 950 0006 801A     		subs	r0, r0, r2
 951 0008 B3F90A20 		ldrsh	r2, [r3, #10]	@ unaligned
 952 000c 90FBF2F3 		sdiv	r3, r0, r2
 953              	.LVL97:
 954 0010 0B60     		str	r3, [r1, #0]
 955              		.loc 1 1688 0
 956 0012 0020     		movs	r0, #0
 957 0014 7047     		bx	lr
 958              		.cfi_endproc
 959              	.LFE18:
 960              		.size	amx_NumPubVars, .-amx_NumPubVars
 961              		.section	.text.amx_GetPubVar,"ax",%progbits
 962              		.align	1
 963              		.global	amx_GetPubVar
 964              		.thumb
 965              		.thumb_func
ARM GAS  /tmp/ccSqa4tb.s 			page 18


 966              		.type	amx_GetPubVar, %function
 967              	amx_GetPubVar:
 968              	.LFB19:
 969              		.loc 1 1691 0
 970              		.cfi_startproc
 971              		@ args = 0, pretend = 0, frame = 0
 972              		@ frame_needed = 0, uses_anonymous_args = 0
 973              	.LVL98:
 974 0000 F8B5     		push	{r3, r4, r5, r6, r7, lr}
 975              	.LCFI9:
 976              		.cfi_def_cfa_offset 24
 977              		.loc 1 1697 0
 978 0002 0568     		ldr	r5, [r0, #0]	@ unaligned
 979              		.cfi_offset 14, -4
 980              		.cfi_offset 7, -8
 981              		.cfi_offset 6, -12
 982              		.cfi_offset 5, -16
 983              		.cfi_offset 4, -20
 984              		.cfi_offset 3, -24
 985              	.LVL99:
 986              		.loc 1 1691 0
 987 0004 0446     		mov	r4, r0
 988 0006 1F46     		mov	r7, r3
 989              		.loc 1 1701 0
 990 0008 286B     		ldr	r0, [r5, #48]	@ unaligned
 991              	.LVL100:
 992 000a EB6A     		ldr	r3, [r5, #44]	@ unaligned
 993              	.LVL101:
 994 000c B5F90A60 		ldrsh	r6, [r5, #10]	@ unaligned
 995 0010 C01A     		subs	r0, r0, r3
 996 0012 90FBF6F0 		sdiv	r0, r0, r6
 997 0016 8142     		cmp	r1, r0
 998 0018 11DA     		bge	.L67
 999              		.loc 1 1704 0
 1000 001a 06FB0136 		mla	r6, r6, r1, r3
 1001 001e AE19     		adds	r6, r5, r6
 1002              	.LVL102:
 1003              		.loc 1 1705 0
 1004 0020 7168     		ldr	r1, [r6, #4]	@ unaligned
 1005              	.LVL103:
 1006 0022 1046     		mov	r0, r2
 1007 0024 6918     		adds	r1, r5, r1
 1008 0026 FFF7FEFF 		bl	strcpy
 1009              	.LVL104:
 1010              		.loc 1 1706 0
 1011 002a A368     		ldr	r3, [r4, #8]	@ unaligned
 1012 002c 13B9     		cbnz	r3, .L66
 1013              		.loc 1 1706 0 is_stmt 0 discriminator 2
 1014 002e 2268     		ldr	r2, [r4, #0]	@ unaligned
 1015 0030 2B69     		ldr	r3, [r5, #16]	@ unaligned
 1016 0032 D318     		adds	r3, r2, r3
 1017              	.L66:
 1018              	.LVL105:
 1019              		.loc 1 1708 0 is_stmt 1 discriminator 3
 1020 0034 3268     		ldr	r2, [r6, #0]	@ unaligned
 1021              		.loc 1 1709 0 discriminator 3
 1022 0036 0020     		movs	r0, #0
ARM GAS  /tmp/ccSqa4tb.s 			page 19


 1023              		.loc 1 1708 0 discriminator 3
 1024 0038 9B18     		adds	r3, r3, r2
 1025              	.LVL106:
 1026 003a 3B60     		str	r3, [r7, #0]
 1027              		.loc 1 1709 0 discriminator 3
 1028 003c F8BD     		pop	{r3, r4, r5, r6, r7, pc}
 1029              	.LVL107:
 1030              	.L67:
 1031              		.loc 1 1702 0
 1032 003e 1420     		movs	r0, #20
 1033              		.loc 1 1710 0
 1034 0040 F8BD     		pop	{r3, r4, r5, r6, r7, pc}
 1035              		.cfi_endproc
 1036              	.LFE19:
 1037              		.size	amx_GetPubVar, .-amx_GetPubVar
 1038              		.section	.text.amx_FindPubVar,"ax",%progbits
 1039              		.align	1
 1040              		.global	amx_FindPubVar
 1041              		.thumb
 1042              		.thumb_func
 1043              		.type	amx_FindPubVar, %function
 1044              	amx_FindPubVar:
 1045              	.LFB20:
 1046              		.loc 1 1713 0
 1047              		.cfi_startproc
 1048              		@ args = 0, pretend = 0, frame = 40
 1049              		@ frame_needed = 0, uses_anonymous_args = 0
 1050              	.LVL108:
 1051 0000 2DE9F041 		push	{r4, r5, r6, r7, r8, lr}
 1052              	.LCFI10:
 1053              		.cfi_def_cfa_offset 24
 1054 0004 8AB0     		sub	sp, sp, #40
 1055              	.LCFI11:
 1056              		.cfi_def_cfa_offset 64
 1057              		.loc 1 1713 0
 1058 0006 8846     		mov	r8, r1
 1059              		.cfi_offset 14, -4
 1060              		.cfi_offset 8, -8
 1061              		.cfi_offset 7, -12
 1062              		.cfi_offset 6, -16
 1063              		.cfi_offset 5, -20
 1064              		.cfi_offset 4, -24
 1065              		.loc 1 1717 0
 1066 0008 09A9     		add	r1, sp, #36
 1067              	.LVL109:
 1068              		.loc 1 1713 0
 1069 000a 0746     		mov	r7, r0
 1070 000c 1646     		mov	r6, r2
 1071              		.loc 1 1717 0
 1072 000e FFF7FEFF 		bl	amx_NumPubVars
 1073              	.LVL110:
 1074              		.loc 1 1718 0
 1075 0012 099B     		ldr	r3, [sp, #36]
 1076              		.loc 1 1719 0
 1077 0014 0024     		movs	r4, #0
 1078              		.loc 1 1718 0
 1079 0016 013B     		subs	r3, r3, #1
ARM GAS  /tmp/ccSqa4tb.s 			page 20


 1080 0018 0993     		str	r3, [sp, #36]
 1081              	.LVL111:
 1082              		.loc 1 1721 0
 1083 001a 14E0     		b	.L75
 1084              	.LVL112:
 1085              	.L73:
 1086              		.loc 1 1722 0
 1087 001c 6519     		adds	r5, r4, r5
 1088 001e 05EBD575 		add	r5, r5, r5, lsr #31
 1089 0022 6D10     		asrs	r5, r5, #1
 1090              	.LVL113:
 1091              		.loc 1 1723 0
 1092 0024 2946     		mov	r1, r5
 1093 0026 01AA     		add	r2, sp, #4
 1094 0028 3346     		mov	r3, r6
 1095 002a 3846     		mov	r0, r7
 1096 002c FFF7FEFF 		bl	amx_GetPubVar
 1097              		.loc 1 1724 0
 1098 0030 01A8     		add	r0, sp, #4
 1099 0032 4146     		mov	r1, r8
 1100 0034 FFF7FEFF 		bl	strcmp
 1101              	.LVL114:
 1102              		.loc 1 1725 0
 1103 0038 0028     		cmp	r0, #0
 1104 003a 02DD     		ble	.L70
 1105              		.loc 1 1726 0
 1106 003c 013D     		subs	r5, r5, #1
 1107              	.LVL115:
 1108 003e 0995     		str	r5, [sp, #36]
 1109 0040 01E0     		b	.L75
 1110              	.LVL116:
 1111              	.L70:
 1112              		.loc 1 1727 0
 1113 0042 06D0     		beq	.L72
 1114              		.loc 1 1728 0
 1115 0044 6C1C     		adds	r4, r5, #1
 1116              	.LVL117:
 1117              	.L75:
 1118              		.loc 1 1721 0 discriminator 1
 1119 0046 099D     		ldr	r5, [sp, #36]
 1120 0048 AC42     		cmp	r4, r5
 1121 004a E7DD     		ble	.L73
 1122              		.loc 1 1734 0
 1123 004c 0023     		movs	r3, #0
 1124 004e 3360     		str	r3, [r6, #0]
 1125              		.loc 1 1735 0
 1126 0050 1320     		movs	r0, #19
 1127              	.L72:
 1128              		.loc 1 1736 0
 1129 0052 0AB0     		add	sp, sp, #40
 1130 0054 BDE8F081 		pop	{r4, r5, r6, r7, r8, pc}
 1131              		.cfi_endproc
 1132              	.LFE20:
 1133              		.size	amx_FindPubVar, .-amx_FindPubVar
 1134              		.section	.text.amx_NumTags,"ax",%progbits
 1135              		.align	1
 1136              		.global	amx_NumTags
ARM GAS  /tmp/ccSqa4tb.s 			page 21


 1137              		.thumb
 1138              		.thumb_func
 1139              		.type	amx_NumTags, %function
 1140              	amx_NumTags:
 1141              	.LFB21:
 1142              		.loc 1 1741 0
 1143              		.cfi_startproc
 1144              		@ args = 0, pretend = 0, frame = 0
 1145              		@ frame_needed = 0, uses_anonymous_args = 0
 1146              		@ link register save eliminated.
 1147              	.LVL118:
 1148              		.loc 1 1742 0
 1149 0000 0368     		ldr	r3, [r0, #0]	@ unaligned
 1150              	.LVL119:
 1151              		.loc 1 1745 0
 1152 0002 9A79     		ldrb	r2, [r3, #6]	@ zero_extendqisi2
 1153 0004 042A     		cmp	r2, #4
 1154 0006 03D8     		bhi	.L77
 1155              		.loc 1 1746 0
 1156 0008 0023     		movs	r3, #0
 1157              	.LVL120:
 1158 000a 0B60     		str	r3, [r1, #0]
 1159              		.loc 1 1747 0
 1160 000c 1220     		movs	r0, #18
 1161              	.LVL121:
 1162 000e 7047     		bx	lr
 1163              	.LVL122:
 1164              	.L77:
 1165              		.loc 1 1749 0
 1166 0010 062A     		cmp	r2, #6
 1167 0012 186B     		ldr	r0, [r3, #48]	@ unaligned
 1168              	.LVL123:
 1169 0014 B3F90A20 		ldrsh	r2, [r3, #10]	@ unaligned
 1170 0018 06D8     		bhi	.L79
 1171              		.loc 1 1751 0
 1172 001a DB68     		ldr	r3, [r3, #12]	@ unaligned
 1173              	.LVL124:
 1174 001c 181A     		subs	r0, r3, r0
 1175 001e 90FBF2F2 		sdiv	r2, r0, r2
 1176 0022 0A60     		str	r2, [r1, #0]
 1177              		.loc 1 1756 0
 1178 0024 0020     		movs	r0, #0
 1179 0026 7047     		bx	lr
 1180              	.LVL125:
 1181              	.L79:
 1182              		.loc 1 1754 0
 1183 0028 5B6B     		ldr	r3, [r3, #52]	@ unaligned
 1184              	.LVL126:
 1185 002a 181A     		subs	r0, r3, r0
 1186 002c 90FBF2F2 		sdiv	r2, r0, r2
 1187 0030 0A60     		str	r2, [r1, #0]
 1188              		.loc 1 1756 0
 1189 0032 0020     		movs	r0, #0
 1190              		.loc 1 1757 0
 1191 0034 7047     		bx	lr
 1192              		.cfi_endproc
 1193              	.LFE21:
ARM GAS  /tmp/ccSqa4tb.s 			page 22


 1194              		.size	amx_NumTags, .-amx_NumTags
 1195              		.section	.text.amx_GetTag,"ax",%progbits
 1196              		.align	1
 1197              		.global	amx_GetTag
 1198              		.thumb
 1199              		.thumb_func
 1200              		.type	amx_GetTag, %function
 1201              	amx_GetTag:
 1202              	.LFB22:
 1203              		.loc 1 1760 0
 1204              		.cfi_startproc
 1205              		@ args = 0, pretend = 0, frame = 0
 1206              		@ frame_needed = 0, uses_anonymous_args = 0
 1207              	.LVL127:
 1208 0000 70B5     		push	{r4, r5, r6, lr}
 1209              	.LCFI12:
 1210              		.cfi_def_cfa_offset 16
 1211              		.loc 1 1760 0
 1212 0002 1C46     		mov	r4, r3
 1213              		.cfi_offset 14, -4
 1214              		.cfi_offset 6, -8
 1215              		.cfi_offset 5, -12
 1216              		.cfi_offset 4, -16
 1217              		.loc 1 1764 0
 1218 0004 0368     		ldr	r3, [r0, #0]	@ unaligned
 1219              	.LVL128:
 1220              		.loc 1 1767 0
 1221 0006 9879     		ldrb	r0, [r3, #6]	@ zero_extendqisi2
 1222              	.LVL129:
 1223 0008 0428     		cmp	r0, #4
 1224 000a 04D8     		bhi	.L81
 1225              		.loc 1 1768 0
 1226 000c 0023     		movs	r3, #0
 1227              	.LVL130:
 1228 000e 1370     		strb	r3, [r2, #0]
 1229              		.loc 1 1770 0
 1230 0010 1220     		movs	r0, #18
 1231              		.loc 1 1769 0
 1232 0012 2360     		str	r3, [r4, #0]
 1233              		.loc 1 1770 0
 1234 0014 70BD     		pop	{r4, r5, r6, pc}
 1235              	.LVL131:
 1236              	.L81:
 1237              		.loc 1 1773 0
 1238 0016 0628     		cmp	r0, #6
 1239 0018 1D6B     		ldr	r5, [r3, #48]	@ unaligned
 1240 001a B3F90A00 		ldrsh	r0, [r3, #10]	@ unaligned
 1241 001e 06D8     		bhi	.L83
 1242              		.loc 1 1775 0
 1243 0020 DE68     		ldr	r6, [r3, #12]	@ unaligned
 1244 0022 751B     		subs	r5, r6, r5
 1245 0024 95FBF0F5 		sdiv	r5, r5, r0
 1246 0028 A942     		cmp	r1, r5
 1247 002a 06DB     		blt	.L84
 1248 002c 12E0     		b	.L87
 1249              	.L83:
 1250              		.loc 1 1779 0
ARM GAS  /tmp/ccSqa4tb.s 			page 23


 1251 002e 5E6B     		ldr	r6, [r3, #52]	@ unaligned
 1252 0030 751B     		subs	r5, r6, r5
 1253 0032 95FBF0F5 		sdiv	r5, r5, r0
 1254 0036 A942     		cmp	r1, r5
 1255 0038 0EDA     		bge	.L86
 1256              	.L84:
 1257              		.loc 1 1783 0
 1258 003a 1D6B     		ldr	r5, [r3, #48]	@ unaligned
 1259 003c 00FB0151 		mla	r1, r0, r1, r5
 1260              	.LVL132:
 1261 0040 5D18     		adds	r5, r3, r1
 1262              	.LVL133:
 1263              		.loc 1 1784 0
 1264 0042 6968     		ldr	r1, [r5, #4]	@ unaligned
 1265 0044 1046     		mov	r0, r2
 1266 0046 5918     		adds	r1, r3, r1
 1267 0048 FFF7FEFF 		bl	strcpy
 1268              	.LVL134:
 1269              		.loc 1 1785 0
 1270 004c 2B68     		ldr	r3, [r5, #0]	@ unaligned
 1271              		.loc 1 1787 0
 1272 004e 0020     		movs	r0, #0
 1273              		.loc 1 1785 0
 1274 0050 2360     		str	r3, [r4, #0]
 1275              		.loc 1 1787 0
 1276 0052 70BD     		pop	{r4, r5, r6, pc}
 1277              	.LVL135:
 1278              	.L87:
 1279              		.loc 1 1776 0
 1280 0054 1420     		movs	r0, #20
 1281 0056 70BD     		pop	{r4, r5, r6, pc}
 1282              	.L86:
 1283              		.loc 1 1780 0
 1284 0058 1420     		movs	r0, #20
 1285              		.loc 1 1788 0
 1286 005a 70BD     		pop	{r4, r5, r6, pc}
 1287              		.cfi_endproc
 1288              	.LFE22:
 1289              		.size	amx_GetTag, .-amx_GetTag
 1290              		.section	.text.amx_FindTagId,"ax",%progbits
 1291              		.align	1
 1292              		.global	amx_FindTagId
 1293              		.thumb
 1294              		.thumb_func
 1295              		.type	amx_FindTagId, %function
 1296              	amx_FindTagId:
 1297              	.LFB23:
 1298              		.loc 1 1791 0
 1299              		.cfi_startproc
 1300              		@ args = 0, pretend = 0, frame = 8
 1301              		@ frame_needed = 0, uses_anonymous_args = 0
 1302              	.LVL136:
 1303 0000 2DE9F341 		push	{r0, r1, r4, r5, r6, r7, r8, lr}
 1304              	.LCFI13:
 1305              		.cfi_def_cfa_offset 32
 1306              		.loc 1 1791 0
 1307 0004 8846     		mov	r8, r1
ARM GAS  /tmp/ccSqa4tb.s 			page 24


 1308              		.cfi_offset 14, -4
 1309              		.cfi_offset 8, -8
 1310              		.cfi_offset 7, -12
 1311              		.cfi_offset 6, -16
 1312              		.cfi_offset 5, -20
 1313              		.cfi_offset 4, -24
 1314              		.cfi_offset 1, -28
 1315              		.cfi_offset 0, -32
 1316              		.loc 1 1809 0
 1317 0006 01A9     		add	r1, sp, #4
 1318              	.LVL137:
 1319              		.loc 1 1791 0
 1320 0008 0746     		mov	r7, r0
 1321 000a 1646     		mov	r6, r2
 1322              		.loc 1 1809 0
 1323 000c FFF7FEFF 		bl	amx_NumTags
 1324              	.LVL138:
 1325              		.loc 1 1810 0
 1326 0010 019B     		ldr	r3, [sp, #4]
 1327              		.loc 1 1811 0
 1328 0012 0024     		movs	r4, #0
 1329              		.loc 1 1810 0
 1330 0014 013B     		subs	r3, r3, #1
 1331 0016 0193     		str	r3, [sp, #4]
 1332              	.LVL139:
 1333              		.loc 1 1813 0
 1334 0018 11E0     		b	.L95
 1335              	.LVL140:
 1336              	.L93:
 1337              		.loc 1 1814 0
 1338 001a 6519     		adds	r5, r4, r5
 1339 001c 05EBD575 		add	r5, r5, r5, lsr #31
 1340 0020 6D10     		asrs	r5, r5, #1
 1341              	.LVL141:
 1342              		.loc 1 1815 0
 1343 0022 6B46     		mov	r3, sp
 1344 0024 3846     		mov	r0, r7
 1345 0026 2946     		mov	r1, r5
 1346 0028 3246     		mov	r2, r6
 1347 002a FFF7FEFF 		bl	amx_GetTag
 1348              		.loc 1 1816 0
 1349 002e 009B     		ldr	r3, [sp, #0]
 1350 0030 4345     		cmp	r3, r8
 1351 0032 02DD     		ble	.L90
 1352              		.loc 1 1817 0
 1353 0034 013D     		subs	r5, r5, #1
 1354              	.LVL142:
 1355 0036 0195     		str	r5, [sp, #4]
 1356 0038 01E0     		b	.L95
 1357              	.LVL143:
 1358              	.L90:
 1359              		.loc 1 1818 0
 1360 003a 07DA     		bge	.L94
 1361              		.loc 1 1819 0
 1362 003c 6C1C     		adds	r4, r5, #1
 1363              	.LVL144:
 1364              	.L95:
ARM GAS  /tmp/ccSqa4tb.s 			page 25


 1365              		.loc 1 1813 0 discriminator 1
 1366 003e 019D     		ldr	r5, [sp, #4]
 1367 0040 AC42     		cmp	r4, r5
 1368 0042 EADD     		ble	.L93
 1369              		.loc 1 1824 0
 1370 0044 0023     		movs	r3, #0
 1371 0046 3370     		strb	r3, [r6, #0]
 1372              		.loc 1 1825 0
 1373 0048 1320     		movs	r0, #19
 1374 004a 00E0     		b	.L92
 1375              	.LVL145:
 1376              	.L94:
 1377              		.loc 1 1821 0
 1378 004c 0020     		movs	r0, #0
 1379              	.LVL146:
 1380              	.L92:
 1381              		.loc 1 1826 0
 1382 004e BDE8FC81 		pop	{r2, r3, r4, r5, r6, r7, r8, pc}
 1383              		.cfi_endproc
 1384              	.LFE23:
 1385              		.size	amx_FindTagId, .-amx_FindTagId
 1386              		.section	.text.amx_GetUserData,"ax",%progbits
 1387              		.align	1
 1388              		.global	amx_GetUserData
 1389              		.thumb
 1390              		.thumb_func
 1391              		.type	amx_GetUserData, %function
 1392              	amx_GetUserData:
 1393              	.LFB24:
 1394              		.loc 1 1831 0
 1395              		.cfi_startproc
 1396              		@ args = 0, pretend = 0, frame = 0
 1397              		@ frame_needed = 0, uses_anonymous_args = 0
 1398              	.LVL147:
 1399 0000 10B5     		push	{r4, lr}
 1400              	.LCFI14:
 1401              		.cfi_def_cfa_offset 8
 1402              		.loc 1 1836 0
 1403 0002 0023     		movs	r3, #0
 1404 0004 02E0     		b	.L97
 1405              		.cfi_offset 14, -4
 1406              		.cfi_offset 4, -8
 1407              	.LVL148:
 1408              	.L99:
 1409              		.loc 1 1836 0 is_stmt 0 discriminator 1
 1410 0006 0133     		adds	r3, r3, #1
 1411              	.LVL149:
 1412 0008 042B     		cmp	r3, #4
 1413 000a 07D0     		beq	.L101
 1414              	.LVL150:
 1415              	.L97:
 1416              		.loc 1 1836 0 discriminator 2
 1417 000c 03F10C04 		add	r4, r3, #12
 1418 0010 00EB8404 		add	r4, r0, r4, lsl #2
 1419 0014 6468     		ldr	r4, [r4, #4]	@ unaligned
 1420 0016 8C42     		cmp	r4, r1
 1421 0018 F5D1     		bne	.L99
ARM GAS  /tmp/ccSqa4tb.s 			page 26


 1422 001a 01E0     		b	.L103
 1423              	.LVL151:
 1424              	.L101:
 1425              		.loc 1 1839 0 is_stmt 1
 1426 001c 1720     		movs	r0, #23
 1427              	.LVL152:
 1428              		.loc 1 1842 0
 1429 001e 10BD     		pop	{r4, pc}
 1430              	.LVL153:
 1431              	.L103:
 1432              		.loc 1 1840 0
 1433 0020 1033     		adds	r3, r3, #16
 1434 0022 00EB8300 		add	r0, r0, r3, lsl #2
 1435              	.LVL154:
 1436 0026 4368     		ldr	r3, [r0, #4]	@ unaligned
 1437              		.loc 1 1841 0
 1438 0028 0020     		movs	r0, #0
 1439              		.loc 1 1840 0
 1440 002a 1360     		str	r3, [r2, #0]
 1441              		.loc 1 1841 0
 1442 002c 10BD     		pop	{r4, pc}
 1443              		.cfi_endproc
 1444              	.LFE24:
 1445              		.size	amx_GetUserData, .-amx_GetUserData
 1446              		.section	.text.amx_SetUserData,"ax",%progbits
 1447              		.align	1
 1448              		.global	amx_SetUserData
 1449              		.thumb
 1450              		.thumb_func
 1451              		.type	amx_SetUserData, %function
 1452              	amx_SetUserData:
 1453              	.LFB25:
 1454              		.loc 1 1845 0
 1455              		.cfi_startproc
 1456              		@ args = 0, pretend = 0, frame = 0
 1457              		@ frame_needed = 0, uses_anonymous_args = 0
 1458              	.LVL155:
 1459 0000 10B5     		push	{r4, lr}
 1460              	.LCFI15:
 1461              		.cfi_def_cfa_offset 8
 1462              		.loc 1 1851 0
 1463 0002 0023     		movs	r3, #0
 1464 0004 02E0     		b	.L105
 1465              		.cfi_offset 14, -4
 1466              		.cfi_offset 4, -8
 1467              	.LVL156:
 1468              	.L107:
 1469              		.loc 1 1851 0 is_stmt 0 discriminator 1
 1470 0006 0133     		adds	r3, r3, #1
 1471              	.LVL157:
 1472 0008 042B     		cmp	r3, #4
 1473 000a 0CD0     		beq	.L106
 1474              	.LVL158:
 1475              	.L105:
 1476              		.loc 1 1851 0 discriminator 2
 1477 000c 03F10C04 		add	r4, r3, #12
 1478 0010 00EB8404 		add	r4, r0, r4, lsl #2
ARM GAS  /tmp/ccSqa4tb.s 			page 27


 1479 0014 6468     		ldr	r4, [r4, #4]	@ unaligned
 1480 0016 8C42     		cmp	r4, r1
 1481 0018 F5D1     		bne	.L107
 1482 001a 0CE0     		b	.L108
 1483              	.L111:
 1484              		.loc 1 1855 0 is_stmt 1 discriminator 1
 1485 001c 0133     		adds	r3, r3, #1
 1486              	.LVL159:
 1487 001e 042B     		cmp	r3, #4
 1488 0020 02D1     		bne	.L109
 1489              		.loc 1 1859 0
 1490 0022 1420     		movs	r0, #20
 1491              	.LVL160:
 1492 0024 10BD     		pop	{r4, pc}
 1493              	.LVL161:
 1494              	.L106:
 1495              		.loc 1 1851 0 discriminator 2
 1496 0026 0023     		movs	r3, #0
 1497              	.LVL162:
 1498              	.L109:
 1499              		.loc 1 1855 0 discriminator 2
 1500 0028 03F10C04 		add	r4, r3, #12
 1501 002c 00EB8404 		add	r4, r0, r4, lsl #2
 1502 0030 6468     		ldr	r4, [r4, #4]	@ unaligned
 1503 0032 002C     		cmp	r4, #0
 1504 0034 F2D1     		bne	.L111
 1505              	.L108:
 1506              	.LVL163:
 1507              		.loc 1 1861 0
 1508 0036 00EB8304 		add	r4, r0, r3, lsl #2
 1509 003a 6163     		str	r1, [r4, #52]	@ unaligned
 1510              		.loc 1 1862 0
 1511 003c 6264     		str	r2, [r4, #68]	@ unaligned
 1512              		.loc 1 1863 0
 1513 003e 0020     		movs	r0, #0
 1514              	.LVL164:
 1515              		.loc 1 1864 0
 1516 0040 10BD     		pop	{r4, pc}
 1517              		.cfi_endproc
 1518              	.LFE25:
 1519              		.size	amx_SetUserData, .-amx_SetUserData
 1520              		.section	.text.amx_Register,"ax",%progbits
 1521              		.align	1
 1522              		.global	amx_Register
 1523              		.thumb
 1524              		.thumb_func
 1525              		.type	amx_Register, %function
 1526              	amx_Register:
 1527              	.LFB27:
 1528              		.loc 1 1880 0
 1529              		.cfi_startproc
 1530              		@ args = 0, pretend = 0, frame = 16
 1531              		@ frame_needed = 0, uses_anonymous_args = 0
 1532              	.LVL165:
 1533 0000 2DE9F04F 		push	{r4, r5, r6, r7, r8, r9, sl, fp, lr}
 1534              	.LCFI16:
 1535              		.cfi_def_cfa_offset 36
ARM GAS  /tmp/ccSqa4tb.s 			page 28


 1536              		.loc 1 1887 0
 1537 0004 0668     		ldr	r6, [r0, #0]	@ unaligned
 1538              		.cfi_offset 14, -4
 1539              		.cfi_offset 11, -8
 1540              		.cfi_offset 10, -12
 1541              		.cfi_offset 9, -16
 1542              		.cfi_offset 8, -20
 1543              		.cfi_offset 7, -24
 1544              		.cfi_offset 6, -28
 1545              		.cfi_offset 5, -32
 1546              		.cfi_offset 4, -36
 1547              	.LVL166:
 1548              		.loc 1 1880 0
 1549 0006 9346     		mov	fp, r2
 1550              		.loc 1 1891 0
 1551 0008 776A     		ldr	r7, [r6, #36]	@ unaligned
 1552 000a D6F828C0 		ldr	ip, [r6, #40]	@ unaligned
 1553 000e B6F90A20 		ldrsh	r2, [r6, #10]	@ unaligned
 1554              	.LVL167:
 1555 0012 C7EB0C0C 		rsb	ip, r7, ip
 1556              		.loc 1 1880 0
 1557 0016 85B0     		sub	sp, sp, #20
 1558              	.LCFI17:
 1559              		.cfi_def_cfa_offset 56
 1560              		.loc 1 1891 0
 1561 0018 9CFBF2FC 		sdiv	ip, ip, r2
 1562              	.LVL168:
 1563              		.loc 1 1893 0
 1564 001c 0025     		movs	r5, #0
 1565              		.loc 1 1894 0
 1566 001e F719     		adds	r7, r6, r7
 1567              	.LVL169:
 1568              		.loc 1 1895 0
 1569 0020 A946     		mov	r9, r5
 1570 0022 E246     		mov	sl, ip
 1571 0024 0390     		str	r0, [sp, #12]
 1572 0026 8846     		mov	r8, r1
 1573 0028 33E0     		b	.L113
 1574              	.LVL170:
 1575              	.L119:
 1576              		.loc 1 1896 0
 1577 002a 3B68     		ldr	r3, [r7, #0]	@ unaligned
 1578 002c 002B     		cmp	r3, #0
 1579 002e 2BD1     		bne	.L114
 1580              		.loc 1 1898 0
 1581 0030 B8F1000F 		cmp	r8, #0
 1582 0034 27D0     		beq	.L123
 1583              		.loc 1 1898 0 is_stmt 0 discriminator 1
 1584 0036 D7F804C0 		ldr	ip, [r7, #4]	@ unaligned
 1585 003a 3A46     		mov	r2, r7
 1586 003c B444     		add	ip, r6, ip
 1587              	.LVL171:
 1588 003e CDF80890 		str	r9, [sp, #8]
 1589 0042 4446     		mov	r4, r8
 1590 0044 E146     		mov	r9, ip
 1591              	.LVL172:
 1592 0046 1F46     		mov	r7, r3
ARM GAS  /tmp/ccSqa4tb.s 			page 29


 1593              	.LVL173:
 1594 0048 0FE0     		b	.L115
 1595              	.LVL174:
 1596              	.L118:
 1597              	.LBB10:
 1598              	.LBB12:
 1599              		.loc 1 1874 0 is_stmt 1
 1600 004a 4846     		mov	r0, r9
 1601 004c 0092     		str	r2, [sp, #0]
 1602 004e 0193     		str	r3, [sp, #4]
 1603 0050 FFF7FEFF 		bl	strcmp
 1604              	.LVL175:
 1605 0054 0834     		adds	r4, r4, #8
 1606 0056 009A     		ldr	r2, [sp, #0]
 1607              	.LVL176:
 1608 0058 019B     		ldr	r3, [sp, #4]
 1609 005a 28B9     		cbnz	r0, .L116
 1610              		.loc 1 1875 0
 1611 005c 5B68     		ldr	r3, [r3, #4]	@ unaligned
 1612              	.LVL177:
 1613 005e 1746     		mov	r7, r2
 1614              	.LVL178:
 1615 0060 DDF80890 		ldr	r9, [sp, #8]
 1616              	.LVL179:
 1617              	.LBE12:
 1618              	.LBE10:
 1619              		.loc 1 1899 0
 1620 0064 53B9     		cbnz	r3, .L117
 1621 0066 0EE0     		b	.L123
 1622              	.LVL180:
 1623              	.L116:
 1624              	.LBB14:
 1625              	.LBB11:
 1626              		.loc 1 1873 0
 1627 0068 0137     		adds	r7, r7, #1
 1628              	.LVL181:
 1629              	.L115:
 1630 006a 2168     		ldr	r1, [r4, #0]	@ unaligned
 1631 006c 2346     		mov	r3, r4
 1632 006e 39B1     		cbz	r1, .L122
 1633 0070 5F45     		cmp	r7, fp
 1634 0072 EADB     		blt	.L118
 1635 0074 BBF1FF3F 		cmp	fp, #-1
 1636 0078 E7D0     		beq	.L118
 1637 007a 01E0     		b	.L122
 1638              	.LVL182:
 1639              	.L117:
 1640              	.LBE11:
 1641              	.LBE14:
 1642              		.loc 1 1900 0
 1643 007c 1360     		str	r3, [r2, #0]	@ unaligned
 1644 007e 03E0     		b	.L114
 1645              	.LVL183:
 1646              	.L122:
 1647 0080 DDF80890 		ldr	r9, [sp, #8]
 1648              	.LVL184:
 1649 0084 1746     		mov	r7, r2
ARM GAS  /tmp/ccSqa4tb.s 			page 30


 1650              	.LVL185:
 1651              	.L123:
 1652              	.LBB15:
 1653              	.LBB13:
 1654              		.loc 1 1902 0
 1655 0086 1325     		movs	r5, #19
 1656              	.LVL186:
 1657              	.L114:
 1658              	.LBE13:
 1659              	.LBE15:
 1660              		.loc 1 1904 0
 1661 0088 B6F90A30 		ldrsh	r3, [r6, #10]	@ unaligned
 1662              		.loc 1 1895 0
 1663 008c 09F10109 		add	r9, r9, #1
 1664              		.loc 1 1904 0
 1665 0090 FF18     		adds	r7, r7, r3
 1666              	.LVL187:
 1667              	.L113:
 1668              		.loc 1 1895 0 discriminator 1
 1669 0092 D145     		cmp	r9, sl
 1670 0094 C9DB     		blt	.L119
 1671 0096 039C     		ldr	r4, [sp, #12]
 1672              		.loc 1 1906 0
 1673 0098 1DB9     		cbnz	r5, .L120
 1674              		.loc 1 1907 0
 1675 009a 236B     		ldr	r3, [r4, #48]	@ unaligned
 1676 009c 43F48053 		orr	r3, r3, #4096
 1677 00a0 2363     		str	r3, [r4, #48]	@ unaligned
 1678              	.L120:
 1679              		.loc 1 1909 0
 1680 00a2 2846     		mov	r0, r5
 1681 00a4 05B0     		add	sp, sp, #20
 1682 00a6 BDE8F08F 		pop	{r4, r5, r6, r7, r8, r9, sl, fp, pc}
 1683              		.cfi_endproc
 1684              	.LFE27:
 1685              		.size	amx_Register, .-amx_Register
 1686              		.section	.text.amx_NativeInfo,"ax",%progbits
 1687              		.align	1
 1688              		.global	amx_NativeInfo
 1689              		.thumb
 1690              		.thumb_func
 1691              		.type	amx_NativeInfo, %function
 1692              	amx_NativeInfo:
 1693              	.LFB28:
 1694              		.loc 1 1914 0
 1695              		.cfi_startproc
 1696              		@ args = 0, pretend = 0, frame = 0
 1697              		@ frame_needed = 0, uses_anonymous_args = 0
 1698              		@ link register save eliminated.
 1699              	.LVL188:
 1700              		.loc 1 1916 0
 1701 0000 024B     		ldr	r3, .L125
 1702 0002 1860     		str	r0, [r3, #0]	@ unaligned
 1703              		.loc 1 1917 0
 1704 0004 5960     		str	r1, [r3, #4]	@ unaligned
 1705              		.loc 1 1919 0
 1706 0006 1846     		mov	r0, r3
ARM GAS  /tmp/ccSqa4tb.s 			page 31


 1707              	.LVL189:
 1708 0008 7047     		bx	lr
 1709              	.L126:
 1710 000a 00BF     		.align	2
 1711              	.L125:
 1712 000c 00000000 		.word	.LANCHOR0
 1713              		.cfi_endproc
 1714              	.LFE28:
 1715              		.size	amx_NativeInfo, .-amx_NativeInfo
 1716              		.section	.text.amx_Push,"ax",%progbits
 1717              		.align	1
 1718              		.global	amx_Push
 1719              		.thumb
 1720              		.thumb_func
 1721              		.type	amx_Push, %function
 1722              	amx_Push:
 1723              	.LFB29:
 1724              		.loc 1 1928 0
 1725              		.cfi_startproc
 1726              		@ args = 0, pretend = 0, frame = 0
 1727              		@ frame_needed = 0, uses_anonymous_args = 0
 1728              	.LVL190:
 1729 0000 10B5     		push	{r4, lr}
 1730              	.LCFI18:
 1731              		.cfi_def_cfa_offset 8
 1732              		.loc 1 1932 0
 1733 0002 036A     		ldr	r3, [r0, #32]	@ unaligned
 1734 0004 826A     		ldr	r2, [r0, #40]	@ unaligned
 1735 0006 3F33     		adds	r3, r3, #63
 1736 0008 9342     		cmp	r3, r2
 1737 000a 0CDA     		bge	.L130
 1738              		.cfi_offset 14, -4
 1739              		.cfi_offset 4, -8
 1740              		.loc 1 1935 0
 1741 000c 8368     		ldr	r3, [r0, #8]	@ unaligned
 1742              		.loc 1 1934 0
 1743 000e 0468     		ldr	r4, [r0, #0]	@ unaligned
 1744              	.LVL191:
 1745              		.loc 1 1935 0
 1746 0010 0BB9     		cbnz	r3, .L129
 1747              		.loc 1 1935 0 is_stmt 0 discriminator 2
 1748 0012 2369     		ldr	r3, [r4, #16]	@ unaligned
 1749 0014 E318     		adds	r3, r4, r3
 1750              	.L129:
 1751              	.LVL192:
 1752              		.loc 1 1937 0 is_stmt 1 discriminator 3
 1753 0016 846D     		ldr	r4, [r0, #88]	@ unaligned
 1754              	.LVL193:
 1755              		.loc 1 1936 0 discriminator 3
 1756 0018 043A     		subs	r2, r2, #4
 1757              		.loc 1 1937 0 discriminator 3
 1758 001a 0134     		adds	r4, r4, #1
 1759              		.loc 1 1936 0 discriminator 3
 1760 001c 8262     		str	r2, [r0, #40]	@ unaligned
 1761              		.loc 1 1937 0 discriminator 3
 1762 001e 8465     		str	r4, [r0, #88]	@ unaligned
 1763              		.loc 1 1938 0 discriminator 3
ARM GAS  /tmp/ccSqa4tb.s 			page 32


 1764 0020 9950     		str	r1, [r3, r2]
 1765              		.loc 1 1939 0 discriminator 3
 1766 0022 0020     		movs	r0, #0
 1767              	.LVL194:
 1768 0024 10BD     		pop	{r4, pc}
 1769              	.LVL195:
 1770              	.L130:
 1771              		.loc 1 1933 0
 1772 0026 0320     		movs	r0, #3
 1773              	.LVL196:
 1774              		.loc 1 1940 0
 1775 0028 10BD     		pop	{r4, pc}
 1776              		.cfi_endproc
 1777              	.LFE29:
 1778              		.size	amx_Push, .-amx_Push
 1779              		.section	.text.amx_PushAddress,"ax",%progbits
 1780              		.align	1
 1781              		.global	amx_PushAddress
 1782              		.thumb
 1783              		.thumb_func
 1784              		.type	amx_PushAddress, %function
 1785              	amx_PushAddress:
 1786              	.LFB30:
 1787              		.loc 1 1943 0
 1788              		.cfi_startproc
 1789              		@ args = 0, pretend = 0, frame = 0
 1790              		@ frame_needed = 0, uses_anonymous_args = 0
 1791              		@ link register save eliminated.
 1792              	.LVL197:
 1793              		.loc 1 1953 0
 1794 0000 8368     		ldr	r3, [r0, #8]	@ unaligned
 1795              		.loc 1 1950 0
 1796 0002 0268     		ldr	r2, [r0, #0]	@ unaligned
 1797              	.LVL198:
 1798              		.loc 1 1953 0
 1799 0004 0BB9     		cbnz	r3, .L132
 1800              		.loc 1 1953 0 is_stmt 0 discriminator 2
 1801 0006 1369     		ldr	r3, [r2, #16]	@ unaligned
 1802 0008 D318     		adds	r3, r2, r3
 1803              	.L132:
 1804              	.LVL199:
 1805              		.loc 1 1954 0 is_stmt 1 discriminator 3
 1806 000a C91A     		subs	r1, r1, r3
 1807              	.LVL200:
 1808              		.loc 1 1955 0 discriminator 3
 1809 000c C36A     		ldr	r3, [r0, #44]	@ unaligned
 1810              	.LVL201:
 1811 000e 9942     		cmp	r1, r3
 1812 0010 01D2     		bcs	.L133
 1813              		.loc 1 1958 0
 1814              		.loc 1 1957 0
 1815 0012 FFF7FEBF 		b	amx_Push
 1816              	.LVL202:
 1817              	.L133:
 1818              		.loc 1 1958 0
 1819 0016 0520     		movs	r0, #5
 1820              	.LVL203:
ARM GAS  /tmp/ccSqa4tb.s 			page 33


 1821 0018 7047     		bx	lr
 1822              		.cfi_endproc
 1823              	.LFE30:
 1824              		.size	amx_PushAddress, .-amx_PushAddress
 1825              		.section	.text.amx_exec_list,"ax",%progbits
 1826              		.align	1
 1827              		.global	amx_exec_list
 1828              		.thumb
 1829              		.thumb_func
 1830              		.type	amx_exec_list, %function
 1831              	amx_exec_list:
 1832              	.LFB33:
 1833              		.loc 1 2054 0
 1834              		.cfi_startproc
 1835              		@ args = 0, pretend = 0, frame = 0
 1836              		@ frame_needed = 0, uses_anonymous_args = 0
 1837              		@ link register save eliminated.
 1838              	.LVL204:
 1839              		.loc 1 2057 0
 1840 0000 0020     		movs	r0, #0
 1841              	.LVL205:
 1842              		.loc 1 2059 0
 1843 0002 AF23     		movs	r3, #175
 1844              		.loc 1 2057 0
 1845 0004 0860     		str	r0, [r1, #0]
 1846              		.loc 1 2059 0
 1847 0006 1360     		str	r3, [r2, #0]
 1848              		.loc 1 2061 0
 1849 0008 7047     		bx	lr
 1850              		.cfi_endproc
 1851              	.LFE33:
 1852              		.size	amx_exec_list, .-amx_exec_list
 1853              		.section	.text.VerifyPcode,"ax",%progbits
 1854              		.align	1
 1855              		.thumb
 1856              		.thumb_func
 1857              		.type	VerifyPcode, %function
 1858              	VerifyPcode:
 1859              	.LFB5:
 1860              		.loc 1 616 0
 1861              		.cfi_startproc
 1862              		@ args = 0, pretend = 0, frame = 8
 1863              		@ frame_needed = 0, uses_anonymous_args = 0
 1864              	.LVL206:
 1865 0000 2DE9F347 		push	{r0, r1, r4, r5, r6, r7, r8, r9, sl, lr}
 1866              	.LCFI19:
 1867              		.cfi_def_cfa_offset 40
 1868              		.loc 1 632 0
 1869 0004 026B     		ldr	r2, [r0, #48]	@ unaligned
 1870              		.loc 1 629 0
 1871 0006 0368     		ldr	r3, [r0, #0]	@ unaligned
 1872              	.LVL207:
 1873              		.loc 1 632 0
 1874 0008 42F48042 		orr	r2, r2, #16384
 1875 000c 0263     		str	r2, [r0, #48]	@ unaligned
 1876              		.loc 1 633 0
 1877 000e 5A69     		ldr	r2, [r3, #20]	@ unaligned
ARM GAS  /tmp/ccSqa4tb.s 			page 34


 1878 0010 1E69     		ldr	r6, [r3, #16]	@ unaligned
 1879              		.cfi_offset 14, -4
 1880              		.cfi_offset 10, -8
 1881              		.cfi_offset 9, -12
 1882              		.cfi_offset 8, -16
 1883              		.cfi_offset 7, -20
 1884              		.cfi_offset 6, -24
 1885              		.cfi_offset 5, -28
 1886              		.cfi_offset 4, -32
 1887              		.cfi_offset 1, -36
 1888              		.cfi_offset 0, -40
 1889              		.loc 1 634 0
 1890 0012 9D69     		ldr	r5, [r3, #24]	@ unaligned
 1891              		.loc 1 616 0
 1892 0014 0446     		mov	r4, r0
 1893              		.loc 1 633 0
 1894 0016 961B     		subs	r6, r2, r6
 1895              	.LVL208:
 1896              		.loc 1 634 0
 1897 0018 AD1A     		subs	r5, r5, r2
 1898              	.LVL209:
 1899              		.loc 1 644 0
 1900 001a 6946     		mov	r1, sp
 1901 001c 01AA     		add	r2, sp, #4
 1902 001e FFF7FEFF 		bl	amx_exec_list
 1903              	.LVL210:
 1904              		.loc 1 677 0
 1905 0022 E06E     		ldr	r0, [r4, #108]	@ unaligned
 1906              		.loc 1 647 0
 1907 0024 0023     		movs	r3, #0
 1908              		.loc 1 677 0
 1909 0026 4B28     		cmp	r0, #75
 1910              		.loc 1 647 0
 1911 0028 0093     		str	r3, [sp, #0]
 1912              	.LVL211:
 1913              		.loc 1 677 0
 1914 002a 04D0     		beq	.L188
 1915              		.loc 1 670 0
 1916 002c 4C28     		cmp	r0, #76
 1917 002e 0CBF     		ite	eq
 1918 0030 0220     		moveq	r0, #2
 1919 0032 1846     		movne	r0, r3
 1920 0034 00E0     		b	.L136
 1921              	.L188:
 1922              		.loc 1 678 0
 1923 0036 0120     		movs	r0, #1
 1924              	.L136:
 1925              	.LVL212:
 1926              		.loc 1 682 0
 1927 0038 84F86C30 		strb	r3, [r4, #108]
 1928 003c 84F86D30 		strb	r3, [r4, #109]
 1929 0040 84F86E30 		strb	r3, [r4, #110]
 1930 0044 84F86F30 		strb	r3, [r4, #111]
 1931              	.LVL213:
 1932              		.loc 1 686 0
 1933 0048 676F     		ldr	r7, [r4, #116]	@ unaligned
 1934              	.LVL214:
ARM GAS  /tmp/ccSqa4tb.s 			page 35


 1935              		.loc 1 688 0
 1936 004a DDF80480 		ldr	r8, [sp, #4]
 1937              		.loc 1 686 0
 1938 004e 0023     		movs	r3, #0
 1939 0050 44E1     		b	.L194
 1940              	.LVL215:
 1941              	.L187:
 1942              		.loc 1 687 0
 1943 0052 6268     		ldr	r2, [r4, #4]	@ unaligned
 1944 0054 9A46     		mov	sl, r3
 1945 0056 D158     		ldr	r1, [r2, r3]
 1946              	.LVL216:
 1947              		.loc 1 688 0
 1948 0058 1FFA81FC 		uxth	ip, r1
 1949 005c C445     		cmp	ip, r8
 1950 005e 80F23781 		bge	.L140
 1951              	.LVL217:
 1952              	.L138:
 1953              		.loc 1 709 0
 1954 0062 0433     		adds	r3, r3, #4
 1955              	.LVL218:
 1956              		.loc 1 710 0
 1957 0064 BCF1AE0F 		cmp	ip, #174
 1958 0068 00F23281 		bhi	.L140
 1959 006c DFE81CF0 		tbh	[pc, ip, lsl #1]
 1960              	.L161:
 1961 0070 3601     		.2byte	(.L194-.L161)/2
 1962 0072 E300     		.2byte	(.L142-.L161)/2
 1963 0074 E300     		.2byte	(.L142-.L161)/2
 1964 0076 E900     		.2byte	(.L143-.L161)/2
 1965 0078 E900     		.2byte	(.L143-.L161)/2
 1966 007a E900     		.2byte	(.L143-.L161)/2
 1967 007c E900     		.2byte	(.L143-.L161)/2
 1968 007e 3601     		.2byte	(.L194-.L161)/2
 1969 0080 2E01     		.2byte	(.L196-.L161)/2
 1970 0082 2E01     		.2byte	(.L196-.L161)/2
 1971 0084 2E01     		.2byte	(.L196-.L161)/2
 1972 0086 2E01     		.2byte	(.L196-.L161)/2
 1973 0088 2E01     		.2byte	(.L196-.L161)/2
 1974 008a E300     		.2byte	(.L142-.L161)/2
 1975 008c E900     		.2byte	(.L143-.L161)/2
 1976 008e E900     		.2byte	(.L143-.L161)/2
 1977 0090 3601     		.2byte	(.L194-.L161)/2
 1978 0092 2E01     		.2byte	(.L196-.L161)/2
 1979 0094 2E01     		.2byte	(.L196-.L161)/2
 1980 0096 2E01     		.2byte	(.L196-.L161)/2
 1981 0098 2E01     		.2byte	(.L196-.L161)/2
 1982 009a 3601     		.2byte	(.L194-.L161)/2
 1983 009c 3601     		.2byte	(.L194-.L161)/2
 1984 009e 3601     		.2byte	(.L194-.L161)/2
 1985 00a0 3601     		.2byte	(.L194-.L161)/2
 1986 00a2 3601     		.2byte	(.L194-.L161)/2
 1987 00a4 3601     		.2byte	(.L194-.L161)/2
 1988 00a6 2E01     		.2byte	(.L196-.L161)/2
 1989 00a8 2E01     		.2byte	(.L196-.L161)/2
 1990 00aa 2E01     		.2byte	(.L196-.L161)/2
 1991 00ac 3601     		.2byte	(.L194-.L161)/2
ARM GAS  /tmp/ccSqa4tb.s 			page 36


 1992 00ae 3601     		.2byte	(.L194-.L161)/2
 1993 00b0 3601     		.2byte	(.L194-.L161)/2
 1994 00b2 EF00     		.2byte	(.L145-.L161)/2
 1995 00b4 EF00     		.2byte	(.L145-.L161)/2
 1996 00b6 EF00     		.2byte	(.L145-.L161)/2
 1997 00b8 EF00     		.2byte	(.L145-.L161)/2
 1998 00ba 3601     		.2byte	(.L194-.L161)/2
 1999 00bc 3601     		.2byte	(.L194-.L161)/2
 2000 00be 3601     		.2byte	(.L194-.L161)/2
 2001 00c0 2E01     		.2byte	(.L196-.L161)/2
 2002 00c2 2E01     		.2byte	(.L196-.L161)/2
 2003 00c4 3601     		.2byte	(.L194-.L161)/2
 2004 00c6 3601     		.2byte	(.L194-.L161)/2
 2005 00c8 3601     		.2byte	(.L194-.L161)/2
 2006 00ca 3601     		.2byte	(.L194-.L161)/2
 2007 00cc 3601     		.2byte	(.L194-.L161)/2
 2008 00ce 3601     		.2byte	(.L194-.L161)/2
 2009 00d0 3601     		.2byte	(.L194-.L161)/2
 2010 00d2 3601     		.2byte	(.L194-.L161)/2
 2011 00d4 3601     		.2byte	(.L194-.L161)/2
 2012 00d6 3601     		.2byte	(.L194-.L161)/2
 2013 00d8 3601     		.2byte	(.L194-.L161)/2
 2014 00da 3601     		.2byte	(.L194-.L161)/2
 2015 00dc 3601     		.2byte	(.L194-.L161)/2
 2016 00de 3601     		.2byte	(.L194-.L161)/2
 2017 00e0 3601     		.2byte	(.L194-.L161)/2
 2018 00e2 3601     		.2byte	(.L194-.L161)/2
 2019 00e4 3601     		.2byte	(.L194-.L161)/2
 2020 00e6 3601     		.2byte	(.L194-.L161)/2
 2021 00e8 3601     		.2byte	(.L194-.L161)/2
 2022 00ea 3601     		.2byte	(.L194-.L161)/2
 2023 00ec 3601     		.2byte	(.L194-.L161)/2
 2024 00ee 3601     		.2byte	(.L194-.L161)/2
 2025 00f0 2E01     		.2byte	(.L196-.L161)/2
 2026 00f2 2E01     		.2byte	(.L196-.L161)/2
 2027 00f4 2E01     		.2byte	(.L196-.L161)/2
 2028 00f6 2E01     		.2byte	(.L196-.L161)/2
 2029 00f8 2E01     		.2byte	(.L196-.L161)/2
 2030 00fa 0901     		.2byte	(.L146-.L161)/2
 2031 00fc EF00     		.2byte	(.L145-.L161)/2
 2032 00fe 3601     		.2byte	(.L194-.L161)/2
 2033 0100 3601     		.2byte	(.L194-.L161)/2
 2034 0102 3601     		.2byte	(.L194-.L161)/2
 2035 0104 1101     		.2byte	(.L147-.L161)/2
 2036 0106 3001     		.2byte	(.L140-.L161)/2
 2037 0108 3001     		.2byte	(.L140-.L161)/2
 2038 010a FC00     		.2byte	(.L148-.L161)/2
 2039 010c FD00     		.2byte	(.L149-.L161)/2
 2040 010e F600     		.2byte	(.L150-.L161)/2
 2041 0110 0101     		.2byte	(.L151-.L161)/2
 2042 0112 3601     		.2byte	(.L194-.L161)/2
 2043 0114 2E01     		.2byte	(.L196-.L161)/2
 2044 0116 3601     		.2byte	(.L194-.L161)/2
 2045 0118 2E01     		.2byte	(.L196-.L161)/2
 2046 011a 2E01     		.2byte	(.L196-.L161)/2
 2047 011c E300     		.2byte	(.L142-.L161)/2
 2048 011e E900     		.2byte	(.L143-.L161)/2
ARM GAS  /tmp/ccSqa4tb.s 			page 37


 2049 0120 2E01     		.2byte	(.L196-.L161)/2
 2050 0122 2E01     		.2byte	(.L196-.L161)/2
 2051 0124 E900     		.2byte	(.L143-.L161)/2
 2052 0126 2E01     		.2byte	(.L196-.L161)/2
 2053 0128 EF00     		.2byte	(.L145-.L161)/2
 2054 012a EF00     		.2byte	(.L145-.L161)/2
 2055 012c EF00     		.2byte	(.L145-.L161)/2
 2056 012e EF00     		.2byte	(.L145-.L161)/2
 2057 0130 EF00     		.2byte	(.L145-.L161)/2
 2058 0132 EF00     		.2byte	(.L145-.L161)/2
 2059 0134 3601     		.2byte	(.L194-.L161)/2
 2060 0136 3601     		.2byte	(.L194-.L161)/2
 2061 0138 2E01     		.2byte	(.L196-.L161)/2
 2062 013a 2E01     		.2byte	(.L196-.L161)/2
 2063 013c 3601     		.2byte	(.L194-.L161)/2
 2064 013e 3601     		.2byte	(.L194-.L161)/2
 2065 0140 2E01     		.2byte	(.L196-.L161)/2
 2066 0142 2E01     		.2byte	(.L196-.L161)/2
 2067 0144 2E01     		.2byte	(.L196-.L161)/2
 2068 0146 2E01     		.2byte	(.L196-.L161)/2
 2069 0148 E300     		.2byte	(.L142-.L161)/2
 2070 014a E900     		.2byte	(.L143-.L161)/2
 2071 014c E300     		.2byte	(.L142-.L161)/2
 2072 014e E900     		.2byte	(.L143-.L161)/2
 2073 0150 0D01     		.2byte	(.L152-.L161)/2
 2074 0152 AF00     		.2byte	(.L153-.L161)/2
 2075 0154 AF00     		.2byte	(.L153-.L161)/2
 2076 0156 AF00     		.2byte	(.L153-.L161)/2
 2077 0158 AF00     		.2byte	(.L153-.L161)/2
 2078 015a AF00     		.2byte	(.L153-.L161)/2
 2079 015c AF00     		.2byte	(.L153-.L161)/2
 2080 015e AF00     		.2byte	(.L153-.L161)/2
 2081 0160 B400     		.2byte	(.L154-.L161)/2
 2082 0162 BC00     		.2byte	(.L155-.L161)/2
 2083 0164 C600     		.2byte	(.L156-.L161)/2
 2084 0166 CC00     		.2byte	(.L157-.L161)/2
 2085 0168 D300     		.2byte	(.L158-.L161)/2
 2086 016a D300     		.2byte	(.L158-.L161)/2
 2087 016c D800     		.2byte	(.L159-.L161)/2
 2088 016e D800     		.2byte	(.L159-.L161)/2
 2089 0170 D800     		.2byte	(.L159-.L161)/2
 2090 0172 D800     		.2byte	(.L159-.L161)/2
 2091 0174 3601     		.2byte	(.L194-.L161)/2
 2092 0176 3601     		.2byte	(.L194-.L161)/2
 2093 0178 3601     		.2byte	(.L194-.L161)/2
 2094 017a 3601     		.2byte	(.L194-.L161)/2
 2095 017c 3601     		.2byte	(.L194-.L161)/2
 2096 017e D300     		.2byte	(.L158-.L161)/2
 2097 0180 D800     		.2byte	(.L159-.L161)/2
 2098 0182 D800     		.2byte	(.L159-.L161)/2
 2099 0184 3601     		.2byte	(.L194-.L161)/2
 2100 0186 3601     		.2byte	(.L194-.L161)/2
 2101 0188 3601     		.2byte	(.L194-.L161)/2
 2102 018a 3601     		.2byte	(.L194-.L161)/2
 2103 018c 3601     		.2byte	(.L194-.L161)/2
 2104 018e 3601     		.2byte	(.L194-.L161)/2
 2105 0190 3601     		.2byte	(.L194-.L161)/2
ARM GAS  /tmp/ccSqa4tb.s 			page 38


 2106 0192 3601     		.2byte	(.L194-.L161)/2
 2107 0194 3601     		.2byte	(.L194-.L161)/2
 2108 0196 3601     		.2byte	(.L194-.L161)/2
 2109 0198 3601     		.2byte	(.L194-.L161)/2
 2110 019a DF00     		.2byte	(.L160-.L161)/2
 2111 019c DF00     		.2byte	(.L160-.L161)/2
 2112 019e DF00     		.2byte	(.L160-.L161)/2
 2113 01a0 DF00     		.2byte	(.L160-.L161)/2
 2114 01a2 DF00     		.2byte	(.L160-.L161)/2
 2115 01a4 DF00     		.2byte	(.L160-.L161)/2
 2116 01a6 DF00     		.2byte	(.L160-.L161)/2
 2117 01a8 3601     		.2byte	(.L194-.L161)/2
 2118 01aa 3601     		.2byte	(.L194-.L161)/2
 2119 01ac 3601     		.2byte	(.L194-.L161)/2
 2120 01ae 3601     		.2byte	(.L194-.L161)/2
 2121 01b0 3601     		.2byte	(.L194-.L161)/2
 2122 01b2 3601     		.2byte	(.L194-.L161)/2
 2123 01b4 3601     		.2byte	(.L194-.L161)/2
 2124 01b6 3601     		.2byte	(.L194-.L161)/2
 2125 01b8 3601     		.2byte	(.L194-.L161)/2
 2126 01ba 3601     		.2byte	(.L194-.L161)/2
 2127 01bc D300     		.2byte	(.L158-.L161)/2
 2128 01be D800     		.2byte	(.L159-.L161)/2
 2129 01c0 D300     		.2byte	(.L158-.L161)/2
 2130 01c2 D800     		.2byte	(.L159-.L161)/2
 2131 01c4 3601     		.2byte	(.L194-.L161)/2
 2132 01c6 3601     		.2byte	(.L194-.L161)/2
 2133 01c8 3601     		.2byte	(.L194-.L161)/2
 2134 01ca 3601     		.2byte	(.L194-.L161)/2
 2135 01cc 3601     		.2byte	(.L194-.L161)/2
 2136              	.L153:
 2137              	.LVL219:
 2138              		.loc 1 720 0
 2139 01ce D258     		ldr	r2, [r2, r3]
 2140              	.LVL220:
 2141 01d0 0132     		adds	r2, r2, #1
 2142              	.LVL221:
 2143 01d2 03EB8203 		add	r3, r3, r2, lsl #2
 2144              	.LVL222:
 2145              		.loc 1 721 0
 2146 01d6 81E0     		b	.L194
 2147              	.LVL223:
 2148              	.L154:
 2149              		.loc 1 724 0
 2150 01d8 D158     		ldr	r1, [r2, r3]
 2151              	.LVL224:
 2152              		.loc 1 725 0
 2153 01da 0029     		cmp	r1, #0
 2154 01dc 6ADB     		blt	.L184
 2155              		.loc 1 725 0 is_stmt 0 discriminator 1
 2156 01de B142     		cmp	r1, r6
 2157 01e0 68DA     		bge	.L184
 2158              	.L163:
 2159              		.loc 1 729 0 is_stmt 1
 2160 01e2 D218     		adds	r2, r2, r3
 2161              	.LVL225:
 2162 01e4 5268     		ldr	r2, [r2, #4]
ARM GAS  /tmp/ccSqa4tb.s 			page 39


 2163              	.LVL226:
 2164 01e6 0AE0     		b	.L203
 2165              	.LVL227:
 2166              	.L155:
 2167              		.loc 1 738 0
 2168 01e8 52F803C0 		ldr	ip, [r2, r3]
 2169              	.LVL228:
 2170              		.loc 1 739 0
 2171 01ec 6942     		negs	r1, r5
 2172              	.LVL229:
 2173 01ee 8C45     		cmp	ip, r1
 2174 01f0 60DB     		blt	.L184
 2175              		.loc 1 739 0 is_stmt 0 discriminator 1
 2176 01f2 AC45     		cmp	ip, r5
 2177 01f4 5EDC     		bgt	.L184
 2178              	.L167:
 2179              		.loc 1 743 0 is_stmt 1
 2180 01f6 D218     		adds	r2, r2, r3
 2181              	.LVL230:
 2182 01f8 5268     		ldr	r2, [r2, #4]
 2183              	.LVL231:
 2184 01fa 07E0     		b	.L204
 2185              	.LVL232:
 2186              	.L156:
 2187              		.loc 1 752 0
 2188 01fc D258     		ldr	r2, [r2, r3]
 2189              	.LVL233:
 2190              	.L203:
 2191              		.loc 1 753 0
 2192 01fe 002A     		cmp	r2, #0
 2193 0200 58DB     		blt	.L184
 2194              		.loc 1 753 0 is_stmt 0 discriminator 1
 2195 0202 B242     		cmp	r2, r6
 2196 0204 3BDB     		blt	.L195
 2197 0206 55E0     		b	.L184
 2198              	.LVL234:
 2199              	.L157:
 2200              		.loc 1 761 0 is_stmt 1
 2201 0208 D258     		ldr	r2, [r2, r3]
 2202              	.LVL235:
 2203              		.loc 1 762 0
 2204 020a 6942     		negs	r1, r5
 2205              	.LVL236:
 2206              	.L204:
 2207 020c 8A42     		cmp	r2, r1
 2208 020e 51DB     		blt	.L184
 2209              		.loc 1 762 0 is_stmt 0 discriminator 1
 2210 0210 AA42     		cmp	r2, r5
 2211 0212 34DD     		ble	.L195
 2212 0214 4EE0     		b	.L184
 2213              	.LVL237:
 2214              	.L158:
 2215              		.loc 1 810 0 is_stmt 1
 2216 0216 0914     		asrs	r1, r1, #16
 2217              	.LVL238:
 2218 0218 4CD4     		bmi	.L184
 2219              		.loc 1 810 0 is_stmt 0 discriminator 1
ARM GAS  /tmp/ccSqa4tb.s 			page 40


 2220 021a B142     		cmp	r1, r6
 2221 021c 5EDB     		blt	.L194
 2222 021e 49E0     		b	.L184
 2223              	.LVL239:
 2224              	.L159:
 2225              		.loc 1 824 0 is_stmt 1
 2226 0220 0914     		asrs	r1, r1, #16
 2227              	.LVL240:
 2228              		.loc 1 825 0
 2229 0222 6A42     		negs	r2, r5
 2230              	.LVL241:
 2231 0224 9142     		cmp	r1, r2
 2232 0226 45DB     		blt	.L184
 2233              		.loc 1 825 0 is_stmt 0 discriminator 1
 2234 0228 A942     		cmp	r1, r5
 2235 022a 57DD     		ble	.L194
 2236 022c 42E0     		b	.L184
 2237              	.LVL242:
 2238              	.L160:
 2239              		.loc 1 838 0 is_stmt 1
 2240 022e 0914     		asrs	r1, r1, #16
 2241              	.LVL243:
 2242              		.loc 1 839 0
 2243 0230 03EB8103 		add	r3, r3, r1, lsl #2
 2244              	.LVL244:
 2245              		.loc 1 840 0
 2246 0234 52E0     		b	.L194
 2247              	.LVL245:
 2248              	.L142:
 2249              		.loc 1 887 0
 2250 0236 D258     		ldr	r2, [r2, r3]
 2251              	.LVL246:
 2252              		.loc 1 888 0
 2253 0238 002A     		cmp	r2, #0
 2254 023a 3BDB     		blt	.L184
 2255              		.loc 1 888 0 is_stmt 0 discriminator 1
 2256 023c B242     		cmp	r2, r6
 2257 023e 45DB     		blt	.L196
 2258 0240 38E0     		b	.L184
 2259              	.LVL247:
 2260              	.L143:
 2261              		.loc 1 907 0 is_stmt 1
 2262 0242 D258     		ldr	r2, [r2, r3]
 2263              	.LVL248:
 2264              		.loc 1 908 0
 2265 0244 6942     		negs	r1, r5
 2266              	.LVL249:
 2267 0246 8A42     		cmp	r2, r1
 2268 0248 34DB     		blt	.L184
 2269              		.loc 1 908 0 is_stmt 0 discriminator 1
 2270 024a AA42     		cmp	r2, r5
 2271 024c 04E0     		b	.L200
 2272              	.LVL250:
 2273              	.L145:
 2274              		.loc 1 978 0 is_stmt 1
 2275 024e D258     		ldr	r2, [r2, r3]
 2276 0250 9A18     		adds	r2, r3, r2
ARM GAS  /tmp/ccSqa4tb.s 			page 41


 2277              	.LVL251:
 2278              		.loc 1 979 0
 2279 0252 043A     		subs	r2, r2, #4
 2280              	.LVL252:
 2281 0254 2ED4     		bmi	.L184
 2282              		.loc 1 979 0 is_stmt 0 discriminator 1
 2283 0256 BA42     		cmp	r2, r7
 2284              	.LVL253:
 2285              	.L200:
 2286 0258 38DD     		ble	.L196
 2287 025a 2BE0     		b	.L184
 2288              	.LVL254:
 2289              	.L150:
 2290              		.loc 1 994 0 is_stmt 1
 2291 025c D258     		ldr	r2, [r2, r3]
 2292 025e 9A18     		adds	r2, r3, r2
 2293              	.LVL255:
 2294              		.loc 1 995 0
 2295 0260 043A     		subs	r2, r2, #4
 2296              	.LVL256:
 2297 0262 27D4     		bmi	.L184
 2298              		.loc 1 995 0 is_stmt 0 discriminator 1
 2299 0264 BA42     		cmp	r2, r7
 2300 0266 25DC     		bgt	.L184
 2301              	.LVL257:
 2302              	.L148:
 2303              		.loc 1 1001 0 is_stmt 1
 2304 0268 0433     		adds	r3, r3, #4
 2305              	.LVL258:
 2306              	.L149:
 2307              		.loc 1 1009 0
 2308 026a 6269     		ldr	r2, [r4, #20]	@ unaligned
 2309 026c 002A     		cmp	r2, #0
 2310 026e 35D1     		bne	.L194
 2311 0270 45E0     		b	.L191
 2312              	.L151:
 2313              	.LBB16:
 2314              		.loc 1 1016 0
 2315 0272 6169     		ldr	r1, [r4, #20]	@ unaligned
 2316              	.LVL259:
 2317              		.loc 1 1014 0
 2318 0274 D258     		ldr	r2, [r2, r3]
 2319              	.LVL260:
 2320              		.loc 1 1016 0
 2321 0276 0029     		cmp	r1, #0
 2322 0278 41D0     		beq	.L191
 2323              		.loc 1 1015 0
 2324 027a 03EBC203 		add	r3, r3, r2, lsl #3
 2325              	.LVL261:
 2326              	.L195:
 2327 027e 0833     		adds	r3, r3, #8
 2328 0280 2CE0     		b	.L194
 2329              	.LVL262:
 2330              	.L146:
 2331              	.LBE16:
 2332              		.loc 1 1023 0
 2333 0282 0433     		adds	r3, r3, #4
ARM GAS  /tmp/ccSqa4tb.s 			page 42


 2334              	.LVL263:
 2335              		.loc 1 1024 0
 2336 0284 40F00100 		orr	r0, r0, #1
 2337              	.LVL264:
 2338              		.loc 1 1025 0
 2339 0288 28E0     		b	.L194
 2340              	.L152:
 2341              		.loc 1 1028 0
 2342 028a 0833     		adds	r3, r3, #8
 2343              	.LVL265:
 2344              		.loc 1 1029 0
 2345 028c 40F00200 		orr	r0, r0, #2
 2346              	.LVL266:
 2347              		.loc 1 1030 0
 2348 0290 24E0     		b	.L194
 2349              	.L147:
 2350              	.LBB17:
 2351              		.loc 1 1036 0
 2352 0292 52F80390 		ldr	r9, [r2, r3]
 2353              	.LVL267:
 2354 0296 0AF10801 		add	r1, sl, #8
 2355              	.LVL268:
 2356 029a 0433     		adds	r3, r3, #4
 2357              	.LVL269:
 2358              		.loc 1 1037 0
 2359 029c 4FF0000C 		mov	ip, #0
 2360 02a0 10E0     		b	.L183
 2361              	.LVL270:
 2362              	.L186:
 2363              		.loc 1 1039 0
 2364 02a2 52F801A0 		ldr	sl, [r2, r1]
 2365 02a6 8A44     		add	sl, r1, sl
 2366              	.LVL271:
 2367              		.loc 1 1040 0
 2368 02a8 BAF1040A 		subs	sl, sl, #4
 2369              	.LVL272:
 2370 02ac 02D4     		bmi	.L184
 2371              		.loc 1 1040 0 is_stmt 0 discriminator 1
 2372 02ae 0831     		adds	r1, r1, #8
 2373              	.LVL273:
 2374 02b0 BA45     		cmp	sl, r7
 2375 02b2 05DD     		ble	.L185
 2376              	.LVL274:
 2377              	.L184:
 2378              		.loc 1 1041 0 is_stmt 1
 2379 02b4 236B     		ldr	r3, [r4, #48]	@ unaligned
 2380              	.LVL275:
 2381              		.loc 1 1042 0
 2382 02b6 0420     		movs	r0, #4
 2383              	.LVL276:
 2384              		.loc 1 1041 0
 2385 02b8 23F48043 		bic	r3, r3, #16384
 2386 02bc 2363     		str	r3, [r4, #48]	@ unaligned
 2387              		.loc 1 1042 0
 2388 02be 1FE0     		b	.L139
 2389              	.LVL277:
 2390              	.L185:
ARM GAS  /tmp/ccSqa4tb.s 			page 43


 2391              		.loc 1 1037 0
 2392 02c0 0CF1010C 		add	ip, ip, #1
 2393              	.LVL278:
 2394              	.L183:
 2395              		.loc 1 1037 0 is_stmt 0 discriminator 1
 2396 02c4 CC45     		cmp	ip, r9
 2397 02c6 ECDD     		ble	.L186
 2398              		.loc 1 1049 0 is_stmt 1
 2399 02c8 03EBC903 		add	r3, r3, r9, lsl #3
 2400              	.LVL279:
 2401              	.L196:
 2402 02cc 0433     		adds	r3, r3, #4
 2403              	.LVL280:
 2404 02ce 05E0     		b	.L194
 2405              	.LVL281:
 2406              	.L140:
 2407              	.LBE17:
 2408              		.loc 1 1054 0
 2409 02d0 236B     		ldr	r3, [r4, #48]	@ unaligned
 2410              	.LVL282:
 2411              		.loc 1 1055 0
 2412 02d2 0620     		movs	r0, #6
 2413              	.LVL283:
 2414              		.loc 1 1054 0
 2415 02d4 23F48043 		bic	r3, r3, #16384
 2416 02d8 2363     		str	r3, [r4, #48]	@ unaligned
 2417              		.loc 1 1055 0
 2418 02da 11E0     		b	.L139
 2419              	.LVL284:
 2420              	.L194:
 2421              		.loc 1 686 0 discriminator 1
 2422 02dc BB42     		cmp	r3, r7
 2423 02de FFF6B8AE 		blt	.L187
 2424              		.loc 1 1085 0
 2425 02e2 236B     		ldr	r3, [r4, #48]	@ unaligned
 2426              	.LVL285:
 2427              		.loc 1 1087 0
 2428 02e4 10F00200 		ands	r0, r0, #2
 2429              	.LVL286:
 2430              		.loc 1 1085 0
 2431 02e8 23F48043 		bic	r3, r3, #16384
 2432              		.loc 1 1086 0
 2433 02ec 43F40042 		orr	r2, r3, #32768
 2434 02f0 2263     		str	r2, [r4, #48]	@ unaligned
 2435              		.loc 1 1087 0
 2436 02f2 05D0     		beq	.L139
 2437              		.loc 1 1088 0
 2438 02f4 43F40843 		orr	r3, r3, #34816
 2439 02f8 2363     		str	r3, [r4, #48]	@ unaligned
 2440              		.loc 1 1090 0
 2441 02fa 0020     		movs	r0, #0
 2442 02fc 00E0     		b	.L139
 2443              	.LVL287:
 2444              	.L191:
 2445              	.LBB18:
 2446              		.loc 1 1017 0
 2447 02fe 1C20     		movs	r0, #28
ARM GAS  /tmp/ccSqa4tb.s 			page 44


 2448              	.LVL288:
 2449              	.L139:
 2450              	.LBE18:
 2451              		.loc 1 1091 0
 2452 0300 BDE8FC87 		pop	{r2, r3, r4, r5, r6, r7, r8, r9, sl, pc}
 2453              		.cfi_endproc
 2454              	.LFE5:
 2455              		.size	VerifyPcode, .-VerifyPcode
 2456              		.section	.text.amx_Init,"ax",%progbits
 2457              		.align	1
 2458              		.global	amx_Init
 2459              		.thumb
 2460              		.thumb_func
 2461              		.type	amx_Init, %function
 2462              	amx_Init:
 2463              	.LFB6:
 2464              		.loc 1 1099 0
 2465              		.cfi_startproc
 2466              		@ args = 0, pretend = 0, frame = 0
 2467              		@ frame_needed = 0, uses_anonymous_args = 0
 2468              	.LVL289:
 2469 0000 70B5     		push	{r4, r5, r6, lr}
 2470              	.LCFI20:
 2471              		.cfi_def_cfa_offset 16
 2472              		.loc 1 1121 0
 2473 0002 036B     		ldr	r3, [r0, #48]	@ unaligned
 2474              		.loc 1 1099 0
 2475 0004 0546     		mov	r5, r0
 2476              		.cfi_offset 14, -4
 2477              		.cfi_offset 6, -8
 2478              		.cfi_offset 5, -12
 2479              		.cfi_offset 4, -16
 2480              		.loc 1 1121 0
 2481 0006 13F4004F 		tst	r3, #32768
 2482              		.loc 1 1099 0
 2483 000a 0C46     		mov	r4, r1
 2484              		.loc 1 1121 0
 2485 000c 61D1     		bne	.L217
 2486              	.LVL290:
 2487              		.loc 1 1148 0
 2488 000e 8988     		ldrh	r1, [r1, #4]	@ unaligned
 2489              	.LVL291:
 2490 0010 4FF2E012 		movw	r2, #61920
 2491 0014 9142     		cmp	r1, r2
 2492 0016 60D1     		bne	.L222
 2493              		.loc 1 1150 0
 2494 0018 A279     		ldrb	r2, [r4, #6]	@ zero_extendqisi2
 2495 001a 0B2A     		cmp	r2, #11
 2496 001c 5BD8     		bhi	.L220
 2497              		.loc 1 1150 0 is_stmt 0 discriminator 1
 2498 001e E279     		ldrb	r2, [r4, #7]	@ zero_extendqisi2
 2499 0020 0A2A     		cmp	r2, #10
 2500 0022 58D9     		bls	.L220
 2501              		.loc 1 1152 0 is_stmt 1
 2502 0024 B4F90A20 		ldrsh	r2, [r4, #10]	@ unaligned
 2503 0028 082A     		cmp	r2, #8
 2504 002a 56D1     		bne	.L222
ARM GAS  /tmp/ccSqa4tb.s 			page 45


 2505              	.LVL292:
 2506              		.loc 1 1156 0
 2507 002c 626B     		ldr	r2, [r4, #52]	@ unaligned
 2508              		.loc 1 1158 0
 2509 002e A25A     		ldrh	r2, [r4, r2]
 2510 0030 1F2A     		cmp	r2, #31
 2511 0032 52D8     		bhi	.L222
 2512              		.loc 1 1160 0
 2513 0034 A069     		ldr	r0, [r4, #24]	@ unaligned
 2514              	.LVL293:
 2515 0036 0028     		cmp	r0, #0
 2516 0038 51DD     		ble	.L223
 2517              		.loc 1 1171 0
 2518 003a 2C60     		str	r4, [r5, #0]	@ unaligned
 2519              		.loc 1 1174 0
 2520 003c 2169     		ldr	r1, [r4, #16]	@ unaligned
 2521 003e 6269     		ldr	r2, [r4, #20]	@ unaligned
 2522              		.loc 1 1175 0
 2523 0040 401A     		subs	r0, r0, r1
 2524 0042 0438     		subs	r0, r0, #4
 2525 0044 E862     		str	r0, [r5, #44]	@ unaligned
 2526              		.loc 1 1177 0
 2527 0046 A862     		str	r0, [r5, #40]	@ unaligned
 2528              		.loc 1 1179 0
 2529 0048 E868     		ldr	r0, [r5, #12]	@ unaligned
 2530              		.loc 1 1174 0
 2531 004a 521A     		subs	r2, r2, r1
 2532 004c 6A62     		str	r2, [r5, #36]	@ unaligned
 2533              		.loc 1 1176 0
 2534 004e 2A62     		str	r2, [r5, #32]	@ unaligned
 2535              		.loc 1 1179 0
 2536 0050 08B9     		cbnz	r0, .L207
 2537              		.loc 1 1180 0
 2538 0052 2448     		ldr	r0, .L225
 2539 0054 E860     		str	r0, [r5, #12]	@ unaligned
 2540              	.L207:
 2541              		.loc 1 1188 0
 2542 0056 6868     		ldr	r0, [r5, #4]	@ unaligned
 2543 0058 10B9     		cbnz	r0, .L208
 2544              		.loc 1 1189 0
 2545 005a E068     		ldr	r0, [r4, #12]	@ unaligned
 2546 005c 2018     		adds	r0, r4, r0
 2547 005e 6860     		str	r0, [r5, #4]	@ unaligned
 2548              	.L208:
 2549              		.loc 1 1190 0
 2550 0060 686F     		ldr	r0, [r5, #116]	@ unaligned
 2551 0062 10B9     		cbnz	r0, .L209
 2552              		.loc 1 1191 0
 2553 0064 E068     		ldr	r0, [r4, #12]	@ unaligned
 2554 0066 081A     		subs	r0, r1, r0
 2555 0068 6867     		str	r0, [r5, #116]	@ unaligned
 2556              	.L209:
 2557              		.loc 1 1198 0
 2558 006a AE68     		ldr	r6, [r5, #8]	@ unaligned
 2559 006c 4EB1     		cbz	r6, .L210
 2560              	.LVL294:
 2561              		.loc 1 1200 0
ARM GAS  /tmp/ccSqa4tb.s 			page 46


 2562 006e 13F0200F 		tst	r3, #32
 2563 0072 07D1     		bne	.L211
 2564              		.loc 1 1200 0 is_stmt 0 discriminator 1
 2565 0074 6B69     		ldr	r3, [r5, #20]	@ unaligned
 2566 0076 2BB9     		cbnz	r3, .L211
 2567              		.loc 1 1201 0 is_stmt 1
 2568 0078 3046     		mov	r0, r6
 2569 007a 6118     		adds	r1, r4, r1
 2570 007c FFF7FEFF 		bl	memcpy
 2571              	.LVL295:
 2572 0080 00E0     		b	.L211
 2573              	.LVL296:
 2574              	.L210:
 2575              		.loc 1 1203 0
 2576 0082 6618     		adds	r6, r4, r1
 2577              	.LVL297:
 2578              	.L211:
 2579              		.loc 1 1209 0
 2580 0084 A269     		ldr	r2, [r4, #24]	@ unaligned
 2581 0086 2369     		ldr	r3, [r4, #16]	@ unaligned
 2582 0088 D31A     		subs	r3, r2, r3
 2583 008a F318     		adds	r3, r6, r3
 2584 008c 0026     		movs	r6, #0
 2585              	.LVL298:
 2586 008e 43F8046C 		str	r6, [r3, #-4]
 2587              		.loc 1 1263 0
 2588 0092 2389     		ldrh	r3, [r4, #8]	@ unaligned
 2589 0094 13F0010F 		tst	r3, #1
 2590 0098 04D1     		bne	.L212
 2591              		.loc 1 1264 0
 2592 009a 2846     		mov	r0, r5
 2593              		.loc 1 1336 0
 2594 009c BDE87040 		pop	{r4, r5, r6, lr}
 2595              		.loc 1 1264 0
 2596 00a0 FFF7FEBF 		b	VerifyPcode
 2597              	.L212:
 2598              	.LBB19:
 2599              		.loc 1 1267 0
 2600 00a4 6869     		ldr	r0, [r5, #20]	@ unaligned
 2601 00a6 0028     		cmp	r0, #0
 2602 00a8 0CBF     		ite	eq
 2603 00aa 1C20     		moveq	r0, #28
 2604 00ac 0020     		movne	r0, #0
 2605 00ae 08E0     		b	.L214
 2606              	.LVL299:
 2607              	.L216:
 2608              		.loc 1 1272 0
 2609 00b0 6B69     		ldr	r3, [r5, #20]	@ unaligned
 2610 00b2 2846     		mov	r0, r5
 2611              	.LVL300:
 2612 00b4 3146     		mov	r1, r6
 2613 00b6 9847     		blx	r3
 2614              	.LVL301:
 2615              		.loc 1 1273 0
 2616 00b8 10B9     		cbnz	r0, .L215
 2617              		.loc 1 1274 0
 2618 00ba 2846     		mov	r0, r5
ARM GAS  /tmp/ccSqa4tb.s 			page 47


 2619              	.LVL302:
 2620 00bc FFF7FEFF 		bl	VerifyPcode
 2621              	.LVL303:
 2622              	.L215:
 2623              		.loc 1 1271 0
 2624 00c0 0136     		adds	r6, r6, #1
 2625              	.LVL304:
 2626              	.L214:
 2627              		.loc 1 1271 0 is_stmt 0 discriminator 1
 2628 00c2 68B9     		cbnz	r0, .L206
 2629              		.loc 1 1271 0 discriminator 2
 2630 00c4 626B     		ldr	r2, [r4, #52]	@ unaligned
 2631 00c6 A36B     		ldr	r3, [r4, #56]	@ unaligned
 2632 00c8 D31A     		subs	r3, r2, r3
 2633 00ca B6EBD30F 		cmp	r6, r3, lsr #3
 2634 00ce EFDB     		blt	.L216
 2635 00d0 70BD     		pop	{r4, r5, r6, pc}
 2636              	.LVL305:
 2637              	.L217:
 2638              	.LBE19:
 2639              		.loc 1 1122 0 is_stmt 1
 2640 00d2 1620     		movs	r0, #22
 2641 00d4 70BD     		pop	{r4, r5, r6, pc}
 2642              	.LVL306:
 2643              	.L220:
 2644              		.loc 1 1151 0
 2645 00d6 1220     		movs	r0, #18
 2646 00d8 70BD     		pop	{r4, r5, r6, pc}
 2647              	.L222:
 2648              		.loc 1 1159 0
 2649 00da 1120     		movs	r0, #17
 2650 00dc 70BD     		pop	{r4, r5, r6, pc}
 2651              	.LVL307:
 2652              	.L223:
 2653              		.loc 1 1161 0
 2654 00de 1120     		movs	r0, #17
 2655              	.LVL308:
 2656              	.L206:
 2657              		.loc 1 1336 0
 2658 00e0 70BD     		pop	{r4, r5, r6, pc}
 2659              	.L226:
 2660 00e2 00BF     		.align	2
 2661              	.L225:
 2662 00e4 00000000 		.word	amx_Callback
 2663              		.cfi_endproc
 2664              	.LFE6:
 2665              		.size	amx_Init, .-amx_Init
 2666              		.section	.text.amx_Exec,"ax",%progbits
 2667              		.align	1
 2668              		.global	amx_Exec
 2669              		.thumb
 2670              		.thumb_func
 2671              		.type	amx_Exec, %function
 2672              	amx_Exec:
 2673              	.LFB34:
 2674              		.loc 1 2065 0
 2675              		.cfi_startproc
ARM GAS  /tmp/ccSqa4tb.s 			page 48


 2676              		@ args = 0, pretend = 0, frame = 32
 2677              		@ frame_needed = 0, uses_anonymous_args = 0
 2678              	.LVL309:
 2679 0000 2DE9F04F 		push	{r4, r5, r6, r7, r8, r9, sl, fp, lr}
 2680              	.LCFI21:
 2681              		.cfi_def_cfa_offset 36
 2682 0004 89B0     		sub	sp, sp, #36
 2683              	.LCFI22:
 2684              		.cfi_def_cfa_offset 72
 2685              		.loc 1 2065 0
 2686 0006 0591     		str	r1, [sp, #20]
 2687              		.loc 1 2077 0
 2688 0008 036B     		ldr	r3, [r0, #48]	@ unaligned
 2689              		.loc 1 2065 0
 2690 000a 0546     		mov	r5, r0
 2691              		.cfi_offset 14, -4
 2692              		.cfi_offset 11, -8
 2693              		.cfi_offset 10, -12
 2694              		.cfi_offset 9, -16
 2695              		.cfi_offset 8, -20
 2696              		.cfi_offset 7, -24
 2697              		.cfi_offset 6, -28
 2698              		.cfi_offset 5, -32
 2699              		.cfi_offset 4, -36
 2700              		.loc 1 2077 0
 2701 000c 13F4004F 		tst	r3, #32768
 2702              		.loc 1 2065 0
 2703 0010 1446     		mov	r4, r2
 2704              		.loc 1 2077 0
 2705 0012 01F0A481 		beq	.L546
 2706              		.loc 1 2079 0
 2707 0016 C268     		ldr	r2, [r0, #12]	@ unaligned
 2708              	.LVL310:
 2709 0018 002A     		cmp	r2, #0
 2710 001a 01F0A281 		beq	.L547
 2711              		.loc 1 2082 0
 2712 001e 0068     		ldr	r0, [r0, #0]	@ unaligned
 2713              	.LVL311:
 2714              		.loc 1 2086 0
 2715 0020 13F4805C 		ands	ip, r3, #4096
 2716              		.loc 1 2082 0
 2717 0024 0390     		str	r0, [sp, #12]
 2718              	.LVL312:
 2719              		.loc 1 2086 0
 2720 0026 1AD1     		bne	.L229
 2721              	.LBB20:
 2722              		.loc 1 2092 0
 2723 0028 039A     		ldr	r2, [sp, #12]
 2724 002a 416A     		ldr	r1, [r0, #36]	@ unaligned
 2725              	.LVL313:
 2726 002c 976A     		ldr	r7, [r2, #40]	@ unaligned
 2727 002e B0F90A00 		ldrsh	r0, [r0, #10]	@ unaligned
 2728              	.LVL314:
 2729 0032 7F1A     		subs	r7, r7, r1
 2730 0034 0646     		mov	r6, r0	@ movhi
 2731 0036 00B2     		sxth	r0, r0
 2732              		.loc 1 2093 0
ARM GAS  /tmp/ccSqa4tb.s 			page 49


 2733 0038 5118     		adds	r1, r2, r1
 2734              		.loc 1 2092 0
 2735 003a 97FBF0F0 		sdiv	r0, r7, r0
 2736              	.LVL315:
 2737              		.loc 1 2094 0
 2738 003e 6246     		mov	r2, ip
 2739              	.LVL316:
 2740 0040 02E0     		b	.L230
 2741              	.LVL317:
 2742              	.L232:
 2743              		.loc 1 2095 0 discriminator 1
 2744 0042 37B2     		sxth	r7, r6
 2745              		.loc 1 2064 0 discriminator 1
 2746 0044 C919     		adds	r1, r1, r7
 2747              	.LVL318:
 2748              		.loc 1 2094 0 discriminator 1
 2749 0046 0132     		adds	r2, r2, #1
 2750              	.LVL319:
 2751              	.L230:
 2752 0048 8242     		cmp	r2, r0
 2753 004a 05DA     		bge	.L231
 2754              		.loc 1 2094 0 is_stmt 0 discriminator 2
 2755 004c 0F68     		ldr	r7, [r1, #0]	@ unaligned
 2756 004e 002F     		cmp	r7, #0
 2757 0050 F7D1     		bne	.L232
 2758              		.loc 1 2097 0 is_stmt 1
 2759 0052 1320     		movs	r0, #19
 2760              	.LVL320:
 2761 0054 01F08EB9 		b	.L228
 2762              	.LVL321:
 2763              	.L231:
 2764              		.loc 1 2098 0
 2765 0058 43F48053 		orr	r3, r3, #4096
 2766 005c 2B63     		str	r3, [r5, #48]	@ unaligned
 2767              	.LVL322:
 2768              	.L229:
 2769              	.LBE20:
 2770              		.loc 1 2105 0
 2771 005e AE68     		ldr	r6, [r5, #8]	@ unaligned
 2772 0060 16B9     		cbnz	r6, .L233
 2773              		.loc 1 2105 0 is_stmt 0 discriminator 2
 2774 0062 039B     		ldr	r3, [sp, #12]
 2775 0064 1E69     		ldr	r6, [r3, #16]	@ unaligned
 2776 0066 9E19     		adds	r6, r3, r6
 2777              	.L233:
 2778              	.LVL323:
 2779              		.loc 1 2108 0 is_stmt 1 discriminator 3
 2780 0068 0023     		movs	r3, #0
 2781              		.loc 1 2111 0 discriminator 3
 2782 006a B4F1FF3F 		cmp	r4, #-1
 2783              		.loc 1 2106 0 discriminator 3
 2784 006e D5F828B0 		ldr	fp, [r5, #40]	@ unaligned
 2785              	.LVL324:
 2786              		.loc 1 2107 0 discriminator 3
 2787 0072 D5F820C0 		ldr	ip, [r5, #32]	@ unaligned
 2788              	.LVL325:
 2789              		.loc 1 2108 0 discriminator 3
ARM GAS  /tmp/ccSqa4tb.s 			page 50


 2790 0076 85F85430 		strb	r3, [r5, #84]
 2791 007a 85F85530 		strb	r3, [r5, #85]
 2792 007e 85F85630 		strb	r3, [r5, #86]
 2793 0082 85F85730 		strb	r3, [r5, #87]
 2794              		.loc 1 2111 0 discriminator 3
 2795 0086 05D1     		bne	.L234
 2796              		.loc 1 2112 0
 2797 0088 0398     		ldr	r0, [sp, #12]
 2798 008a C169     		ldr	r1, [r0, #28]	@ unaligned
 2799 008c 9942     		cmp	r1, r3
 2800 008e 2BDA     		bge	.L575
 2801 0090 01F069B9 		b	.L550
 2802              	.L234:
 2803              		.loc 1 2123 0
 2804 0094 14F1020F 		cmn	r4, #2
 2805 0098 13D1     		bne	.L236
 2806              		.loc 1 2127 0
 2807 009a 0399     		ldr	r1, [sp, #12]
 2808              		.loc 1 2125 0
 2809 009c D5F864B0 		ldr	fp, [r5, #100]	@ unaligned
 2810              	.LVL326:
 2811              		.loc 1 2127 0
 2812 00a0 8A6B     		ldr	r2, [r1, #56]	@ unaligned
 2813 00a2 4B6B     		ldr	r3, [r1, #52]	@ unaligned
 2814              		.loc 1 2126 0
 2815 00a4 D5F868C0 		ldr	ip, [r5, #104]	@ unaligned
 2816              	.LVL327:
 2817              		.loc 1 2127 0
 2818 00a8 9A42     		cmp	r2, r3
 2819 00aa 31D0     		beq	.L235
 2820              		.loc 1 2130 0
 2821 00ac 6B69     		ldr	r3, [r5, #20]	@ unaligned
 2822 00ae 296F     		ldr	r1, [r5, #112]	@ unaligned
 2823 00b0 2846     		mov	r0, r5
 2824 00b2 CDF800C0 		str	ip, [sp, #0]
 2825 00b6 9847     		blx	r3
 2826              	.LVL328:
 2827 00b8 DDF800C0 		ldr	ip, [sp, #0]
 2828 00bc 40B3     		cbz	r0, .L235
 2829 00be 01F059B9 		b	.L228
 2830              	.LVL329:
 2831              	.L236:
 2832              		.loc 1 2133 0
 2833 00c2 002C     		cmp	r4, #0
 2834 00c4 C1F24F81 		blt	.L550
 2835              		.loc 1 2136 0
 2836 00c8 039B     		ldr	r3, [sp, #12]
 2837 00ca 1A6A     		ldr	r2, [r3, #32]	@ unaligned
 2838 00cc 596A     		ldr	r1, [r3, #36]	@ unaligned
 2839 00ce B3F90A30 		ldrsh	r3, [r3, #10]	@ unaligned
 2840 00d2 891A     		subs	r1, r1, r2
 2841 00d4 91FBF3F1 		sdiv	r1, r1, r3
 2842 00d8 8C42     		cmp	r4, r1
 2843 00da 81F24481 		bge	.L550
 2844              		.loc 1 2139 0
 2845 00de 0398     		ldr	r0, [sp, #12]
 2846 00e0 8218     		adds	r2, r0, r2
ARM GAS  /tmp/ccSqa4tb.s 			page 51


 2847 00e2 03FB0423 		mla	r3, r3, r4, r2
 2848 00e6 1968     		ldr	r1, [r3, #0]	@ unaligned
 2849              	.L575:
 2850 00e8 A961     		str	r1, [r5, #24]	@ unaligned
 2851              		.loc 1 2140 0
 2852 00ea 826B     		ldr	r2, [r0, #56]	@ unaligned
 2853 00ec 436B     		ldr	r3, [r0, #52]	@ unaligned
 2854 00ee 9A42     		cmp	r2, r3
 2855 00f0 0ED0     		beq	.L235
 2856              		.loc 1 2143 0
 2857 00f2 2967     		str	r1, [r5, #112]	@ unaligned
 2858              		.loc 1 2144 0
 2859 00f4 6B69     		ldr	r3, [r5, #20]	@ unaligned
 2860 00f6 2846     		mov	r0, r5
 2861 00f8 CDF800C0 		str	ip, [sp, #0]
 2862 00fc 9847     		blx	r3
 2863              	.LVL330:
 2864 00fe DDF800C0 		ldr	ip, [sp, #0]
 2865 0102 0028     		cmp	r0, #0
 2866 0104 41F03681 		bne	.L228
 2867              		.loc 1 2146 0
 2868 0108 2876     		strb	r0, [r5, #24]
 2869 010a 6876     		strb	r0, [r5, #25]
 2870 010c A876     		strb	r0, [r5, #26]
 2871 010e E876     		strb	r0, [r5, #27]
 2872              	.LVL331:
 2873              	.L235:
 2874              		.loc 1 2150 0
 2875 0110 AB6A     		ldr	r3, [r5, #40]	@ unaligned
 2876 0112 EA6A     		ldr	r2, [r5, #44]	@ unaligned
 2877 0114 9342     		cmp	r3, r2
 2878 0116 01F32881 		bgt	.L563
 2879              		.loc 1 2152 0
 2880 011a 296A     		ldr	r1, [r5, #32]	@ unaligned
 2881 011c 6A6A     		ldr	r2, [r5, #36]	@ unaligned
 2882 011e 9142     		cmp	r1, r2
 2883 0120 C1F22781 		blt	.L565
 2884              		.loc 1 2180 0
 2885 0124 14F1020F 		cmn	r4, #2
 2886 0128 12D0     		beq	.L237
 2887              		.loc 1 2181 0
 2888 012a AA6D     		ldr	r2, [r5, #88]	@ unaligned
 2889              		.loc 1 2182 0
 2890 012c 043B     		subs	r3, r3, #4
 2891              		.loc 1 2181 0
 2892 012e 9200     		lsls	r2, r2, #2
 2893              		.loc 1 2182 0
 2894 0130 AB62     		str	r3, [r5, #40]	@ unaligned
 2895 0132 F250     		str	r2, [r6, r3]
 2896              		.loc 1 2181 0
 2897 0134 9344     		add	fp, fp, r2
 2898              	.LVL332:
 2899              		.loc 1 2184 0
 2900 0136 AA6A     		ldr	r2, [r5, #40]	@ unaligned
 2901              		.loc 1 2183 0
 2902 0138 0023     		movs	r3, #0
 2903              		.loc 1 2184 0
ARM GAS  /tmp/ccSqa4tb.s 			page 52


 2904 013a 043A     		subs	r2, r2, #4
 2905              		.loc 1 2183 0
 2906 013c 85F85830 		strb	r3, [r5, #88]
 2907 0140 85F85930 		strb	r3, [r5, #89]
 2908 0144 85F85A30 		strb	r3, [r5, #90]
 2909 0148 85F85B30 		strb	r3, [r5, #91]
 2910              		.loc 1 2184 0
 2911 014c AA62     		str	r2, [r5, #40]	@ unaligned
 2912 014e B350     		str	r3, [r6, r2]
 2913              	.L237:
 2914              		.loc 1 2187 0
 2915 0150 296A     		ldr	r1, [r5, #32]	@ unaligned
 2916 0152 0491     		str	r1, [sp, #16]
 2917 0154 D5F82880 		ldr	r8, [r5, #40]	@ unaligned
 2918 0158 01F13F03 		add	r3, r1, #63
 2919 015c 4345     		cmp	r3, r8
 2920 015e 81F20681 		bge	.L564
 2921              		.loc 1 2228 0
 2922 0162 EB6D     		ldr	r3, [r5, #92]	@ unaligned
 2923 0164 0793     		str	r3, [sp, #28]
 2924              	.LVL333:
 2925              		.loc 1 2229 0
 2926 0166 D5F86090 		ldr	r9, [r5, #96]	@ unaligned
 2927              	.LVL334:
 2928              		.loc 1 2231 0
 2929 016a 6A68     		ldr	r2, [r5, #4]	@ unaligned
 2930 016c AB69     		ldr	r3, [r5, #24]	@ unaligned
 2931              		.loc 1 2230 0
 2932 016e D5F81CA0 		ldr	sl, [r5, #28]	@ unaligned
 2933              	.LVL335:
 2934 0172 4F46     		mov	r7, r9
 2935 0174 CDF804B0 		str	fp, [sp, #4]
 2936              		.loc 1 2231 0
 2937 0178 D218     		adds	r2, r2, r3
 2938              	.LVL336:
 2939 017a CDF808C0 		str	ip, [sp, #8]
 2940 017e 8B46     		mov	fp, r1
 2941              	.LVL337:
 2942 0180 A946     		mov	r9, r5
 2943              	.LVL338:
 2944 0182 05E0     		b	.L238
 2945              	.LVL339:
 2946              	.L554:
 2947              		.loc 1 2951 0
 2948 0184 0027     		movs	r7, #0
 2949              	.LVL340:
 2950 0186 02E0     		b	.L240
 2951              	.LVL341:
 2952              	.L560:
 2953              		.loc 1 2931 0
 2954 0188 1F46     		mov	r7, r3
 2955              	.LVL342:
 2956 018a 00E0     		b	.L240
 2957              	.LVL343:
 2958              	.L561:
 2959 018c 1F46     		mov	r7, r3
 2960              	.LVL344:
ARM GAS  /tmp/ccSqa4tb.s 			page 53


 2961              	.L240:
 2962 018e 2246     		mov	r2, r4
 2963              	.L238:
 2964              	.LVL345:
 2965              		.loc 1 2237 0
 2966 0190 1446     		mov	r4, r2
 2967 0192 54F8041B 		ldr	r1, [r4], #4
 2968              	.LVL346:
 2969              		.loc 1 2238 0
 2970 0196 CBB2     		uxtb	r3, r1
 2971 0198 AE2B     		cmp	r3, #174
 2972 019a 01F2D580 		bhi	.L241
 2973 019e 01A0     		adr	r0, .L411
 2974 01a0 50F823F0 		ldr	pc, [r0, r3, lsl #2]
 2975              		.align	2
 2976              	.L411:
 2977 01a4 8F010000 		.word	.L240+1
 2978 01a8 61040000 		.word	.L242+1
 2979 01ac 6B040000 		.word	.L243+1
 2980 01b0 73040000 		.word	.L244+1
 2981 01b4 81040000 		.word	.L245+1
 2982 01b8 8D040000 		.word	.L246+1
 2983 01bc 9B040000 		.word	.L247+1
 2984 01c0 A7040000 		.word	.L248+1
 2985 01c4 C3040000 		.word	.L249+1
 2986 01c8 FD040000 		.word	.L250+1
 2987 01cc 05050000 		.word	.L251+1
 2988 01d0 0B050000 		.word	.L252+1
 2989 01d4 15050000 		.word	.L253+1
 2990 01d8 1D050000 		.word	.L254+1
 2991 01dc 27050000 		.word	.L255+1
 2992 01e0 35050000 		.word	.L256+1
 2993 01e4 43050000 		.word	.L257+1
 2994 01e8 5D050000 		.word	.L258+1
 2995 01ec 97050000 		.word	.L259+1
 2996 01f0 AF050000 		.word	.L260+1
 2997 01f4 F9050000 		.word	.L261+1
 2998 01f8 3D060000 		.word	.L262+1
 2999 01fc 45060000 		.word	.L263+1
 3000 0200 51060000 		.word	.L264+1
 3001 0204 5B060000 		.word	.L265+1
 3002 0208 69060000 		.word	.L266+1
 3003 020c 75060000 		.word	.L267+1
 3004 0210 7F060000 		.word	.L268+1
 3005 0214 8D060000 		.word	.L269+1
 3006 0218 AD060000 		.word	.L270+1
 3007 021c CD060000 		.word	.L271+1
 3008 0220 E3060000 		.word	.L272+1
 3009 0224 05070000 		.word	.L273+1
 3010 0228 31070000 		.word	.L274+1
 3011 022c 49070000 		.word	.L275+1
 3012 0230 51070000 		.word	.L276+1
 3013 0234 61070000 		.word	.L277+1
 3014 0238 71070000 		.word	.L278+1
 3015 023c 79070000 		.word	.L279+1
 3016 0240 81070000 		.word	.L280+1
 3017 0244 89070000 		.word	.L281+1
ARM GAS  /tmp/ccSqa4tb.s 			page 54


 3018 0248 97070000 		.word	.L282+1
 3019 024c 9F070000 		.word	.L283+1
 3020 0250 A7070000 		.word	.L284+1
 3021 0254 CF070000 		.word	.L285+1
 3022 0258 D7070000 		.word	.L286+1
 3023 025c DF070000 		.word	.L287+1
 3024 0260 E7070000 		.word	.L288+1
 3025 0264 EF070000 		.word	.L289+1
 3026 0268 F7070000 		.word	.L290+1
 3027 026c 05080000 		.word	.L291+1
 3028 0270 0D080000 		.word	.L292+1
 3029 0274 15080000 		.word	.L293+1
 3030 0278 23080000 		.word	.L294+1
 3031 027c 2F080000 		.word	.L295+1
 3032 0280 3D080000 		.word	.L296+1
 3033 0284 4B080000 		.word	.L297+1
 3034 0288 59080000 		.word	.L298+1
 3035 028c 67080000 		.word	.L299+1
 3036 0290 6F080000 		.word	.L300+1
 3037 0294 73080000 		.word	.L301+1
 3038 0298 7D080000 		.word	.L302+1
 3039 029c 85080000 		.word	.L303+1
 3040 02a0 89080000 		.word	.L304+1
 3041 02a4 93080000 		.word	.L305+1
 3042 02a8 EB080000 		.word	.L306+1
 3043 02ac 45090000 		.word	.L307+1
 3044 02b0 81090000 		.word	.L308+1
 3045 02b4 BF090000 		.word	.L309+1
 3046 02b8 CF090000 		.word	.L310+1
 3047 02bc F9090000 		.word	.L311+1
 3048 02c0 290A0000 		.word	.L312+1
 3049 02c4 390A0000 		.word	.L313+1
 3050 02c8 470A0000 		.word	.L314+1
 3051 02cc 49130000 		.word	.L241+1
 3052 02d0 49130000 		.word	.L241+1
 3053 02d4 49130000 		.word	.L241+1
 3054 02d8 890A0000 		.word	.L315+1
 3055 02dc BB0A0000 		.word	.L316+1
 3056 02e0 FF0A0000 		.word	.L317+1
 3057 02e4 49130000 		.word	.L241+1
 3058 02e8 470B0000 		.word	.L318+1
 3059 02ec 690B0000 		.word	.L319+1
 3060 02f0 910B0000 		.word	.L320+1
 3061 02f4 9D0B0000 		.word	.L321+1
 3062 02f8 AF0B0000 		.word	.L322+1
 3063 02fc BF0B0000 		.word	.L323+1
 3064 0300 D10B0000 		.word	.L324+1
 3065 0304 E70B0000 		.word	.L325+1
 3066 0308 F90B0000 		.word	.L326+1
 3067 030c 0B0C0000 		.word	.L327+1
 3068 0310 230C0000 		.word	.L328+1
 3069 0314 390C0000 		.word	.L329+1
 3070 0318 4F0C0000 		.word	.L330+1
 3071 031c 650C0000 		.word	.L331+1
 3072 0320 7B0C0000 		.word	.L332+1
 3073 0324 910C0000 		.word	.L333+1
 3074 0328 A70C0000 		.word	.L334+1
ARM GAS  /tmp/ccSqa4tb.s 			page 55


 3075 032c BD0C0000 		.word	.L335+1
 3076 0330 FD0C0000 		.word	.L336+1
 3077 0334 070D0000 		.word	.L337+1
 3078 0338 150D0000 		.word	.L338+1
 3079 033c 230D0000 		.word	.L339+1
 3080 0340 85010000 		.word	.L554+1
 3081 0344 2B0D0000 		.word	.L340+1
 3082 0348 370D0000 		.word	.L341+1
 3083 034c 470D0000 		.word	.L342+1
 3084 0350 5B0D0000 		.word	.L343+1
 3085 0354 6D0D0000 		.word	.L344+1
 3086 0358 7B0D0000 		.word	.L345+1
 3087 035c 8B0D0000 		.word	.L346+1
 3088 0360 990D0000 		.word	.L347+1
 3089 0364 A90D0000 		.word	.L348+1
 3090 0368 1D0E0000 		.word	.L349+1
 3091 036c 450E0000 		.word	.L350+1
 3092 0370 6F0E0000 		.word	.L351+1
 3093 0374 A10E0000 		.word	.L352+1
 3094 0378 CB0E0000 		.word	.L353+1
 3095 037c F50E0000 		.word	.L354+1
 3096 0380 290F0000 		.word	.L355+1
 3097 0384 550F0000 		.word	.L356+1
 3098 0388 670F0000 		.word	.L357+1
 3099 038c 810F0000 		.word	.L358+1
 3100 0390 8F0F0000 		.word	.L359+1
 3101 0394 A10F0000 		.word	.L360+1
 3102 0398 AB0F0000 		.word	.L361+1
 3103 039c B30F0000 		.word	.L362+1
 3104 03a0 C10F0000 		.word	.L363+1
 3105 03a4 CD0F0000 		.word	.L364+1
 3106 03a8 DB0F0000 		.word	.L365+1
 3107 03ac E70F0000 		.word	.L366+1
 3108 03b0 ED0F0000 		.word	.L367+1
 3109 03b4 F50F0000 		.word	.L368+1
 3110 03b8 FB0F0000 		.word	.L369+1
 3111 03bc 05100000 		.word	.L370+1
 3112 03c0 0D100000 		.word	.L371+1
 3113 03c4 17100000 		.word	.L372+1
 3114 03c8 25100000 		.word	.L373+1
 3115 03cc 33100000 		.word	.L374+1
 3116 03d0 39100000 		.word	.L375+1
 3117 03d4 71100000 		.word	.L376+1
 3118 03d8 81100000 		.word	.L377+1
 3119 03dc 99100000 		.word	.L378+1
 3120 03e0 A7100000 		.word	.L379+1
 3121 03e4 B7100000 		.word	.L380+1
 3122 03e8 CB100000 		.word	.L381+1
 3123 03ec DB100000 		.word	.L382+1
 3124 03f0 EB100000 		.word	.L383+1
 3125 03f4 01110000 		.word	.L384+1
 3126 03f8 63110000 		.word	.L385+1
 3127 03fc 15110000 		.word	.L386+1
 3128 0400 39110000 		.word	.L387+1
 3129 0404 85110000 		.word	.L388+1
 3130 0408 A9110000 		.word	.L389+1
 3131 040c CD110000 		.word	.L390+1
ARM GAS  /tmp/ccSqa4tb.s 			page 56


 3132 0410 F9110000 		.word	.L391+1
 3133 0414 1F120000 		.word	.L392+1
 3134 0418 3F120000 		.word	.L393+1
 3135 041c 5F120000 		.word	.L394+1
 3136 0420 6D120000 		.word	.L395+1
 3137 0424 75120000 		.word	.L396+1
 3138 0428 81120000 		.word	.L397+1
 3139 042c 8D120000 		.word	.L398+1
 3140 0430 97120000 		.word	.L399+1
 3141 0434 A5120000 		.word	.L400+1
 3142 0438 B7120000 		.word	.L401+1
 3143 043c C7120000 		.word	.L402+1
 3144 0440 D3120000 		.word	.L403+1
 3145 0444 E1120000 		.word	.L404+1
 3146 0448 ED120000 		.word	.L405+1
 3147 044c FB120000 		.word	.L406+1
 3148 0450 01130000 		.word	.L407+1
 3149 0454 07130000 		.word	.L408+1
 3150 0458 0D130000 		.word	.L409+1
 3151 045c 23130000 		.word	.L410+1
 3152              	.L242:
 3153              		.loc 1 2243 0
 3154 0460 5368     		ldr	r3, [r2, #4]
 3155              	.LVL347:
 3156 0462 0434     		adds	r4, r4, #4
 3157              	.LVL348:
 3158              		.loc 1 2244 0
 3159 0464 F358     		ldr	r3, [r6, r3]
 3160 0466 0793     		str	r3, [sp, #28]
 3161              		.loc 1 2245 0
 3162 0468 91E6     		b	.L240
 3163              	.LVL349:
 3164              	.L243:
 3165              		.loc 1 2247 0
 3166 046a 5368     		ldr	r3, [r2, #4]
 3167              	.LVL350:
 3168 046c 0434     		adds	r4, r4, #4
 3169              	.LVL351:
 3170              		.loc 1 2248 0
 3171 046e F758     		ldr	r7, [r6, r3]
 3172              	.LVL352:
 3173              		.loc 1 2249 0
 3174 0470 8DE6     		b	.L240
 3175              	.LVL353:
 3176              	.L244:
 3177              		.loc 1 2251 0
 3178 0472 5368     		ldr	r3, [r2, #4]
 3179              	.LVL354:
 3180              		.loc 1 2252 0
 3181 0474 06EB0A02 		add	r2, r6, sl
 3182              	.LVL355:
 3183 0478 D358     		ldr	r3, [r2, r3]
 3184              	.LVL356:
 3185              		.loc 1 2251 0
 3186 047a 0434     		adds	r4, r4, #4
 3187              	.LVL357:
 3188              		.loc 1 2252 0
ARM GAS  /tmp/ccSqa4tb.s 			page 57


 3189 047c 0793     		str	r3, [sp, #28]
 3190              		.loc 1 2253 0
 3191 047e 86E6     		b	.L240
 3192              	.LVL358:
 3193              	.L245:
 3194              		.loc 1 2255 0
 3195 0480 5368     		ldr	r3, [r2, #4]
 3196              	.LVL359:
 3197              		.loc 1 2256 0
 3198 0482 06EB0A02 		add	r2, r6, sl
 3199              		.loc 1 2255 0
 3200 0486 0434     		adds	r4, r4, #4
 3201              	.LVL360:
 3202              		.loc 1 2256 0
 3203 0488 D758     		ldr	r7, [r2, r3]
 3204              	.LVL361:
 3205              		.loc 1 2257 0
 3206 048a 80E6     		b	.L240
 3207              	.LVL362:
 3208              	.L246:
 3209              		.loc 1 2259 0
 3210 048c 5368     		ldr	r3, [r2, #4]
 3211              	.LVL363:
 3212 048e 0434     		adds	r4, r4, #4
 3213              	.LVL364:
 3214              		.loc 1 2260 0
 3215 0490 5344     		add	r3, r3, sl
 3216              	.LVL365:
 3217              		.loc 1 2261 0
 3218 0492 F358     		ldr	r3, [r6, r3]
 3219              	.LVL366:
 3220 0494 F358     		ldr	r3, [r6, r3]
 3221              	.LVL367:
 3222 0496 0793     		str	r3, [sp, #28]
 3223              		.loc 1 2262 0
 3224 0498 79E6     		b	.L240
 3225              	.LVL368:
 3226              	.L247:
 3227              		.loc 1 2264 0
 3228 049a 5368     		ldr	r3, [r2, #4]
 3229              	.LVL369:
 3230 049c 0434     		adds	r4, r4, #4
 3231              	.LVL370:
 3232              		.loc 1 2265 0
 3233 049e 5344     		add	r3, r3, sl
 3234              	.LVL371:
 3235              		.loc 1 2266 0
 3236 04a0 F358     		ldr	r3, [r6, r3]
 3237              	.LVL372:
 3238 04a2 F758     		ldr	r7, [r6, r3]
 3239              	.LVL373:
 3240              		.loc 1 2267 0
 3241 04a4 73E6     		b	.L240
 3242              	.LVL374:
 3243              	.L248:
 3244              		.loc 1 2270 0
 3245 04a6 079B     		ldr	r3, [sp, #28]
ARM GAS  /tmp/ccSqa4tb.s 			page 58


 3246 04a8 5B45     		cmp	r3, fp
 3247 04aa 02DB     		blt	.L412
 3248              		.loc 1 2270 0 is_stmt 0 discriminator 1
 3249 04ac 4345     		cmp	r3, r8
 3250 04ae C0F2D085 		blt	.L530
 3251              	.L412:
 3252              		.loc 1 2270 0 discriminator 2
 3253 04b2 D9F82C20 		ldr	r2, [r9, #44]	@ unaligned
 3254 04b6 9342     		cmp	r3, r2
 3255 04b8 80F0CB85 		bcs	.L530
 3256              	.L414:
 3257              		.loc 1 2272 0 is_stmt 1
 3258 04bc F358     		ldr	r3, [r6, r3]
 3259 04be 0793     		str	r3, [sp, #28]
 3260              		.loc 1 2273 0
 3261 04c0 65E6     		b	.L240
 3262              	.L249:
 3263              		.loc 1 2275 0
 3264 04c2 5168     		ldr	r1, [r2, #4]
 3265              	.LVL375:
 3266 04c4 0434     		adds	r4, r4, #4
 3267              	.LVL376:
 3268              	.L415:
 3269              		.loc 1 2278 0
 3270 04c6 079B     		ldr	r3, [sp, #28]
 3271 04c8 5B45     		cmp	r3, fp
 3272 04ca 02DB     		blt	.L416
 3273              		.loc 1 2278 0 is_stmt 0 discriminator 1
 3274 04cc 4345     		cmp	r3, r8
 3275 04ce C0F2C085 		blt	.L530
 3276              	.L416:
 3277              		.loc 1 2278 0 discriminator 2
 3278 04d2 D9F82C20 		ldr	r2, [r9, #44]	@ unaligned
 3279              	.LVL377:
 3280 04d6 9342     		cmp	r3, r2
 3281 04d8 80F0BB85 		bcs	.L530
 3282              	.L418:
 3283              		.loc 1 2280 0 is_stmt 1
 3284 04dc 0229     		cmp	r1, #2
 3285 04de 07D0     		beq	.L420
 3286 04e0 0429     		cmp	r1, #4
 3287 04e2 08D0     		beq	.L421
 3288 04e4 0129     		cmp	r1, #1
 3289 04e6 7FF452AE 		bne	.L240
 3290              		.loc 1 2282 0
 3291 04ea F35C     		ldrb	r3, [r6, r3]	@ zero_extendqisi2
 3292 04ec 0793     		str	r3, [sp, #28]
 3293              		.loc 1 2283 0
 3294 04ee 4EE6     		b	.L240
 3295              	.L420:
 3296              		.loc 1 2285 0
 3297 04f0 F35A     		ldrh	r3, [r6, r3]
 3298 04f2 0793     		str	r3, [sp, #28]
 3299              		.loc 1 2286 0
 3300 04f4 4BE6     		b	.L240
 3301              	.L421:
 3302              		.loc 1 2288 0
ARM GAS  /tmp/ccSqa4tb.s 			page 59


 3303 04f6 F358     		ldr	r3, [r6, r3]
 3304 04f8 0793     		str	r3, [sp, #28]
 3305              		.loc 1 2289 0
 3306 04fa 48E6     		b	.L240
 3307              	.LVL378:
 3308              	.L250:
 3309              		.loc 1 2293 0
 3310 04fc 5368     		ldr	r3, [r2, #4]
 3311 04fe 0434     		adds	r4, r4, #4
 3312              	.LVL379:
 3313 0500 0793     		str	r3, [sp, #28]
 3314              		.loc 1 2294 0
 3315 0502 44E6     		b	.L240
 3316              	.L251:
 3317              		.loc 1 2296 0
 3318 0504 5768     		ldr	r7, [r2, #4]
 3319              	.LVL380:
 3320 0506 0434     		adds	r4, r4, #4
 3321              	.LVL381:
 3322              		.loc 1 2297 0
 3323 0508 41E6     		b	.L240
 3324              	.LVL382:
 3325              	.L252:
 3326              		.loc 1 2299 0
 3327 050a 5368     		ldr	r3, [r2, #4]
 3328 050c 0434     		adds	r4, r4, #4
 3329              	.LVL383:
 3330              		.loc 1 2300 0
 3331 050e 5344     		add	r3, r3, sl
 3332 0510 0793     		str	r3, [sp, #28]
 3333              		.loc 1 2301 0
 3334 0512 3CE6     		b	.L240
 3335              	.L253:
 3336              		.loc 1 2303 0
 3337 0514 5768     		ldr	r7, [r2, #4]
 3338              	.LVL384:
 3339 0516 0434     		adds	r4, r4, #4
 3340              	.LVL385:
 3341              		.loc 1 2304 0
 3342 0518 5744     		add	r7, r7, sl
 3343              	.LVL386:
 3344              		.loc 1 2305 0
 3345 051a 38E6     		b	.L240
 3346              	.L254:
 3347              		.loc 1 2307 0
 3348 051c 5368     		ldr	r3, [r2, #4]
 3349              	.LVL387:
 3350              		.loc 1 2308 0
 3351 051e 079A     		ldr	r2, [sp, #28]
 3352              	.LVL388:
 3353              		.loc 1 2307 0
 3354 0520 0434     		adds	r4, r4, #4
 3355              	.LVL389:
 3356              		.loc 1 2308 0
 3357 0522 F250     		str	r2, [r6, r3]
 3358              		.loc 1 2309 0
 3359 0524 33E6     		b	.L240
ARM GAS  /tmp/ccSqa4tb.s 			page 60


 3360              	.LVL390:
 3361              	.L255:
 3362              		.loc 1 2311 0
 3363 0526 5368     		ldr	r3, [r2, #4]
 3364              	.LVL391:
 3365              		.loc 1 2312 0
 3366 0528 0799     		ldr	r1, [sp, #28]
 3367              	.LVL392:
 3368 052a 06EB0A02 		add	r2, r6, sl
 3369              		.loc 1 2311 0
 3370 052e 0434     		adds	r4, r4, #4
 3371              	.LVL393:
 3372              		.loc 1 2312 0
 3373 0530 D150     		str	r1, [r2, r3]
 3374              		.loc 1 2313 0
 3375 0532 2CE6     		b	.L240
 3376              	.LVL394:
 3377              	.L256:
 3378              		.loc 1 2315 0
 3379 0534 5368     		ldr	r3, [r2, #4]
 3380              	.LVL395:
 3381              		.loc 1 2317 0
 3382 0536 079A     		ldr	r2, [sp, #28]
 3383              		.loc 1 2316 0
 3384 0538 5344     		add	r3, r3, sl
 3385              		.loc 1 2317 0
 3386 053a F358     		ldr	r3, [r6, r3]
 3387              		.loc 1 2315 0
 3388 053c 0434     		adds	r4, r4, #4
 3389              	.LVL396:
 3390              		.loc 1 2317 0
 3391 053e F250     		str	r2, [r6, r3]
 3392              		.loc 1 2318 0
 3393 0540 25E6     		b	.L240
 3394              	.LVL397:
 3395              	.L257:
 3396              		.loc 1 2321 0
 3397 0542 5F45     		cmp	r7, fp
 3398 0544 02DB     		blt	.L422
 3399              		.loc 1 2321 0 is_stmt 0 discriminator 1
 3400 0546 4745     		cmp	r7, r8
 3401 0548 C0F28385 		blt	.L530
 3402              	.L422:
 3403              		.loc 1 2321 0 discriminator 2
 3404 054c D9F82C30 		ldr	r3, [r9, #44]	@ unaligned
 3405 0550 9F42     		cmp	r7, r3
 3406 0552 80F07E85 		bcs	.L530
 3407              	.L424:
 3408              		.loc 1 2323 0 is_stmt 1
 3409 0556 079B     		ldr	r3, [sp, #28]
 3410 0558 F351     		str	r3, [r6, r7]
 3411              		.loc 1 2324 0
 3412 055a 18E6     		b	.L240
 3413              	.L258:
 3414              		.loc 1 2326 0
 3415 055c 5168     		ldr	r1, [r2, #4]
 3416              	.LVL398:
ARM GAS  /tmp/ccSqa4tb.s 			page 61


 3417 055e 0434     		adds	r4, r4, #4
 3418              	.LVL399:
 3419              	.L425:
 3420              		.loc 1 2329 0
 3421 0560 5F45     		cmp	r7, fp
 3422 0562 02DB     		blt	.L426
 3423              		.loc 1 2329 0 is_stmt 0 discriminator 1
 3424 0564 4745     		cmp	r7, r8
 3425 0566 C0F27485 		blt	.L530
 3426              	.L426:
 3427              		.loc 1 2329 0 discriminator 2
 3428 056a D9F82C30 		ldr	r3, [r9, #44]	@ unaligned
 3429 056e 9F42     		cmp	r7, r3
 3430 0570 80F06F85 		bcs	.L530
 3431              	.L428:
 3432              		.loc 1 2331 0 is_stmt 1
 3433 0574 0229     		cmp	r1, #2
 3434 0576 07D0     		beq	.L430
 3435 0578 0429     		cmp	r1, #4
 3436 057a 09D0     		beq	.L431
 3437 057c 0129     		cmp	r1, #1
 3438 057e 7FF406AE 		bne	.L240
 3439              		.loc 1 2333 0
 3440 0582 079B     		ldr	r3, [sp, #28]
 3441 0584 F355     		strb	r3, [r6, r7]
 3442              		.loc 1 2334 0
 3443 0586 02E6     		b	.L240
 3444              	.L430:
 3445              		.loc 1 2336 0
 3446 0588 BDF81C10 		ldrh	r1, [sp, #28]
 3447              	.LVL400:
 3448 058c F153     		strh	r1, [r6, r7]	@ movhi
 3449              		.loc 1 2337 0
 3450 058e FEE5     		b	.L240
 3451              	.LVL401:
 3452              	.L431:
 3453              		.loc 1 2339 0
 3454 0590 079B     		ldr	r3, [sp, #28]
 3455 0592 F351     		str	r3, [r6, r7]
 3456              		.loc 1 2340 0
 3457 0594 FBE5     		b	.L240
 3458              	.LVL402:
 3459              	.L259:
 3460              		.loc 1 2344 0
 3461 0596 5368     		ldr	r3, [r2, #4]
 3462              	.LVL403:
 3463 0598 0434     		adds	r4, r4, #4
 3464              	.LVL404:
 3465              		.loc 1 2346 0
 3466 059a 032B     		cmp	r3, #3
 3467 059c 3FF6F7AD 		bhi	.L240
 3468              		.loc 1 2347 0
 3469 05a0 079A     		ldr	r2, [sp, #28]
 3470              	.LVL405:
 3471 05a2 C3F10403 		rsb	r3, r3, #4
 3472              	.LVL406:
 3473 05a6 82EA0303 		eor	r3, r2, r3
ARM GAS  /tmp/ccSqa4tb.s 			page 62


 3474 05aa 0793     		str	r3, [sp, #28]
 3475 05ac EFE5     		b	.L240
 3476              	.LVL407:
 3477              	.L260:
 3478              		.loc 1 2351 0
 3479 05ae 5368     		ldr	r3, [r2, #4]
 3480              	.LVL408:
 3481 05b0 0434     		adds	r4, r4, #4
 3482              	.LVL409:
 3483              		.loc 1 2352 0
 3484 05b2 062B     		cmp	r3, #6
 3485 05b4 3FF6EBAD 		bhi	.L240
 3486 05b8 DFE803F0 		tbb	[pc, r3]
 3487              	.L439:
 3488 05bc 04       		.byte	(.L432-.L439)/2
 3489 05bd 08       		.byte	(.L433-.L439)/2
 3490 05be 0C       		.byte	(.L434-.L439)/2
 3491 05bf 0F       		.byte	(.L435-.L439)/2
 3492 05c0 13       		.byte	(.L436-.L439)/2
 3493 05c1 16       		.byte	(.L437-.L439)/2
 3494 05c2 19       		.byte	(.L438-.L439)/2
 3495 05c3 00       		.align	1
 3496              	.L432:
 3497              		.loc 1 2354 0
 3498 05c4 0398     		ldr	r0, [sp, #12]
 3499 05c6 C368     		ldr	r3, [r0, #12]	@ unaligned
 3500 05c8 0793     		str	r3, [sp, #28]
 3501              		.loc 1 2355 0
 3502 05ca E0E5     		b	.L240
 3503              	.L433:
 3504              		.loc 1 2357 0
 3505 05cc 0399     		ldr	r1, [sp, #12]
 3506 05ce 0B69     		ldr	r3, [r1, #16]	@ unaligned
 3507 05d0 0793     		str	r3, [sp, #28]
 3508              		.loc 1 2358 0
 3509 05d2 DCE5     		b	.L240
 3510              	.L434:
 3511              		.loc 1 2360 0
 3512 05d4 CDF81CB0 		str	fp, [sp, #28]
 3513              		.loc 1 2361 0
 3514 05d8 D9E5     		b	.L240
 3515              	.L435:
 3516              		.loc 1 2363 0
 3517 05da D9F82C30 		ldr	r3, [r9, #44]	@ unaligned
 3518 05de 0793     		str	r3, [sp, #28]
 3519              		.loc 1 2364 0
 3520 05e0 D5E5     		b	.L240
 3521              	.L436:
 3522              		.loc 1 2366 0
 3523 05e2 CDF81C80 		str	r8, [sp, #28]
 3524              		.loc 1 2367 0
 3525 05e6 D2E5     		b	.L240
 3526              	.L437:
 3527              		.loc 1 2369 0
 3528 05e8 CDF81CA0 		str	sl, [sp, #28]
 3529              		.loc 1 2370 0
 3530 05ec CFE5     		b	.L240
ARM GAS  /tmp/ccSqa4tb.s 			page 63


 3531              	.L438:
 3532              		.loc 1 2372 0
 3533 05ee D9F80430 		ldr	r3, [r9, #4]	@ unaligned
 3534 05f2 E31A     		subs	r3, r4, r3
 3535 05f4 0793     		str	r3, [sp, #28]
 3536              		.loc 1 2373 0
 3537 05f6 CAE5     		b	.L240
 3538              	.LVL410:
 3539              	.L261:
 3540              		.loc 1 2377 0
 3541 05f8 5368     		ldr	r3, [r2, #4]
 3542              	.LVL411:
 3543 05fa 0434     		adds	r4, r4, #4
 3544              	.LVL412:
 3545              		.loc 1 2378 0
 3546 05fc 023B     		subs	r3, r3, #2
 3547 05fe 042B     		cmp	r3, #4
 3548 0600 3FF6C5AD 		bhi	.L240
 3549 0604 01A2     		adr	r2, .L444
 3550 0606 52F823F0 		ldr	pc, [r2, r3, lsl #2]
 3551 060a 00BF     		.align	2
 3552              	.L444:
 3553 060c 21060000 		.word	.L440+1
 3554 0610 8F010000 		.word	.L240+1
 3555 0614 27060000 		.word	.L441+1
 3556 0618 2D060000 		.word	.L442+1
 3557 061c 33060000 		.word	.L443+1
 3558              	.L440:
 3559              		.loc 1 2385 0
 3560 0620 DDF81CB0 		ldr	fp, [sp, #28]
 3561              	.LVL413:
 3562              		.loc 1 2386 0
 3563 0624 B3E5     		b	.L240
 3564              	.LVL414:
 3565              	.L441:
 3566              		.loc 1 2388 0
 3567 0626 DDF81C80 		ldr	r8, [sp, #28]
 3568              	.LVL415:
 3569              		.loc 1 2389 0
 3570 062a B0E5     		b	.L240
 3571              	.LVL416:
 3572              	.L442:
 3573              		.loc 1 2391 0
 3574 062c DDF81CA0 		ldr	sl, [sp, #28]
 3575              	.LVL417:
 3576              		.loc 1 2392 0
 3577 0630 ADE5     		b	.L240
 3578              	.LVL418:
 3579              	.L443:
 3580              		.loc 1 2394 0
 3581 0632 D9F80440 		ldr	r4, [r9, #4]	@ unaligned
 3582              	.LVL419:
 3583 0636 079B     		ldr	r3, [sp, #28]
 3584              	.LVL420:
 3585 0638 E418     		adds	r4, r4, r3
 3586              	.LVL421:
 3587              		.loc 1 2395 0
ARM GAS  /tmp/ccSqa4tb.s 			page 64


 3588 063a A8E5     		b	.L240
 3589              	.L262:
 3590              		.loc 1 2399 0
 3591 063c 079B     		ldr	r3, [sp, #28]
 3592              	.LVL422:
 3593              		.loc 1 2400 0
 3594 063e 0797     		str	r7, [sp, #28]
 3595              	.LVL423:
 3596              		.loc 1 2401 0
 3597 0640 1F46     		mov	r7, r3
 3598              		.loc 1 2402 0
 3599 0642 A4E5     		b	.L240
 3600              	.LVL424:
 3601              	.L263:
 3602              		.loc 1 2404 0
 3603 0644 079B     		ldr	r3, [sp, #28]
 3604 0646 A8F10408 		sub	r8, r8, #4
 3605              	.LVL425:
 3606 064a 46F80830 		str	r3, [r6, r8]
 3607              		.loc 1 2405 0
 3608 064e 9EE5     		b	.L240
 3609              	.L264:
 3610              		.loc 1 2407 0
 3611 0650 A8F10408 		sub	r8, r8, #4
 3612              	.LVL426:
 3613 0654 46F80870 		str	r7, [r6, r8]
 3614              		.loc 1 2408 0
 3615 0658 99E5     		b	.L240
 3616              	.L265:
 3617              		.loc 1 2410 0
 3618 065a 079B     		ldr	r3, [sp, #28]
 3619 065c A8F10408 		sub	r8, r8, #4
 3620              	.LVL427:
 3621 0660 F318     		adds	r3, r6, r3
 3622 0662 46F80830 		str	r3, [r6, r8]
 3623              		.loc 1 2411 0
 3624 0666 92E5     		b	.L240
 3625              	.L266:
 3626              		.loc 1 2413 0
 3627 0668 56F80830 		ldr	r3, [r6, r8]
 3628 066c 08F10408 		add	r8, r8, #4
 3629              	.LVL428:
 3630 0670 0793     		str	r3, [sp, #28]
 3631              		.loc 1 2414 0
 3632 0672 8CE5     		b	.L240
 3633              	.L267:
 3634              		.loc 1 2416 0
 3635 0674 56F80870 		ldr	r7, [r6, r8]
 3636              	.LVL429:
 3637 0678 08F10408 		add	r8, r8, #4
 3638              	.LVL430:
 3639              		.loc 1 2417 0
 3640 067c 87E5     		b	.L240
 3641              	.LVL431:
 3642              	.L268:
 3643              		.loc 1 2419 0
 3644 067e 5368     		ldr	r3, [r2, #4]
ARM GAS  /tmp/ccSqa4tb.s 			page 65


 3645              	.LVL432:
 3646              		.loc 1 2420 0
 3647 0680 06EB0802 		add	r2, r6, r8
 3648              	.LVL433:
 3649 0684 D358     		ldr	r3, [r2, r3]
 3650              		.loc 1 2419 0
 3651 0686 0434     		adds	r4, r4, #4
 3652              	.LVL434:
 3653              		.loc 1 2420 0
 3654 0688 0793     		str	r3, [sp, #28]
 3655              		.loc 1 2421 0
 3656 068a 80E5     		b	.L240
 3657              	.LVL435:
 3658              	.L269:
 3659              		.loc 1 2425 0
 3660 068c 5368     		ldr	r3, [r2, #4]
 3661              		.loc 1 2426 0
 3662 068e 0BF13F02 		add	r2, fp, #63
 3663              		.loc 1 2425 0
 3664 0692 4344     		add	r3, r8, r3
 3665              	.LVL436:
 3666              		.loc 1 2426 0
 3667 0694 9A42     		cmp	r2, r3
 3668 0696 80F26A86 		bge	.L564
 3669              		.loc 1 2427 0
 3670 069a D9F82C20 		ldr	r2, [r9, #44]	@ unaligned
 3671 069e 9342     		cmp	r3, r2
 3672 06a0 00F36386 		bgt	.L563
 3673              		.loc 1 2423 0
 3674 06a4 4746     		mov	r7, r8
 3675 06a6 0434     		adds	r4, r4, #4
 3676              	.LVL437:
 3677 06a8 9846     		mov	r8, r3
 3678              	.LVL438:
 3679 06aa 70E5     		b	.L240
 3680              	.LVL439:
 3681              	.L270:
 3682              		.loc 1 2432 0
 3683 06ac 5368     		ldr	r3, [r2, #4]
 3684 06ae 5B44     		add	r3, fp, r3
 3685              	.LVL440:
 3686              		.loc 1 2433 0
 3687 06b0 03F13F02 		add	r2, r3, #63
 3688              	.LVL441:
 3689 06b4 4245     		cmp	r2, r8
 3690 06b6 80F25A86 		bge	.L564
 3691              		.loc 1 2434 0
 3692 06ba D9F82420 		ldr	r2, [r9, #36]	@ unaligned
 3693 06be 9342     		cmp	r3, r2
 3694 06c0 C0F25786 		blt	.L565
 3695              		.loc 1 2430 0
 3696 06c4 5F46     		mov	r7, fp
 3697 06c6 0434     		adds	r4, r4, #4
 3698              	.LVL442:
 3699 06c8 9B46     		mov	fp, r3
 3700              	.LVL443:
 3701 06ca 60E5     		b	.L240
ARM GAS  /tmp/ccSqa4tb.s 			page 66


 3702              	.LVL444:
 3703              	.L271:
 3704              		.loc 1 2437 0
 3705 06cc A8F10408 		sub	r8, r8, #4
 3706              	.LVL445:
 3707              		.loc 1 2439 0
 3708 06d0 0BF13F03 		add	r3, fp, #63
 3709 06d4 4345     		cmp	r3, r8
 3710              		.loc 1 2437 0
 3711 06d6 46F808A0 		str	sl, [r6, r8]
 3712              	.LVL446:
 3713              		.loc 1 2439 0
 3714 06da 80F24886 		bge	.L564
 3715 06de C246     		mov	sl, r8
 3716 06e0 55E5     		b	.L240
 3717              	.LVL447:
 3718              	.L272:
 3719              		.loc 1 2442 0
 3720 06e2 56F808A0 		ldr	sl, [r6, r8]
 3721              	.LVL448:
 3722 06e6 08F10408 		add	r8, r8, #4
 3723              	.LVL449:
 3724              		.loc 1 2443 0
 3725 06ea 56F80830 		ldr	r3, [r6, r8]
 3726              	.LVL450:
 3727              		.loc 1 2445 0
 3728 06ee D9F87420 		ldr	r2, [r9, #116]	@ unaligned
 3729 06f2 9342     		cmp	r3, r2
 3730 06f4 80F2AD84 		bge	.L530
 3731              	.L445:
 3732              		.loc 1 2447 0
 3733 06f8 D9F80440 		ldr	r4, [r9, #4]	@ unaligned
 3734              	.LVL451:
 3735              		.loc 1 2443 0
 3736 06fc 08F10408 		add	r8, r8, #4
 3737              	.LVL452:
 3738              		.loc 1 2447 0
 3739 0700 E418     		adds	r4, r4, r3
 3740              	.LVL453:
 3741              		.loc 1 2448 0
 3742 0702 44E5     		b	.L240
 3743              	.LVL454:
 3744              	.L273:
 3745              		.loc 1 2450 0
 3746 0704 56F808A0 		ldr	sl, [r6, r8]
 3747              	.LVL455:
 3748 0708 08F10408 		add	r8, r8, #4
 3749              	.LVL456:
 3750              		.loc 1 2451 0
 3751 070c 56F80820 		ldr	r2, [r6, r8]
 3752              	.LVL457:
 3753              		.loc 1 2453 0
 3754 0710 D9F87430 		ldr	r3, [r9, #116]	@ unaligned
 3755 0714 9A42     		cmp	r2, r3
 3756 0716 80F29C84 		bge	.L530
 3757              	.L446:
 3758              		.loc 1 2451 0
ARM GAS  /tmp/ccSqa4tb.s 			page 67


 3759 071a 08F10403 		add	r3, r8, #4
 3760              		.loc 1 2455 0
 3761 071e D9F80440 		ldr	r4, [r9, #4]	@ unaligned
 3762              	.LVL458:
 3763              		.loc 1 2456 0
 3764 0722 F358     		ldr	r3, [r6, r3]
 3765              		.loc 1 2455 0
 3766 0724 A418     		adds	r4, r4, r2
 3767              	.LVL459:
 3768              		.loc 1 2456 0
 3769 0726 08F10802 		add	r2, r8, #8
 3770 072a 02EB0308 		add	r8, r2, r3
 3771              	.LVL460:
 3772              		.loc 1 2457 0
 3773 072e 2EE5     		b	.L240
 3774              	.LVL461:
 3775              	.L274:
 3776              		.loc 1 2459 0
 3777 0730 D9F80430 		ldr	r3, [r9, #4]	@ unaligned
 3778 0734 A8F10408 		sub	r8, r8, #4
 3779              	.LVL462:
 3780 0738 E31A     		subs	r3, r4, r3
 3781 073a 0433     		adds	r3, r3, #4
 3782 073c 46F80830 		str	r3, [r6, r8]
 3783              		.loc 1 2460 0
 3784 0740 5368     		ldr	r3, [r2, #4]
 3785 0742 E418     		adds	r4, r4, r3
 3786              	.LVL463:
 3787 0744 043C     		subs	r4, r4, #4
 3788              	.LVL464:
 3789              		.loc 1 2461 0
 3790 0746 22E5     		b	.L240
 3791              	.L275:
 3792              		.loc 1 2465 0
 3793 0748 5368     		ldr	r3, [r2, #4]
 3794 074a E418     		adds	r4, r4, r3
 3795              	.LVL465:
 3796 074c 043C     		subs	r4, r4, #4
 3797              	.LVL466:
 3798              		.loc 1 2466 0
 3799 074e 1EE5     		b	.L240
 3800              	.L276:
 3801              		.loc 1 2468 0
 3802 0750 079B     		ldr	r3, [sp, #28]
 3803 0752 1BB9     		cbnz	r3, .L447
 3804              		.loc 1 2469 0
 3805 0754 2368     		ldr	r3, [r4, #0]
 3806 0756 E418     		adds	r4, r4, r3
 3807              	.LVL467:
 3808 0758 043C     		subs	r4, r4, #4
 3809              	.LVL468:
 3810 075a 18E5     		b	.L240
 3811              	.L447:
 3812              		.loc 1 2471 0
 3813 075c 0434     		adds	r4, r4, #4
 3814              	.LVL469:
 3815 075e 16E5     		b	.L240
ARM GAS  /tmp/ccSqa4tb.s 			page 68


 3816              	.L277:
 3817              		.loc 1 2474 0
 3818 0760 079B     		ldr	r3, [sp, #28]
 3819 0762 1BB1     		cbz	r3, .L448
 3820              		.loc 1 2475 0
 3821 0764 2368     		ldr	r3, [r4, #0]
 3822 0766 E418     		adds	r4, r4, r3
 3823              	.LVL470:
 3824 0768 043C     		subs	r4, r4, #4
 3825              	.LVL471:
 3826 076a 10E5     		b	.L240
 3827              	.L448:
 3828              		.loc 1 2477 0
 3829 076c 0434     		adds	r4, r4, #4
 3830              	.LVL472:
 3831 076e 0EE5     		b	.L240
 3832              	.L278:
 3833              		.loc 1 2480 0
 3834 0770 079B     		ldr	r3, [sp, #28]
 3835 0772 BB40     		lsls	r3, r3, r7
 3836 0774 0793     		str	r3, [sp, #28]
 3837              		.loc 1 2481 0
 3838 0776 0AE5     		b	.L240
 3839              	.L279:
 3840              		.loc 1 2483 0
 3841 0778 079B     		ldr	r3, [sp, #28]
 3842 077a FB40     		lsrs	r3, r3, r7
 3843 077c 0793     		str	r3, [sp, #28]
 3844              		.loc 1 2484 0
 3845 077e 06E5     		b	.L240
 3846              	.L280:
 3847              		.loc 1 2486 0
 3848 0780 079B     		ldr	r3, [sp, #28]
 3849 0782 3B41     		asrs	r3, r3, r7
 3850 0784 0793     		str	r3, [sp, #28]
 3851              		.loc 1 2487 0
 3852 0786 02E5     		b	.L240
 3853              	.L281:
 3854              		.loc 1 2489 0
 3855 0788 5368     		ldr	r3, [r2, #4]
 3856              	.LVL473:
 3857              		.loc 1 2490 0
 3858 078a 079A     		ldr	r2, [sp, #28]
 3859              	.LVL474:
 3860              		.loc 1 2489 0
 3861 078c 0434     		adds	r4, r4, #4
 3862              	.LVL475:
 3863              		.loc 1 2490 0
 3864 078e 12FA03F3 		lsls	r3, r2, r3
 3865 0792 0793     		str	r3, [sp, #28]
 3866              		.loc 1 2491 0
 3867 0794 FBE4     		b	.L240
 3868              	.LVL476:
 3869              	.L282:
 3870              		.loc 1 2493 0
 3871 0796 5368     		ldr	r3, [r2, #4]
 3872              	.LVL477:
ARM GAS  /tmp/ccSqa4tb.s 			page 69


 3873 0798 0434     		adds	r4, r4, #4
 3874              	.LVL478:
 3875              		.loc 1 2494 0
 3876 079a 9F40     		lsls	r7, r7, r3
 3877              	.LVL479:
 3878              		.loc 1 2495 0
 3879 079c F7E4     		b	.L240
 3880              	.LVL480:
 3881              	.L283:
 3882              		.loc 1 2497 0
 3883 079e 079B     		ldr	r3, [sp, #28]
 3884 07a0 7B43     		muls	r3, r7, r3
 3885 07a2 0793     		str	r3, [sp, #28]
 3886              		.loc 1 2498 0
 3887 07a4 F3E4     		b	.L240
 3888              	.L284:
 3889              		.loc 1 2500 0
 3890 07a6 079B     		ldr	r3, [sp, #28]
 3891 07a8 002B     		cmp	r3, #0
 3892 07aa 00F08882 		beq	.L573
 3893              	.L449:
 3894              	.LVL481:
 3895              		.loc 1 2505 0
 3896 07ae 97FBF3F2 		sdiv	r2, r7, r3
 3897              	.LVL482:
 3898              		.loc 1 2506 0
 3899 07b2 03FB1277 		mls	r7, r3, r2, r7
 3900              	.LVL483:
 3901              		.loc 1 2505 0
 3902 07b6 0792     		str	r2, [sp, #28]
 3903              		.loc 1 2515 0
 3904 07b8 002F     		cmp	r7, #0
 3905 07ba 3FF4E8AC 		beq	.L240
 3906              		.loc 1 2515 0 is_stmt 0 discriminator 1
 3907 07be 97EA030F 		teq	r7, r3
 3908 07c2 7FF5E4AC 		bpl	.L240
 3909              		.loc 1 2516 0 is_stmt 1
 3910 07c6 013A     		subs	r2, r2, #1
 3911              	.LVL484:
 3912 07c8 0792     		str	r2, [sp, #28]
 3913              	.LVL485:
 3914              		.loc 1 2517 0
 3915 07ca FF18     		adds	r7, r7, r3
 3916              	.LVL486:
 3917 07cc DFE4     		b	.L240
 3918              	.LVL487:
 3919              	.L285:
 3920              		.loc 1 2521 0
 3921 07ce 079B     		ldr	r3, [sp, #28]
 3922 07d0 DB19     		adds	r3, r3, r7
 3923 07d2 0793     		str	r3, [sp, #28]
 3924              		.loc 1 2522 0
 3925 07d4 DBE4     		b	.L240
 3926              	.L286:
 3927              		.loc 1 2524 0
 3928 07d6 079B     		ldr	r3, [sp, #28]
 3929 07d8 FB1A     		subs	r3, r7, r3
ARM GAS  /tmp/ccSqa4tb.s 			page 70


 3930 07da 0793     		str	r3, [sp, #28]
 3931              		.loc 1 2525 0
 3932 07dc D7E4     		b	.L240
 3933              	.L287:
 3934              		.loc 1 2527 0
 3935 07de 079B     		ldr	r3, [sp, #28]
 3936 07e0 3B40     		ands	r3, r3, r7
 3937 07e2 0793     		str	r3, [sp, #28]
 3938              		.loc 1 2528 0
 3939 07e4 D3E4     		b	.L240
 3940              	.L288:
 3941              		.loc 1 2530 0
 3942 07e6 079B     		ldr	r3, [sp, #28]
 3943 07e8 3B43     		orrs	r3, r3, r7
 3944 07ea 0793     		str	r3, [sp, #28]
 3945              		.loc 1 2531 0
 3946 07ec CFE4     		b	.L240
 3947              	.L289:
 3948              		.loc 1 2533 0
 3949 07ee 079B     		ldr	r3, [sp, #28]
 3950 07f0 7B40     		eors	r3, r3, r7
 3951 07f2 0793     		str	r3, [sp, #28]
 3952              		.loc 1 2534 0
 3953 07f4 CBE4     		b	.L240
 3954              	.L290:
 3955              		.loc 1 2536 0
 3956 07f6 079B     		ldr	r3, [sp, #28]
 3957 07f8 D3F10103 		rsbs	r3, r3, #1
 3958 07fc 38BF     		it	cc
 3959 07fe 0023     		movcc	r3, #0
 3960 0800 0793     		str	r3, [sp, #28]
 3961              		.loc 1 2537 0
 3962 0802 C4E4     		b	.L240
 3963              	.L291:
 3964              		.loc 1 2539 0
 3965 0804 079B     		ldr	r3, [sp, #28]
 3966 0806 5B42     		negs	r3, r3
 3967 0808 0793     		str	r3, [sp, #28]
 3968              		.loc 1 2540 0
 3969 080a C0E4     		b	.L240
 3970              	.L292:
 3971              		.loc 1 2542 0
 3972 080c 079B     		ldr	r3, [sp, #28]
 3973 080e DB43     		mvns	r3, r3
 3974 0810 0793     		str	r3, [sp, #28]
 3975              		.loc 1 2543 0
 3976 0812 BCE4     		b	.L240
 3977              	.L293:
 3978              		.loc 1 2545 0
 3979 0814 079B     		ldr	r3, [sp, #28]
 3980 0816 D81B     		subs	r0, r3, r7
 3981 0818 4342     		rsbs	r3, r0, #0
 3982 081a 43EB0003 		adc	r3, r3, r0
 3983 081e 0793     		str	r3, [sp, #28]
 3984              		.loc 1 2546 0
 3985 0820 B5E4     		b	.L240
 3986              	.L294:
ARM GAS  /tmp/ccSqa4tb.s 			page 71


 3987              		.loc 1 2548 0
 3988 0822 079B     		ldr	r3, [sp, #28]
 3989 0824 DB1B     		subs	r3, r3, r7
 3990 0826 18BF     		it	ne
 3991 0828 0123     		movne	r3, #1
 3992 082a 0793     		str	r3, [sp, #28]
 3993              		.loc 1 2549 0
 3994 082c AFE4     		b	.L240
 3995              	.L295:
 3996              		.loc 1 2551 0
 3997 082e 079B     		ldr	r3, [sp, #28]
 3998 0830 BB42     		cmp	r3, r7
 3999 0832 ACBF     		ite	ge
 4000 0834 0023     		movge	r3, #0
 4001 0836 0123     		movlt	r3, #1
 4002 0838 0793     		str	r3, [sp, #28]
 4003              		.loc 1 2552 0
 4004 083a A8E4     		b	.L240
 4005              	.L296:
 4006              		.loc 1 2554 0
 4007 083c 079B     		ldr	r3, [sp, #28]
 4008 083e BB42     		cmp	r3, r7
 4009 0840 CCBF     		ite	gt
 4010 0842 0023     		movgt	r3, #0
 4011 0844 0123     		movle	r3, #1
 4012 0846 0793     		str	r3, [sp, #28]
 4013              		.loc 1 2555 0
 4014 0848 A1E4     		b	.L240
 4015              	.L297:
 4016              		.loc 1 2557 0
 4017 084a 079B     		ldr	r3, [sp, #28]
 4018 084c BB42     		cmp	r3, r7
 4019 084e D4BF     		ite	le
 4020 0850 0023     		movle	r3, #0
 4021 0852 0123     		movgt	r3, #1
 4022 0854 0793     		str	r3, [sp, #28]
 4023              		.loc 1 2558 0
 4024 0856 9AE4     		b	.L240
 4025              	.L298:
 4026              		.loc 1 2560 0
 4027 0858 079B     		ldr	r3, [sp, #28]
 4028 085a BB42     		cmp	r3, r7
 4029 085c B4BF     		ite	lt
 4030 085e 0023     		movlt	r3, #0
 4031 0860 0123     		movge	r3, #1
 4032 0862 0793     		str	r3, [sp, #28]
 4033              		.loc 1 2561 0
 4034 0864 93E4     		b	.L240
 4035              	.L299:
 4036              		.loc 1 2563 0
 4037 0866 079B     		ldr	r3, [sp, #28]
 4038 0868 0133     		adds	r3, r3, #1
 4039 086a 0793     		str	r3, [sp, #28]
 4040              		.loc 1 2564 0
 4041 086c 8FE4     		b	.L240
 4042              	.L300:
 4043              		.loc 1 2566 0
ARM GAS  /tmp/ccSqa4tb.s 			page 72


 4044 086e 0137     		adds	r7, r7, #1
 4045              	.LVL488:
 4046              		.loc 1 2567 0
 4047 0870 8DE4     		b	.L240
 4048              	.L301:
 4049              		.loc 1 2570 0
 4050 0872 079B     		ldr	r3, [sp, #28]
 4051 0874 F258     		ldr	r2, [r6, r3]
 4052 0876 0132     		adds	r2, r2, #1
 4053 0878 F250     		str	r2, [r6, r3]
 4054              		.loc 1 2575 0
 4055 087a 88E4     		b	.L240
 4056              	.L302:
 4057              		.loc 1 2577 0
 4058 087c 079B     		ldr	r3, [sp, #28]
 4059 087e 013B     		subs	r3, r3, #1
 4060 0880 0793     		str	r3, [sp, #28]
 4061              		.loc 1 2578 0
 4062 0882 84E4     		b	.L240
 4063              	.L303:
 4064              		.loc 1 2580 0
 4065 0884 013F     		subs	r7, r7, #1
 4066              	.LVL489:
 4067              		.loc 1 2581 0
 4068 0886 82E4     		b	.L240
 4069              	.L304:
 4070              		.loc 1 2584 0
 4071 0888 079B     		ldr	r3, [sp, #28]
 4072 088a F258     		ldr	r2, [r6, r3]
 4073 088c 013A     		subs	r2, r2, #1
 4074 088e F250     		str	r2, [r6, r3]
 4075              		.loc 1 2589 0
 4076 0890 7DE4     		b	.L240
 4077              	.L305:
 4078              		.loc 1 2591 0
 4079 0892 5268     		ldr	r2, [r2, #4]
 4080              	.LVL490:
 4081 0894 0434     		adds	r4, r4, #4
 4082              	.LVL491:
 4083              	.L450:
 4084              		.loc 1 2596 0
 4085 0896 0799     		ldr	r1, [sp, #28]
 4086              	.LVL492:
 4087 0898 5945     		cmp	r1, fp
 4088 089a 02DB     		blt	.L451
 4089              		.loc 1 2596 0 is_stmt 0 discriminator 1
 4090 089c 4145     		cmp	r1, r8
 4091 089e C0F2D883 		blt	.L530
 4092              	.L451:
 4093              		.loc 1 2596 0 discriminator 2
 4094 08a2 D9F82C30 		ldr	r3, [r9, #44]	@ unaligned
 4095 08a6 9942     		cmp	r1, r3
 4096 08a8 80F0D383 		bcs	.L530
 4097              	.L453:
 4098              		.loc 1 2598 0 is_stmt 1
 4099 08ac 5018     		adds	r0, r2, r1
 4100 08ae 5845     		cmp	r0, fp
ARM GAS  /tmp/ccSqa4tb.s 			page 73


 4101 08b0 02DD     		ble	.L454
 4102              		.loc 1 2598 0 is_stmt 0 discriminator 1
 4103 08b2 4045     		cmp	r0, r8
 4104 08b4 C0F2CD83 		blt	.L530
 4105              	.L454:
 4106              		.loc 1 2598 0 discriminator 2
 4107 08b8 9842     		cmp	r0, r3
 4108 08ba 00F2CA83 		bhi	.L530
 4109              	.L456:
 4110              		.loc 1 2600 0 is_stmt 1
 4111 08be 5F45     		cmp	r7, fp
 4112 08c0 02DB     		blt	.L457
 4113              		.loc 1 2600 0 is_stmt 0 discriminator 1
 4114 08c2 4745     		cmp	r7, r8
 4115 08c4 C0F2C583 		blt	.L530
 4116              	.L457:
 4117              		.loc 1 2600 0 discriminator 2
 4118 08c8 9F42     		cmp	r7, r3
 4119 08ca 80F0C283 		bcs	.L530
 4120              	.L459:
 4121              		.loc 1 2602 0 is_stmt 1
 4122 08ce D019     		adds	r0, r2, r7
 4123 08d0 5845     		cmp	r0, fp
 4124 08d2 02DD     		ble	.L460
 4125              		.loc 1 2602 0 is_stmt 0 discriminator 1
 4126 08d4 4045     		cmp	r0, r8
 4127 08d6 C0F2BC83 		blt	.L530
 4128              	.L460:
 4129              		.loc 1 2602 0 discriminator 2
 4130 08da 9842     		cmp	r0, r3
 4131 08dc 00F2B983 		bhi	.L530
 4132              	.L462:
 4133              		.loc 1 2605 0 is_stmt 1
 4134 08e0 F019     		adds	r0, r6, r7
 4135 08e2 7118     		adds	r1, r6, r1
 4136 08e4 FFF7FEFF 		bl	memcpy
 4137              	.LVL493:
 4138              		.loc 1 2616 0
 4139 08e8 51E4     		b	.L240
 4140              	.LVL494:
 4141              	.L306:
 4142              		.loc 1 2618 0
 4143 08ea 5268     		ldr	r2, [r2, #4]
 4144              	.LVL495:
 4145 08ec 0434     		adds	r4, r4, #4
 4146              	.LVL496:
 4147              	.L463:
 4148              		.loc 1 2623 0
 4149 08ee 0799     		ldr	r1, [sp, #28]
 4150              	.LVL497:
 4151 08f0 5945     		cmp	r1, fp
 4152 08f2 02DB     		blt	.L464
 4153              		.loc 1 2623 0 is_stmt 0 discriminator 1
 4154 08f4 4145     		cmp	r1, r8
 4155 08f6 C0F2AC83 		blt	.L530
 4156              	.L464:
 4157              		.loc 1 2623 0 discriminator 2
ARM GAS  /tmp/ccSqa4tb.s 			page 74


 4158 08fa D9F82C30 		ldr	r3, [r9, #44]	@ unaligned
 4159 08fe 9942     		cmp	r1, r3
 4160 0900 80F0A783 		bcs	.L530
 4161              	.L466:
 4162              		.loc 1 2625 0 is_stmt 1
 4163 0904 5018     		adds	r0, r2, r1
 4164 0906 5845     		cmp	r0, fp
 4165 0908 02DD     		ble	.L467
 4166              		.loc 1 2625 0 is_stmt 0 discriminator 1
 4167 090a 4045     		cmp	r0, r8
 4168 090c C0F2A183 		blt	.L530
 4169              	.L467:
 4170              		.loc 1 2625 0 discriminator 2
 4171 0910 9842     		cmp	r0, r3
 4172 0912 00F29E83 		bhi	.L530
 4173              	.L469:
 4174              		.loc 1 2627 0 is_stmt 1
 4175 0916 5F45     		cmp	r7, fp
 4176 0918 02DB     		blt	.L470
 4177              		.loc 1 2627 0 is_stmt 0 discriminator 1
 4178 091a 4745     		cmp	r7, r8
 4179 091c C0F29983 		blt	.L530
 4180              	.L470:
 4181              		.loc 1 2627 0 discriminator 2
 4182 0920 9F42     		cmp	r7, r3
 4183 0922 80F09683 		bcs	.L530
 4184              	.L472:
 4185              		.loc 1 2629 0 is_stmt 1
 4186 0926 D019     		adds	r0, r2, r7
 4187 0928 5845     		cmp	r0, fp
 4188 092a 02DD     		ble	.L473
 4189              		.loc 1 2629 0 is_stmt 0 discriminator 1
 4190 092c 4045     		cmp	r0, r8
 4191 092e C0F29083 		blt	.L530
 4192              	.L473:
 4193              		.loc 1 2629 0 discriminator 2
 4194 0932 9842     		cmp	r0, r3
 4195 0934 00F28D83 		bhi	.L530
 4196              	.L475:
 4197              		.loc 1 2632 0 is_stmt 1
 4198 0938 F019     		adds	r0, r6, r7
 4199 093a 7118     		adds	r1, r6, r1
 4200 093c FFF7FEFF 		bl	memcmp
 4201              	.LVL498:
 4202 0940 0790     		str	r0, [sp, #28]
 4203              		.loc 1 2640 0
 4204 0942 24E4     		b	.L240
 4205              	.LVL499:
 4206              	.L307:
 4207              		.loc 1 2642 0
 4208 0944 5168     		ldr	r1, [r2, #4]
 4209              	.LVL500:
 4210 0946 0434     		adds	r4, r4, #4
 4211              	.LVL501:
 4212              	.L476:
 4213              		.loc 1 2645 0
 4214 0948 5F45     		cmp	r7, fp
ARM GAS  /tmp/ccSqa4tb.s 			page 75


 4215 094a 02DB     		blt	.L477
 4216              		.loc 1 2645 0 is_stmt 0 discriminator 1
 4217 094c 4745     		cmp	r7, r8
 4218 094e C0F28083 		blt	.L530
 4219              	.L477:
 4220              		.loc 1 2645 0 discriminator 2
 4221 0952 D9F82C20 		ldr	r2, [r9, #44]	@ unaligned
 4222              	.LVL502:
 4223 0956 9742     		cmp	r7, r2
 4224 0958 80F07B83 		bcs	.L530
 4225              	.L479:
 4226              		.loc 1 2647 0 is_stmt 1
 4227 095c CB19     		adds	r3, r1, r7
 4228 095e 5B45     		cmp	r3, fp
 4229 0960 02DD     		ble	.L480
 4230              		.loc 1 2647 0 is_stmt 0 discriminator 1
 4231 0962 4345     		cmp	r3, r8
 4232 0964 C0F27583 		blt	.L530
 4233              	.L480:
 4234              		.loc 1 2647 0 discriminator 2
 4235 0968 9342     		cmp	r3, r2
 4236 096a 00F27283 		bhi	.L530
 4237              		.loc 1 2647 0 discriminator 1
 4238 096e 3B46     		mov	r3, r7
 4239 0970 03E0     		b	.L482
 4240              	.LVL503:
 4241              	.L483:
 4242              		.loc 1 2650 0 is_stmt 1 discriminator 2
 4243 0972 079A     		ldr	r2, [sp, #28]
 4244              		.loc 1 2064 0 discriminator 2
 4245 0974 0439     		subs	r1, r1, #4
 4246              	.LVL504:
 4247              		.loc 1 2650 0 discriminator 2
 4248 0976 F250     		str	r2, [r6, r3]
 4249              		.loc 1 2064 0 discriminator 2
 4250 0978 0433     		adds	r3, r3, #4
 4251              	.LVL505:
 4252              	.L482:
 4253              		.loc 1 2649 0 discriminator 1
 4254 097a 0329     		cmp	r1, #3
 4255 097c F9D8     		bhi	.L483
 4256 097e 06E4     		b	.L240
 4257              	.LVL506:
 4258              	.L308:
 4259 0980 CDF810B0 		str	fp, [sp, #16]
 4260 0984 DDF808C0 		ldr	ip, [sp, #8]
 4261 0988 DDF804B0 		ldr	fp, [sp, #4]
 4262              	.LVL507:
 4263              		.loc 1 2653 0
 4264 098c 54F8040B 		ldr	r0, [r4], #4
 4265              	.LVL508:
 4266 0990 4D46     		mov	r5, r9
 4267 0992 B946     		mov	r9, r7
 4268              	.LVL509:
 4269              	.L484:
 4270              		.loc 1 2655 0
 4271 0994 059E     		ldr	r6, [sp, #20]
ARM GAS  /tmp/ccSqa4tb.s 			page 76


 4272              	.LVL510:
 4273 0996 079B     		ldr	r3, [sp, #28]
 4274 0998 06B1     		cbz	r6, .L485
 4275              		.loc 1 2656 0
 4276 099a 3360     		str	r3, [r6, #0]
 4277              	.L485:
 4278              		.loc 1 2659 0
 4279 099c EB65     		str	r3, [r5, #92]	@ unaligned
 4280              		.loc 1 2661 0
 4281 099e 6B68     		ldr	r3, [r5, #4]	@ unaligned
 4282              		.loc 1 2662 0
 4283 09a0 0C28     		cmp	r0, #12
 4284              		.loc 1 2661 0
 4285 09a2 C3EB0404 		rsb	r4, r3, r4
 4286              	.LVL511:
 4287              		.loc 1 2658 0
 4288 09a6 C5F81CA0 		str	sl, [r5, #28]	@ unaligned
 4289              		.loc 1 2660 0
 4290 09aa C5F86090 		str	r9, [r5, #96]	@ unaligned
 4291              		.loc 1 2661 0
 4292 09ae AC61     		str	r4, [r5, #24]	@ unaligned
 4293              		.loc 1 2662 0
 4294 09b0 40F02F82 		bne	.L514
 4295              		.loc 1 2663 0
 4296 09b4 C5F82880 		str	r8, [r5, #40]	@ unaligned
 4297              		.loc 1 2664 0
 4298 09b8 0499     		ldr	r1, [sp, #16]
 4299              	.LVL512:
 4300 09ba 2962     		str	r1, [r5, #32]	@ unaligned
 4301 09bc 24E2     		b	.L571
 4302              	.LVL513:
 4303              	.L309:
 4304              		.loc 1 2671 0
 4305 09be 5368     		ldr	r3, [r2, #4]
 4306              	.LVL514:
 4307              		.loc 1 2672 0
 4308 09c0 079A     		ldr	r2, [sp, #28]
 4309              	.LVL515:
 4310              		.loc 1 2671 0
 4311 09c2 0434     		adds	r4, r4, #4
 4312              	.LVL516:
 4313              		.loc 1 2672 0
 4314 09c4 9A42     		cmp	r2, r3
 4315 09c6 7FF6E2AB 		bls	.L240
 4316 09ca 00F0AFBC 		b	.L572
 4317              	.LVL517:
 4318              	.L310:
 4319              		.loc 1 2680 0
 4320 09ce D9F80430 		ldr	r3, [r9, #4]	@ unaligned
 4321              		.loc 1 2678 0
 4322 09d2 0434     		adds	r4, r4, #4
 4323              	.LVL518:
 4324              		.loc 1 2680 0
 4325 09d4 E31A     		subs	r3, r4, r3
 4326              		.loc 1 2678 0
 4327 09d6 5168     		ldr	r1, [r2, #4]
 4328              	.LVL519:
ARM GAS  /tmp/ccSqa4tb.s 			page 77


 4329              		.loc 1 2684 0
 4330 09d8 D9F80C50 		ldr	r5, [r9, #12]	@ unaligned
 4331              		.loc 1 2680 0
 4332 09dc C9F81830 		str	r3, [r9, #24]	@ unaligned
 4333              		.loc 1 2681 0
 4334 09e0 C9F820B0 		str	fp, [r9, #32]	@ unaligned
 4335              		.loc 1 2682 0
 4336 09e4 C9F81CA0 		str	sl, [r9, #28]	@ unaligned
 4337              		.loc 1 2683 0
 4338 09e8 C9F82880 		str	r8, [r9, #40]	@ unaligned
 4339              		.loc 1 2684 0
 4340 09ec 4846     		mov	r0, r9
 4341 09ee 07AA     		add	r2, sp, #28
 4342 09f0 06EB0803 		add	r3, r6, r8
 4343 09f4 A847     		blx	r5
 4344              	.LVL520:
 4345 09f6 38E0     		b	.L581
 4346              	.LVL521:
 4347              	.L311:
 4348              	.LBB21:
 4349              		.loc 1 2697 0
 4350 09f8 5268     		ldr	r2, [r2, #4]
 4351              		.loc 1 2701 0
 4352 09fa 0798     		ldr	r0, [sp, #28]
 4353              		.loc 1 2697 0
 4354 09fc A318     		adds	r3, r4, r2
 4355              	.LVL522:
 4356              		.loc 1 2699 0
 4357 09fe 191D     		adds	r1, r3, #4
 4358              	.LVL523:
 4359 0a00 D3F804C0 		ldr	ip, [r3, #4]
 4360              	.LVL524:
 4361              		.loc 1 2700 0
 4362 0a04 A258     		ldr	r2, [r4, r2]
 4363              	.LVL525:
 4364              		.loc 1 2701 0
 4365 0a06 01E0     		b	.L488
 4366              	.LVL526:
 4367              	.L490:
 4368              		.loc 1 2701 0 is_stmt 0 discriminator 1
 4369 0a08 013A     		subs	r2, r2, #1
 4370              	.LVL527:
 4371 0a0a 2B46     		mov	r3, r5
 4372              	.LVL528:
 4373              	.L488:
 4374 0a0c 002A     		cmp	r2, #0
 4375              		.loc 1 2064 0 is_stmt 1 discriminator 1
 4376 0a0e 03F10805 		add	r5, r3, #8
 4377              	.LVL529:
 4378              		.loc 1 2701 0 discriminator 1
 4379 0a12 04DC     		bgt	.L489
 4380              		.loc 1 2699 0
 4381 0a14 01EB0C04 		add	r4, r1, ip
 4382 0a18 043C     		subs	r4, r4, #4
 4383 0a1a FFF7B8BB 		b	.L240
 4384              	.L489:
 4385              		.loc 1 2701 0 discriminator 2
ARM GAS  /tmp/ccSqa4tb.s 			page 78


 4386 0a1e 9C68     		ldr	r4, [r3, #8]
 4387 0a20 8442     		cmp	r4, r0
 4388 0a22 F1D1     		bne	.L490
 4389 0a24 00F0A9BC 		b	.L582
 4390              	.LVL530:
 4391              	.L312:
 4392              	.LBE21:
 4393              		.loc 1 2708 0
 4394 0a28 56F80830 		ldr	r3, [r6, r8]
 4395              	.LVL531:
 4396              		.loc 1 2709 0
 4397 0a2c 079A     		ldr	r2, [sp, #28]
 4398 0a2e 46F80820 		str	r2, [r6, r8]
 4399              		.loc 1 2710 0
 4400 0a32 0793     		str	r3, [sp, #28]
 4401              		.loc 1 2711 0
 4402 0a34 FFF7ABBB 		b	.L240
 4403              	.LVL532:
 4404              	.L313:
 4405              		.loc 1 2713 0
 4406 0a38 56F80830 		ldr	r3, [r6, r8]
 4407              	.LVL533:
 4408              		.loc 1 2714 0
 4409 0a3c 46F80870 		str	r7, [r6, r8]
 4410              	.LVL534:
 4411              		.loc 1 2715 0
 4412 0a40 1F46     		mov	r7, r3
 4413              		.loc 1 2716 0
 4414 0a42 FFF7A4BB 		b	.L240
 4415              	.LVL535:
 4416              	.L314:
 4417              		.loc 1 2719 0
 4418 0a46 D9F81030 		ldr	r3, [r9, #16]	@ unaligned
 4419 0a4a 002B     		cmp	r3, #0
 4420 0a4c 3FF49FAB 		beq	.L240
 4421              		.loc 1 2724 0
 4422 0a50 D9F80420 		ldr	r2, [r9, #4]	@ unaligned
 4423              		.loc 1 2721 0
 4424 0a54 C9F81CA0 		str	sl, [r9, #28]	@ unaligned
 4425              		.loc 1 2724 0
 4426 0a58 A21A     		subs	r2, r4, r2
 4427              		.loc 1 2722 0
 4428 0a5a C9F82880 		str	r8, [r9, #40]	@ unaligned
 4429              		.loc 1 2723 0
 4430 0a5e C9F820B0 		str	fp, [r9, #32]	@ unaligned
 4431              		.loc 1 2724 0
 4432 0a62 C9F81820 		str	r2, [r9, #24]	@ unaligned
 4433              		.loc 1 2725 0
 4434 0a66 4846     		mov	r0, r9
 4435 0a68 9847     		blx	r3
 4436              	.LVL536:
 4437              	.L581:
 4438              		.loc 1 2726 0
 4439 0a6a 0028     		cmp	r0, #0
 4440 0a6c 3FF48FAB 		beq	.L240
 4441              		.loc 1 2727 0
 4442 0a70 0C28     		cmp	r0, #12
ARM GAS  /tmp/ccSqa4tb.s 			page 79


 4443 0a72 DDF804B0 		ldr	fp, [sp, #4]
 4444              	.LVL537:
 4445 0a76 DDF808C0 		ldr	ip, [sp, #8]
 4446 0a7a 4D46     		mov	r5, r9
 4447 0a7c 40F0C981 		bne	.L514
 4448              		.loc 1 2728 0
 4449 0a80 079B     		ldr	r3, [sp, #28]
 4450              		.loc 1 2729 0
 4451 0a82 2F66     		str	r7, [r5, #96]	@ unaligned
 4452              		.loc 1 2728 0
 4453 0a84 EB65     		str	r3, [r5, #92]	@ unaligned
 4454 0a86 BFE1     		b	.L571
 4455              	.LVL538:
 4456              	.L315:
 4457              		.loc 1 2788 0
 4458 0a88 D9F80430 		ldr	r3, [r9, #4]	@ unaligned
 4459              		.loc 1 2790 0
 4460 0a8c A8F10408 		sub	r8, r8, #4
 4461              	.LVL539:
 4462              		.loc 1 2788 0
 4463 0a90 E41A     		subs	r4, r4, r3
 4464              	.LVL540:
 4465              		.loc 1 2790 0
 4466 0a92 D9F87030 		ldr	r3, [r9, #112]	@ unaligned
 4467              		.loc 1 2788 0
 4468 0a96 0434     		adds	r4, r4, #4
 4469              		.loc 1 2790 0
 4470 0a98 43EA0444 		orr	r4, r3, r4, lsl #16
 4471 0a9c 46F80840 		str	r4, [r6, r8]
 4472              		.loc 1 2791 0
 4473 0aa0 5168     		ldr	r1, [r2, #4]
 4474              	.LVL541:
 4475              		.loc 1 2793 0
 4476 0aa2 D9F81430 		ldr	r3, [r9, #20]	@ unaligned
 4477              		.loc 1 2791 0
 4478 0aa6 C9F87010 		str	r1, [r9, #112]	@ unaligned
 4479              		.loc 1 2793 0
 4480 0aaa 4846     		mov	r0, r9
 4481 0aac 9847     		blx	r3
 4482              	.LVL542:
 4483 0aae 0028     		cmp	r0, #0
 4484 0ab0 3FD1     		bne	.L577
 4485              	.L493:
 4486              		.loc 1 2795 0
 4487 0ab2 D9F80440 		ldr	r4, [r9, #4]	@ unaligned
 4488              	.LVL543:
 4489              		.loc 1 2796 0
 4490 0ab6 FFF76ABB 		b	.L240
 4491              	.LVL544:
 4492              	.L316:
 4493              		.loc 1 2799 0
 4494 0aba 56F808A0 		ldr	sl, [r6, r8]
 4495              	.LVL545:
 4496 0abe 08F10408 		add	r8, r8, #4
 4497              	.LVL546:
 4498              		.loc 1 2800 0
 4499 0ac2 56F80840 		ldr	r4, [r6, r8]
ARM GAS  /tmp/ccSqa4tb.s 			page 80


 4500              	.LVL547:
 4501              		.loc 1 2805 0
 4502 0ac6 D9F81430 		ldr	r3, [r9, #20]	@ unaligned
 4503              		.loc 1 2801 0
 4504 0aca A1B2     		uxth	r1, r4
 4505              	.LVL548:
 4506              		.loc 1 2800 0
 4507 0acc 08F10408 		add	r8, r8, #4
 4508              	.LVL549:
 4509              		.loc 1 2801 0
 4510 0ad0 C9F87010 		str	r1, [r9, #112]	@ unaligned
 4511              	.LVL550:
 4512              		.loc 1 2805 0
 4513 0ad4 4846     		mov	r0, r9
 4514              		.loc 1 2804 0
 4515 0ad6 56F80850 		ldr	r5, [r6, r8]
 4516              	.LVL551:
 4517              		.loc 1 2805 0
 4518 0ada 9847     		blx	r3
 4519              	.LVL552:
 4520              		.loc 1 2806 0
 4521 0adc 0028     		cmp	r0, #0
 4522 0ade 40F0B882 		bne	.L530
 4523              		.loc 1 2806 0 is_stmt 0 discriminator 1
 4524 0ae2 D9F87430 		ldr	r3, [r9, #116]	@ unaligned
 4525              		.loc 1 2802 0 is_stmt 1 discriminator 1
 4526 0ae6 240C     		lsrs	r4, r4, #16
 4527              	.LVL553:
 4528              		.loc 1 2806 0 discriminator 1
 4529 0ae8 9C42     		cmp	r4, r3
 4530 0aea 80F2B282 		bge	.L530
 4531              	.L495:
 4532              		.loc 1 2808 0
 4533 0aee D9F80430 		ldr	r3, [r9, #4]	@ unaligned
 4534              		.loc 1 2804 0
 4535 0af2 08F10408 		add	r8, r8, #4
 4536              	.LVL554:
 4537 0af6 A844     		add	r8, r8, r5
 4538              	.LVL555:
 4539              		.loc 1 2808 0
 4540 0af8 1C19     		adds	r4, r3, r4
 4541              	.LVL556:
 4542              		.loc 1 2809 0
 4543 0afa FFF748BB 		b	.L240
 4544              	.LVL557:
 4545              	.L317:
 4546              	.LBB22:
 4547              		.loc 1 2811 0
 4548 0afe 5268     		ldr	r2, [r2, #4]
 4549 0b00 A318     		adds	r3, r4, r2
 4550              	.LVL558:
 4551              		.loc 1 2813 0
 4552 0b02 5968     		ldr	r1, [r3, #4]
 4553              	.LVL559:
 4554 0b04 C9F87010 		str	r1, [r9, #112]	@ unaligned
 4555              		.loc 1 2814 0
 4556 0b08 A258     		ldr	r2, [r4, r2]
ARM GAS  /tmp/ccSqa4tb.s 			page 81


 4557              	.LVL560:
 4558              		.loc 1 2815 0
 4559 0b0a 0798     		ldr	r0, [sp, #28]
 4560 0b0c 01E0     		b	.L496
 4561              	.LVL561:
 4562              	.L498:
 4563              		.loc 1 2815 0 is_stmt 0 discriminator 1
 4564 0b0e 013A     		subs	r2, r2, #1
 4565              	.LVL562:
 4566 0b10 0B46     		mov	r3, r1
 4567              	.LVL563:
 4568              	.L496:
 4569 0b12 002A     		cmp	r2, #0
 4570              		.loc 1 2064 0 is_stmt 1 discriminator 1
 4571 0b14 03F10801 		add	r1, r3, #8
 4572              	.LVL564:
 4573              		.loc 1 2815 0 discriminator 1
 4574 0b18 04DD     		ble	.L497
 4575              		.loc 1 2815 0 is_stmt 0 discriminator 2
 4576 0b1a 9B68     		ldr	r3, [r3, #8]
 4577 0b1c 8342     		cmp	r3, r0
 4578 0b1e F6D1     		bne	.L498
 4579 0b20 00F030BC 		b	.L583
 4580              	.L497:
 4581              		.loc 1 2820 0 is_stmt 1
 4582 0b24 D9F81430 		ldr	r3, [r9, #20]	@ unaligned
 4583 0b28 4846     		mov	r0, r9
 4584 0b2a D9F87010 		ldr	r1, [r9, #112]	@ unaligned
 4585              	.LVL565:
 4586 0b2e 9847     		blx	r3
 4587              	.LVL566:
 4588 0b30 28B1     		cbz	r0, .L500
 4589              	.LVL567:
 4590              	.L577:
 4591 0b32 DDF804B0 		ldr	fp, [sp, #4]
 4592              	.LVL568:
 4593 0b36 DDF808C0 		ldr	ip, [sp, #8]
 4594 0b3a 4D46     		mov	r5, r9
 4595 0b3c 69E1     		b	.L514
 4596              	.LVL569:
 4597              	.L500:
 4598              		.loc 1 2822 0
 4599 0b3e D9F80440 		ldr	r4, [r9, #4]	@ unaligned
 4600              	.LVL570:
 4601              		.loc 1 2823 0
 4602 0b42 FFF724BB 		b	.L240
 4603              	.LVL571:
 4604              	.L318:
 4605              	.LBE22:
 4606              		.loc 1 2830 0
 4607 0b46 079B     		ldr	r3, [sp, #28]
 4608 0b48 07EB8303 		add	r3, r7, r3, lsl #2
 4609              	.LVL572:
 4610              		.loc 1 2832 0
 4611 0b4c 5B45     		cmp	r3, fp
 4612 0b4e 02DB     		blt	.L501
 4613              		.loc 1 2832 0 is_stmt 0 discriminator 1
ARM GAS  /tmp/ccSqa4tb.s 			page 82


 4614 0b50 4345     		cmp	r3, r8
 4615 0b52 C0F27E82 		blt	.L530
 4616              	.L501:
 4617              		.loc 1 2832 0 discriminator 2
 4618 0b56 D9F82C20 		ldr	r2, [r9, #44]	@ unaligned
 4619 0b5a 9342     		cmp	r3, r2
 4620 0b5c 80F07982 		bcs	.L530
 4621              	.L503:
 4622              		.loc 1 2834 0 is_stmt 1
 4623 0b60 F358     		ldr	r3, [r6, r3]
 4624              	.LVL573:
 4625 0b62 0793     		str	r3, [sp, #28]
 4626              		.loc 1 2835 0
 4627 0b64 FFF713BB 		b	.L240
 4628              	.L319:
 4629              	.LVL574:
 4630              		.loc 1 2838 0
 4631 0b68 5368     		ldr	r3, [r2, #4]
 4632 0b6a 079A     		ldr	r2, [sp, #28]
 4633 0b6c 12FA03F3 		lsls	r3, r2, r3
 4634 0b70 DB19     		adds	r3, r3, r7
 4635              	.LVL575:
 4636              		.loc 1 2840 0
 4637 0b72 5B45     		cmp	r3, fp
 4638 0b74 02DB     		blt	.L504
 4639              		.loc 1 2840 0 is_stmt 0 discriminator 1
 4640 0b76 4345     		cmp	r3, r8
 4641 0b78 C0F26B82 		blt	.L530
 4642              	.L504:
 4643              		.loc 1 2840 0 discriminator 2
 4644 0b7c D9F82C20 		ldr	r2, [r9, #44]	@ unaligned
 4645 0b80 9342     		cmp	r3, r2
 4646 0b82 80F06682 		bcs	.L530
 4647              	.L506:
 4648              		.loc 1 2842 0 is_stmt 1
 4649 0b86 F358     		ldr	r3, [r6, r3]
 4650              	.LVL576:
 4651              		.loc 1 2837 0
 4652 0b88 0434     		adds	r4, r4, #4
 4653              	.LVL577:
 4654              		.loc 1 2842 0
 4655 0b8a 0793     		str	r3, [sp, #28]
 4656              		.loc 1 2843 0
 4657 0b8c FFF7FFBA 		b	.L240
 4658              	.L320:
 4659              		.loc 1 2845 0
 4660 0b90 079B     		ldr	r3, [sp, #28]
 4661 0b92 07EB8303 		add	r3, r7, r3, lsl #2
 4662 0b96 0793     		str	r3, [sp, #28]
 4663              		.loc 1 2846 0
 4664 0b98 FFF7F9BA 		b	.L240
 4665              	.L321:
 4666              		.loc 1 2848 0
 4667 0b9c 5368     		ldr	r3, [r2, #4]
 4668              	.LVL578:
 4669              		.loc 1 2849 0
 4670 0b9e 079A     		ldr	r2, [sp, #28]
ARM GAS  /tmp/ccSqa4tb.s 			page 83


 4671              		.loc 1 2848 0
 4672 0ba0 0434     		adds	r4, r4, #4
 4673              	.LVL579:
 4674              		.loc 1 2849 0
 4675 0ba2 12FA03F3 		lsls	r3, r2, r3
 4676 0ba6 DB19     		adds	r3, r3, r7
 4677 0ba8 0793     		str	r3, [sp, #28]
 4678              		.loc 1 2850 0
 4679 0baa FFF7F0BA 		b	.L240
 4680              	.LVL580:
 4681              	.L322:
 4682              		.loc 1 2852 0
 4683 0bae 5368     		ldr	r3, [r2, #4]
 4684              	.LVL581:
 4685              		.loc 1 2853 0
 4686 0bb0 A8F10408 		sub	r8, r8, #4
 4687              	.LVL582:
 4688              		.loc 1 2852 0
 4689 0bb4 0434     		adds	r4, r4, #4
 4690              	.LVL583:
 4691              		.loc 1 2853 0
 4692 0bb6 46F80830 		str	r3, [r6, r8]
 4693              		.loc 1 2854 0
 4694 0bba FFF7E8BA 		b	.L240
 4695              	.LVL584:
 4696              	.L323:
 4697              		.loc 1 2856 0
 4698 0bbe 5368     		ldr	r3, [r2, #4]
 4699              	.LVL585:
 4700              		.loc 1 2857 0
 4701 0bc0 A8F10408 		sub	r8, r8, #4
 4702              	.LVL586:
 4703 0bc4 F358     		ldr	r3, [r6, r3]
 4704              		.loc 1 2856 0
 4705 0bc6 0434     		adds	r4, r4, #4
 4706              	.LVL587:
 4707              		.loc 1 2857 0
 4708 0bc8 46F80830 		str	r3, [r6, r8]
 4709              		.loc 1 2858 0
 4710 0bcc FFF7DFBA 		b	.L240
 4711              	.LVL588:
 4712              	.L324:
 4713              		.loc 1 2860 0
 4714 0bd0 5368     		ldr	r3, [r2, #4]
 4715              	.LVL589:
 4716              		.loc 1 2861 0
 4717 0bd2 06EB0A02 		add	r2, r6, sl
 4718 0bd6 D358     		ldr	r3, [r2, r3]
 4719 0bd8 A8F10408 		sub	r8, r8, #4
 4720              	.LVL590:
 4721              		.loc 1 2860 0
 4722 0bdc 0434     		adds	r4, r4, #4
 4723              	.LVL591:
 4724              		.loc 1 2861 0
 4725 0bde 46F80830 		str	r3, [r6, r8]
 4726              		.loc 1 2862 0
 4727 0be2 FFF7D4BA 		b	.L240
ARM GAS  /tmp/ccSqa4tb.s 			page 84


 4728              	.LVL592:
 4729              	.L325:
 4730              		.loc 1 2864 0
 4731 0be6 5368     		ldr	r3, [r2, #4]
 4732              	.LVL593:
 4733              		.loc 1 2865 0
 4734 0be8 A8F10408 		sub	r8, r8, #4
 4735              	.LVL594:
 4736 0bec 5344     		add	r3, r3, sl
 4737              		.loc 1 2864 0
 4738 0bee 0434     		adds	r4, r4, #4
 4739              	.LVL595:
 4740              		.loc 1 2865 0
 4741 0bf0 46F80830 		str	r3, [r6, r8]
 4742              		.loc 1 2866 0
 4743 0bf4 FFF7CBBA 		b	.L240
 4744              	.LVL596:
 4745              	.L326:
 4746              		.loc 1 2868 0
 4747 0bf8 5368     		ldr	r3, [r2, #4]
 4748              	.LVL597:
 4749              		.loc 1 2869 0
 4750 0bfa A8F10408 		sub	r8, r8, #4
 4751              	.LVL598:
 4752 0bfe F318     		adds	r3, r6, r3
 4753              		.loc 1 2868 0
 4754 0c00 0434     		adds	r4, r4, #4
 4755              	.LVL599:
 4756              		.loc 1 2869 0
 4757 0c02 46F80830 		str	r3, [r6, r8]
 4758              		.loc 1 2870 0
 4759 0c06 FFF7C2BA 		b	.L240
 4760              	.LVL600:
 4761              	.L327:
 4762              		.loc 1 2872 0
 4763 0c0a 5368     		ldr	r3, [r2, #4]
 4764              	.LVL601:
 4765              		.loc 1 2873 0
 4766 0c0c 06EB0A02 		add	r2, r6, sl
 4767 0c10 D358     		ldr	r3, [r2, r3]
 4768 0c12 A8F10408 		sub	r8, r8, #4
 4769              	.LVL602:
 4770 0c16 F318     		adds	r3, r6, r3
 4771              		.loc 1 2872 0
 4772 0c18 0434     		adds	r4, r4, #4
 4773              	.LVL603:
 4774              		.loc 1 2873 0
 4775 0c1a 46F80830 		str	r3, [r6, r8]
 4776              		.loc 1 2874 0
 4777 0c1e FFF7B6BA 		b	.L240
 4778              	.LVL604:
 4779              	.L328:
 4780              		.loc 1 2876 0
 4781 0c22 5368     		ldr	r3, [r2, #4]
 4782              	.LVL605:
 4783              		.loc 1 2877 0
 4784 0c24 06EB0A02 		add	r2, r6, sl
ARM GAS  /tmp/ccSqa4tb.s 			page 85


 4785 0c28 A8F10408 		sub	r8, r8, #4
 4786              	.LVL606:
 4787 0c2c D318     		adds	r3, r2, r3
 4788              		.loc 1 2876 0
 4789 0c2e 0434     		adds	r4, r4, #4
 4790              	.LVL607:
 4791              		.loc 1 2877 0
 4792 0c30 46F80830 		str	r3, [r6, r8]
 4793              		.loc 1 2878 0
 4794 0c34 FFF7ABBA 		b	.L240
 4795              	.LVL608:
 4796              	.L329:
 4797              		.loc 1 2880 0
 4798 0c38 079B     		ldr	r3, [sp, #28]
 4799 0c3a BB42     		cmp	r3, r7
 4800 0c3c 04D1     		bne	.L507
 4801              		.loc 1 2881 0
 4802 0c3e 2368     		ldr	r3, [r4, #0]
 4803 0c40 E418     		adds	r4, r4, r3
 4804              	.LVL609:
 4805 0c42 043C     		subs	r4, r4, #4
 4806              	.LVL610:
 4807 0c44 FFF7A3BA 		b	.L240
 4808              	.L507:
 4809              		.loc 1 2883 0
 4810 0c48 0434     		adds	r4, r4, #4
 4811              	.LVL611:
 4812 0c4a FFF7A0BA 		b	.L240
 4813              	.L330:
 4814              		.loc 1 2886 0
 4815 0c4e 079B     		ldr	r3, [sp, #28]
 4816 0c50 BB42     		cmp	r3, r7
 4817 0c52 04D0     		beq	.L508
 4818              		.loc 1 2887 0
 4819 0c54 2368     		ldr	r3, [r4, #0]
 4820 0c56 E418     		adds	r4, r4, r3
 4821              	.LVL612:
 4822 0c58 043C     		subs	r4, r4, #4
 4823              	.LVL613:
 4824 0c5a FFF798BA 		b	.L240
 4825              	.L508:
 4826              		.loc 1 2889 0
 4827 0c5e 0434     		adds	r4, r4, #4
 4828              	.LVL614:
 4829 0c60 FFF795BA 		b	.L240
 4830              	.L331:
 4831              		.loc 1 2892 0
 4832 0c64 079B     		ldr	r3, [sp, #28]
 4833 0c66 BB42     		cmp	r3, r7
 4834 0c68 04DA     		bge	.L509
 4835              		.loc 1 2893 0
 4836 0c6a 2368     		ldr	r3, [r4, #0]
 4837 0c6c E418     		adds	r4, r4, r3
 4838              	.LVL615:
 4839 0c6e 043C     		subs	r4, r4, #4
 4840              	.LVL616:
 4841 0c70 FFF78DBA 		b	.L240
ARM GAS  /tmp/ccSqa4tb.s 			page 86


 4842              	.L509:
 4843              		.loc 1 2895 0
 4844 0c74 0434     		adds	r4, r4, #4
 4845              	.LVL617:
 4846 0c76 FFF78ABA 		b	.L240
 4847              	.L332:
 4848              		.loc 1 2898 0
 4849 0c7a 079B     		ldr	r3, [sp, #28]
 4850 0c7c BB42     		cmp	r3, r7
 4851 0c7e 04DC     		bgt	.L510
 4852              		.loc 1 2899 0
 4853 0c80 2368     		ldr	r3, [r4, #0]
 4854 0c82 E418     		adds	r4, r4, r3
 4855              	.LVL618:
 4856 0c84 043C     		subs	r4, r4, #4
 4857              	.LVL619:
 4858 0c86 FFF782BA 		b	.L240
 4859              	.L510:
 4860              		.loc 1 2901 0
 4861 0c8a 0434     		adds	r4, r4, #4
 4862              	.LVL620:
 4863 0c8c FFF77FBA 		b	.L240
 4864              	.L333:
 4865              		.loc 1 2904 0
 4866 0c90 079B     		ldr	r3, [sp, #28]
 4867 0c92 BB42     		cmp	r3, r7
 4868 0c94 04DD     		ble	.L511
 4869              		.loc 1 2905 0
 4870 0c96 2368     		ldr	r3, [r4, #0]
 4871 0c98 E418     		adds	r4, r4, r3
 4872              	.LVL621:
 4873 0c9a 043C     		subs	r4, r4, #4
 4874              	.LVL622:
 4875 0c9c FFF777BA 		b	.L240
 4876              	.L511:
 4877              		.loc 1 2907 0
 4878 0ca0 0434     		adds	r4, r4, #4
 4879              	.LVL623:
 4880 0ca2 FFF774BA 		b	.L240
 4881              	.L334:
 4882              		.loc 1 2910 0
 4883 0ca6 079B     		ldr	r3, [sp, #28]
 4884 0ca8 BB42     		cmp	r3, r7
 4885 0caa 04DB     		blt	.L512
 4886              		.loc 1 2911 0
 4887 0cac 2368     		ldr	r3, [r4, #0]
 4888 0cae E418     		adds	r4, r4, r3
 4889              	.LVL624:
 4890 0cb0 043C     		subs	r4, r4, #4
 4891              	.LVL625:
 4892 0cb2 FFF76CBA 		b	.L240
 4893              	.L512:
 4894              		.loc 1 2913 0
 4895 0cb6 0434     		adds	r4, r4, #4
 4896              	.LVL626:
 4897 0cb8 FFF769BA 		b	.L240
 4898              	.L335:
ARM GAS  /tmp/ccSqa4tb.s 			page 87


 4899              		.loc 1 2916 0
 4900 0cbc 57B9     		cbnz	r7, .L513
 4901              	.L573:
 4902 0cbe DDF804B0 		ldr	fp, [sp, #4]
 4903              	.LVL627:
 4904 0cc2 DDF808C0 		ldr	ip, [sp, #8]
 4905 0cc6 4D46     		mov	r5, r9
 4906              		.loc 1 2917 0
 4907 0cc8 C5F828B0 		str	fp, [r5, #40]	@ unaligned
 4908 0ccc C5F820C0 		str	ip, [r5, #32]	@ unaligned
 4909 0cd0 0B20     		movs	r0, #11
 4910 0cd2 4FE3     		b	.L228
 4911              	.LVL628:
 4912              	.L513:
 4913              		.loc 1 2921 0
 4914 0cd4 079A     		ldr	r2, [sp, #28]
 4915 0cd6 92FBF7F2 		sdiv	r2, r2, r7
 4916              	.LVL629:
 4917              		.loc 1 2922 0
 4918 0cda 92FBF7F3 		sdiv	r3, r2, r7
 4919              	.LVL630:
 4920 0cde 07FB1323 		mls	r3, r7, r3, r2
 4921              	.LVL631:
 4922              		.loc 1 2921 0
 4923 0ce2 0792     		str	r2, [sp, #28]
 4924              		.loc 1 2931 0
 4925 0ce4 002B     		cmp	r3, #0
 4926 0ce6 3FF44FAA 		beq	.L560
 4927              		.loc 1 2931 0 is_stmt 0 discriminator 1
 4928 0cea 93EA070F 		teq	r3, r7
 4929 0cee 7FF54DAA 		bpl	.L561
 4930              		.loc 1 2932 0 is_stmt 1
 4931 0cf2 013A     		subs	r2, r2, #1
 4932              	.LVL632:
 4933 0cf4 0792     		str	r2, [sp, #28]
 4934              	.LVL633:
 4935              		.loc 1 2933 0
 4936 0cf6 FF18     		adds	r7, r7, r3
 4937              	.LVL634:
 4938 0cf8 FFF749BA 		b	.L240
 4939              	.L336:
 4940              		.loc 1 2937 0
 4941 0cfc 079B     		ldr	r3, [sp, #28]
 4942 0cfe DB1B     		subs	r3, r3, r7
 4943 0d00 0793     		str	r3, [sp, #28]
 4944              		.loc 1 2938 0
 4945 0d02 FFF744BA 		b	.L240
 4946              	.L337:
 4947              		.loc 1 2940 0
 4948 0d06 5368     		ldr	r3, [r2, #4]
 4949              	.LVL635:
 4950              		.loc 1 2941 0
 4951 0d08 079A     		ldr	r2, [sp, #28]
 4952              		.loc 1 2940 0
 4953 0d0a 0434     		adds	r4, r4, #4
 4954              	.LVL636:
 4955              		.loc 1 2941 0
ARM GAS  /tmp/ccSqa4tb.s 			page 88


 4956 0d0c D318     		adds	r3, r2, r3
 4957 0d0e 0793     		str	r3, [sp, #28]
 4958              		.loc 1 2942 0
 4959 0d10 FFF73DBA 		b	.L240
 4960              	.LVL637:
 4961              	.L338:
 4962              		.loc 1 2944 0
 4963 0d14 5268     		ldr	r2, [r2, #4]
 4964              	.LVL638:
 4965              		.loc 1 2945 0
 4966 0d16 079B     		ldr	r3, [sp, #28]
 4967              		.loc 1 2944 0
 4968 0d18 0434     		adds	r4, r4, #4
 4969              	.LVL639:
 4970              		.loc 1 2945 0
 4971 0d1a 5343     		muls	r3, r2, r3
 4972 0d1c 0793     		str	r3, [sp, #28]
 4973              		.loc 1 2946 0
 4974 0d1e FFF736BA 		b	.L240
 4975              	.LVL640:
 4976              	.L339:
 4977              		.loc 1 2948 0
 4978 0d22 0023     		movs	r3, #0
 4979 0d24 0793     		str	r3, [sp, #28]
 4980              		.loc 1 2949 0
 4981 0d26 FFF732BA 		b	.L240
 4982              	.L340:
 4983              		.loc 1 2954 0
 4984 0d2a 5368     		ldr	r3, [r2, #4]
 4985              	.LVL641:
 4986              		.loc 1 2955 0
 4987 0d2c 0022     		movs	r2, #0
 4988              		.loc 1 2954 0
 4989 0d2e 0434     		adds	r4, r4, #4
 4990              	.LVL642:
 4991              		.loc 1 2955 0
 4992 0d30 F250     		str	r2, [r6, r3]
 4993              		.loc 1 2956 0
 4994 0d32 FFF72CBA 		b	.L240
 4995              	.LVL643:
 4996              	.L341:
 4997              		.loc 1 2958 0
 4998 0d36 5368     		ldr	r3, [r2, #4]
 4999              	.LVL644:
 5000              		.loc 1 2959 0
 5001 0d38 0021     		movs	r1, #0
 5002              	.LVL645:
 5003 0d3a 06EB0A02 		add	r2, r6, sl
 5004              		.loc 1 2958 0
 5005 0d3e 0434     		adds	r4, r4, #4
 5006              	.LVL646:
 5007              		.loc 1 2959 0
 5008 0d40 D150     		str	r1, [r2, r3]
 5009              		.loc 1 2960 0
 5010 0d42 FFF724BA 		b	.L240
 5011              	.LVL647:
 5012              	.L342:
ARM GAS  /tmp/ccSqa4tb.s 			page 89


 5013              		.loc 1 2962 0
 5014 0d46 5368     		ldr	r3, [r2, #4]
 5015              	.LVL648:
 5016              		.loc 1 2963 0
 5017 0d48 079A     		ldr	r2, [sp, #28]
 5018              		.loc 1 2962 0
 5019 0d4a 0434     		adds	r4, r4, #4
 5020              	.LVL649:
 5021              		.loc 1 2963 0
 5022 0d4c D11A     		subs	r1, r2, r3
 5023 0d4e 4B42     		rsbs	r3, r1, #0
 5024 0d50 43EB0103 		adc	r3, r3, r1
 5025 0d54 0793     		str	r3, [sp, #28]
 5026              		.loc 1 2964 0
 5027 0d56 FFF71ABA 		b	.L240
 5028              	.LVL650:
 5029              	.L343:
 5030              		.loc 1 2966 0
 5031 0d5a 5368     		ldr	r3, [r2, #4]
 5032              	.LVL651:
 5033 0d5c 0434     		adds	r4, r4, #4
 5034              	.LVL652:
 5035              		.loc 1 2967 0
 5036 0d5e FA1A     		subs	r2, r7, r3
 5037 0d60 5342     		rsbs	r3, r2, #0
 5038 0d62 43EB0203 		adc	r3, r3, r2
 5039 0d66 0793     		str	r3, [sp, #28]
 5040              		.loc 1 2968 0
 5041 0d68 FFF711BA 		b	.L240
 5042              	.LVL653:
 5043              	.L344:
 5044              		.loc 1 2970 0
 5045 0d6c 5368     		ldr	r3, [r2, #4]
 5046              	.LVL654:
 5047 0d6e 0434     		adds	r4, r4, #4
 5048              	.LVL655:
 5049              		.loc 1 2972 0
 5050 0d70 F258     		ldr	r2, [r6, r3]
 5051 0d72 0132     		adds	r2, r2, #1
 5052 0d74 F250     		str	r2, [r6, r3]
 5053              		.loc 1 2977 0
 5054 0d76 FFF70ABA 		b	.L240
 5055              	.LVL656:
 5056              	.L345:
 5057              		.loc 1 2979 0
 5058 0d7a 5368     		ldr	r3, [r2, #4]
 5059              	.LVL657:
 5060 0d7c 0434     		adds	r4, r4, #4
 5061              	.LVL658:
 5062              		.loc 1 2981 0
 5063 0d7e 5344     		add	r3, r3, sl
 5064 0d80 F258     		ldr	r2, [r6, r3]
 5065 0d82 0132     		adds	r2, r2, #1
 5066 0d84 F250     		str	r2, [r6, r3]
 5067              		.loc 1 2986 0
 5068 0d86 FFF702BA 		b	.L240
 5069              	.LVL659:
ARM GAS  /tmp/ccSqa4tb.s 			page 90


 5070              	.L346:
 5071              		.loc 1 2988 0
 5072 0d8a 5368     		ldr	r3, [r2, #4]
 5073              	.LVL660:
 5074 0d8c 0434     		adds	r4, r4, #4
 5075              	.LVL661:
 5076              		.loc 1 2990 0
 5077 0d8e F258     		ldr	r2, [r6, r3]
 5078 0d90 013A     		subs	r2, r2, #1
 5079 0d92 F250     		str	r2, [r6, r3]
 5080              		.loc 1 2995 0
 5081 0d94 FFF7FBB9 		b	.L240
 5082              	.LVL662:
 5083              	.L347:
 5084              		.loc 1 2997 0
 5085 0d98 5368     		ldr	r3, [r2, #4]
 5086              	.LVL663:
 5087 0d9a 0434     		adds	r4, r4, #4
 5088              	.LVL664:
 5089              		.loc 1 2999 0
 5090 0d9c 5344     		add	r3, r3, sl
 5091 0d9e F258     		ldr	r2, [r6, r3]
 5092 0da0 013A     		subs	r2, r2, #1
 5093 0da2 F250     		str	r2, [r6, r3]
 5094              		.loc 1 3004 0
 5095 0da4 FFF7F3B9 		b	.L240
 5096              	.LVL665:
 5097              	.L348:
 5098              		.loc 1 3007 0
 5099 0da8 D4F804C0 		ldr	ip, [r4, #4]
 5100              		.loc 1 3008 0
 5101 0dac A8F10408 		sub	r8, r8, #4
 5102              	.LVL666:
 5103              		.loc 1 3006 0
 5104 0db0 5168     		ldr	r1, [r2, #4]
 5105              	.LVL667:
 5106              		.loc 1 3008 0
 5107 0db2 46F808C0 		str	ip, [r6, r8]
 5108              		.loc 1 3010 0
 5109 0db6 D9F80430 		ldr	r3, [r9, #4]	@ unaligned
 5110              		.loc 1 3007 0
 5111 0dba 0834     		adds	r4, r4, #8
 5112              	.LVL668:
 5113              		.loc 1 3010 0
 5114 0dbc E31A     		subs	r3, r4, r3
 5115 0dbe C9F81830 		str	r3, [r9, #24]	@ unaligned
 5116              		.loc 1 3013 0
 5117 0dc2 C9F82880 		str	r8, [r9, #40]	@ unaligned
 5118              		.loc 1 3011 0
 5119 0dc6 C9F820B0 		str	fp, [r9, #32]	@ unaligned
 5120              		.loc 1 3012 0
 5121 0dca C9F81CA0 		str	sl, [r9, #28]	@ unaligned
 5122              		.loc 1 3014 0
 5123 0dce D9F80C50 		ldr	r5, [r9, #12]	@ unaligned
 5124 0dd2 06EB0803 		add	r3, r6, r8
 5125 0dd6 CDF800C0 		str	ip, [sp, #0]
 5126 0dda 4846     		mov	r0, r9
ARM GAS  /tmp/ccSqa4tb.s 			page 91


 5127 0ddc 07AA     		add	r2, sp, #28
 5128 0dde A847     		blx	r5
 5129              	.LVL669:
 5130              		.loc 1 3015 0
 5131 0de0 DDF800C0 		ldr	ip, [sp, #0]
 5132 0de4 E044     		add	r8, ip, r8
 5133              	.LVL670:
 5134 0de6 08F10408 		add	r8, r8, #4
 5135              	.LVL671:
 5136              		.loc 1 3016 0
 5137 0dea 0028     		cmp	r0, #0
 5138 0dec 3FF4CFA9 		beq	.L240
 5139              		.loc 1 3017 0
 5140 0df0 0C28     		cmp	r0, #12
 5141 0df2 DDF804B0 		ldr	fp, [sp, #4]
 5142              	.LVL672:
 5143 0df6 DDF808C0 		ldr	ip, [sp, #8]
 5144 0dfa 4D46     		mov	r5, r9
 5145 0dfc 09D1     		bne	.L514
 5146              		.loc 1 3018 0
 5147 0dfe 079B     		ldr	r3, [sp, #28]
 5148              		.loc 1 3019 0
 5149 0e00 2F66     		str	r7, [r5, #96]	@ unaligned
 5150              		.loc 1 3018 0
 5151 0e02 EB65     		str	r3, [r5, #92]	@ unaligned
 5152              		.loc 1 3020 0
 5153 0e04 C5F82880 		str	r8, [r5, #40]	@ unaligned
 5154              	.LVL673:
 5155              	.L571:
 5156              		.loc 1 3021 0
 5157 0e08 C5F864B0 		str	fp, [r5, #100]	@ unaligned
 5158              		.loc 1 3022 0
 5159 0e0c C5F868C0 		str	ip, [r5, #104]	@ unaligned
 5160              		.loc 1 3023 0
 5161 0e10 B0E2     		b	.L228
 5162              	.L514:
 5163              		.loc 1 3025 0
 5164 0e12 C5F828B0 		str	fp, [r5, #40]	@ unaligned
 5165 0e16 C5F820C0 		str	ip, [r5, #32]	@ unaligned
 5166 0e1a ABE2     		b	.L228
 5167              	.LVL674:
 5168              	.L349:
 5169              		.loc 1 3029 0
 5170 0e1c 5168     		ldr	r1, [r2, #4]
 5171              	.LVL675:
 5172 0e1e 0434     		adds	r4, r4, #4
 5173              	.LVL676:
 5174              		.loc 1 2064 0
 5175 0e20 06EB0800 		add	r0, r6, r8
 5176              		.loc 1 3029 0
 5177 0e24 0B46     		mov	r3, r1
 5178              		.loc 1 3030 0
 5179 0e26 02E0     		b	.L515
 5180              	.LVL677:
 5181              	.L516:
 5182              		.loc 1 3032 0
 5183 0e28 5568     		ldr	r5, [r2, #4]
ARM GAS  /tmp/ccSqa4tb.s 			page 92


 5184 0e2a 40F8045D 		str	r5, [r0, #-4]!
 5185              	.LVL678:
 5186              	.L515:
 5187              		.loc 1 3030 0 discriminator 1
 5188 0e2e 013B     		subs	r3, r3, #1
 5189              	.LVL679:
 5190 0e30 0432     		adds	r2, r2, #4
 5191 0e32 B3F1FF3F 		cmp	r3, #-1
 5192 0e36 F7D1     		bne	.L516
 5193              		.loc 1 2064 0
 5194 0e38 8900     		lsls	r1, r1, #2
 5195              		.loc 1 3030 0
 5196 0e3a C1EB0808 		rsb	r8, r1, r8
 5197 0e3e 6418     		adds	r4, r4, r1
 5198              	.LVL680:
 5199 0e40 FFF7A5B9 		b	.L240
 5200              	.LVL681:
 5201              	.L350:
 5202              		.loc 1 3036 0
 5203 0e44 5168     		ldr	r1, [r2, #4]
 5204              	.LVL682:
 5205 0e46 0434     		adds	r4, r4, #4
 5206              	.LVL683:
 5207              		.loc 1 2064 0
 5208 0e48 06EB0800 		add	r0, r6, r8
 5209              		.loc 1 3036 0
 5210 0e4c 0B46     		mov	r3, r1
 5211              		.loc 1 3037 0
 5212 0e4e 03E0     		b	.L517
 5213              	.LVL684:
 5214              	.L518:
 5215              		.loc 1 3039 0
 5216 0e50 5568     		ldr	r5, [r2, #4]
 5217 0e52 7559     		ldr	r5, [r6, r5]
 5218 0e54 40F8045D 		str	r5, [r0, #-4]!
 5219              	.LVL685:
 5220              	.L517:
 5221              		.loc 1 3037 0 discriminator 1
 5222 0e58 013B     		subs	r3, r3, #1
 5223              	.LVL686:
 5224 0e5a 0432     		adds	r2, r2, #4
 5225 0e5c B3F1FF3F 		cmp	r3, #-1
 5226 0e60 F6D1     		bne	.L518
 5227              		.loc 1 2064 0
 5228 0e62 8900     		lsls	r1, r1, #2
 5229              		.loc 1 3037 0
 5230 0e64 C1EB0808 		rsb	r8, r1, r8
 5231 0e68 6418     		adds	r4, r4, r1
 5232              	.LVL687:
 5233 0e6a FFF790B9 		b	.L240
 5234              	.LVL688:
 5235              	.L351:
 5236              		.loc 1 3043 0
 5237 0e6e 5168     		ldr	r1, [r2, #4]
 5238              	.LVL689:
 5239 0e70 0434     		adds	r4, r4, #4
 5240              	.LVL690:
ARM GAS  /tmp/ccSqa4tb.s 			page 93


 5241              		.loc 1 2064 0
 5242 0e72 06EB0800 		add	r0, r6, r8
 5243              		.loc 1 3043 0
 5244 0e76 0B46     		mov	r3, r1
 5245              		.loc 1 3044 0
 5246 0e78 07E0     		b	.L519
 5247              	.LVL691:
 5248              	.L520:
 5249              		.loc 1 3046 0
 5250 0e7a D2F804C0 		ldr	ip, [r2, #4]
 5251 0e7e 06EB0A05 		add	r5, r6, sl
 5252 0e82 55F80C50 		ldr	r5, [r5, ip]
 5253 0e86 40F8045D 		str	r5, [r0, #-4]!
 5254              	.LVL692:
 5255              	.L519:
 5256              		.loc 1 3044 0 discriminator 1
 5257 0e8a 013B     		subs	r3, r3, #1
 5258              	.LVL693:
 5259 0e8c 0432     		adds	r2, r2, #4
 5260 0e8e B3F1FF3F 		cmp	r3, #-1
 5261 0e92 F2D1     		bne	.L520
 5262              		.loc 1 2064 0
 5263 0e94 8900     		lsls	r1, r1, #2
 5264              		.loc 1 3044 0
 5265 0e96 C1EB0808 		rsb	r8, r1, r8
 5266 0e9a 6418     		adds	r4, r4, r1
 5267              	.LVL694:
 5268 0e9c FFF777B9 		b	.L240
 5269              	.LVL695:
 5270              	.L352:
 5271              		.loc 1 3050 0
 5272 0ea0 5168     		ldr	r1, [r2, #4]
 5273              	.LVL696:
 5274 0ea2 0434     		adds	r4, r4, #4
 5275              	.LVL697:
 5276              		.loc 1 2064 0
 5277 0ea4 06EB0800 		add	r0, r6, r8
 5278              		.loc 1 3050 0
 5279 0ea8 0B46     		mov	r3, r1
 5280              		.loc 1 3051 0
 5281 0eaa 03E0     		b	.L521
 5282              	.LVL698:
 5283              	.L522:
 5284              		.loc 1 3053 0
 5285 0eac 5568     		ldr	r5, [r2, #4]
 5286 0eae 5544     		add	r5, sl, r5
 5287 0eb0 40F8045D 		str	r5, [r0, #-4]!
 5288              	.LVL699:
 5289              	.L521:
 5290              		.loc 1 3051 0 discriminator 1
 5291 0eb4 013B     		subs	r3, r3, #1
 5292              	.LVL700:
 5293 0eb6 0432     		adds	r2, r2, #4
 5294 0eb8 B3F1FF3F 		cmp	r3, #-1
 5295 0ebc F6D1     		bne	.L522
 5296              		.loc 1 2064 0
 5297 0ebe 8900     		lsls	r1, r1, #2
ARM GAS  /tmp/ccSqa4tb.s 			page 94


 5298              		.loc 1 3051 0
 5299 0ec0 C1EB0808 		rsb	r8, r1, r8
 5300 0ec4 6418     		adds	r4, r4, r1
 5301              	.LVL701:
 5302 0ec6 FFF762B9 		b	.L240
 5303              	.LVL702:
 5304              	.L353:
 5305              		.loc 1 3057 0
 5306 0eca 5168     		ldr	r1, [r2, #4]
 5307              	.LVL703:
 5308 0ecc 0434     		adds	r4, r4, #4
 5309              	.LVL704:
 5310              		.loc 1 2064 0
 5311 0ece 06EB0800 		add	r0, r6, r8
 5312              		.loc 1 3057 0
 5313 0ed2 0B46     		mov	r3, r1
 5314              		.loc 1 3058 0
 5315 0ed4 03E0     		b	.L523
 5316              	.LVL705:
 5317              	.L524:
 5318              		.loc 1 3060 0
 5319 0ed6 5568     		ldr	r5, [r2, #4]
 5320 0ed8 7519     		adds	r5, r6, r5
 5321 0eda 40F8045D 		str	r5, [r0, #-4]!
 5322              	.LVL706:
 5323              	.L523:
 5324              		.loc 1 3058 0 discriminator 1
 5325 0ede 013B     		subs	r3, r3, #1
 5326              	.LVL707:
 5327 0ee0 0432     		adds	r2, r2, #4
 5328 0ee2 B3F1FF3F 		cmp	r3, #-1
 5329 0ee6 F6D1     		bne	.L524
 5330              		.loc 1 2064 0
 5331 0ee8 8900     		lsls	r1, r1, #2
 5332              		.loc 1 3058 0
 5333 0eea C1EB0808 		rsb	r8, r1, r8
 5334 0eee 6418     		adds	r4, r4, r1
 5335              	.LVL708:
 5336 0ef0 FFF74DB9 		b	.L240
 5337              	.LVL709:
 5338              	.L354:
 5339              		.loc 1 3064 0
 5340 0ef4 5168     		ldr	r1, [r2, #4]
 5341              	.LVL710:
 5342 0ef6 0434     		adds	r4, r4, #4
 5343              	.LVL711:
 5344              		.loc 1 2064 0
 5345 0ef8 06EB0800 		add	r0, r6, r8
 5346              		.loc 1 3064 0
 5347 0efc 0B46     		mov	r3, r1
 5348              		.loc 1 3065 0
 5349 0efe 08E0     		b	.L525
 5350              	.LVL712:
 5351              	.L526:
 5352              		.loc 1 3067 0
 5353 0f00 D2F804C0 		ldr	ip, [r2, #4]
 5354 0f04 06EB0A05 		add	r5, r6, sl
ARM GAS  /tmp/ccSqa4tb.s 			page 95


 5355 0f08 55F80C50 		ldr	r5, [r5, ip]
 5356 0f0c 7519     		adds	r5, r6, r5
 5357 0f0e 40F8045D 		str	r5, [r0, #-4]!
 5358              	.LVL713:
 5359              	.L525:
 5360              		.loc 1 3065 0 discriminator 1
 5361 0f12 013B     		subs	r3, r3, #1
 5362              	.LVL714:
 5363 0f14 0432     		adds	r2, r2, #4
 5364 0f16 B3F1FF3F 		cmp	r3, #-1
 5365 0f1a F1D1     		bne	.L526
 5366              		.loc 1 2064 0
 5367 0f1c 8900     		lsls	r1, r1, #2
 5368              		.loc 1 3065 0
 5369 0f1e C1EB0808 		rsb	r8, r1, r8
 5370 0f22 6418     		adds	r4, r4, r1
 5371              	.LVL715:
 5372 0f24 FFF733B9 		b	.L240
 5373              	.LVL716:
 5374              	.L355:
 5375              		.loc 1 3071 0
 5376 0f28 5168     		ldr	r1, [r2, #4]
 5377              	.LVL717:
 5378 0f2a 0434     		adds	r4, r4, #4
 5379              	.LVL718:
 5380              		.loc 1 2064 0
 5381 0f2c 06EB0800 		add	r0, r6, r8
 5382              		.loc 1 3071 0
 5383 0f30 0B46     		mov	r3, r1
 5384              		.loc 1 3072 0
 5385 0f32 04E0     		b	.L527
 5386              	.LVL719:
 5387              	.L528:
 5388              		.loc 1 3074 0
 5389 0f34 5568     		ldr	r5, [r2, #4]
 5390 0f36 7519     		adds	r5, r6, r5
 5391 0f38 5544     		add	r5, r5, sl
 5392 0f3a 40F8045D 		str	r5, [r0, #-4]!
 5393              	.LVL720:
 5394              	.L527:
 5395              		.loc 1 3072 0 discriminator 1
 5396 0f3e 013B     		subs	r3, r3, #1
 5397              	.LVL721:
 5398 0f40 0432     		adds	r2, r2, #4
 5399 0f42 B3F1FF3F 		cmp	r3, #-1
 5400 0f46 F5D1     		bne	.L528
 5401              		.loc 1 2064 0
 5402 0f48 8900     		lsls	r1, r1, #2
 5403              		.loc 1 3072 0
 5404 0f4a C1EB0808 		rsb	r8, r1, r8
 5405 0f4e 6418     		adds	r4, r4, r1
 5406              	.LVL722:
 5407 0f50 FFF71DB9 		b	.L240
 5408              	.LVL723:
 5409              	.L356:
 5410              		.loc 1 3079 0
 5411 0f54 5268     		ldr	r2, [r2, #4]
ARM GAS  /tmp/ccSqa4tb.s 			page 96


 5412              	.LVL724:
 5413              		.loc 1 3078 0
 5414 0f56 231D     		adds	r3, r4, #4
 5415              	.LVL725:
 5416              		.loc 1 3079 0
 5417 0f58 B258     		ldr	r2, [r6, r2]
 5418              		.loc 1 3080 0
 5419 0f5a 0834     		adds	r4, r4, #8
 5420              	.LVL726:
 5421              		.loc 1 3079 0
 5422 0f5c 0792     		str	r2, [sp, #28]
 5423              	.LVL727:
 5424              		.loc 1 3081 0
 5425 0f5e 1B68     		ldr	r3, [r3, #0]
 5426 0f60 F758     		ldr	r7, [r6, r3]
 5427              	.LVL728:
 5428              		.loc 1 3082 0
 5429 0f62 FFF714B9 		b	.L240
 5430              	.LVL729:
 5431              	.L357:
 5432              		.loc 1 3085 0
 5433 0f66 5268     		ldr	r2, [r2, #4]
 5434              		.loc 1 3084 0
 5435 0f68 231D     		adds	r3, r4, #4
 5436              	.LVL730:
 5437              		.loc 1 3085 0
 5438 0f6a B218     		adds	r2, r6, r2
 5439 0f6c 52F80A20 		ldr	r2, [r2, sl]
 5440              		.loc 1 3086 0
 5441 0f70 0834     		adds	r4, r4, #8
 5442              	.LVL731:
 5443              		.loc 1 3085 0
 5444 0f72 0792     		str	r2, [sp, #28]
 5445              	.LVL732:
 5446              		.loc 1 3087 0
 5447 0f74 1B68     		ldr	r3, [r3, #0]
 5448 0f76 F318     		adds	r3, r6, r3
 5449 0f78 53F80A70 		ldr	r7, [r3, sl]
 5450              	.LVL733:
 5451              		.loc 1 3088 0
 5452 0f7c FFF707B9 		b	.L240
 5453              	.LVL734:
 5454              	.L358:
 5455              		.loc 1 3090 0
 5456 0f80 231D     		adds	r3, r4, #4
 5457 0f82 5268     		ldr	r2, [r2, #4]
 5458              	.LVL735:
 5459              		.loc 1 3092 0
 5460 0f84 1B68     		ldr	r3, [r3, #0]
 5461              	.LVL736:
 5462              		.loc 1 3091 0
 5463 0f86 0834     		adds	r4, r4, #8
 5464              	.LVL737:
 5465              		.loc 1 3092 0
 5466 0f88 B350     		str	r3, [r6, r2]
 5467              		.loc 1 3093 0
 5468 0f8a FFF700B9 		b	.L240
ARM GAS  /tmp/ccSqa4tb.s 			page 97


 5469              	.LVL738:
 5470              	.L359:
 5471              		.loc 1 3095 0
 5472 0f8e 231D     		adds	r3, r4, #4
 5473 0f90 5268     		ldr	r2, [r2, #4]
 5474              	.LVL739:
 5475              		.loc 1 3097 0
 5476 0f92 1B68     		ldr	r3, [r3, #0]
 5477              	.LVL740:
 5478 0f94 06EB0A01 		add	r1, r6, sl
 5479              	.LVL741:
 5480              		.loc 1 3096 0
 5481 0f98 0834     		adds	r4, r4, #8
 5482              	.LVL742:
 5483              		.loc 1 3097 0
 5484 0f9a 8B50     		str	r3, [r1, r2]
 5485              		.loc 1 3098 0
 5486 0f9c FFF7F7B8 		b	.L240
 5487              	.LVL743:
 5488              	.L360:
 5489              		.loc 1 3103 0
 5490 0fa0 0914     		asrs	r1, r1, #16
 5491              		.loc 1 3104 0
 5492 0fa2 7358     		ldr	r3, [r6, r1]
 5493 0fa4 0793     		str	r3, [sp, #28]
 5494              		.loc 1 3105 0
 5495 0fa6 FFF7F2B8 		b	.L240
 5496              	.LVL744:
 5497              	.L361:
 5498              		.loc 1 3107 0
 5499 0faa 0914     		asrs	r1, r1, #16
 5500              		.loc 1 3108 0
 5501 0fac 7758     		ldr	r7, [r6, r1]
 5502              	.LVL745:
 5503              		.loc 1 3109 0
 5504 0fae FFF7EEB8 		b	.L240
 5505              	.LVL746:
 5506              	.L362:
 5507              		.loc 1 3112 0
 5508 0fb2 06EB2141 		add	r1, r6, r1, asr #16
 5509 0fb6 51F80A30 		ldr	r3, [r1, sl]
 5510 0fba 0793     		str	r3, [sp, #28]
 5511              		.loc 1 3113 0
 5512 0fbc FFF7E7B8 		b	.L240
 5513              	.LVL747:
 5514              	.L363:
 5515              		.loc 1 3116 0
 5516 0fc0 06EB2141 		add	r1, r6, r1, asr #16
 5517 0fc4 51F80A70 		ldr	r7, [r1, sl]
 5518              	.LVL748:
 5519              		.loc 1 3117 0
 5520 0fc8 FFF7E1B8 		b	.L240
 5521              	.LVL749:
 5522              	.L364:
 5523              		.loc 1 3120 0
 5524 0fcc 0AEB2141 		add	r1, sl, r1, asr #16
 5525              	.LVL750:
ARM GAS  /tmp/ccSqa4tb.s 			page 98


 5526              		.loc 1 3121 0
 5527 0fd0 7358     		ldr	r3, [r6, r1]
 5528 0fd2 F358     		ldr	r3, [r6, r3]
 5529 0fd4 0793     		str	r3, [sp, #28]
 5530              		.loc 1 3122 0
 5531 0fd6 FFF7DAB8 		b	.L240
 5532              	.LVL751:
 5533              	.L365:
 5534              		.loc 1 3125 0
 5535 0fda 0AEB2141 		add	r1, sl, r1, asr #16
 5536              	.LVL752:
 5537              		.loc 1 3126 0
 5538 0fde 7358     		ldr	r3, [r6, r1]
 5539 0fe0 F758     		ldr	r7, [r6, r3]
 5540              	.LVL753:
 5541              		.loc 1 3127 0
 5542 0fe2 FFF7D4B8 		b	.L240
 5543              	.LVL754:
 5544              	.L366:
 5545              		.loc 1 3129 0
 5546 0fe6 0914     		asrs	r1, r1, #16
 5547              	.LVL755:
 5548              		.loc 1 3130 0
 5549 0fe8 FFF76DBA 		b	.L415
 5550              	.LVL756:
 5551              	.L367:
 5552              		.loc 1 3132 0
 5553 0fec 0914     		asrs	r1, r1, #16
 5554 0fee 0791     		str	r1, [sp, #28]
 5555              		.loc 1 3133 0
 5556 0ff0 FFF7CDB8 		b	.L240
 5557              	.L368:
 5558              		.loc 1 3135 0
 5559 0ff4 0F14     		asrs	r7, r1, #16
 5560              	.LVL757:
 5561              		.loc 1 3136 0
 5562 0ff6 FFF7CAB8 		b	.L240
 5563              	.L369:
 5564              		.loc 1 3139 0
 5565 0ffa 0AEB2141 		add	r1, sl, r1, asr #16
 5566 0ffe 0791     		str	r1, [sp, #28]
 5567              		.loc 1 3140 0
 5568 1000 FFF7C5B8 		b	.L240
 5569              	.L370:
 5570              	.LVL758:
 5571              		.loc 1 3143 0
 5572 1004 0AEB2147 		add	r7, sl, r1, asr #16
 5573              	.LVL759:
 5574              		.loc 1 3144 0
 5575 1008 FFF7C1B8 		b	.L240
 5576              	.L371:
 5577              	.LVL760:
 5578              		.loc 1 3147 0
 5579 100c 079B     		ldr	r3, [sp, #28]
 5580              		.loc 1 3146 0
 5581 100e 0914     		asrs	r1, r1, #16
 5582              		.loc 1 3147 0
ARM GAS  /tmp/ccSqa4tb.s 			page 99


 5583 1010 7350     		str	r3, [r6, r1]
 5584              		.loc 1 3148 0
 5585 1012 FFF7BCB8 		b	.L240
 5586              	.LVL761:
 5587              	.L372:
 5588              		.loc 1 3151 0
 5589 1016 079B     		ldr	r3, [sp, #28]
 5590 1018 06EB2141 		add	r1, r6, r1, asr #16
 5591 101c 41F80A30 		str	r3, [r1, sl]
 5592              		.loc 1 3152 0
 5593 1020 FFF7B5B8 		b	.L240
 5594              	.LVL762:
 5595              	.L373:
 5596              		.loc 1 3155 0
 5597 1024 0AEB2141 		add	r1, sl, r1, asr #16
 5598              	.LVL763:
 5599              		.loc 1 3156 0
 5600 1028 7358     		ldr	r3, [r6, r1]
 5601 102a 079A     		ldr	r2, [sp, #28]
 5602 102c F250     		str	r2, [r6, r3]
 5603              		.loc 1 3157 0
 5604 102e FFF7AEB8 		b	.L240
 5605              	.LVL764:
 5606              	.L374:
 5607              		.loc 1 3159 0
 5608 1032 0914     		asrs	r1, r1, #16
 5609              	.LVL765:
 5610              		.loc 1 3160 0
 5611 1034 FFF794BA 		b	.L425
 5612              	.LVL766:
 5613              	.L375:
 5614              		.loc 1 3163 0
 5615 1038 079A     		ldr	r2, [sp, #28]
 5616              		.loc 1 3162 0
 5617 103a 0914     		asrs	r1, r1, #16
 5618              		.loc 1 3163 0
 5619 103c 12FA01F1 		lsls	r1, r2, r1
 5620 1040 C919     		adds	r1, r1, r7
 5621              	.LVL767:
 5622              		.loc 1 3165 0
 5623 1042 5945     		cmp	r1, fp
 5624 1044 01DB     		blt	.L529
 5625              		.loc 1 3165 0 is_stmt 0 discriminator 1
 5626 1046 4145     		cmp	r1, r8
 5627 1048 03DB     		blt	.L530
 5628              	.L529:
 5629              		.loc 1 3165 0 discriminator 2
 5630 104a D9F82C30 		ldr	r3, [r9, #44]	@ unaligned
 5631 104e 9942     		cmp	r1, r3
 5632 1050 0AD3     		bcc	.L531
 5633              	.LVL768:
 5634              	.L530:
 5635 1052 DDF804B0 		ldr	fp, [sp, #4]
 5636              	.LVL769:
 5637 1056 DDF808C0 		ldr	ip, [sp, #8]
 5638 105a 4D46     		mov	r5, r9
 5639              		.loc 1 3166 0 is_stmt 1
ARM GAS  /tmp/ccSqa4tb.s 			page 100


 5640 105c C5F828B0 		str	fp, [r5, #40]	@ unaligned
 5641 1060 C5F820C0 		str	ip, [r5, #32]	@ unaligned
 5642 1064 0520     		movs	r0, #5
 5643 1066 85E1     		b	.L228
 5644              	.LVL770:
 5645              	.L531:
 5646              		.loc 1 3167 0
 5647 1068 7358     		ldr	r3, [r6, r1]
 5648 106a 0793     		str	r3, [sp, #28]
 5649              		.loc 1 3168 0
 5650 106c FFF78FB8 		b	.L240
 5651              	.LVL771:
 5652              	.L376:
 5653              		.loc 1 3171 0
 5654 1070 079A     		ldr	r2, [sp, #28]
 5655              		.loc 1 3170 0
 5656 1072 0914     		asrs	r1, r1, #16
 5657              		.loc 1 3171 0
 5658 1074 12FA01F1 		lsls	r1, r2, r1
 5659 1078 C919     		adds	r1, r1, r7
 5660 107a 0791     		str	r1, [sp, #28]
 5661              		.loc 1 3172 0
 5662 107c FFF787B8 		b	.L240
 5663              	.LVL772:
 5664              	.L377:
 5665              		.loc 1 3174 0
 5666 1080 0914     		asrs	r1, r1, #16
 5667              		.loc 1 3176 0
 5668 1082 0329     		cmp	r1, #3
 5669 1084 3FF683A8 		bhi	.L240
 5670              		.loc 1 3177 0
 5671 1088 079B     		ldr	r3, [sp, #28]
 5672 108a C1F10401 		rsb	r1, r1, #4
 5673 108e 83EA0101 		eor	r1, r3, r1
 5674 1092 0791     		str	r1, [sp, #28]
 5675 1094 FFF77BB8 		b	.L240
 5676              	.LVL773:
 5677              	.L378:
 5678              		.loc 1 3182 0
 5679 1098 A8F10408 		sub	r8, r8, #4
 5680              	.LVL774:
 5681              		.loc 1 3181 0
 5682 109c 0914     		asrs	r1, r1, #16
 5683              		.loc 1 3182 0
 5684 109e 46F80810 		str	r1, [r6, r8]
 5685              		.loc 1 3183 0
 5686 10a2 FFF774B8 		b	.L240
 5687              	.LVL775:
 5688              	.L379:
 5689              		.loc 1 3185 0
 5690 10a6 0914     		asrs	r1, r1, #16
 5691              		.loc 1 3186 0
 5692 10a8 7358     		ldr	r3, [r6, r1]
 5693 10aa A8F10408 		sub	r8, r8, #4
 5694              	.LVL776:
 5695 10ae 46F80830 		str	r3, [r6, r8]
 5696              		.loc 1 3187 0
ARM GAS  /tmp/ccSqa4tb.s 			page 101


 5697 10b2 FFF76CB8 		b	.L240
 5698              	.LVL777:
 5699              	.L380:
 5700              		.loc 1 3190 0
 5701 10b6 06EB2141 		add	r1, r6, r1, asr #16
 5702 10ba 51F80A30 		ldr	r3, [r1, sl]
 5703 10be A8F10408 		sub	r8, r8, #4
 5704              	.LVL778:
 5705 10c2 46F80830 		str	r3, [r6, r8]
 5706              		.loc 1 3191 0
 5707 10c6 FFF762B8 		b	.L240
 5708              	.LVL779:
 5709              	.L381:
 5710              		.loc 1 3194 0
 5711 10ca A8F10408 		sub	r8, r8, #4
 5712              	.LVL780:
 5713 10ce 0AEB2141 		add	r1, sl, r1, asr #16
 5714 10d2 46F80810 		str	r1, [r6, r8]
 5715              		.loc 1 3195 0
 5716 10d6 FFF75AB8 		b	.L240
 5717              	.LVL781:
 5718              	.L382:
 5719              		.loc 1 3198 0
 5720 10da A8F10408 		sub	r8, r8, #4
 5721              	.LVL782:
 5722 10de 06EB2141 		add	r1, r6, r1, asr #16
 5723 10e2 46F80810 		str	r1, [r6, r8]
 5724              		.loc 1 3199 0
 5725 10e6 FFF752B8 		b	.L240
 5726              	.LVL783:
 5727              	.L383:
 5728              		.loc 1 3202 0
 5729 10ea 06EB2141 		add	r1, r6, r1, asr #16
 5730 10ee 51F80A30 		ldr	r3, [r1, sl]
 5731 10f2 A8F10408 		sub	r8, r8, #4
 5732              	.LVL784:
 5733 10f6 F318     		adds	r3, r6, r3
 5734 10f8 46F80830 		str	r3, [r6, r8]
 5735              		.loc 1 3203 0
 5736 10fc FFF747B8 		b	.L240
 5737              	.LVL785:
 5738              	.L384:
 5739              		.loc 1 3206 0
 5740 1100 06EB0A02 		add	r2, r6, sl
 5741 1104 A8F10408 		sub	r8, r8, #4
 5742              	.LVL786:
 5743 1108 02EB2141 		add	r1, r2, r1, asr #16
 5744 110c 46F80810 		str	r1, [r6, r8]
 5745              		.loc 1 3207 0
 5746 1110 FFF73DB8 		b	.L240
 5747              	.LVL787:
 5748              	.L386:
 5749              		.loc 1 3209 0
 5750 1114 0914     		asrs	r1, r1, #16
 5751              	.LVL788:
 5752              		.loc 1 2064 0
 5753 1116 06EB0800 		add	r0, r6, r8
ARM GAS  /tmp/ccSqa4tb.s 			page 102


 5754              		.loc 1 3209 0
 5755 111a 0B46     		mov	r3, r1
 5756              		.loc 1 3210 0
 5757 111c 04E0     		b	.L532
 5758              	.LVL789:
 5759              	.L533:
 5760              		.loc 1 3211 0
 5761 111e 52F8045F 		ldr	r5, [r2, #4]!
 5762              	.LVL790:
 5763              		.loc 1 3212 0
 5764 1122 7559     		ldr	r5, [r6, r5]
 5765 1124 40F8045D 		str	r5, [r0, #-4]!
 5766              	.LVL791:
 5767              	.L532:
 5768              		.loc 1 3210 0 discriminator 1
 5769 1128 013B     		subs	r3, r3, #1
 5770              	.LVL792:
 5771 112a F8D2     		bcs	.L533
 5772              		.loc 1 2064 0
 5773 112c 8900     		lsls	r1, r1, #2
 5774              		.loc 1 3210 0
 5775 112e C1EB0808 		rsb	r8, r1, r8
 5776 1132 6418     		adds	r4, r4, r1
 5777              	.LVL793:
 5778 1134 FFF72BB8 		b	.L240
 5779              	.LVL794:
 5780              	.L387:
 5781              		.loc 1 3216 0
 5782 1138 0914     		asrs	r1, r1, #16
 5783              	.LVL795:
 5784              		.loc 1 2064 0
 5785 113a 06EB0800 		add	r0, r6, r8
 5786              		.loc 1 3216 0
 5787 113e 0B46     		mov	r3, r1
 5788              		.loc 1 3217 0
 5789 1140 07E0     		b	.L534
 5790              	.LVL796:
 5791              	.L535:
 5792              		.loc 1 3218 0
 5793 1142 52F804CF 		ldr	ip, [r2, #4]!
 5794              	.LVL797:
 5795              		.loc 1 3219 0
 5796 1146 06EB0A05 		add	r5, r6, sl
 5797 114a 55F80C50 		ldr	r5, [r5, ip]
 5798 114e 40F8045D 		str	r5, [r0, #-4]!
 5799              	.LVL798:
 5800              	.L534:
 5801              		.loc 1 3217 0 discriminator 1
 5802 1152 013B     		subs	r3, r3, #1
 5803              	.LVL799:
 5804 1154 F5D2     		bcs	.L535
 5805              		.loc 1 2064 0
 5806 1156 8900     		lsls	r1, r1, #2
 5807              		.loc 1 3217 0
 5808 1158 C1EB0808 		rsb	r8, r1, r8
 5809 115c 6418     		adds	r4, r4, r1
 5810              	.LVL800:
ARM GAS  /tmp/ccSqa4tb.s 			page 103


 5811 115e FFF716B8 		b	.L240
 5812              	.LVL801:
 5813              	.L385:
 5814              		.loc 1 3223 0
 5815 1162 0914     		asrs	r1, r1, #16
 5816              	.LVL802:
 5817              		.loc 1 2064 0
 5818 1164 06EB0800 		add	r0, r6, r8
 5819              		.loc 1 3223 0
 5820 1168 0B46     		mov	r3, r1
 5821              		.loc 1 3224 0
 5822 116a 03E0     		b	.L536
 5823              	.LVL803:
 5824              	.L537:
 5825              		.loc 1 3225 0
 5826 116c 52F8045F 		ldr	r5, [r2, #4]!
 5827              	.LVL804:
 5828              		.loc 1 3226 0
 5829 1170 40F8045D 		str	r5, [r0, #-4]!
 5830              	.LVL805:
 5831              	.L536:
 5832              		.loc 1 3224 0 discriminator 1
 5833 1174 013B     		subs	r3, r3, #1
 5834              	.LVL806:
 5835 1176 F9D2     		bcs	.L537
 5836              		.loc 1 2064 0
 5837 1178 8900     		lsls	r1, r1, #2
 5838              		.loc 1 3224 0
 5839 117a C1EB0808 		rsb	r8, r1, r8
 5840 117e 6418     		adds	r4, r4, r1
 5841              	.LVL807:
 5842 1180 FFF705B8 		b	.L240
 5843              	.LVL808:
 5844              	.L388:
 5845              		.loc 1 3230 0
 5846 1184 0914     		asrs	r1, r1, #16
 5847              	.LVL809:
 5848              		.loc 1 2064 0
 5849 1186 06EB0800 		add	r0, r6, r8
 5850              		.loc 1 3230 0
 5851 118a 0B46     		mov	r3, r1
 5852              		.loc 1 3231 0
 5853 118c 04E0     		b	.L538
 5854              	.LVL810:
 5855              	.L539:
 5856              		.loc 1 3232 0
 5857 118e 52F8045F 		ldr	r5, [r2, #4]!
 5858              	.LVL811:
 5859              		.loc 1 3233 0
 5860 1192 5544     		add	r5, sl, r5
 5861 1194 40F8045D 		str	r5, [r0, #-4]!
 5862              	.LVL812:
 5863              	.L538:
 5864              		.loc 1 3231 0 discriminator 1
 5865 1198 013B     		subs	r3, r3, #1
 5866              	.LVL813:
 5867 119a F8D2     		bcs	.L539
ARM GAS  /tmp/ccSqa4tb.s 			page 104


 5868              		.loc 1 2064 0
 5869 119c 8900     		lsls	r1, r1, #2
 5870              		.loc 1 3231 0
 5871 119e C1EB0808 		rsb	r8, r1, r8
 5872 11a2 6418     		adds	r4, r4, r1
 5873              	.LVL814:
 5874 11a4 FEF7F3BF 		b	.L240
 5875              	.LVL815:
 5876              	.L389:
 5877              		.loc 1 3237 0
 5878 11a8 0914     		asrs	r1, r1, #16
 5879              	.LVL816:
 5880              		.loc 1 2064 0
 5881 11aa 06EB0800 		add	r0, r6, r8
 5882              		.loc 1 3237 0
 5883 11ae 0B46     		mov	r3, r1
 5884              		.loc 1 3238 0
 5885 11b0 04E0     		b	.L540
 5886              	.LVL817:
 5887              	.L541:
 5888              		.loc 1 3239 0
 5889 11b2 52F8045F 		ldr	r5, [r2, #4]!
 5890              	.LVL818:
 5891              		.loc 1 3240 0
 5892 11b6 7519     		adds	r5, r6, r5
 5893 11b8 40F8045D 		str	r5, [r0, #-4]!
 5894              	.LVL819:
 5895              	.L540:
 5896              		.loc 1 3238 0 discriminator 1
 5897 11bc 013B     		subs	r3, r3, #1
 5898              	.LVL820:
 5899 11be F8D2     		bcs	.L541
 5900              		.loc 1 2064 0
 5901 11c0 8900     		lsls	r1, r1, #2
 5902              		.loc 1 3238 0
 5903 11c2 C1EB0808 		rsb	r8, r1, r8
 5904 11c6 6418     		adds	r4, r4, r1
 5905              	.LVL821:
 5906 11c8 FEF7E1BF 		b	.L240
 5907              	.LVL822:
 5908              	.L390:
 5909              		.loc 1 3244 0
 5910 11cc 0914     		asrs	r1, r1, #16
 5911              	.LVL823:
 5912              		.loc 1 2064 0
 5913 11ce 06EB0800 		add	r0, r6, r8
 5914              		.loc 1 3244 0
 5915 11d2 0B46     		mov	r3, r1
 5916              		.loc 1 3245 0
 5917 11d4 08E0     		b	.L542
 5918              	.LVL824:
 5919              	.L543:
 5920              		.loc 1 3246 0
 5921 11d6 52F804CF 		ldr	ip, [r2, #4]!
 5922              	.LVL825:
 5923              		.loc 1 3247 0
 5924 11da 06EB0A05 		add	r5, r6, sl
ARM GAS  /tmp/ccSqa4tb.s 			page 105


 5925 11de 55F80C50 		ldr	r5, [r5, ip]
 5926 11e2 7519     		adds	r5, r6, r5
 5927 11e4 40F8045D 		str	r5, [r0, #-4]!
 5928              	.LVL826:
 5929              	.L542:
 5930              		.loc 1 3245 0 discriminator 1
 5931 11e8 013B     		subs	r3, r3, #1
 5932              	.LVL827:
 5933 11ea F4D2     		bcs	.L543
 5934              		.loc 1 2064 0
 5935 11ec 8900     		lsls	r1, r1, #2
 5936              		.loc 1 3245 0
 5937 11ee C1EB0808 		rsb	r8, r1, r8
 5938 11f2 6418     		adds	r4, r4, r1
 5939              	.LVL828:
 5940 11f4 FEF7CBBF 		b	.L240
 5941              	.LVL829:
 5942              	.L391:
 5943              		.loc 1 3251 0
 5944 11f8 0914     		asrs	r1, r1, #16
 5945              	.LVL830:
 5946              		.loc 1 2064 0
 5947 11fa 06EB0800 		add	r0, r6, r8
 5948              		.loc 1 3251 0
 5949 11fe 0B46     		mov	r3, r1
 5950              		.loc 1 3252 0
 5951 1200 05E0     		b	.L544
 5952              	.LVL831:
 5953              	.L545:
 5954              		.loc 1 3253 0
 5955 1202 52F8045F 		ldr	r5, [r2, #4]!
 5956              	.LVL832:
 5957              		.loc 1 3254 0
 5958 1206 7519     		adds	r5, r6, r5
 5959 1208 5544     		add	r5, r5, sl
 5960 120a 40F8045D 		str	r5, [r0, #-4]!
 5961              	.LVL833:
 5962              	.L544:
 5963              		.loc 1 3252 0 discriminator 1
 5964 120e 013B     		subs	r3, r3, #1
 5965              	.LVL834:
 5966 1210 F7D2     		bcs	.L545
 5967              		.loc 1 2064 0
 5968 1212 8900     		lsls	r1, r1, #2
 5969              		.loc 1 3252 0
 5970 1214 C1EB0808 		rsb	r8, r1, r8
 5971 1218 6418     		adds	r4, r4, r1
 5972              	.LVL835:
 5973 121a FEF7B8BF 		b	.L240
 5974              	.LVL836:
 5975              	.L392:
 5976              		.loc 1 3260 0
 5977 121e 08EB2141 		add	r1, r8, r1, asr #16
 5978              	.LVL837:
 5979              		.loc 1 3261 0
 5980 1222 0BF13F03 		add	r3, fp, #63
 5981 1226 8B42     		cmp	r3, r1
ARM GAS  /tmp/ccSqa4tb.s 			page 106


 5982 1228 80F2A180 		bge	.L564
 5983              		.loc 1 3262 0
 5984 122c D9F82C30 		ldr	r3, [r9, #44]	@ unaligned
 5985 1230 9942     		cmp	r1, r3
 5986 1232 00F39A80 		bgt	.L563
 5987 1236 4746     		mov	r7, r8
 5988 1238 8846     		mov	r8, r1
 5989              	.LVL838:
 5990 123a FEF7A8BF 		b	.L240
 5991              	.LVL839:
 5992              	.L393:
 5993              		.loc 1 3267 0
 5994 123e 0BEB2141 		add	r1, fp, r1, asr #16
 5995              	.LVL840:
 5996              		.loc 1 3268 0
 5997 1242 01F13F03 		add	r3, r1, #63
 5998 1246 4345     		cmp	r3, r8
 5999 1248 80F29180 		bge	.L564
 6000              		.loc 1 3269 0
 6001 124c D9F82430 		ldr	r3, [r9, #36]	@ unaligned
 6002 1250 9942     		cmp	r1, r3
 6003 1252 C0F28E80 		blt	.L565
 6004 1256 5F46     		mov	r7, fp
 6005 1258 8B46     		mov	fp, r1
 6006              	.LVL841:
 6007 125a FEF798BF 		b	.L240
 6008              	.LVL842:
 6009              	.L394:
 6010              		.loc 1 3273 0
 6011 125e 079A     		ldr	r2, [sp, #28]
 6012              	.LVL843:
 6013              		.loc 1 3272 0
 6014 1260 0914     		asrs	r1, r1, #16
 6015              		.loc 1 3273 0
 6016 1262 12FA01F1 		lsls	r1, r2, r1
 6017 1266 0791     		str	r1, [sp, #28]
 6018              		.loc 1 3274 0
 6019 1268 FEF791BF 		b	.L240
 6020              	.LVL844:
 6021              	.L395:
 6022              		.loc 1 3276 0
 6023 126c 0914     		asrs	r1, r1, #16
 6024              		.loc 1 3277 0
 6025 126e 8F40     		lsls	r7, r7, r1
 6026              	.LVL845:
 6027              		.loc 1 3278 0
 6028 1270 FEF78DBF 		b	.L240
 6029              	.LVL846:
 6030              	.L396:
 6031              		.loc 1 3281 0
 6032 1274 079A     		ldr	r2, [sp, #28]
 6033 1276 02EB2141 		add	r1, r2, r1, asr #16
 6034 127a 0791     		str	r1, [sp, #28]
 6035              		.loc 1 3282 0
 6036 127c FEF787BF 		b	.L240
 6037              	.LVL847:
 6038              	.L397:
ARM GAS  /tmp/ccSqa4tb.s 			page 107


 6039              		.loc 1 3285 0
 6040 1280 079B     		ldr	r3, [sp, #28]
 6041              		.loc 1 3284 0
 6042 1282 0914     		asrs	r1, r1, #16
 6043              		.loc 1 3285 0
 6044 1284 5943     		muls	r1, r3, r1
 6045 1286 0791     		str	r1, [sp, #28]
 6046              		.loc 1 3286 0
 6047 1288 FEF781BF 		b	.L240
 6048              	.LVL848:
 6049              	.L398:
 6050              		.loc 1 3288 0
 6051 128c 0914     		asrs	r1, r1, #16
 6052              		.loc 1 3289 0
 6053 128e 0023     		movs	r3, #0
 6054 1290 7350     		str	r3, [r6, r1]
 6055              		.loc 1 3290 0
 6056 1292 FEF77CBF 		b	.L240
 6057              	.LVL849:
 6058              	.L399:
 6059              		.loc 1 3292 0
 6060 1296 0914     		asrs	r1, r1, #16
 6061              		.loc 1 3293 0
 6062 1298 06EB0A03 		add	r3, r6, sl
 6063 129c 0022     		movs	r2, #0
 6064 129e 5A50     		str	r2, [r3, r1]
 6065              		.loc 1 3294 0
 6066 12a0 FEF775BF 		b	.L240
 6067              	.LVL850:
 6068              	.L400:
 6069              		.loc 1 3297 0
 6070 12a4 079B     		ldr	r3, [sp, #28]
 6071 12a6 B3EB214F 		cmp	r3, r1, asr #16
 6072 12aa 14BF     		ite	ne
 6073 12ac 0023     		movne	r3, #0
 6074 12ae 0123     		moveq	r3, #1
 6075 12b0 0793     		str	r3, [sp, #28]
 6076              		.loc 1 3298 0
 6077 12b2 FEF76CBF 		b	.L240
 6078              	.LVL851:
 6079              	.L401:
 6080              		.loc 1 3301 0
 6081 12b6 B7EB214F 		cmp	r7, r1, asr #16
 6082 12ba 14BF     		ite	ne
 6083 12bc 0023     		movne	r3, #0
 6084 12be 0123     		moveq	r3, #1
 6085 12c0 0793     		str	r3, [sp, #28]
 6086              		.loc 1 3302 0
 6087 12c2 FEF764BF 		b	.L240
 6088              	.LVL852:
 6089              	.L402:
 6090              		.loc 1 3304 0
 6091 12c6 0914     		asrs	r1, r1, #16
 6092              		.loc 1 3306 0
 6093 12c8 7358     		ldr	r3, [r6, r1]
 6094 12ca 0133     		adds	r3, r3, #1
 6095 12cc 7350     		str	r3, [r6, r1]
ARM GAS  /tmp/ccSqa4tb.s 			page 108


 6096              		.loc 1 3311 0
 6097 12ce FEF75EBF 		b	.L240
 6098              	.LVL853:
 6099              	.L403:
 6100              		.loc 1 3315 0
 6101 12d2 0AEB2141 		add	r1, sl, r1, asr #16
 6102 12d6 7358     		ldr	r3, [r6, r1]
 6103 12d8 0133     		adds	r3, r3, #1
 6104 12da 7350     		str	r3, [r6, r1]
 6105              		.loc 1 3320 0
 6106 12dc FEF757BF 		b	.L240
 6107              	.LVL854:
 6108              	.L404:
 6109              		.loc 1 3322 0
 6110 12e0 0914     		asrs	r1, r1, #16
 6111              		.loc 1 3324 0
 6112 12e2 7358     		ldr	r3, [r6, r1]
 6113 12e4 013B     		subs	r3, r3, #1
 6114 12e6 7350     		str	r3, [r6, r1]
 6115              		.loc 1 3329 0
 6116 12e8 FEF751BF 		b	.L240
 6117              	.LVL855:
 6118              	.L405:
 6119              		.loc 1 3333 0
 6120 12ec 0AEB2141 		add	r1, sl, r1, asr #16
 6121 12f0 7358     		ldr	r3, [r6, r1]
 6122 12f2 013B     		subs	r3, r3, #1
 6123 12f4 7350     		str	r3, [r6, r1]
 6124              		.loc 1 3338 0
 6125 12f6 FEF74ABF 		b	.L240
 6126              	.LVL856:
 6127              	.L406:
 6128              		.loc 1 3340 0
 6129 12fa 0A14     		asrs	r2, r1, #16
 6130              	.LVL857:
 6131              		.loc 1 3341 0
 6132 12fc FFF7CBBA 		b	.L450
 6133              	.LVL858:
 6134              	.L407:
 6135              		.loc 1 3343 0
 6136 1300 0A14     		asrs	r2, r1, #16
 6137              	.LVL859:
 6138              		.loc 1 3344 0
 6139 1302 FFF7F4BA 		b	.L463
 6140              	.LVL860:
 6141              	.L408:
 6142              		.loc 1 3346 0
 6143 1306 0914     		asrs	r1, r1, #16
 6144              	.LVL861:
 6145              		.loc 1 3347 0
 6146 1308 FFF71EBB 		b	.L476
 6147              	.LVL862:
 6148              	.L409:
 6149 130c CDF810B0 		str	fp, [sp, #16]
 6150 1310 4D46     		mov	r5, r9
 6151 1312 DDF808C0 		ldr	ip, [sp, #8]
 6152 1316 DDF804B0 		ldr	fp, [sp, #4]
ARM GAS  /tmp/ccSqa4tb.s 			page 109


 6153              	.LVL863:
 6154 131a B946     		mov	r9, r7
 6155              	.LVL864:
 6156              		.loc 1 3349 0
 6157 131c 0814     		asrs	r0, r1, #16
 6158              	.LVL865:
 6159              		.loc 1 3350 0
 6160 131e FFF739BB 		b	.L484
 6161              	.LVL866:
 6162              	.L410:
 6163              		.loc 1 3353 0
 6164 1322 079B     		ldr	r3, [sp, #28]
 6165 1324 B3EB214F 		cmp	r3, r1, asr #16
 6166 1328 7EF631AF 		bls	.L240
 6167              	.LVL867:
 6168              	.L572:
 6169 132c 4D46     		mov	r5, r9
 6170              		.loc 1 3354 0
 6171 132e 6B68     		ldr	r3, [r5, #4]	@ unaligned
 6172 1330 DDF804B0 		ldr	fp, [sp, #4]
 6173              	.LVL868:
 6174 1334 DDF808C0 		ldr	ip, [sp, #8]
 6175 1338 E41A     		subs	r4, r4, r3
 6176              	.LVL869:
 6177 133a AC61     		str	r4, [r5, #24]	@ unaligned
 6178              		.loc 1 3355 0
 6179 133c C5F828B0 		str	fp, [r5, #40]	@ unaligned
 6180 1340 C5F820C0 		str	ip, [r5, #32]	@ unaligned
 6181 1344 0420     		movs	r0, #4
 6182 1346 15E0     		b	.L228
 6183              	.LVL870:
 6184              	.L241:
 6185 1348 DDF804B0 		ldr	fp, [sp, #4]
 6186              	.LVL871:
 6187 134c DDF808C0 		ldr	ip, [sp, #8]
 6188 1350 4D46     		mov	r5, r9
 6189              		.loc 1 3361 0
 6190 1352 C5F828B0 		str	fp, [r5, #40]	@ unaligned
 6191 1356 C5F820C0 		str	ip, [r5, #32]	@ unaligned
 6192 135a 0620     		movs	r0, #6
 6193 135c 0AE0     		b	.L228
 6194              	.LVL872:
 6195              	.L546:
 6196              		.loc 1 2078 0
 6197 135e 1620     		movs	r0, #22
 6198              	.LVL873:
 6199 1360 08E0     		b	.L228
 6200              	.LVL874:
 6201              	.L547:
 6202              		.loc 1 2080 0
 6203 1362 0920     		movs	r0, #9
 6204 1364 06E0     		b	.L228
 6205              	.LVL875:
 6206              	.L550:
 6207              		.loc 1 2137 0
 6208 1366 1420     		movs	r0, #20
 6209 1368 04E0     		b	.L228
ARM GAS  /tmp/ccSqa4tb.s 			page 110


 6210              	.LVL876:
 6211              	.L563:
 6212              		.loc 1 3262 0
 6213 136a 0720     		movs	r0, #7
 6214 136c 02E0     		b	.L228
 6215              	.L564:
 6216              		.loc 1 3268 0
 6217 136e 0320     		movs	r0, #3
 6218 1370 00E0     		b	.L228
 6219              	.L565:
 6220              		.loc 1 3269 0
 6221 1372 0820     		movs	r0, #8
 6222              	.LVL877:
 6223              	.L228:
 6224              		.loc 1 3365 0
 6225 1374 09B0     		add	sp, sp, #36
 6226 1376 BDE8F08F 		pop	{r4, r5, r6, r7, r8, r9, sl, fp, pc}
 6227              	.LVL878:
 6228              	.L582:
 6229              	.LBB23:
 6230              		.loc 1 2704 0
 6231 137a DC68     		ldr	r4, [r3, #12]
 6232 137c 1C19     		adds	r4, r3, r4
 6233 137e 0834     		adds	r4, r4, #8
 6234              	.LVL879:
 6235 1380 FEF705BF 		b	.L240
 6236              	.LVL880:
 6237              	.L583:
 6238              	.LBE23:
 6239              	.LBB24:
 6240              		.loc 1 2818 0
 6241 1384 4B68     		ldr	r3, [r1, #4]
 6242 1386 C9F87030 		str	r3, [r9, #112]	@ unaligned
 6243 138a FFF7CBBB 		b	.L497
 6244              	.LBE24:
 6245              		.cfi_endproc
 6246              	.LFE34:
 6247              		.size	amx_Exec, .-amx_Exec
 6248 138e 00BF     		.section	.text.amx_SetCallback,"ax",%progbits
 6249              		.align	1
 6250              		.global	amx_SetCallback
 6251              		.thumb
 6252              		.thumb_func
 6253              		.type	amx_SetCallback, %function
 6254              	amx_SetCallback:
 6255              	.LFB35:
 6256              		.loc 1 3371 0
 6257              		.cfi_startproc
 6258              		@ args = 0, pretend = 0, frame = 0
 6259              		@ frame_needed = 0, uses_anonymous_args = 0
 6260              		@ link register save eliminated.
 6261              	.LVL881:
 6262              		.loc 1 3374 0
 6263 0000 C160     		str	r1, [r0, #12]	@ unaligned
 6264              		.loc 1 3376 0
 6265 0002 0020     		movs	r0, #0
 6266              	.LVL882:
ARM GAS  /tmp/ccSqa4tb.s 			page 111


 6267 0004 7047     		bx	lr
 6268              		.cfi_endproc
 6269              	.LFE35:
 6270              		.size	amx_SetCallback, .-amx_SetCallback
 6271              		.section	.text.amx_SetDebugHook,"ax",%progbits
 6272              		.align	1
 6273              		.global	amx_SetDebugHook
 6274              		.thumb
 6275              		.thumb_func
 6276              		.type	amx_SetDebugHook, %function
 6277              	amx_SetDebugHook:
 6278              	.LFB36:
 6279              		.loc 1 3381 0
 6280              		.cfi_startproc
 6281              		@ args = 0, pretend = 0, frame = 0
 6282              		@ frame_needed = 0, uses_anonymous_args = 0
 6283              		@ link register save eliminated.
 6284              	.LVL883:
 6285              		.loc 1 3383 0
 6286 0000 0161     		str	r1, [r0, #16]	@ unaligned
 6287              		.loc 1 3385 0
 6288 0002 0020     		movs	r0, #0
 6289              	.LVL884:
 6290 0004 7047     		bx	lr
 6291              		.cfi_endproc
 6292              	.LFE36:
 6293              		.size	amx_SetDebugHook, .-amx_SetDebugHook
 6294              		.section	.text.amx_RaiseError,"ax",%progbits
 6295              		.align	1
 6296              		.global	amx_RaiseError
 6297              		.thumb
 6298              		.thumb_func
 6299              		.type	amx_RaiseError, %function
 6300              	amx_RaiseError:
 6301              	.LFB37:
 6302              		.loc 1 3390 0
 6303              		.cfi_startproc
 6304              		@ args = 0, pretend = 0, frame = 0
 6305              		@ frame_needed = 0, uses_anonymous_args = 0
 6306              		@ link register save eliminated.
 6307              	.LVL885:
 6308              		.loc 1 3392 0
 6309 0000 4165     		str	r1, [r0, #84]	@ unaligned
 6310              		.loc 1 3394 0
 6311 0002 0020     		movs	r0, #0
 6312              	.LVL886:
 6313 0004 7047     		bx	lr
 6314              		.cfi_endproc
 6315              	.LFE37:
 6316              		.size	amx_RaiseError, .-amx_RaiseError
 6317              		.section	.text.amx_Allot,"ax",%progbits
 6318              		.align	1
 6319              		.global	amx_Allot
 6320              		.thumb
 6321              		.thumb_func
 6322              		.type	amx_Allot, %function
 6323              	amx_Allot:
ARM GAS  /tmp/ccSqa4tb.s 			page 112


 6324              	.LFB38:
 6325              		.loc 1 3399 0
 6326              		.cfi_startproc
 6327              		@ args = 0, pretend = 0, frame = 0
 6328              		@ frame_needed = 0, uses_anonymous_args = 0
 6329              	.LVL887:
 6330 0000 30B5     		push	{r4, r5, lr}
 6331              	.LCFI23:
 6332              		.cfi_def_cfa_offset 12
 6333              		.loc 1 3407 0
 6334 0002 8468     		ldr	r4, [r0, #8]	@ unaligned
 6335              		.cfi_offset 14, -4
 6336              		.cfi_offset 5, -8
 6337              		.cfi_offset 4, -12
 6338              		.loc 1 3404 0
 6339 0004 0368     		ldr	r3, [r0, #0]	@ unaligned
 6340              	.LVL888:
 6341              		.loc 1 3407 0
 6342 0006 0CB9     		cbnz	r4, .L588
 6343              		.loc 1 3407 0 is_stmt 0 discriminator 2
 6344 0008 1C69     		ldr	r4, [r3, #16]	@ unaligned
 6345 000a 1C19     		adds	r4, r3, r4
 6346              	.L588:
 6347              	.LVL889:
 6348              		.loc 1 3409 0 is_stmt 1 discriminator 3
 6349 000c 036A     		ldr	r3, [r0, #32]	@ unaligned
 6350              	.LVL890:
 6351 000e 856A     		ldr	r5, [r0, #40]	@ unaligned
 6352 0010 8900     		lsls	r1, r1, #2
 6353              	.LVL891:
 6354 0012 ED1A     		subs	r5, r5, r3
 6355 0014 6D1A     		subs	r5, r5, r1
 6356 0016 3F2D     		cmp	r5, #63
 6357 0018 06D9     		bls	.L591
 6358              		.loc 1 3411 0
 6359 001a 0AB1     		cbz	r2, .L590
 6360              		.loc 1 3412 0
 6361 001c E418     		adds	r4, r4, r3
 6362              	.LVL892:
 6363 001e 1460     		str	r4, [r2, #0]
 6364              	.L590:
 6365              		.loc 1 3413 0
 6366 0020 C918     		adds	r1, r1, r3
 6367 0022 0162     		str	r1, [r0, #32]	@ unaligned
 6368              		.loc 1 3414 0
 6369 0024 0020     		movs	r0, #0
 6370              	.LVL893:
 6371 0026 30BD     		pop	{r4, r5, pc}
 6372              	.LVL894:
 6373              	.L591:
 6374              		.loc 1 3410 0
 6375 0028 1020     		movs	r0, #16
 6376              	.LVL895:
 6377              		.loc 1 3415 0
 6378 002a 30BD     		pop	{r4, r5, pc}
 6379              		.cfi_endproc
 6380              	.LFE38:
ARM GAS  /tmp/ccSqa4tb.s 			page 113


 6381              		.size	amx_Allot, .-amx_Allot
 6382              		.section	.text.amx_PushArray,"ax",%progbits
 6383              		.align	1
 6384              		.global	amx_PushArray
 6385              		.thumb
 6386              		.thumb_func
 6387              		.type	amx_PushArray, %function
 6388              	amx_PushArray:
 6389              	.LFB31:
 6390              		.loc 1 1961 0
 6391              		.cfi_startproc
 6392              		@ args = 0, pretend = 0, frame = 0
 6393              		@ frame_needed = 0, uses_anonymous_args = 0
 6394              	.LVL896:
 6395 0000 2DE9F041 		push	{r4, r5, r6, r7, r8, lr}
 6396              	.LCFI24:
 6397              		.cfi_def_cfa_offset 24
 6398              		.loc 1 1961 0
 6399 0004 0D46     		mov	r5, r1
 6400              		.cfi_offset 14, -4
 6401              		.cfi_offset 8, -8
 6402              		.cfi_offset 7, -12
 6403              		.cfi_offset 6, -16
 6404              		.cfi_offset 5, -20
 6405              		.cfi_offset 4, -24
 6406 0006 1646     		mov	r6, r2
 6407              		.loc 1 1969 0
 6408 0008 1946     		mov	r1, r3
 6409              	.LVL897:
 6410 000a 2A46     		mov	r2, r5
 6411              	.LVL898:
 6412              		.loc 1 1961 0
 6413 000c 0446     		mov	r4, r0
 6414 000e 1F46     		mov	r7, r3
 6415              		.loc 1 1968 0
 6416 0010 D0F82080 		ldr	r8, [r0, #32]	@ unaligned
 6417              	.LVL899:
 6418              		.loc 1 1969 0
 6419 0014 FFF7FEFF 		bl	amx_Allot
 6420              	.LVL900:
 6421              		.loc 1 1970 0
 6422 0018 50B9     		cbnz	r0, .L593
 6423              		.loc 1 1971 0
 6424 001a 3146     		mov	r1, r6
 6425 001c 2868     		ldr	r0, [r5, #0]
 6426              	.LVL901:
 6427 001e BA00     		lsls	r2, r7, #2
 6428 0020 FFF7FEFF 		bl	memcpy
 6429              		.loc 1 1972 0
 6430 0024 2046     		mov	r0, r4
 6431 0026 4146     		mov	r1, r8
 6432              		.loc 1 1975 0
 6433 0028 BDE8F041 		pop	{r4, r5, r6, r7, r8, lr}
 6434              		.loc 1 1972 0
 6435 002c FFF7FEBF 		b	amx_Push
 6436              	.LVL902:
 6437              	.L593:
ARM GAS  /tmp/ccSqa4tb.s 			page 114


 6438              		.loc 1 1975 0
 6439 0030 BDE8F081 		pop	{r4, r5, r6, r7, r8, pc}
 6440              		.cfi_endproc
 6441              	.LFE31:
 6442              		.size	amx_PushArray, .-amx_PushArray
 6443              		.section	.text.amx_Release,"ax",%progbits
 6444              		.align	1
 6445              		.global	amx_Release
 6446              		.thumb
 6447              		.thumb_func
 6448              		.type	amx_Release, %function
 6449              	amx_Release:
 6450              	.LFB39:
 6451              		.loc 1 3418 0
 6452              		.cfi_startproc
 6453              		@ args = 0, pretend = 0, frame = 0
 6454              		@ frame_needed = 0, uses_anonymous_args = 0
 6455              		@ link register save eliminated.
 6456              	.LVL903:
 6457              		.loc 1 3427 0
 6458 0000 8368     		ldr	r3, [r0, #8]	@ unaligned
 6459              		.loc 1 3424 0
 6460 0002 0268     		ldr	r2, [r0, #0]	@ unaligned
 6461              	.LVL904:
 6462              		.loc 1 3427 0
 6463 0004 0BB9     		cbnz	r3, .L595
 6464              		.loc 1 3427 0 is_stmt 0 discriminator 2
 6465 0006 1369     		ldr	r3, [r2, #16]	@ unaligned
 6466 0008 D318     		adds	r3, r2, r3
 6467              	.L595:
 6468              	.LVL905:
 6469              		.loc 1 3429 0 is_stmt 1 discriminator 3
 6470 000a 026A     		ldr	r2, [r0, #32]	@ unaligned
 6471              	.LVL906:
 6472              		.loc 1 3428 0 discriminator 3
 6473 000c CB1A     		subs	r3, r1, r3
 6474              	.LVL907:
 6475              		.loc 1 3429 0 discriminator 3
 6476 000e 9A42     		cmp	r2, r3
 6477              		.loc 1 3430 0 discriminator 3
 6478 0010 C8BF     		it	gt
 6479 0012 0362     		strgt	r3, [r0, #32]	@ unaligned
 6480              		.loc 1 3432 0 discriminator 3
 6481 0014 0020     		movs	r0, #0
 6482              	.LVL908:
 6483 0016 7047     		bx	lr
 6484              		.cfi_endproc
 6485              	.LFE39:
 6486              		.size	amx_Release, .-amx_Release
 6487              		.section	.text.amx_StrLen,"ax",%progbits
 6488              		.align	1
 6489              		.global	amx_StrLen
 6490              		.thumb
 6491              		.thumb_func
 6492              		.type	amx_StrLen, %function
 6493              	amx_StrLen:
 6494              	.LFB40:
ARM GAS  /tmp/ccSqa4tb.s 			page 115


 6495              		.loc 1 3449 0
 6496              		.cfi_startproc
 6497              		@ args = 0, pretend = 0, frame = 0
 6498              		@ frame_needed = 0, uses_anonymous_args = 0
 6499              	.LVL909:
 6500 0000 38B5     		push	{r3, r4, r5, lr}
 6501              	.LCFI25:
 6502              		.cfi_def_cfa_offset 16
 6503              		.loc 1 3449 0
 6504 0002 0D46     		mov	r5, r1
 6505              		.cfi_offset 14, -4
 6506              		.cfi_offset 5, -8
 6507              		.cfi_offset 4, -12
 6508              		.cfi_offset 3, -16
 6509              		.loc 1 3456 0
 6510 0004 0446     		mov	r4, r0
 6511 0006 10B9     		cbnz	r0, .L598
 6512              		.loc 1 3457 0
 6513 0008 0860     		str	r0, [r1, #0]
 6514              		.loc 1 3458 0
 6515 000a 1930     		adds	r0, r0, #25
 6516              	.LVL910:
 6517 000c 38BD     		pop	{r3, r4, r5, pc}
 6518              	.L598:
 6519              		.loc 1 3461 0
 6520 000e 0368     		ldr	r3, [r0, #0]
 6521 0010 B3F1807F 		cmp	r3, #16777216
 6522 0014 01D2     		bcs	.L600
 6523 0016 0020     		movs	r0, #0
 6524 0018 0EE0     		b	.L601
 6525              	.L600:
 6526              		.loc 1 3464 0
 6527 001a FFF7FEFF 		bl	strlen
 6528              	.LVL911:
 6529              		.loc 1 3468 0
 6530 001e 8308     		lsrs	r3, r0, #2
 6531 0020 54F82330 		ldr	r3, [r4, r3, lsl #2]
 6532              	.LVL912:
 6533              		.loc 1 3469 0
 6534 0024 20F00300 		bic	r0, r0, #3
 6535              	.LVL913:
 6536              		.loc 1 3470 0
 6537 0028 01E0     		b	.L602
 6538              	.L603:
 6539              		.loc 1 3471 0
 6540 002a 0130     		adds	r0, r0, #1
 6541              	.LVL914:
 6542              		.loc 1 3472 0
 6543 002c 1B02     		lsls	r3, r3, #8
 6544              	.LVL915:
 6545              	.L602:
 6546              		.loc 1 3470 0 discriminator 1
 6547 002e 13F07F4F 		tst	r3, #-16777216
 6548 0032 FAD1     		bne	.L603
 6549 0034 04E0     		b	.L604
 6550              	.LVL916:
 6551              	.L605:
ARM GAS  /tmp/ccSqa4tb.s 			page 116


 6552              		.loc 1 3476 0 discriminator 2
 6553 0036 0130     		adds	r0, r0, #1
 6554              	.LVL917:
 6555              	.L601:
 6556              		.loc 1 3476 0 is_stmt 0 discriminator 1
 6557 0038 54F8043B 		ldr	r3, [r4], #4
 6558 003c 002B     		cmp	r3, #0
 6559 003e FAD1     		bne	.L605
 6560              	.L604:
 6561              		.loc 1 3479 0 is_stmt 1
 6562 0040 2860     		str	r0, [r5, #0]
 6563              		.loc 1 3480 0
 6564 0042 0020     		movs	r0, #0
 6565              	.LVL918:
 6566              		.loc 1 3481 0
 6567 0044 38BD     		pop	{r3, r4, r5, pc}
 6568              		.cfi_endproc
 6569              	.LFE40:
 6570              		.size	amx_StrLen, .-amx_StrLen
 6571              		.section	.text.amx_SetString,"ax",%progbits
 6572              		.align	1
 6573              		.global	amx_SetString
 6574              		.thumb
 6575              		.thumb_func
 6576              		.type	amx_SetString, %function
 6577              	amx_SetString:
 6578              	.LFB41:
 6579              		.loc 1 3486 0
 6580              		.cfi_startproc
 6581              		@ args = 4, pretend = 0, frame = 0
 6582              		@ frame_needed = 0, uses_anonymous_args = 0
 6583              	.LVL919:
 6584 0000 2DE9F041 		push	{r4, r5, r6, r7, r8, lr}
 6585              	.LCFI26:
 6586              		.cfi_def_cfa_offset 24
 6587              		.loc 1 3486 0
 6588 0004 069E     		ldr	r6, [sp, #24]
 6589              		.cfi_offset 14, -4
 6590              		.cfi_offset 8, -8
 6591              		.cfi_offset 7, -12
 6592              		.cfi_offset 6, -16
 6593              		.cfi_offset 5, -20
 6594              		.cfi_offset 4, -24
 6595 0006 0446     		mov	r4, r0
 6596 0008 0D46     		mov	r5, r1
 6597 000a 1746     		mov	r7, r2
 6598              		.loc 1 3494 0
 6599 000c 9846     		mov	r8, r3
 6600 000e 1BB1     		cbz	r3, .L607
 6601              		.loc 1 3494 0 is_stmt 0 discriminator 1
 6602 0010 0846     		mov	r0, r1
 6603              	.LVL920:
 6604 0012 FFF7FEFF 		bl	wcslen
 6605              	.LVL921:
 6606 0016 02E0     		b	.L624
 6607              	.L607:
 6608              		.loc 1 3494 0 discriminator 2
ARM GAS  /tmp/ccSqa4tb.s 			page 117


 6609 0018 0846     		mov	r0, r1
 6610 001a FFF7FEFF 		bl	strlen
 6611              	.L624:
 6612 001e 0246     		mov	r2, r0
 6613              	.LVL922:
 6614              		.loc 1 3496 0 is_stmt 1 discriminator 2
 6615 0020 27B3     		cbz	r7, .L609
 6616              		.loc 1 3498 0
 6617 0022 244B     		ldr	r3, .L625
 6618 0024 9E42     		cmp	r6, r3
 6619 0026 03D8     		bhi	.L610
 6620              		.loc 1 3498 0 is_stmt 0 discriminator 1
 6621 0028 B600     		lsls	r6, r6, #2
 6622 002a B042     		cmp	r0, r6
 6623              		.loc 1 3499 0 is_stmt 1 discriminator 1
 6624 002c 28BF     		it	cs
 6625 002e 721E     		subcs	r2, r6, #1
 6626              	.LVL923:
 6627              	.L610:
 6628              		.loc 1 3500 0
 6629 0030 9608     		lsrs	r6, r2, #2
 6630 0032 0023     		movs	r3, #0
 6631 0034 B700     		lsls	r7, r6, #2
 6632              	.LVL924:
 6633 0036 44F82630 		str	r3, [r4, r6, lsl #2]
 6634              		.loc 1 3504 0
 6635 003a B8F1000F 		cmp	r8, #0
 6636 003e 04D1     		bne	.L612
 6637 0040 06E0     		b	.L611
 6638              	.LVL925:
 6639              	.L613:
 6640              		.loc 1 3506 0 discriminator 2
 6641 0042 55F8041B 		ldr	r1, [r5], #4
 6642 0046 E154     		strb	r1, [r4, r3]
 6643              		.loc 1 3505 0 discriminator 2
 6644 0048 0133     		adds	r3, r3, #1
 6645              	.LVL926:
 6646              	.L612:
 6647              		.loc 1 3505 0 is_stmt 0 discriminator 1
 6648 004a 9342     		cmp	r3, r2
 6649 004c F9DB     		blt	.L613
 6650 004e 03E0     		b	.L614
 6651              	.LVL927:
 6652              	.L611:
 6653              		.loc 1 3508 0 is_stmt 1
 6654 0050 2046     		mov	r0, r4
 6655 0052 2946     		mov	r1, r5
 6656 0054 FFF7FEFF 		bl	memcpy
 6657              	.LVL928:
 6658              	.L614:
 6659              		.loc 1 3485 0
 6660 0058 E419     		adds	r4, r4, r7
 6661              	.LVL929:
 6662              	.L615:
 6663              		.loc 1 3518 0
 6664 005a 2046     		mov	r0, r4
 6665 005c 013E     		subs	r6, r6, #1
ARM GAS  /tmp/ccSqa4tb.s 			page 118


 6666              	.LVL930:
 6667 005e FFF7FEFF 		bl	amx_Swap32
 6668 0062 043C     		subs	r4, r4, #4
 6669              		.loc 1 3517 0
 6670 0064 B6F1FF3F 		cmp	r6, #-1
 6671 0068 F7D1     		bne	.L615
 6672 006a 1FE0     		b	.L616
 6673              	.LVL931:
 6674              	.L609:
 6675              		.loc 1 3522 0
 6676 006c 124B     		ldr	r3, .L625+4
 6677 006e 9E42     		cmp	r6, r3
 6678 0070 02D8     		bhi	.L617
 6679              		.loc 1 3522 0 is_stmt 0 discriminator 1
 6680 0072 B042     		cmp	r0, r6
 6681              		.loc 1 3523 0 is_stmt 1 discriminator 1
 6682 0074 28BF     		it	cs
 6683 0076 721E     		subcs	r2, r6, #1
 6684              	.LVL932:
 6685              	.L617:
 6686              		.loc 1 3528 0
 6687 0078 B8F1000F 		cmp	r8, #0
 6688 007c 02D0     		beq	.L618
 6689              		.loc 1 3528 0 is_stmt 0 discriminator 1
 6690 007e 0023     		movs	r3, #0
 6691 0080 1946     		mov	r1, r3
 6692 0082 05E0     		b	.L619
 6693              	.L618:
 6694              		.loc 1 3528 0
 6695 0084 2346     		mov	r3, r4
 6696 0086 0CE0     		b	.L620
 6697              	.LVL933:
 6698              	.L621:
 6699              		.loc 1 3530 0 is_stmt 1 discriminator 2
 6700 0088 E858     		ldr	r0, [r5, r3]
 6701              		.loc 1 3529 0 discriminator 2
 6702 008a 0131     		adds	r1, r1, #1
 6703              	.LVL934:
 6704              		.loc 1 3530 0 discriminator 2
 6705 008c E050     		str	r0, [r4, r3]
 6706              		.loc 1 3529 0 discriminator 2
 6707 008e 0433     		adds	r3, r3, #4
 6708              	.LVL935:
 6709              	.L619:
 6710              		.loc 1 3529 0 is_stmt 0 discriminator 1
 6711 0090 9142     		cmp	r1, r2
 6712 0092 F9DB     		blt	.L621
 6713 0094 07E0     		b	.L622
 6714              	.LVL936:
 6715              	.L623:
 6716              		.loc 1 3533 0 is_stmt 1 discriminator 2
 6717 0096 15F80810 		ldrb	r1, [r5, r8]	@ zero_extendqisi2
 6718              		.loc 1 3532 0 discriminator 2
 6719 009a 08F10108 		add	r8, r8, #1
 6720              	.LVL937:
 6721              		.loc 1 3533 0 discriminator 2
 6722 009e 43F8041B 		str	r1, [r3], #4
ARM GAS  /tmp/ccSqa4tb.s 			page 119


 6723              	.LVL938:
 6724              	.L620:
 6725              		.loc 1 3532 0 discriminator 1
 6726 00a2 9045     		cmp	r8, r2
 6727 00a4 F7DB     		blt	.L623
 6728              	.LVL939:
 6729              	.L622:
 6730              		.loc 1 3536 0
 6731 00a6 0023     		movs	r3, #0
 6732 00a8 44F82230 		str	r3, [r4, r2, lsl #2]
 6733              	.LVL940:
 6734              	.L616:
 6735              		.loc 1 3539 0
 6736 00ac 0020     		movs	r0, #0
 6737 00ae BDE8F081 		pop	{r4, r5, r6, r7, r8, pc}
 6738              	.L626:
 6739 00b2 00BF     		.align	2
 6740              	.L625:
 6741 00b4 FEFFFF1F 		.word	536870910
 6742 00b8 FEFFFF7F 		.word	2147483646
 6743              		.cfi_endproc
 6744              	.LFE41:
 6745              		.size	amx_SetString, .-amx_SetString
 6746              		.section	.text.amx_PushString,"ax",%progbits
 6747              		.align	1
 6748              		.global	amx_PushString
 6749              		.thumb
 6750              		.thumb_func
 6751              		.type	amx_PushString, %function
 6752              	amx_PushString:
 6753              	.LFB32:
 6754              		.loc 1 1978 0
 6755              		.cfi_startproc
 6756              		@ args = 4, pretend = 0, frame = 0
 6757              		@ frame_needed = 0, uses_anonymous_args = 0
 6758              	.LVL941:
 6759 0000 2DE9F347 		push	{r0, r1, r4, r5, r6, r7, r8, r9, sl, lr}
 6760              	.LCFI27:
 6761              		.cfi_def_cfa_offset 40
 6762              		.loc 1 1978 0
 6763 0004 DDF82880 		ldr	r8, [sp, #40]
 6764              		.cfi_offset 14, -4
 6765              		.cfi_offset 10, -8
 6766              		.cfi_offset 9, -12
 6767              		.cfi_offset 8, -16
 6768              		.cfi_offset 7, -20
 6769              		.cfi_offset 6, -24
 6770              		.cfi_offset 5, -28
 6771              		.cfi_offset 4, -32
 6772              		.cfi_offset 1, -36
 6773              		.cfi_offset 0, -40
 6774 0008 0446     		mov	r4, r0
 6775 000a 8A46     		mov	sl, r1
 6776 000c 1546     		mov	r5, r2
 6777 000e 9946     		mov	r9, r3
 6778              		.loc 1 1988 0
 6779 0010 B8F1000F 		cmp	r8, #0
ARM GAS  /tmp/ccSqa4tb.s 			page 120


 6780 0014 03D0     		beq	.L628
 6781              		.loc 1 1988 0 is_stmt 0 discriminator 1
 6782 0016 1046     		mov	r0, r2
 6783              	.LVL942:
 6784 0018 FFF7FEFF 		bl	wcslen
 6785              	.LVL943:
 6786 001c 02E0     		b	.L632
 6787              	.L628:
 6788              		.loc 1 1988 0 discriminator 2
 6789 001e 1046     		mov	r0, r2
 6790 0020 FFF7FEFF 		bl	strlen
