ARM GAS  /tmp/ccDSXDsV.s 			page 1


   1              		.syntax unified
   2              		.cpu cortex-m3
   3              		.fpu softvfp
   4              		.eabi_attribute 20, 1
   5              		.eabi_attribute 21, 1
   6              		.eabi_attribute 23, 3
   7              		.eabi_attribute 24, 1
   8              		.eabi_attribute 25, 1
   9              		.eabi_attribute 26, 1
  10              		.eabi_attribute 30, 4
  11              		.eabi_attribute 18, 4
  12              		.thumb
  13              		.file	"amxcore.c"
  20 0000 44030000 		.text
  20      0200AB00 
  20      00000201 
  20      FB0E0D00 
  20      01010101 
  21              	.Ltext0:
  22              		.cfi_sections	.debug_frame
  23              		.section	.text.numargs,"ax",%progbits
  24              		.align	1
  25              		.thumb
  26              		.thumb_func
  27              		.type	numargs, %function
  28              	numargs:
  29              	.LFB4:
  30              		.file 1 "pawn/amxcore.c"
  31              		.loc 1 139 0
  32              		.cfi_startproc
  33              		@ args = 0, pretend = 0, frame = 0
  34              		@ frame_needed = 0, uses_anonymous_args = 0
  35              		@ link register save eliminated.
  36              	.LVL0:
  37              		.loc 1 146 0
  38 0000 8368     		ldr	r3, [r0, #8]	@ unaligned
  39              		.loc 1 145 0
  40 0002 0268     		ldr	r2, [r0, #0]	@ unaligned
  41              	.LVL1:
  42              		.loc 1 146 0
  43 0004 0BB9     		cbnz	r3, .L2
  44              		.loc 1 146 0 is_stmt 0 discriminator 2
  45 0006 1369     		ldr	r3, [r2, #16]	@ unaligned
  46 0008 D318     		adds	r3, r2, r3
  47              	.L2:
  48              	.LVL2:
  49              		.loc 1 148 0 is_stmt 1 discriminator 3
  50 000a C269     		ldr	r2, [r0, #28]	@ unaligned
  51              	.LVL3:
  52 000c 9B18     		adds	r3, r3, r2
  53              	.LVL4:
ARM GAS  /tmp/ccDSXDsV.s 			page 2


  54              		.loc 1 151 0 discriminator 3
  55 000e 9868     		ldr	r0, [r3, #8]
  56              	.LVL5:
  57              		.loc 1 152 0 discriminator 3
  58 0010 8008     		lsrs	r0, r0, #2
  59 0012 7047     		bx	lr
  60              		.cfi_endproc
  61              	.LFE4:
  62              		.size	numargs, .-numargs
  63              		.section	.text.getarg,"ax",%progbits
  64              		.align	1
  65              		.thumb
  66              		.thumb_func
  67              		.type	getarg, %function
  68              	getarg:
  69              	.LFB5:
  70              		.loc 1 155 0
  71              		.cfi_startproc
  72              		@ args = 0, pretend = 0, frame = 0
  73              		@ frame_needed = 0, uses_anonymous_args = 0
  74              		@ link register save eliminated.
  75              	.LVL6:
  76              		.loc 1 161 0
  77 0000 8368     		ldr	r3, [r0, #8]	@ unaligned
  78              		.loc 1 160 0
  79 0002 0268     		ldr	r2, [r0, #0]	@ unaligned
  80              	.LVL7:
  81              		.loc 1 161 0
  82 0004 0BB9     		cbnz	r3, .L4
  83              		.loc 1 161 0 is_stmt 0 discriminator 2
  84 0006 1369     		ldr	r3, [r2, #16]	@ unaligned
  85 0008 D318     		adds	r3, r2, r3
  86              	.L4:
  87              	.LVL8:
  88              		.loc 1 163 0 is_stmt 1 discriminator 3
  89 000a 4A68     		ldr	r2, [r1, #4]
  90              	.LVL9:
  91 000c C069     		ldr	r0, [r0, #28]	@ unaligned
  92              	.LVL10:
  93 000e 0332     		adds	r2, r2, #3
  94 0010 00EB8202 		add	r2, r0, r2, lsl #2
  95              		.loc 1 165 0 discriminator 3
  96 0014 8968     		ldr	r1, [r1, #8]
  97              	.LVL11:
  98 0016 9A58     		ldr	r2, [r3, r2]
  99 0018 02EB8102 		add	r2, r2, r1, lsl #2
 100              	.LVL12:
 101              		.loc 1 169 0 discriminator 3
 102 001c 9858     		ldr	r0, [r3, r2]
 103 001e 7047     		bx	lr
 104              		.cfi_endproc
 105              	.LFE5:
 106              		.size	getarg, .-getarg
 107              		.section	.text.setarg,"ax",%progbits
 108              		.align	1
 109              		.thumb
 110              		.thumb_func
ARM GAS  /tmp/ccDSXDsV.s 			page 3


 111              		.type	setarg, %function
 112              	setarg:
 113              	.LFB6:
 114              		.loc 1 172 0
 115              		.cfi_startproc
 116              		@ args = 0, pretend = 0, frame = 0
 117              		@ frame_needed = 0, uses_anonymous_args = 0
 118              	.LVL13:
 119 0000 10B5     		push	{r4, lr}
 120              	.LCFI0:
 121              		.cfi_def_cfa_offset 8
 122              		.loc 1 178 0
 123 0002 8368     		ldr	r3, [r0, #8]	@ unaligned
 124              		.loc 1 177 0
 125 0004 0268     		ldr	r2, [r0, #0]	@ unaligned
 126              	.LVL14:
 127              		.loc 1 178 0
 128 0006 0BB9     		cbnz	r3, .L6
 129              		.cfi_offset 14, -4
 130              		.cfi_offset 4, -8
 131              		.loc 1 178 0 is_stmt 0 discriminator 2
 132 0008 1369     		ldr	r3, [r2, #16]	@ unaligned
 133 000a D318     		adds	r3, r2, r3
 134              	.L6:
 135              	.LVL15:
 136              		.loc 1 180 0 is_stmt 1 discriminator 3
 137 000c 4A68     		ldr	r2, [r1, #4]
 138              	.LVL16:
 139 000e C469     		ldr	r4, [r0, #28]	@ unaligned
 140 0010 0332     		adds	r2, r2, #3
 141 0012 04EB8202 		add	r2, r4, r2, lsl #2
 142              		.loc 1 182 0 discriminator 3
 143 0016 9A58     		ldr	r2, [r3, r2]
 144 0018 8C68     		ldr	r4, [r1, #8]
 145              	.LVL17:
 146              		.loc 1 184 0 discriminator 3
 147 001a 12EB8402 		adds	r2, r2, r4, lsl #2
 148              	.LVL18:
 149 001e 09D4     		bmi	.L9
 150              		.loc 1 184 0 is_stmt 0 discriminator 1
 151 0020 046A     		ldr	r4, [r0, #32]	@ unaligned
 152 0022 A242     		cmp	r2, r4
 153 0024 02DB     		blt	.L8
 154 0026 806A     		ldr	r0, [r0, #40]	@ unaligned
 155              	.LVL19:
 156 0028 8242     		cmp	r2, r0
 157 002a 05DB     		blt	.L10
 158              	.L8:
 159              		.loc 1 187 0 is_stmt 1
 160 002c C968     		ldr	r1, [r1, #12]
 161              	.LVL20:
 162              		.loc 1 188 0
 163 002e 0120     		movs	r0, #1
 164              		.loc 1 187 0
 165 0030 9950     		str	r1, [r3, r2]
 166              		.loc 1 188 0
 167 0032 10BD     		pop	{r4, pc}
ARM GAS  /tmp/ccDSXDsV.s 			page 4


 168              	.LVL21:
 169              	.L9:
 170              		.loc 1 185 0
 171 0034 0020     		movs	r0, #0
 172              	.LVL22:
 173 0036 10BD     		pop	{r4, pc}
 174              	.L10:
 175 0038 0020     		movs	r0, #0
 176              		.loc 1 189 0
 177 003a 10BD     		pop	{r4, pc}
 178              		.cfi_endproc
 179              	.LFE6:
 180              		.size	setarg, .-setarg
 181              		.section	.text.heapspace,"ax",%progbits
 182              		.align	1
 183              		.thumb
 184              		.thumb_func
 185              		.type	heapspace, %function
 186              	heapspace:
 187              	.LFB7:
 188              		.loc 1 192 0
 189              		.cfi_startproc
 190              		@ args = 0, pretend = 0, frame = 0
 191              		@ frame_needed = 0, uses_anonymous_args = 0
 192              		@ link register save eliminated.
 193              	.LVL23:
 194              		.loc 1 194 0
 195 0000 826A     		ldr	r2, [r0, #40]	@ unaligned
 196 0002 036A     		ldr	r3, [r0, #32]	@ unaligned
 197              		.loc 1 195 0
 198 0004 D01A     		subs	r0, r2, r3
 199              	.LVL24:
 200 0006 7047     		bx	lr
 201              		.cfi_endproc
 202              	.LFE7:
 203              		.size	heapspace, .-heapspace
 204              		.section	.text.core_tolower,"ax",%progbits
 205              		.align	1
 206              		.thumb
 207              		.thumb_func
 208              		.type	core_tolower, %function
 209              	core_tolower:
 210              	.LFB11:
 211              		.loc 1 272 0
 212              		.cfi_startproc
 213              		@ args = 0, pretend = 0, frame = 0
 214              		@ frame_needed = 0, uses_anonymous_args = 0
 215              		@ link register save eliminated.
 216              	.LVL25:
 217              		.loc 1 279 0
 218 0000 4868     		ldr	r0, [r1, #4]
 219              	.LVL26:
 220 0002 A0F14103 		sub	r3, r0, #65
 221 0006 192B     		cmp	r3, #25
 222              		.loc 1 280 0
 223 0008 98BF     		it	ls
 224 000a 2030     		addls	r0, r0, #32
ARM GAS  /tmp/ccDSXDsV.s 			page 5


 225              		.loc 1 283 0
 226 000c 7047     		bx	lr
 227              		.cfi_endproc
 228              	.LFE11:
 229              		.size	core_tolower, .-core_tolower
 230              		.section	.text.core_toupper,"ax",%progbits
 231              		.align	1
 232              		.thumb
 233              		.thumb_func
 234              		.type	core_toupper, %function
 235              	core_toupper:
 236              	.LFB12:
 237              		.loc 1 286 0
 238              		.cfi_startproc
 239              		@ args = 0, pretend = 0, frame = 0
 240              		@ frame_needed = 0, uses_anonymous_args = 0
 241              		@ link register save eliminated.
 242              	.LVL27:
 243              		.loc 1 293 0
 244 0000 4868     		ldr	r0, [r1, #4]
 245              	.LVL28:
 246 0002 A0F16103 		sub	r3, r0, #97
 247 0006 192B     		cmp	r3, #25
 248              		.loc 1 294 0
 249 0008 98BF     		it	ls
 250 000a 2038     		subls	r0, r0, #32
 251              		.loc 1 297 0
 252 000c 7047     		bx	lr
 253              		.cfi_endproc
 254              	.LFE12:
 255              		.size	core_toupper, .-core_toupper
 256              		.section	.text.core_min,"ax",%progbits
 257              		.align	1
 258              		.thumb
 259              		.thumb_func
 260              		.type	core_min, %function
 261              	core_min:
 262              	.LFB13:
 263              		.loc 1 300 0
 264              		.cfi_startproc
 265              		@ args = 0, pretend = 0, frame = 0
 266              		@ frame_needed = 0, uses_anonymous_args = 0
 267              		@ link register save eliminated.
 268              	.LVL29:
 269              		.loc 1 302 0
 270 0000 8868     		ldr	r0, [r1, #8]
 271              	.LVL30:
 272 0002 4B68     		ldr	r3, [r1, #4]
 273              		.loc 1 303 0
 274 0004 9842     		cmp	r0, r3
 275 0006 A8BF     		it	ge
 276 0008 1846     		movge	r0, r3
 277 000a 7047     		bx	lr
 278              		.cfi_endproc
 279              	.LFE13:
 280              		.size	core_min, .-core_min
 281              		.section	.text.core_max,"ax",%progbits
ARM GAS  /tmp/ccDSXDsV.s 			page 6


 282              		.align	1
 283              		.thumb
 284              		.thumb_func
 285              		.type	core_max, %function
 286              	core_max:
 287              	.LFB14:
 288              		.loc 1 306 0
 289              		.cfi_startproc
 290              		@ args = 0, pretend = 0, frame = 0
 291              		@ frame_needed = 0, uses_anonymous_args = 0
 292              		@ link register save eliminated.
 293              	.LVL31:
 294              		.loc 1 308 0
 295 0000 8868     		ldr	r0, [r1, #8]
 296              	.LVL32:
 297 0002 4B68     		ldr	r3, [r1, #4]
 298              		.loc 1 309 0
 299 0004 9842     		cmp	r0, r3
 300 0006 B8BF     		it	lt
 301 0008 1846     		movlt	r0, r3
 302 000a 7047     		bx	lr
 303              		.cfi_endproc
 304              	.LFE14:
 305              		.size	core_max, .-core_max
 306              		.section	.text.MakePackedString,"ax",%progbits
 307              		.align	1
 308              		.thumb
 309              		.thumb_func
 310              		.type	MakePackedString, %function
 311              	MakePackedString:
 312              	.LFB16:
 313              		.loc 1 325 0
 314              		.cfi_startproc
 315              		@ args = 0, pretend = 0, frame = 8
 316              		@ frame_needed = 0, uses_anonymous_args = 0
 317              	.LVL33:
 318 0000 37B5     		push	{r0, r1, r2, r4, r5, lr}
 319              	.LCFI1:
 320              		.cfi_def_cfa_offset 24
 321              		.loc 1 329 0
 322 0002 01A9     		add	r1, sp, #4
 323              		.cfi_offset 14, -4
 324              		.cfi_offset 5, -8
 325              		.cfi_offset 4, -12
 326              		.cfi_offset 2, -16
 327              		.cfi_offset 1, -20
 328              		.cfi_offset 0, -24
 329              		.loc 1 325 0
 330 0004 0546     		mov	r5, r0
 331              		.loc 1 329 0
 332 0006 FFF7FEFF 		bl	amx_StrLen
 333              	.LVL34:
 334              		.loc 1 330 0
 335 000a 0198     		ldr	r0, [sp, #4]
 336 000c 0430     		adds	r0, r0, #4
 337 000e FFF7FEFF 		bl	malloc
 338              		.loc 1 331 0
ARM GAS  /tmp/ccDSXDsV.s 			page 7


 339 0012 019B     		ldr	r3, [sp, #4]
 340              		.loc 1 330 0
 341 0014 0446     		mov	r4, r0
 342              	.LVL35:
 343              		.loc 1 331 0
 344 0016 2946     		mov	r1, r5
 345 0018 0022     		movs	r2, #0
 346 001a 0433     		adds	r3, r3, #4
 347 001c FFF7FEFF 		bl	amx_GetString
 348              	.LVL36:
 349              		.loc 1 333 0
 350 0020 2046     		mov	r0, r4
 351 0022 3EBD     		pop	{r1, r2, r3, r4, r5, pc}
 352              		.cfi_endproc
 353              	.LFE16:
 354              		.size	MakePackedString, .-MakePackedString
 355              		.section	.text.core_clamp,"ax",%progbits
 356              		.align	1
 357              		.thumb
 358              		.thumb_func
 359              		.type	core_clamp, %function
 360              	core_clamp:
 361              	.LFB15:
 362              		.loc 1 312 0
 363              		.cfi_startproc
 364              		@ args = 0, pretend = 0, frame = 0
 365              		@ frame_needed = 0, uses_anonymous_args = 0
 366              	.LVL37:
 367 0000 38B5     		push	{r3, r4, r5, lr}
 368              	.LCFI2:
 369              		.cfi_def_cfa_offset 16
 370              		.loc 1 314 0
 371 0002 8A68     		ldr	r2, [r1, #8]
 372 0004 CB68     		ldr	r3, [r1, #12]
 373              		.cfi_offset 14, -4
 374              		.cfi_offset 5, -8
 375              		.cfi_offset 4, -12
 376              		.cfi_offset 3, -16
 377              		.loc 1 312 0
 378 0006 0C46     		mov	r4, r1
 379              		.loc 1 314 0
 380 0008 9A42     		cmp	r2, r3
 381              		.loc 1 313 0
 382 000a 4D68     		ldr	r5, [r1, #4]
 383              	.LVL38:
 384              		.loc 1 314 0
 385 000c 02DD     		ble	.L20
 386              		.loc 1 315 0
 387 000e 0A21     		movs	r1, #10
 388              	.LVL39:
 389 0010 FFF7FEFF 		bl	amx_RaiseError
 390              	.LVL40:
 391              	.L20:
 392              		.loc 1 316 0
 393 0014 A068     		ldr	r0, [r4, #8]
 394 0016 8542     		cmp	r5, r0
 395 0018 03DB     		blt	.L21
ARM GAS  /tmp/ccDSXDsV.s 			page 8


 396 001a E068     		ldr	r0, [r4, #12]
 397 001c 8542     		cmp	r5, r0
 398 001e B8BF     		it	lt
 399 0020 2846     		movlt	r0, r5
 400              	.L21:
 401              	.LVL41:
 402              		.loc 1 321 0
 403 0022 38BD     		pop	{r3, r4, r5, pc}
 404              		.cfi_endproc
 405              	.LFE15:
 406              		.size	core_clamp, .-core_clamp
 407              		.section	.text.core_random,"ax",%progbits
 408              		.align	1
 409              		.thumb
 410              		.thumb_func
 411              		.type	core_random, %function
 412              	core_random:
 413              	.LFB21:
 414              		.loc 1 432 0
 415              		.cfi_startproc
 416              		@ args = 0, pretend = 0, frame = 0
 417              		@ frame_needed = 0, uses_anonymous_args = 0
 418              	.LVL42:
 419 0000 70B5     		push	{r4, r5, r6, lr}
 420              	.LCFI3:
 421              		.cfi_def_cfa_offset 16
 422              		.loc 1 438 0
 423 0002 174C     		ldr	r4, .L25
 424              		.cfi_offset 14, -4
 425              		.cfi_offset 6, -8
 426              		.cfi_offset 5, -12
 427              		.cfi_offset 4, -16
 428 0004 174B     		ldr	r3, .L25+4
 429 0006 2268     		ldr	r2, [r4, #0]
 430              		.loc 1 432 0
 431 0008 0D46     		mov	r5, r1
 432              		.loc 1 438 0
 433 000a 9A42     		cmp	r2, r3
 434 000c 03D1     		bne	.L23
 435              		.loc 1 439 0
 436 000e 0020     		movs	r0, #0
 437              	.LVL43:
 438 0010 FFF7FEFF 		bl	time
 439              	.LVL44:
 440 0014 2060     		str	r0, [r4, #0]
 441              	.L23:
 442              		.loc 1 444 0
 443 0016 2268     		ldr	r2, [r4, #0]
 444              		.loc 1 446 0
 445 0018 134B     		ldr	r3, .L25+8
 446              		.loc 1 444 0
 447 001a 91B2     		uxth	r1, r2
 448              	.LVL45:
 449              		.loc 1 445 0
 450 001c 160C     		lsrs	r6, r2, #16
 451              	.LVL46:
 452              		.loc 1 446 0
ARM GAS  /tmp/ccDSXDsV.s 			page 9


 453 001e 5A43     		muls	r2, r3, r2
 454 0020 02F54052 		add	r2, r2, #12288
 455 0024 3932     		adds	r2, r2, #57
 456 0026 2260     		str	r2, [r4, #0]
 457              	.LVL47:
 458              		.loc 1 448 0
 459 0028 44F2C614 		movw	r4, #16838
 460 002c 04FB01F0 		mul	r0, r4, r1
 461              		.loc 1 449 0
 462 0030 44F66D62 		movw	r2, #20077
 463              		.loc 1 450 0
 464 0034 7443     		muls	r4, r6, r4
 465              		.loc 1 447 0
 466 0036 02FB01F3 		mul	r3, r2, r1
 467              		.loc 1 451 0
 468 003a 02FB0600 		mla	r0, r2, r6, r0
 469 003e 2404     		lsls	r4, r4, #16
 470 0040 03F54053 		add	r3, r3, #12288
 471 0044 3933     		adds	r3, r3, #57
 472 0046 0019     		adds	r0, r0, r4
 473 0048 00EB1340 		add	r0, r0, r3, lsr #16
 474              	.LVL48:
 475              		.loc 1 453 0
 476 004c 6B68     		ldr	r3, [r5, #4]
 477              		.loc 1 452 0
 478 004e 20F00040 		bic	r0, r0, #-2147483648
 479              	.LVL49:
 480              		.loc 1 453 0
 481 0052 1BB1     		cbz	r3, .L24
 482              		.loc 1 454 0
 483 0054 B0FBF3F2 		udiv	r2, r0, r3
 484 0058 03FB1200 		mls	r0, r3, r2, r0
 485              	.LVL50:
 486              	.L24:
 487              		.loc 1 456 0
 488 005c 70BD     		pop	{r4, r5, r6, pc}
 489              	.L26:
 490 005e 00BF     		.align	2
 491              	.L25:
 492 0060 00000000 		.word	.LANCHOR0
 493 0064 DB38A9CA 		.word	-894879525
 494 0068 6D4EC641 		.word	1103515245
 495              		.cfi_endproc
 496              	.LFE21:
 497              		.size	core_random, .-core_random
 498              		.section	.text.funcidx,"ax",%progbits
 499              		.align	1
 500              		.thumb
 501              		.thumb_func
 502              		.type	funcidx, %function
 503              	funcidx:
 504              	.LFB8:
 505              		.loc 1 198 0
 506              		.cfi_startproc
 507              		@ args = 0, pretend = 0, frame = 72
 508              		@ frame_needed = 0, uses_anonymous_args = 0
 509              	.LVL51:
ARM GAS  /tmp/ccDSXDsV.s 			page 10


 510 0000 10B5     		push	{r4, lr}
 511              	.LCFI4:
 512              		.cfi_def_cfa_offset 8
 513 0002 92B0     		sub	sp, sp, #72
 514              	.LCFI5:
 515              		.cfi_def_cfa_offset 80
 516              		.loc 1 198 0
 517 0004 0446     		mov	r4, r0
 518              		.cfi_offset 14, -4
 519              		.cfi_offset 4, -8
 520              		.loc 1 204 0
 521 0006 4968     		ldr	r1, [r1, #4]
 522              	.LVL52:
 523 0008 0022     		movs	r2, #0
 524 000a 01A8     		add	r0, sp, #4
 525              	.LVL53:
 526 000c 4023     		movs	r3, #64
 527 000e FFF7FEFF 		bl	amx_GetString
 528              		.loc 1 205 0
 529 0012 2046     		mov	r0, r4
 530 0014 01A9     		add	r1, sp, #4
 531 0016 11AA     		add	r2, sp, #68
 532 0018 FFF7FEFF 		bl	amx_FindPublic
 533              	.LVL54:
 534              		.loc 1 206 0
 535 001c 10B1     		cbz	r0, .L28
 536              		.loc 1 207 0
 537 001e 4FF0FF33 		mov	r3, #-1
 538 0022 1193     		str	r3, [sp, #68]
 539              	.LVL55:
 540              	.L28:
 541              		.loc 1 209 0
 542 0024 1198     		ldr	r0, [sp, #68]
 543              	.LVL56:
 544 0026 12B0     		add	sp, sp, #72
 545 0028 10BD     		pop	{r4, pc}
 546              		.cfi_endproc
 547              	.LFE8:
 548              		.size	funcidx, .-funcidx
 549              		.section	.text.list_delete.clone.0,"ax",%progbits
 550              		.align	1
 551              		.thumb
 552              		.thumb_func
 553              		.type	list_delete.clone.0, %function
 554              	list_delete.clone.0:
 555              	.LFB24:
 556              		.loc 1 88 0
 557              		.cfi_startproc
 558              		@ args = 0, pretend = 0, frame = 0
 559              		@ frame_needed = 0, uses_anonymous_args = 0
 560              	.LVL57:
 561              		.loc 1 92 0
 562 0000 0B68     		ldr	r3, [r1, #0]
 563              		.loc 1 88 0
 564 0002 10B5     		push	{r4, lr}
 565              	.LCFI6:
 566              		.cfi_def_cfa_offset 8
ARM GAS  /tmp/ccDSXDsV.s 			page 11


 567              		.loc 1 92 0
 568 0004 0360     		str	r3, [r0, #0]
 569              		.loc 1 94 0
 570 0006 8868     		ldr	r0, [r1, #8]
 571              		.loc 1 88 0
 572 0008 0C46     		mov	r4, r1
 573              		.cfi_offset 14, -4
 574              		.cfi_offset 4, -8
 575              		.loc 1 94 0
 576 000a FFF7FEFF 		bl	free
 577              	.LVL58:
 578              		.loc 1 95 0
 579 000e 2046     		mov	r0, r4
 580              		.loc 1 96 0
 581 0010 BDE81040 		pop	{r4, lr}
 582              		.loc 1 95 0
 583 0014 FFF7FEBF 		b	free
 584              		.cfi_endproc
 585              	.LFE24:
 586              		.size	list_delete.clone.0, .-list_delete.clone.0
 587              		.section	.text.list_finditem.clone.3,"ax",%progbits
 588              		.align	1
 589              		.thumb
 590              		.thumb_func
 591              		.type	list_finditem.clone.3, %function
 592              	list_finditem.clone.3:
 593              	.LFB26:
 594              		.loc 1 111 0
 595              		.cfi_startproc
 596              		@ args = 0, pretend = 0, frame = 0
 597              		@ frame_needed = 0, uses_anonymous_args = 0
 598              	.LVL59:
 599 0000 2DE9F041 		push	{r4, r5, r6, r7, r8, lr}
 600              	.LCFI7:
 601              		.cfi_def_cfa_offset 24
 602              		.loc 1 111 0
 603 0004 9846     		mov	r8, r3
 604              		.cfi_offset 14, -4
 605              		.cfi_offset 8, -8
 606              		.cfi_offset 7, -12
 607              		.cfi_offset 6, -16
 608              		.cfi_offset 5, -20
 609              		.cfi_offset 4, -24
 610              		.loc 1 114 0
 611 0006 124F     		ldr	r7, .L38
 612              		.loc 1 119 0
 613 0008 0B78     		ldrb	r3, [r1, #0]	@ zero_extendqisi2
 614              	.LVL60:
 615              		.loc 1 111 0
 616 000a 0446     		mov	r4, r0
 617 000c 0D46     		mov	r5, r1
 618              		.loc 1 114 0
 619 000e 3E68     		ldr	r6, [r7, #0]
 620              	.LVL61:
 621              		.loc 1 119 0
 622 0010 7BB1     		cbz	r3, .L32
 623 0012 01E0     		b	.L33
ARM GAS  /tmp/ccDSXDsV.s 			page 12


 624              	.LVL62:
 625              	.L35:
 626              		.loc 1 123 0
 627 0014 3746     		mov	r7, r6
 628 0016 3668     		ldr	r6, [r6, #0]
 629              	.LVL63:
 630              	.L33:
 631              		.loc 1 121 0
 632 0018 96B1     		cbz	r6, .L34
 633 001a 7368     		ldr	r3, [r6, #4]
 634 001c A342     		cmp	r3, r4
 635 001e F9D1     		bne	.L35
 636 0020 B068     		ldr	r0, [r6, #8]
 637 0022 2946     		mov	r1, r5
 638 0024 FFF7FEFF 		bl	strcasecmp
 639 0028 0028     		cmp	r0, #0
 640 002a F3D1     		bne	.L35
 641 002c 08E0     		b	.L34
 642              	.LVL64:
 643              	.L36:
 644              		.loc 1 129 0
 645 002e 3746     		mov	r7, r6
 646 0030 3668     		ldr	r6, [r6, #0]
 647              	.LVL65:
 648              	.L32:
 649              		.loc 1 127 0
 650 0032 2EB1     		cbz	r6, .L34
 651 0034 7368     		ldr	r3, [r6, #4]
 652 0036 A342     		cmp	r3, r4
 653 0038 F9D1     		bne	.L36
 654 003a F368     		ldr	r3, [r6, #12]
 655 003c 9342     		cmp	r3, r2
 656 003e F6D1     		bne	.L36
 657              	.LVL66:
 658              	.L34:
 659              		.loc 1 132 0
 660 0040 B8F1000F 		cmp	r8, #0
 661 0044 01D0     		beq	.L37
 662              		.loc 1 133 0
 663 0046 C8F80070 		str	r7, [r8, #0]
 664              	.L37:
 665              		.loc 1 135 0
 666 004a 3046     		mov	r0, r6
 667 004c BDE8F081 		pop	{r4, r5, r6, r7, r8, pc}
 668              	.L39:
 669              		.align	2
 670              	.L38:
 671 0050 00000000 		.word	.LANCHOR1
 672              		.cfi_endproc
 673              	.LFE26:
 674              		.size	list_finditem.clone.3, .-list_finditem.clone.3
 675              		.section	.text.getproperty,"ax",%progbits
 676              		.align	1
 677              		.thumb
 678              		.thumb_func
 679              		.type	getproperty, %function
 680              	getproperty:
ARM GAS  /tmp/ccDSXDsV.s 			page 13


 681              	.LFB17:
 682              		.loc 1 337 0
 683              		.cfi_startproc
 684              		@ args = 0, pretend = 0, frame = 0
 685              		@ frame_needed = 0, uses_anonymous_args = 0
 686              	.LVL67:
 687 0000 73B5     		push	{r0, r1, r4, r5, r6, lr}
 688              	.LCFI8:
 689              		.cfi_def_cfa_offset 24
 690              		.loc 1 344 0
 691 0002 8868     		ldr	r0, [r1, #8]
 692              		.cfi_offset 14, -4
 693              		.cfi_offset 6, -8
 694              		.cfi_offset 5, -12
 695              		.cfi_offset 4, -16
 696              		.cfi_offset 1, -20
 697              		.cfi_offset 0, -24
 698              	.LVL68:
 699              		.loc 1 337 0
 700 0004 0D46     		mov	r5, r1
 701              		.loc 1 344 0
 702 0006 FFF7FEFF 		bl	MakePackedString
 703              	.LVL69:
 704 000a 0646     		mov	r6, r0
 705              	.LVL70:
 706              		.loc 1 345 0
 707 000c 3146     		mov	r1, r6
 708 000e 6868     		ldr	r0, [r5, #4]
 709              	.LVL71:
 710 0010 EA68     		ldr	r2, [r5, #12]
 711 0012 0023     		movs	r3, #0
 712 0014 FFF7FEFF 		bl	list_finditem.clone.3
 713              	.LVL72:
 714              		.loc 1 347 0
 715 0018 0446     		mov	r4, r0
 716 001a 60B1     		cbz	r0, .L41
 717              		.loc 1 347 0 is_stmt 0 discriminator 1
 718 001c C268     		ldr	r2, [r0, #12]
 719 001e EB68     		ldr	r3, [r5, #12]
 720 0020 9A42     		cmp	r2, r3
 721 0022 08D1     		bne	.L41
 722 0024 3378     		ldrb	r3, [r6, #0]	@ zero_extendqisi2
 723 0026 33B9     		cbnz	r3, .L41
 724              	.LVL73:
 725              		.loc 1 349 0 is_stmt 1
 726 0028 6A69     		ldr	r2, [r5, #20]
 727 002a 2869     		ldr	r0, [r5, #16]
 728              	.LVL74:
 729 002c 0092     		str	r2, [sp, #0]
 730 002e A168     		ldr	r1, [r4, #8]
 731 0030 0122     		movs	r2, #1
 732 0032 FFF7FEFF 		bl	amx_SetString
 733              	.LVL75:
 734              	.L41:
 735              		.loc 1 351 0
 736 0036 3046     		mov	r0, r6
 737 0038 FFF7FEFF 		bl	free
ARM GAS  /tmp/ccDSXDsV.s 			page 14


 738              		.loc 1 352 0
 739 003c 0CB1     		cbz	r4, .L43
 740              		.loc 1 352 0 is_stmt 0 discriminator 1
 741 003e E068     		ldr	r0, [r4, #12]
 742 0040 00E0     		b	.L42
 743              	.L43:
 744              		.loc 1 352 0
 745 0042 2046     		mov	r0, r4
 746              	.L42:
 747              		.loc 1 353 0 is_stmt 1 discriminator 3
 748 0044 7CBD     		pop	{r2, r3, r4, r5, r6, pc}
 749              		.cfi_endproc
 750              	.LFE17:
 751              		.size	getproperty, .-getproperty
 752              		.section	.text.setproperty,"ax",%progbits
 753              		.align	1
 754              		.thumb
 755              		.thumb_func
 756              		.type	setproperty, %function
 757              	setproperty:
 758              	.LFB18:
 759              		.loc 1 357 0
 760              		.cfi_startproc
 761              		@ args = 0, pretend = 0, frame = 0
 762              		@ frame_needed = 0, uses_anonymous_args = 0
 763              	.LVL76:
 764 0000 2DE9F843 		push	{r3, r4, r5, r6, r7, r8, r9, lr}
 765              	.LCFI9:
 766              		.cfi_def_cfa_offset 32
 767              		.loc 1 357 0
 768 0004 0646     		mov	r6, r0
 769              		.cfi_offset 14, -4
 770              		.cfi_offset 9, -8
 771              		.cfi_offset 8, -12
 772              		.cfi_offset 7, -16
 773              		.cfi_offset 6, -20
 774              		.cfi_offset 5, -24
 775              		.cfi_offset 4, -28
 776              		.cfi_offset 3, -32
 777              		.loc 1 364 0
 778 0006 8868     		ldr	r0, [r1, #8]
 779              	.LVL77:
 780              		.loc 1 357 0
 781 0008 0D46     		mov	r5, r1
 782              		.loc 1 364 0
 783 000a FFF7FEFF 		bl	MakePackedString
 784              	.LVL78:
 785 000e 0446     		mov	r4, r0
 786              	.LVL79:
 787              		.loc 1 365 0
 788 0010 2146     		mov	r1, r4
 789 0012 6868     		ldr	r0, [r5, #4]
 790              	.LVL80:
 791 0014 EA68     		ldr	r2, [r5, #12]
 792 0016 0023     		movs	r3, #0
 793 0018 FFF7FEFF 		bl	list_finditem.clone.3
 794              	.LVL81:
ARM GAS  /tmp/ccDSXDsV.s 			page 15


 795              		.loc 1 366 0
 796 001c 0746     		mov	r7, r0
 797 001e 98B9     		cbnz	r0, .L45
 798              	.LBB6:
 799              	.LBB7:
 800              		.loc 1 79 0
 801 0020 1020     		movs	r0, #16
 802              	.LVL82:
 803 0022 FFF7FEFF 		bl	malloc
 804 0026 0746     		mov	r7, r0
 805              	.LVL83:
 806 0028 40B1     		cbz	r0, .L46
 807              		.loc 1 81 0
 808 002a 0023     		movs	r3, #0
 809 002c 8360     		str	r3, [r0, #8]
 810              		.loc 1 82 0
 811 002e 4360     		str	r3, [r0, #4]
 812              		.loc 1 83 0
 813 0030 C360     		str	r3, [r0, #12]
 814              		.loc 1 84 0
 815 0032 1A4B     		ldr	r3, .L50
 816 0034 1A68     		ldr	r2, [r3, #0]
 817              		.loc 1 85 0
 818 0036 1860     		str	r0, [r3, #0]
 819              	.LVL84:
 820              		.loc 1 84 0
 821 0038 0260     		str	r2, [r0, #0]
 822 003a 05E0     		b	.L45
 823              	.LVL85:
 824              	.L46:
 825              	.LBE7:
 826              	.LBE6:
 827              		.loc 1 369 0
 828 003c 3046     		mov	r0, r6
 829              	.LVL86:
 830 003e 1021     		movs	r1, #16
 831 0040 FFF7FEFF 		bl	amx_RaiseError
 832              		.loc 1 358 0
 833 0044 3E46     		mov	r6, r7
 834              	.LVL87:
 835 0046 22E0     		b	.L47
 836              	.LVL88:
 837              	.L45:
 838              		.loc 1 372 0
 839 0048 2378     		ldrb	r3, [r4, #0]	@ zero_extendqisi2
 840              		.loc 1 371 0
 841 004a FE68     		ldr	r6, [r7, #12]
 842              	.LVL89:
 843              		.loc 1 372 0
 844 004c 33B9     		cbnz	r3, .L48
 845              		.loc 1 373 0
 846 004e 2046     		mov	r0, r4
 847              	.LVL90:
 848 0050 FFF7FEFF 		bl	free
 849              	.LVL91:
 850              		.loc 1 375 0
 851 0054 2869     		ldr	r0, [r5, #16]
ARM GAS  /tmp/ccDSXDsV.s 			page 16


 852 0056 FFF7FEFF 		bl	MakePackedString
 853              	.LVL92:
 854 005a 0446     		mov	r4, r0
 855              	.LVL93:
 856              	.L48:
 857              	.LBB8:
 858              	.LBB9:
 859              		.loc 1 102 0
 860 005c 2046     		mov	r0, r4
 861 005e FFF7FEFF 		bl	strlen
 862 0062 0130     		adds	r0, r0, #1
 863              	.LBE9:
 864              	.LBE8:
 865              		.loc 1 377 0
 866 0064 D5F80490 		ldr	r9, [r5, #4]
 867 0068 D5F80C80 		ldr	r8, [r5, #12]
 868              	.LVL94:
 869              	.LBB11:
 870              	.LBB10:
 871              		.loc 1 102 0
 872 006c FFF7FEFF 		bl	malloc
 873              	.LVL95:
 874 0070 0546     		mov	r5, r0
 875              	.LVL96:
 876 0072 60B1     		cbz	r0, .L47
 877              		.loc 1 104 0
 878 0074 B868     		ldr	r0, [r7, #8]
 879              	.LVL97:
 880 0076 08B1     		cbz	r0, .L49
 881              		.loc 1 105 0
 882 0078 FFF7FEFF 		bl	free
 883              	.L49:
 884              		.loc 1 106 0
 885 007c 2846     		mov	r0, r5
 886 007e 2146     		mov	r1, r4
 887 0080 FFF7FEFF 		bl	strcpy
 888              		.loc 1 107 0
 889 0084 BD60     		str	r5, [r7, #8]
 890              		.loc 1 108 0
 891 0086 C7F80490 		str	r9, [r7, #4]
 892              		.loc 1 109 0
 893 008a C7F80C80 		str	r8, [r7, #12]
 894              	.LVL98:
 895              	.L47:
 896              	.LBE10:
 897              	.LBE11:
 898              		.loc 1 379 0
 899 008e 2046     		mov	r0, r4
 900 0090 FFF7FEFF 		bl	free
 901              		.loc 1 381 0
 902 0094 3046     		mov	r0, r6
 903 0096 BDE8F883 		pop	{r3, r4, r5, r6, r7, r8, r9, pc}
 904              	.L51:
 905 009a 00BF     		.align	2
 906              	.L50:
 907 009c 00000000 		.word	.LANCHOR1
 908              		.cfi_endproc
ARM GAS  /tmp/ccDSXDsV.s 			page 17


 909              	.LFE18:
 910              		.size	setproperty, .-setproperty
 911              		.section	.text.delproperty,"ax",%progbits
 912              		.align	1
 913              		.thumb
 914              		.thumb_func
 915              		.type	delproperty, %function
 916              	delproperty:
 917              	.LFB19:
 918              		.loc 1 385 0
 919              		.cfi_startproc
 920              		@ args = 0, pretend = 0, frame = 8
 921              		@ frame_needed = 0, uses_anonymous_args = 0
 922              	.LVL99:
 923 0000 37B5     		push	{r0, r1, r2, r4, r5, lr}
 924              	.LCFI10:
 925              		.cfi_def_cfa_offset 24
 926              		.loc 1 393 0
 927 0002 8868     		ldr	r0, [r1, #8]
 928              		.cfi_offset 14, -4
 929              		.cfi_offset 5, -8
 930              		.cfi_offset 4, -12
 931              		.cfi_offset 2, -16
 932              		.cfi_offset 1, -20
 933              		.cfi_offset 0, -24
 934              	.LVL100:
 935              		.loc 1 385 0
 936 0004 0D46     		mov	r5, r1
 937              		.loc 1 393 0
 938 0006 FFF7FEFF 		bl	MakePackedString
 939              	.LVL101:
 940 000a 0446     		mov	r4, r0
 941              	.LVL102:
 942              		.loc 1 394 0
 943 000c 2146     		mov	r1, r4
 944 000e 6868     		ldr	r0, [r5, #4]
 945              	.LVL103:
 946 0010 EA68     		ldr	r2, [r5, #12]
 947 0012 01AB     		add	r3, sp, #4
 948 0014 FFF7FEFF 		bl	list_finditem.clone.3
 949              	.LVL104:
 950              		.loc 1 395 0
 951 0018 0146     		mov	r1, r0
 952 001a 20B1     		cbz	r0, .L54
 953              		.loc 1 396 0
 954 001c C568     		ldr	r5, [r0, #12]
 955              	.LVL105:
 956              		.loc 1 397 0
 957 001e 0198     		ldr	r0, [sp, #4]
 958              	.LVL106:
 959 0020 FFF7FEFF 		bl	list_delete.clone.0
 960              	.LVL107:
 961 0024 00E0     		b	.L53
 962              	.LVL108:
 963              	.L54:
 964              		.loc 1 386 0
 965 0026 0546     		mov	r5, r0
ARM GAS  /tmp/ccDSXDsV.s 			page 18


 966              	.LVL109:
 967              	.L53:
 968              		.loc 1 399 0
 969 0028 2046     		mov	r0, r4
 970 002a FFF7FEFF 		bl	free
 971              		.loc 1 401 0
 972 002e 2846     		mov	r0, r5
 973 0030 3EBD     		pop	{r1, r2, r3, r4, r5, pc}
 974              		.cfi_endproc
 975              	.LFE19:
 976              		.size	delproperty, .-delproperty
 977              		.section	.text.existproperty,"ax",%progbits
 978              		.align	1
 979              		.thumb
 980              		.thumb_func
 981              		.type	existproperty, %function
 982              	existproperty:
 983              	.LFB20:
 984              		.loc 1 405 0
 985              		.cfi_startproc
 986              		@ args = 0, pretend = 0, frame = 0
 987              		@ frame_needed = 0, uses_anonymous_args = 0
 988              	.LVL110:
 989 0000 38B5     		push	{r3, r4, r5, lr}
 990              	.LCFI11:
 991              		.cfi_def_cfa_offset 16
 992              		.loc 1 412 0
 993 0002 8868     		ldr	r0, [r1, #8]
 994              	.LVL111:
 995              		.loc 1 405 0
 996 0004 0D46     		mov	r5, r1
 997              		.cfi_offset 14, -4
 998              		.cfi_offset 5, -8
 999              		.cfi_offset 4, -12
 1000              		.cfi_offset 3, -16
 1001              		.loc 1 412 0
 1002 0006 FFF7FEFF 		bl	MakePackedString
 1003              	.LVL112:
 1004 000a 0446     		mov	r4, r0
 1005              	.LVL113:
 1006              		.loc 1 413 0
 1007 000c EA68     		ldr	r2, [r5, #12]
 1008 000e 0023     		movs	r3, #0
 1009 0010 2146     		mov	r1, r4
 1010 0012 6868     		ldr	r0, [r5, #4]
 1011              	.LVL114:
 1012 0014 FFF7FEFF 		bl	list_finditem.clone.3
 1013              	.LVL115:
 1014 0018 0546     		mov	r5, r0
 1015              	.LVL116:
 1016              		.loc 1 414 0
 1017 001a 2046     		mov	r0, r4
 1018              	.LVL117:
 1019 001c FFF7FEFF 		bl	free
 1020              		.loc 1 416 0
 1021 0020 281E     		subs	r0, r5, #0
 1022 0022 18BF     		it	ne
ARM GAS  /tmp/ccDSXDsV.s 			page 19


 1023 0024 0120     		movne	r0, #1
 1024 0026 38BD     		pop	{r3, r4, r5, pc}
 1025              		.cfi_endproc
 1026              	.LFE20:
 1027              		.size	existproperty, .-existproperty
 1028              		.section	.text.amx_swapcell,"ax",%progbits
 1029              		.align	1
 1030              		.global	amx_swapcell
 1031              		.thumb
 1032              		.thumb_func
 1033              		.type	amx_swapcell, %function
 1034              	amx_swapcell:
 1035              	.LFB9:
 1036              		.loc 1 212 0
 1037              		.cfi_startproc
 1038              		@ args = 0, pretend = 0, frame = 0
 1039              		@ frame_needed = 0, uses_anonymous_args = 0
 1040              		@ link register save eliminated.
 1041              	.LVL118:
 1042              		.loc 1 228 0
 1043 0000 0368     		ldr	r3, [r0, #0]
 1044              	.LVL119:
 1045              		.loc 1 235 0
 1046 0002 190E     		lsrs	r1, r3, #24
 1047              	.LVL120:
 1048              		.loc 1 234 0
 1049 0004 DAB2     		uxtb	r2, r3
 1050              	.LVL121:
 1051              		.loc 1 235 0
 1052 0006 61F30703 		bfi	r3, r1, #0, #8
 1053              		.loc 1 236 0
 1054 000a 62F31F63 		bfi	r3, r2, #24, #8
 1055              		.loc 1 238 0
 1056 000e C3F30741 		ubfx	r1, r3, #16, #8
 1057              		.loc 1 237 0
 1058 0012 C3F30722 		ubfx	r2, r3, #8, #8
 1059              	.LVL122:
 1060              		.loc 1 238 0
 1061 0016 61F30F23 		bfi	r3, r1, #8, #8
 1062              		.loc 1 239 0
 1063 001a 62F31743 		bfi	r3, r2, #16, #8
 1064              		.loc 1 256 0
 1065 001e 0360     		str	r3, [r0, #0]
 1066              		.loc 1 257 0
 1067 0020 7047     		bx	lr
 1068              		.cfi_endproc
 1069              	.LFE9:
 1070              		.size	amx_swapcell, .-amx_swapcell
 1071              		.section	.text.swapchars,"ax",%progbits
 1072              		.align	1
 1073              		.thumb
 1074              		.thumb_func
 1075              		.type	swapchars, %function
 1076              	swapchars:
 1077              	.LFB10:
 1078              		.loc 1 260 0
 1079              		.cfi_startproc
ARM GAS  /tmp/ccDSXDsV.s 			page 20


 1080              		@ args = 0, pretend = 0, frame = 8
 1081              		@ frame_needed = 0, uses_anonymous_args = 0
 1082              	.LVL123:
 1083 0000 07B5     		push	{r0, r1, r2, lr}
 1084              	.LCFI12:
 1085              		.cfi_def_cfa_offset 16
 1086              		.loc 1 266 0
 1087 0002 4B68     		ldr	r3, [r1, #4]
 1088 0004 02A8     		add	r0, sp, #8
 1089              		.cfi_offset 14, -4
 1090              		.cfi_offset 2, -8
 1091              		.cfi_offset 1, -12
 1092              		.cfi_offset 0, -16
 1093              	.LVL124:
 1094 0006 40F8043D 		str	r3, [r0, #-4]!
 1095              	.LVL125:
 1096              		.loc 1 267 0
 1097 000a FFF7FEFF 		bl	amx_swapcell
 1098              	.LVL126:
 1099              		.loc 1 269 0
 1100 000e 0198     		ldr	r0, [sp, #4]
 1101 0010 0EBD     		pop	{r1, r2, r3, pc}
 1102              		.cfi_endproc
 1103              	.LFE10:
 1104              		.size	swapchars, .-swapchars
 1105              		.section	.text.amx_CoreInit,"ax",%progbits
 1106              		.align	1
 1107              		.global	amx_CoreInit
 1108              		.thumb
 1109              		.thumb_func
 1110              		.type	amx_CoreInit, %function
 1111              	amx_CoreInit:
 1112              	.LFB22:
 1113              		.loc 1 488 0
 1114              		.cfi_startproc
 1115              		@ args = 0, pretend = 0, frame = 0
 1116              		@ frame_needed = 0, uses_anonymous_args = 0
 1117              		@ link register save eliminated.
 1118              	.LVL127:
 1119              		.loc 1 489 0
 1120 0000 0249     		ldr	r1, .L59
 1121 0002 4FF0FF32 		mov	r2, #-1
 1122              		.loc 1 490 0
 1123              		.loc 1 489 0
 1124 0006 FFF7FEBF 		b	amx_Register
 1125              	.LVL128:
 1126              	.L60:
 1127 000a 00BF     		.align	2
 1128              	.L59:
 1129 000c 00000000 		.word	.LANCHOR2
 1130              		.cfi_endproc
 1131              	.LFE22:
 1132              		.size	amx_CoreInit, .-amx_CoreInit
 1133              		.section	.text.amx_CoreCleanup,"ax",%progbits
 1134              		.align	1
 1135              		.global	amx_CoreCleanup
 1136              		.thumb
ARM GAS  /tmp/ccDSXDsV.s 			page 21


 1137              		.thumb_func
 1138              		.type	amx_CoreCleanup, %function
 1139              	amx_CoreCleanup:
 1140              	.LFB23:
 1141              		.loc 1 493 0
 1142              		.cfi_startproc
 1143              		@ args = 0, pretend = 0, frame = 0
 1144              		@ frame_needed = 0, uses_anonymous_args = 0
 1145              	.LVL129:
 1146 0000 08B5     		push	{r3, lr}
 1147              	.LCFI13:
 1148              		.cfi_def_cfa_offset 8
 1149              		.loc 1 496 0
 1150 0002 01E0     		b	.L62
 1151              		.cfi_offset 14, -4
 1152              		.cfi_offset 3, -8
 1153              	.LVL130:
 1154              	.L63:
 1155              		.loc 1 497 0
 1156 0004 FFF7FEFF 		bl	list_delete.clone.0
 1157              	.L62:
 1158              		.loc 1 496 0 discriminator 1
 1159 0008 0248     		ldr	r0, .L64
 1160 000a 0168     		ldr	r1, [r0, #0]
 1161 000c 0029     		cmp	r1, #0
 1162 000e F9D1     		bne	.L63
 1163              		.loc 1 500 0
 1164 0010 0846     		mov	r0, r1
 1165 0012 08BD     		pop	{r3, pc}
 1166              	.L65:
 1167              		.align	2
 1168              	.L64:
 1169 0014 00000000 		.word	.LANCHOR1
 1170              		.cfi_endproc
 1171              	.LFE23:
 1172              		.size	amx_CoreCleanup, .-amx_CoreCleanup
 1173              		.global	core_Natives
 1174              		.section	.bss.proproot,"aw",%nobits
 1175              		.align	2
 1176              		.set	.LANCHOR1,. + 0
 1177              		.type	proproot, %object
 1178              		.size	proproot, 16
 1179              	proproot:
 1180 0000 00000000 		.space	16
 1180      00000000 
 1180      00000000 
 1180      00000000 
 1181              		.section	.rodata.str1.1,"aMS",%progbits,1
 1182              	.LC0:
 1183 0000 6E756D61 		.ascii	"numargs\000"
 1183      72677300 
 1184              	.LC1:
 1185 0008 67657461 		.ascii	"getarg\000"
 1185      726700
 1186              	.LC2:
 1187 000f 73657461 		.ascii	"setarg\000"
 1187      726700
ARM GAS  /tmp/ccDSXDsV.s 			page 22


 1188              	.LC3:
 1189 0016 68656170 		.ascii	"heapspace\000"
 1189      73706163 
 1189      6500
 1190              	.LC4:
 1191 0020 66756E63 		.ascii	"funcidx\000"
 1191      69647800 
 1192              	.LC5:
 1193 0028 73776170 		.ascii	"swapchars\000"
 1193      63686172 
 1193      7300
 1194              	.LC6:
 1195 0032 746F6C6F 		.ascii	"tolower\000"
 1195      77657200 
 1196              	.LC7:
 1197 003a 746F7570 		.ascii	"toupper\000"
 1197      70657200 
 1198              	.LC8:
 1199 0042 6D696E00 		.ascii	"min\000"
 1200              	.LC9:
 1201 0046 6D617800 		.ascii	"max\000"
 1202              	.LC10:
 1203 004a 636C616D 		.ascii	"clamp\000"
 1203      7000
 1204              	.LC11:
 1205 0050 72616E64 		.ascii	"random\000"
 1205      6F6D00
 1206              	.LC12:
 1207 0057 67657470 		.ascii	"getproperty\000"
 1207      726F7065 
 1207      72747900 
 1208              	.LC13:
 1209 0063 73657470 		.ascii	"setproperty\000"
 1209      726F7065 
 1209      72747900 
 1210              	.LC14:
 1211 006f 64656C65 		.ascii	"deleteproperty\000"
 1211      74657072 
 1211      6F706572 
 1211      747900
 1212              	.LC15:
 1213 007e 65786973 		.ascii	"existproperty\000"
 1213      7470726F 
 1213      70657274 
 1213      7900
 1214              		.section	.rodata.core_Natives,"a",%progbits
 1215              		.set	.LANCHOR2,. + 0
 1216              		.type	core_Natives, %object
 1217              		.size	core_Natives, 136
 1218              	core_Natives:
 1219 0000 00000000 		.4byte	.LC0
 1220 0004 00000000 		.4byte	numargs
 1221 0008 08000000 		.4byte	.LC1
 1222 000c 00000000 		.4byte	getarg
 1223 0010 0F000000 		.4byte	.LC2
 1224 0014 00000000 		.4byte	setarg
 1225 0018 16000000 		.4byte	.LC3
ARM GAS  /tmp/ccDSXDsV.s 			page 23


 1226 001c 00000000 		.4byte	heapspace
 1227 0020 20000000 		.4byte	.LC4
 1228 0024 00000000 		.4byte	funcidx
 1229 0028 28000000 		.4byte	.LC5
 1230 002c 00000000 		.4byte	swapchars
 1231 0030 32000000 		.4byte	.LC6
 1232 0034 00000000 		.4byte	core_tolower
 1233 0038 3A000000 		.4byte	.LC7
 1234 003c 00000000 		.4byte	core_toupper
 1235 0040 42000000 		.4byte	.LC8
 1236 0044 00000000 		.4byte	core_min
 1237 0048 46000000 		.4byte	.LC9
 1238 004c 00000000 		.4byte	core_max
 1239 0050 4A000000 		.4byte	.LC10
 1240 0054 00000000 		.4byte	core_clamp
 1241 0058 50000000 		.4byte	.LC11
 1242 005c 00000000 		.4byte	core_random
 1243 0060 57000000 		.4byte	.LC12
 1244 0064 00000000 		.4byte	getproperty
 1245 0068 63000000 		.4byte	.LC13
 1246 006c 00000000 		.4byte	setproperty
 1247 0070 6F000000 		.4byte	.LC14
 1248 0074 00000000 		.4byte	delproperty
 1249 0078 7E000000 		.4byte	.LC15
 1250 007c 00000000 		.4byte	existproperty
 1251 0080 00000000 		.4byte	0
 1252 0084 00000000 		.4byte	0
 1253              		.section	.data.IL_StandardRandom_seed,"aw",%progbits
 1254              		.align	2
 1255              		.set	.LANCHOR0,. + 0
 1256              		.type	IL_StandardRandom_seed, %object
 1257              		.size	IL_StandardRandom_seed, 4
 1258              	IL_StandardRandom_seed:
 1259 0000 DB38A9CA 		.word	-894879525
 1260              		.text
 1261              	.Letext0: