ARM GAS  /tmp/ccDSXDsV.s 			page 1


   1              		.syntax unified
   2              		.cpu cortex-m3
   3              		.fpu softvfp
   4              		.eabi_attribute 20, 1
   5              		.eabi_attribute 21, 1
   6              		.eabi_attribute 23, 3
   7              		.eabi_attribute 24, 1
   8              		.eabi_attribute 25, 1
   9              		.eabi_attribute 26, 1
  10              		.eabi_attribute 30, 4
  11              		.eabi_attribute 18, 4
  12              		.thumb
  13              		.file	"amxcore.c"
  14              		.section	.debug_abbrev,"",%progbits
  15              	.Ldebug_abbrev0:
  16              		.section	.debug_info,"",%progbits
  17              	.Ldebug_info0:
  18              		.section	.debug_line,"",%progbits
  19              	.Ldebug_line0:
  20 0000 44030000 		.text
  20      0200AB00 
  20      00000201 
  20      FB0E0D00 
  20      01010101 
  21              	.Ltext0:
  22              		.cfi_sections	.debug_frame
  23              		.section	.text.numargs,"ax",%progbits
  24              		.align	1
  25              		.thumb
  26              		.thumb_func
  27              		.type	numargs, %function
  28              	numargs:
  29              	.LFB4:
  30              		.file 1 "pawn/amxcore.c"
  31              		.loc 1 139 0
  32              		.cfi_startproc
  33              		@ args = 0, pretend = 0, frame = 0
  34              		@ frame_needed = 0, uses_anonymous_args = 0
  35              		@ link register save eliminated.
  36              	.LVL0:
  37              		.loc 1 146 0
  38 0000 8368     		ldr	r3, [r0, #8]	@ unaligned
  39              		.loc 1 145 0
  40 0002 0268     		ldr	r2, [r0, #0]	@ unaligned
  41              	.LVL1:
  42              		.loc 1 146 0
  43 0004 0BB9     		cbnz	r3, .L2
  44              		.loc 1 146 0 is_stmt 0 discriminator 2
  45 0006 1369     		ldr	r3, [r2, #16]	@ unaligned
  46 0008 D318     		adds	r3, r2, r3
  47              	.L2:
  48              	.LVL2:
  49              		.loc 1 148 0 is_stmt 1 discriminator 3
  50 000a C269     		ldr	r2, [r0, #28]	@ unaligned
  51              	.LVL3:
  52 000c 9B18     		adds	r3, r3, r2
  53              	.LVL4:
ARM GAS  /tmp/ccDSXDsV.s 			page 2


  54              		.loc 1 151 0 discriminator 3
  55 000e 9868     		ldr	r0, [r3, #8]
  56              	.LVL5:
  57              		.loc 1 152 0 discriminator 3
  58 0010 8008     		lsrs	r0, r0, #2
  59 0012 7047     		bx	lr
  60              		.cfi_endproc
  61              	.LFE4:
  62              		.size	numargs, .-numargs
  63              		.section	.text.getarg,"ax",%progbits
  64              		.align	1
  65              		.thumb
  66              		.thumb_func
  67              		.type	getarg, %function
  68              	getarg:
  69              	.LFB5:
  70              		.loc 1 155 0
  71              		.cfi_startproc
  72              		@ args = 0, pretend = 0, frame = 0
  73              		@ frame_needed = 0, uses_anonymous_args = 0
  74              		@ link register save eliminated.
  75              	.LVL6:
  76              		.loc 1 161 0
  77 0000 8368     		ldr	r3, [r0, #8]	@ unaligned
  78              		.loc 1 160 0
  79 0002 0268     		ldr	r2, [r0, #0]	@ unaligned
  80              	.LVL7:
  81              		.loc 1 161 0
  82 0004 0BB9     		cbnz	r3, .L4
  83              		.loc 1 161 0 is_stmt 0 discriminator 2
  84 0006 1369     		ldr	r3, [r2, #16]	@ unaligned
  85 0008 D318     		adds	r3, r2, r3
  86              	.L4:
  87              	.LVL8:
  88              		.loc 1 163 0 is_stmt 1 discriminator 3
  89 000a 4A68     		ldr	r2, [r1, #4]
  90              	.LVL9:
  91 000c C069     		ldr	r0, [r0, #28]	@ unaligned
  92              	.LVL10:
  93 000e 0332     		adds	r2, r2, #3
  94 0010 00EB8202 		add	r2, r0, r2, lsl #2
  95              		.loc 1 165 0 discriminator 3
  96 0014 8968     		ldr	r1, [r1, #8]
  97              	.LVL11:
  98 0016 9A58     		ldr	r2, [r3, r2]
  99 0018 02EB8102 		add	r2, r2, r1, lsl #2
 100              	.LVL12:
 101              		.loc 1 169 0 discriminator 3
 102 001c 9858     		ldr	r0, [r3, r2]
 103 001e 7047     		bx	lr
 104              		.cfi_endproc
 105              	.LFE5:
 106              		.size	getarg, .-getarg
 107              		.section	.text.setarg,"ax",%progbits
 108              		.align	1
 109              		.thumb
 110              		.thumb_func
ARM GAS  /tmp/ccDSXDsV.s 			page 3


 111              		.type	setarg, %function
 112              	setarg:
 113              	.LFB6:
 114              		.loc 1 172 0
 115              		.cfi_startproc
 116              		@ args = 0, pretend = 0, frame = 0
 117              		@ frame_needed = 0, uses_anonymous_args = 0
 118              	.LVL13:
 119 0000 10B5     		push	{r4, lr}
 120              	.LCFI0:
 121              		.cfi_def_cfa_offset 8
 122              		.loc 1 178 0
 123 0002 8368     		ldr	r3, [r0, #8]	@ unaligned
 124              		.loc 1 177 0
 125 0004 0268     		ldr	r2, [r0, #0]	@ unaligned
 126              	.LVL14:
 127              		.loc 1 178 0
 128 0006 0BB9     		cbnz	r3, .L6
 129              		.cfi_offset 14, -4
 130              		.cfi_offset 4, -8
 131              		.loc 1 178 0 is_stmt 0 discriminator 2
 132 0008 1369     		ldr	r3, [r2, #16]	@ unaligned
 133 000a D318     		adds	r3, r2, r3
 134              	.L6:
 135              	.LVL15:
 136              		.loc 1 180 0 is_stmt 1 discriminator 3
 137 000c 4A68     		ldr	r2, [r1, #4]
 138              	.LVL16:
 139 000e C469     		ldr	r4, [r0, #28]	@ unaligned
 140 0010 0332     		adds	r2, r2, #3
 141 0012 04EB8202 		add	r2, r4, r2, lsl #2
 142              		.loc 1 182 0 discriminator 3
 143 0016 9A58     		ldr	r2, [r3, r2]
 144 0018 8C68     		ldr	r4, [r1, #8]
 145              	.LVL17:
 146              		.loc 1 184 0 discriminator 3
 147 001a 12EB8402 		adds	r2, r2, r4, lsl #2
 148              	.LVL18:
 149 001e 09D4     		bmi	.L9
 150              		.loc 1 184 0 is_stmt 0 discriminator 1
 151 0020 046A     		ldr	r4, [r0, #32]	@ unaligned
 152 0022 A242     		cmp	r2, r4
 153 0024 02DB     		blt	.L8
 154 0026 806A     		ldr	r0, [r0, #40]	@ unaligned
 155              	.LVL19:
 156 0028 8242     		cmp	r2, r0
 157 002a 05DB     		blt	.L10
 158              	.L8:
 159              		.loc 1 187 0 is_stmt 1
 160 002c C968     		ldr	r1, [r1, #12]
 161              	.LVL20:
 162              		.loc 1 188 0
 163 002e 0120     		movs	r0, #1
 164              		.loc 1 187 0
 165 0030 9950     		str	r1, [r3, r2]
 166              		.loc 1 188 0
 167 0032 10BD     		pop	{r4, pc}
ARM GAS  /tmp/ccDSXDsV.s 			page 4


 168              	.LVL21:
 169              	.L9:
 170              		.loc 1 185 0
 171 0034 0020     		movs	r0, #0
 172              	.LVL22:
 173 0036 10BD     		pop	{r4, pc}
 174              	.L10:
 175 0038 0020     		movs	r0, #0
 176              		.loc 1 189 0
 177 003a 10BD     		pop	{r4, pc}
 178              		.cfi_endproc
 179              	.LFE6:
 180              		.size	setarg, .-setarg
 181              		.section	.text.heapspace,"ax",%progbits
 182              		.align	1
 183              		.thumb
 184              		.thumb_func
 185              		.type	heapspace, %function
 186              	heapspace:
 187              	.LFB7:
 188              		.loc 1 192 0
 189              		.cfi_startproc
 190              		@ args = 0, pretend = 0, frame = 0
 191              		@ frame_needed = 0, uses_anonymous_args = 0
 192              		@ link register save eliminated.
 193              	.LVL23:
 194              		.loc 1 194 0
 195 0000 826A     		ldr	r2, [r0, #40]	@ unaligned
 196 0002 036A     		ldr	r3, [r0, #32]	@ unaligned
 197              		.loc 1 195 0
 198 0004 D01A     		subs	r0, r2, r3
 199              	.LVL24:
 200 0006 7047     		bx	lr
 201              		.cfi_endproc
 202              	.LFE7:
 203              		.size	heapspace, .-heapspace
 204              		.section	.text.core_tolower,"ax",%progbits
 205              		.align	1
 206              		.thumb
 207              		.thumb_func
 208              		.type	core_tolower, %function
 209              	core_tolower:
 210              	.LFB11:
 211              		.loc 1 272 0
 212              		.cfi_startproc
 213              		@ args = 0, pretend = 0, frame = 0
 214              		@ frame_needed = 0, uses_anonymous_args = 0
 215              		@ link register save eliminated.
 216              	.LVL25:
 217              		.loc 1 279 0
 218 0000 4868     		ldr	r0, [r1, #4]
 219              	.LVL26:
 220 0002 A0F14103 		sub	r3, r0, #65
 221 0006 192B     		cmp	r3, #25
 222              		.loc 1 280 0
 223 0008 98BF     		it	ls
 224 000a 2030     		addls	r0, r0, #32
ARM GAS  /tmp/ccDSXDsV.s 			page 5


 225              		.loc 1 283 0
 226 000c 7047     		bx	lr
 227              		.cfi_endproc
 228              	.LFE11:
 229              		.size	core_tolower, .-core_tolower
 230              		.section	.text.core_toupper,"ax",%progbits
 231              		.align	1
 232              		.thumb
 233              		.thumb_func
 234              		.type	core_toupper, %function
 235              	core_toupper:
 236              	.LFB12:
 237              		.loc 1 286 0
 238              		.cfi_startproc
 239              		@ args = 0, pretend = 0, frame = 0
 240              		@ frame_needed = 0, uses_anonymous_args = 0
 241              		@ link register save eliminated.
 242              	.LVL27:
 243              		.loc 1 293 0
 244 0000 4868     		ldr	r0, [r1, #4]
 245              	.LVL28:
 246 0002 A0F16103 		sub	r3, r0, #97
 247 0006 192B     		cmp	r3, #25
 248              		.loc 1 294 0
 249 0008 98BF     		it	ls
 250 000a 2038     		subls	r0, r0, #32
 251              		.loc 1 297 0
 252 000c 7047     		bx	lr
 253              		.cfi_endproc
 254              	.LFE12:
 255              		.size	core_toupper, .-core_toupper
 256              		.section	.text.core_min,"ax",%progbits
 257              		.align	1
 258              		.thumb
 259              		.thumb_func
 260              		.type	core_min, %function
 261              	core_min:
 262              	.LFB13:
 263              		.loc 1 300 0
 264              		.cfi_startproc
 265              		@ args = 0, pretend = 0, frame = 0
 266              		@ frame_needed = 0, uses_anonymous_args = 0
 267              		@ link register save eliminated.
 268              	.LVL29:
 269              		.loc 1 302 0
 270 0000 8868     		ldr	r0, [r1, #8]
 271              	.LVL30:
 272 0002 4B68     		ldr	r3, [r1, #4]
 273              		.loc 1 303 0
 274 0004 9842     		cmp	r0, r3
 275 0006 A8BF     		it	ge
 276 0008 1846     		movge	r0, r3
 277 000a 7047     		bx	lr
 278              		.cfi_endproc
 279              	.LFE13:
 280              		.size	core_min, .-core_min
 281              		.section	.text.core_max,"ax",%progbits
ARM GAS  /tmp/ccDSXDsV.s 			page 6


 282              		.align	1
 283              		.thumb
 284              		.thumb_func
 285              		.type	core_max, %function
 286              	core_max:
 287              	.LFB14:
 288              		.loc 1 306 0
 289              		.cfi_startproc
 290              		@ args = 0, pretend = 0, frame = 0
 291              		@ frame_needed = 0, uses_anonymous_args = 0
 292              		@ link register save eliminated.
 293              	.LVL31:
 294              		.loc 1 308 0
 295 0000 8868     		ldr	r0, [r1, #8]
 296              	.LVL32:
 297 0002 4B68     		ldr	r3, [r1, #4]
 298              		.loc 1 309 0
 299 0004 9842     		cmp	r0, r3
 300 0006 B8BF     		it	lt
 301 0008 1846     		movlt	r0, r3
 302 000a 7047     		bx	lr
 303              		.cfi_endproc
 304              	.LFE14:
 305              		.size	core_max, .-core_max
 306              		.section	.text.MakePackedString,"ax",%progbits
 307              		.align	1
 308              		.thumb
 309              		.thumb_func
 310              		.type	MakePackedString, %function
 311              	MakePackedString:
 312              	.LFB16:
 313              		.loc 1 325 0
 314              		.cfi_startproc
 315              		@ args = 0, pretend = 0, frame = 8
 316              		@ frame_needed = 0, uses_anonymous_args = 0
 317              	.LVL33:
 318 0000 37B5     		push	{r0, r1, r2, r4, r5, lr}
 319              	.LCFI1:
 320              		.cfi_def_cfa_offset 24
 321              		.loc 1 329 0
 322 0002 01A9     		add	r1, sp, #4
 323              		.cfi_offset 14, -4
 324              		.cfi_offset 5, -8
 325              		.cfi_offset 4, -12
 326              		.cfi_offset 2, -16
 327              		.cfi_offset 1, -20
 328              		.cfi_offset 0, -24
 329              		.loc 1 325 0
 330 0004 0546     		mov	r5, r0
 331              		.loc 1 329 0
 332 0006 FFF7FEFF 		bl	amx_StrLen
 333              	.LVL34:
 334              		.loc 1 330 0
 335 000a 0198     		ldr	r0, [sp, #4]
 336 000c 0430     		adds	r0, r0, #4
 337 000e FFF7FEFF 		bl	malloc
 338              		.loc 1 331 0
ARM GAS  /tmp/ccDSXDsV.s 			page 7


 339 0012 019B     		ldr	r3, [sp, #4]
 340              		.loc 1 330 0
 341 0014 0446     		mov	r4, r0
 342              	.LVL35:
 343              		.loc 1 331 0
 344 0016 2946     		mov	r1, r5
 345 0018 0022     		movs	r2, #0
 346 001a 0433     		adds	r3, r3, #4
 347 001c FFF7FEFF 		bl	amx_GetString
 348              	.LVL36:
 349              		.loc 1 333 0
 350 0020 2046     		mov	r0, r4
 351 0022 3EBD     		pop	{r1, r2, r3, r4, r5, pc}
 352              		.cfi_endproc
 353              	.LFE16:
 354              		.size	MakePackedString, .-MakePackedString
 355              		.section	.text.core_clamp,"ax",%progbits
 356              		.align	1
 357              		.thumb
 358              		.thumb_func
 359              		.type	core_clamp, %function
 360              	core_clamp:
 361              	.LFB15:
 362              		.loc 1 312 0
 363              		.cfi_startproc
 364              		@ args = 0, pretend = 0, frame = 0
 365              		@ frame_needed = 0, uses_anonymous_args = 0
 366              	.LVL37:
 367 0000 38B5     		push	{r3, r4, r5, lr}
 368              	.LCFI2:
 369              		.cfi_def_cfa_offset 16
 370              		.loc 1 314 0
 371 0002 8A68     		ldr	r2, [r1, #8]
 372 0004 CB68     		ldr	r3, [r1, #12]
 373              		.cfi_offset 14, -4
 374              		.cfi_offset 5, -8
 375              		.cfi_offset 4, -12
 376              		.cfi_offset 3, -16
 377              		.loc 1 312 0
 378 0006 0C46     		mov	r4, r1
 379              		.loc 1 314 0
 380 0008 9A42     		cmp	r2, r3
 381              		.loc 1 313 0
 382 000a 4D68     		ldr	r5, [r1, #4]
 383              	.LVL38:
 384              		.loc 1 314 0
 385 000c 02DD     		ble	.L20
 386              		.loc 1 315 0
 387 000e 0A21     		movs	r1, #10
 388              	.LVL39:
 389 0010 FFF7FEFF 		bl	amx_RaiseError
 390              	.LVL40:
 391              	.L20:
 392              		.loc 1 316 0
 393 0014 A068     		ldr	r0, [r4, #8]
 394 0016 8542     		cmp	r5, r0
 395 0018 03DB     		blt	.L21
ARM GAS  /tmp/ccDSXDsV.s 			page 8


 396 001a E068     		ldr	r0, [r4, #12]
 397 001c 8542     		cmp	r5, r0
 398 001e B8BF     		it	lt
 399 0020 2846     		movlt	r0, r5
 400              	.L21:
 401              	.LVL41:
 402              		.loc 1 321 0
 403 0022 38BD     		pop	{r3, r4, r5, pc}
 404              		.cfi_endproc
 405              	.LFE15:
 406              		.size	core_clamp, .-core_clamp
 407              		.section	.text.core_random,"ax",%progbits
 408              		.align	1
 409              		.thumb
 410              		.thumb_func
 411              		.type	core_random, %function
 412              	core_random:
 413              	.LFB21:
 414              		.loc 1 432 0
 415              		.cfi_startproc
 416              		@ args = 0, pretend = 0, frame = 0
 417              		@ frame_needed = 0, uses_anonymous_args = 0
 418              	.LVL42:
 419 0000 70B5     		push	{r4, r5, r6, lr}
 420              	.LCFI3:
 421              		.cfi_def_cfa_offset 16
 422              		.loc 1 438 0
 423 0002 174C     		ldr	r4, .L25
 424              		.cfi_offset 14, -4
 425              		.cfi_offset 6, -8
 426              		.cfi_offset 5, -12
 427              		.cfi_offset 4, -16
 428 0004 174B     		ldr	r3, .L25+4
 429 0006 2268     		ldr	r2, [r4, #0]
 430              		.loc 1 432 0
 431 0008 0D46     		mov	r5, r1
 432              		.loc 1 438 0
 433 000a 9A42     		cmp	r2, r3
 434 000c 03D1     		bne	.L23
 435              		.loc 1 439 0
 436 000e 0020     		movs	r0, #0
 437              	.LVL43:
 438 0010 FFF7FEFF 		bl	time
 439              	.LVL44:
 440 0014 2060     		str	r0, [r4, #0]
 441              	.L23:
 442              		.loc 1 444 0
 443 0016 2268     		ldr	r2, [r4, #0]
 444              		.loc 1 446 0
 445 0018 134B     		ldr	r3, .L25+8
 446              		.loc 1 444 0
 447 001a 91B2     		uxth	r1, r2
 448              	.LVL45:
 449              		.loc 1 445 0
 450 001c 160C     		lsrs	r6, r2, #16
 451              	.LVL46:
 452              		.loc 1 446 0
ARM GAS  /tmp/ccDSXDsV.s 			page 9


 453 001e 5A43     		muls	r2, r3, r2
 454 0020 02F54052 		add	r2, r2, #12288
 455 0024 3932     		adds	r2, r2, #57
 456 0026 2260     		str	r2, [r4, #0]
 457              	.LVL47:
 458              		.loc 1 448 0
 459 0028 44F2C614 		movw	r4, #16838
 460 002c 04FB01F0 		mul	r0, r4, r1
 461              		.loc 1 449 0
 462 0030 44F66D62 		movw	r2, #20077
 463              		.loc 1 450 0
 464 0034 7443     		muls	r4, r6, r4
 465              		.loc 1 447 0
 466 0036 02FB01F3 		mul	r3, r2, r1
 467              		.loc 1 451 0
 468 003a 02FB0600 		mla	r0, r2, r6, r0
 469 003e 2404     		lsls	r4, r4, #16
 470 0040 03F54053 		add	r3, r3, #12288
 471 0044 3933     		adds	r3, r3, #57
 472 0046 0019     		adds	r0, r0, r4
 473 0048 00EB1340 		add	r0, r0, r3, lsr #16
 474              	.LVL48:
 475              		.loc 1 453 0
 476 004c 6B68     		ldr	r3, [r5, #4]
 477              		.loc 1 452 0
 478 004e 20F00040 		bic	r0, r0, #-2147483648
 479              	.LVL49:
 480              		.loc 1 453 0
 481 0052 1BB1     		cbz	r3, .L24
 482              		.loc 1 454 0
 483 0054 B0FBF3F2 		udiv	r2, r0, r3
 484 0058 03FB1200 		mls	r0, r3, r2, r0
 485              	.LVL50:
 486              	.L24:
 487              		.loc 1 456 0
 488 005c 70BD     		pop	{r4, r5, r6, pc}
 489              	.L26:
 490 005e 00BF     		.align	2
 491              	.L25:
 492 0060 00000000 		.word	.LANCHOR0
 493 0064 DB38A9CA 		.word	-894879525
 494 0068 6D4EC641 		.word	1103515245
 495              		.cfi_endproc
 496              	.LFE21:
 497              		.size	core_random, .-core_random
 498              		.section	.text.funcidx,"ax",%progbits
 499              		.align	1
 500              		.thumb
 501              		.thumb_func
 502              		.type	funcidx, %function
 503              	funcidx:
 504              	.LFB8:
 505              		.loc 1 198 0
 506              		.cfi_startproc
 507              		@ args = 0, pretend = 0, frame = 72
 508              		@ frame_needed = 0, uses_anonymous_args = 0
 509              	.LVL51:
ARM GAS  /tmp/ccDSXDsV.s 			page 10


 510 0000 10B5     		push	{r4, lr}
 511              	.LCFI4:
 512              		.cfi_def_cfa_offset 8
 513 0002 92B0     		sub	sp, sp, #72
 514              	.LCFI5:
 515              		.cfi_def_cfa_offset 80
 516              		.loc 1 198 0
 517 0004 0446     		mov	r4, r0
 518              		.cfi_offset 14, -4
 519              		.cfi_offset 4, -8
 520              		.loc 1 204 0
 521 0006 4968     		ldr	r1, [r1, #4]
 522              	.LVL52:
 523 0008 0022     		movs	r2, #0
 524 000a 01A8     		add	r0, sp, #4
 525              	.LVL53:
 526 000c 4023     		movs	r3, #64
 527 000e FFF7FEFF 		bl	amx_GetString
 528              		.loc 1 205 0
 529 0012 2046     		mov	r0, r4
 530 0014 01A9     		add	r1, sp, #4
 531 0016 11AA     		add	r2, sp, #68
 532 0018 FFF7FEFF 		bl	amx_FindPublic
 533              	.LVL54:
 534              		.loc 1 206 0
 535 001c 10B1     		cbz	r0, .L28
 536              		.loc 1 207 0
 537 001e 4FF0FF33 		mov	r3, #-1
 538 0022 1193     		str	r3, [sp, #68]
 539              	.LVL55:
 540              	.L28:
 541              		.loc 1 209 0
 542 0024 1198     		ldr	r0, [sp, #68]
 543              	.LVL56:
 544 0026 12B0     		add	sp, sp, #72
 545 0028 10BD     		pop	{r4, pc}
 546              		.cfi_endproc
 547              	.LFE8:
 548              		.size	funcidx, .-funcidx
 549              		.section	.text.list_delete.clone.0,"ax",%progbits
 550              		.align	1
 551              		.thumb
 552              		.thumb_func
 553              		.type	list_delete.clone.0, %function
 554              	list_delete.clone.0:
 555              	.LFB24:
 556              		.loc 1 88 0
 557              		.cfi_startproc
 558              		@ args = 0, pretend = 0, frame = 0
 559              		@ frame_needed = 0, uses_anonymous_args = 0
 560              	.LVL57:
 561              		.loc 1 92 0
 562 0000 0B68     		ldr	r3, [r1, #0]
 563              		.loc 1 88 0
 564 0002 10B5     		push	{r4, lr}
 565              	.LCFI6:
 566              		.cfi_def_cfa_offset 8
ARM GAS  /tmp/ccDSXDsV.s 			page 11


 567              		.loc 1 92 0
 568 0004 0360     		str	r3, [r0, #0]
 569              		.loc 1 94 0
 570 0006 8868     		ldr	r0, [r1, #8]
 571              		.loc 1 88 0
 572 0008 0C46     		mov	r4, r1
 573              		.cfi_offset 14, -4
 574              		.cfi_offset 4, -8
 575              		.loc 1 94 0
 576 000a FFF7FEFF 		bl	free
 577              	.LVL58:
 578              		.loc 1 95 0
 579 000e 2046     		mov	r0, r4
 580              		.loc 1 96 0
 581 0010 BDE81040 		pop	{r4, lr}
 582              		.loc 1 95 0
 583 0014 FFF7FEBF 		b	free
 584              		.cfi_endproc
 585              	.LFE24:
 586              		.size	list_delete.clone.0, .-list_delete.clone.0
 587              		.section	.text.list_finditem.clone.3,"ax",%progbits
 588              		.align	1
 589              		.thumb
 590              		.thumb_func
 591              		.type	list_finditem.clone.3, %function
 592              	list_finditem.clone.3:
 593              	.LFB26:
 594              		.loc 1 111 0
 595              		.cfi_startproc
 596              		@ args = 0, pretend = 0, frame = 0
 597              		@ frame_needed = 0, uses_anonymous_args = 0
 598              	.LVL59:
 599 0000 2DE9F041 		push	{r4, r5, r6, r7, r8, lr}
 600              	.LCFI7:
 601              		.cfi_def_cfa_offset 24
 602              		.loc 1 111 0
 603 0004 9846     		mov	r8, r3
 604              		.cfi_offset 14, -4
 605              		.cfi_offset 8, -8
 606              		.cfi_offset 7, -12
 607              		.cfi_offset 6, -16
 608              		.cfi_offset 5, -20
 609              		.cfi_offset 4, -24
 610              		.loc 1 114 0
 611 0006 124F     		ldr	r7, .L38
 612              		.loc 1 119 0
 613 0008 0B78     		ldrb	r3, [r1, #0]	@ zero_extendqisi2
 614              	.LVL60:
 615              		.loc 1 111 0
 616 000a 0446     		mov	r4, r0
 617 000c 0D46     		mov	r5, r1
 618              		.loc 1 114 0
 619 000e 3E68     		ldr	r6, [r7, #0]
 620              	.LVL61:
 621              		.loc 1 119 0
 622 0010 7BB1     		cbz	r3, .L32
 623 0012 01E0     		b	.L33
ARM GAS  /tmp/ccDSXDsV.s 			page 12


 624              	.LVL62:
 625              	.L35:
 626              		.loc 1 123 0
 627 0014 3746     		mov	r7, r6
 628 0016 3668     		ldr	r6, [r6, #0]
 629              	.LVL63:
 630              	.L33:
 631              		.loc 1 121 0
 632 0018 96B1     		cbz	r6, .L34
 633 001a 7368     		ldr	r3, [r6, #4]
 634 001c A342     		cmp	r3, r4
 635 001e F9D1     		bne	.L35
 636 0020 B068     		ldr	r0, [r6, #8]
 637 0022 2946     		mov	r1, r5
 638 0024 FFF7FEFF 		bl	strcasecmp
 639 0028 0028     		cmp	r0, #0
 640 002a F3D1     		bne	.L35
 641 002c 08E0     		b	.L34
 642              	.LVL64:
 643              	.L36:
 644              		.loc 1 129 0
 645 002e 3746     		mov	r7, r6
 646 0030 3668     		ldr	r6, [r6, #0]
 647              	.LVL65:
 648              	.L32:
 649              		.loc 1 127 0
 650 0032 2EB1     		cbz	r6, .L34
 651 0034 7368     		ldr	r3, [r6, #4]
 652 0036 A342     		cmp	r3, r4
 653 0038 F9D1     		bne	.L36
 654 003a F368     		ldr	r3, [r6, #12]
 655 003c 9342     		cmp	r3, r2
 656 003e F6D1     		bne	.L36
 657              	.LVL66:
 658              	.L34:
 659              		.loc 1 132 0
 660 0040 B8F1000F 		cmp	r8, #0
 661 0044 01D0     		beq	.L37
 662              		.loc 1 133 0
 663 0046 C8F80070 		str	r7, [r8, #0]
 664              	.L37:
 665              		.loc 1 135 0
 666 004a 3046     		mov	r0, r6
 667 004c BDE8F081 		pop	{r4, r5, r6, r7, r8, pc}
 668              	.L39:
 669              		.align	2
 670              	.L38:
 671 0050 00000000 		.word	.LANCHOR1
 672              		.cfi_endproc
 673              	.LFE26:
 674              		.size	list_finditem.clone.3, .-list_finditem.clone.3
 675              		.section	.text.getproperty,"ax",%progbits
 676              		.align	1
 677              		.thumb
 678              		.thumb_func
 679              		.type	getproperty, %function
 680              	getproperty:
ARM GAS  /tmp/ccDSXDsV.s 			page 13


 681              	.LFB17:
 682              		.loc 1 337 0
 683              		.cfi_startproc
 684              		@ args = 0, pretend = 0, frame = 0
 685              		@ frame_needed = 0, uses_anonymous_args = 0
 686              	.LVL67:
 687 0000 73B5     		push	{r0, r1, r4, r5, r6, lr}
 688              	.LCFI8:
 689              		.cfi_def_cfa_offset 24
 690              		.loc 1 344 0
 691 0002 8868     		ldr	r0, [r1, #8]
 692              		.cfi_offset 14, -4
 693              		.cfi_offset 6, -8
 694              		.cfi_offset 5, -12
 695              		.cfi_offset 4, -16
 696              		.cfi_offset 1, -20
 697              		.cfi_offset 0, -24
 698              	.LVL68:
 699              		.loc 1 337 0
 700 0004 0D46     		mov	r5, r1
 701              		.loc 1 344 0
 702 0006 FFF7FEFF 		bl	MakePackedString
 703              	.LVL69:
 704 000a 0646     		mov	r6, r0
 705              	.LVL70:
 706              		.loc 1 345 0
 707 000c 3146     		mov	r1, r6
 708 000e 6868     		ldr	r0, [r5, #4]
 709              	.LVL71:
 710 0010 EA68     		ldr	r2, [r5, #12]
 711 0012 0023     		movs	r3, #0
 712 0014 FFF7FEFF 		bl	list_finditem.clone.3
 713              	.LVL72:
 714              		.loc 1 347 0
 715 0018 0446     		mov	r4, r0
 716 001a 60B1     		cbz	r0, .L41
 717              		.loc 1 347 0 is_stmt 0 discriminator 1
 718 001c C268     		ldr	r2, [r0, #12]
 719 001e EB68     		ldr	r3, [r5, #12]
 720 0020 9A42     		cmp	r2, r3
 721 0022 08D1     		bne	.L41
 722 0024 3378     		ldrb	r3, [r6, #0]	@ zero_extendqisi2
 723 0026 33B9     		cbnz	r3, .L41
 724              	.LVL73:
 725              		.loc 1 349 0 is_stmt 1
 726 0028 6A69     		ldr	r2, [r5, #20]
 727 002a 2869     		ldr	r0, [r5, #16]
 728              	.LVL74:
 729 002c 0092     		str	r2, [sp, #0]
 730 002e A168     		ldr	r1, [r4, #8]
 731 0030 0122     		movs	r2, #1
 732 0032 FFF7FEFF 		bl	amx_SetString
 733              	.LVL75:
 734              	.L41:
 735              		.loc 1 351 0
 736 0036 3046     		mov	r0, r6
 737 0038 FFF7FEFF 		bl	free
ARM GAS  /tmp/ccDSXDsV.s 			page 14


 738              		.loc 1 352 0
 739 003c 0CB1     		cbz	r4, .L43
 740              		.loc 1 352 0 is_stmt 0 discriminator 1
 741 003e E068     		ldr	r0, [r4, #12]
 742 0040 00E0     		b	.L42
 743              	.L43:
 744              		.loc 1 352 0
 745 0042 2046     		mov	r0, r4
 746              	.L42:
 747              		.loc 1 353 0 is_stmt 1 discriminator 3
 748 0044 7CBD     		pop	{r2, r3, r4, r5, r6, pc}
 749              		.cfi_endproc
 750              	.LFE17:
 751              		.size	getproperty, .-getproperty
 752              		.section	.text.setproperty,"ax",%progbits
 753              		.align	1
 754              		.thumb
 755              		.thumb_func
 756              		.type	setproperty, %function
 757              	setproperty:
 758              	.LFB18:
 759              		.loc 1 357 0
 760              		.cfi_startproc
 761              		@ args = 0, pretend = 0, frame = 0
 762              		@ frame_needed = 0, uses_anonymous_args = 0
 763              	.LVL76:
 764 0000 2DE9F843 		push	{r3, r4, r5, r6, r7, r8, r9, lr}
 765              	.LCFI9:
 766              		.cfi_def_cfa_offset 32
 767              		.loc 1 357 0
 768 0004 0646     		mov	r6, r0
 769              		.cfi_offset 14, -4
 770              		.cfi_offset 9, -8
 771              		.cfi_offset 8, -12
 772              		.cfi_offset 7, -16
 773              		.cfi_offset 6, -20
 774              		.cfi_offset 5, -24
 775              		.cfi_offset 4, -28
 776              		.cfi_offset 3, -32
 777              		.loc 1 364 0
 778 0006 8868     		ldr	r0, [r1, #8]
 779              	.LVL77:
 780              		.loc 1 357 0
 781 0008 0D46     		mov	r5, r1
 782              		.loc 1 364 0
 783 000a FFF7FEFF 		bl	MakePackedString
 784              	.LVL78:
 785 000e 0446     		mov	r4, r0
 786              	.LVL79:
 787              		.loc 1 365 0
 788 0010 2146     		mov	r1, r4
 789 0012 6868     		ldr	r0, [r5, #4]
 790              	.LVL80:
 791 0014 EA68     		ldr	r2, [r5, #12]
 792 0016 0023     		movs	r3, #0
 793 0018 FFF7FEFF 		bl	list_finditem.clone.3
 794              	.LVL81:
ARM GAS  /tmp/ccDSXDsV.s 			page 15


 795              		.loc 1 366 0
 796 001c 0746     		mov	r7, r0
 797 001e 98B9     		cbnz	r0, .L45
 798              	.LBB6:
 799              	.LBB7:
 800              		.loc 1 79 0
 801 0020 1020     		movs	r0, #16
 802              	.LVL82:
 803 0022 FFF7FEFF 		bl	malloc
 804 0026 0746     		mov	r7, r0
 805              	.LVL83:
 806 0028 40B1     		cbz	r0, .L46
 807              		.loc 1 81 0
 808 002a 0023     		movs	r3, #0
 809 002c 8360     		str	r3, [r0, #8]
 810              		.loc 1 82 0
 811 002e 4360     		str	r3, [r0, #4]
 812              		.loc 1 83 0
 813 0030 C360     		str	r3, [r0, #12]
 814              		.loc 1 84 0
 815 0032 1A4B     		ldr	r3, .L50
 816 0034 1A68     		ldr	r2, [r3, #0]
 817              		.loc 1 85 0
 818 0036 1860     		str	r0, [r3, #0]
 819              	.LVL84:
 820              		.loc 1 84 0
 821 0038 0260     		str	r2, [r0, #0]
 822 003a 05E0     		b	.L45
 823              	.LVL85:
 824              	.L46:
 825              	.LBE7:
 826              	.LBE6:
 827              		.loc 1 369 0
 828 003c 3046     		mov	r0, r6
 829              	.LVL86:
 830 003e 1021     		movs	r1, #16
 831 0040 FFF7FEFF 		bl	amx_RaiseError
 832              		.loc 1 358 0
 833 0044 3E46     		mov	r6, r7
 834              	.LVL87:
 835 0046 22E0     		b	.L47
 836              	.LVL88:
 837              	.L45:
 838              		.loc 1 372 0
 839 0048 2378     		ldrb	r3, [r4, #0]	@ zero_extendqisi2
 840              		.loc 1 371 0
 841 004a FE68     		ldr	r6, [r7, #12]
 842              	.LVL89:
 843              		.loc 1 372 0
 844 004c 33B9     		cbnz	r3, .L48
 845              		.loc 1 373 0
 846 004e 2046     		mov	r0, r4
 847              	.LVL90:
 848 0050 FFF7FEFF 		bl	free
 849              	.LVL91:
 850              		.loc 1 375 0
 851 0054 2869     		ldr	r0, [r5, #16]
ARM GAS  /tmp/ccDSXDsV.s 			page 16


 852 0056 FFF7FEFF 		bl	MakePackedString
 853              	.LVL92:
 854 005a 0446     		mov	r4, r0
 855              	.LVL93:
 856              	.L48:
 857              	.LBB8:
 858              	.LBB9:
 859              		.loc 1 102 0
 860 005c 2046     		mov	r0, r4
 861 005e FFF7FEFF 		bl	strlen
 862 0062 0130     		adds	r0, r0, #1
 863              	.LBE9:
 864              	.LBE8:
 865              		.loc 1 377 0
 866 0064 D5F80490 		ldr	r9, [r5, #4]
 867 0068 D5F80C80 		ldr	r8, [r5, #12]
 868              	.LVL94:
 869              	.LBB11:
 870              	.LBB10:
 871              		.loc 1 102 0
 872 006c FFF7FEFF 		bl	malloc
 873              	.LVL95:
 874 0070 0546     		mov	r5, r0
 875              	.LVL96:
 876 0072 60B1     		cbz	r0, .L47
 877              		.loc 1 104 0
 878 0074 B868     		ldr	r0, [r7, #8]
 879              	.LVL97:
 880 0076 08B1     		cbz	r0, .L49
 881              		.loc 1 105 0
 882 0078 FFF7FEFF 		bl	free
 883              	.L49:
 884              		.loc 1 106 0
 885 007c 2846     		mov	r0, r5
 886 007e 2146     		mov	r1, r4
 887 0080 FFF7FEFF 		bl	strcpy
 888              		.loc 1 107 0
 889 0084 BD60     		str	r5, [r7, #8]
 890              		.loc 1 108 0
 891 0086 C7F80490 		str	r9, [r7, #4]
 892              		.loc 1 109 0
 893 008a C7F80C80 		str	r8, [r7, #12]
 894              	.LVL98:
 895              	.L47:
 896              	.LBE10:
 897              	.LBE11:
 898              		.loc 1 379 0
 899 008e 2046     		mov	r0, r4
 900 0090 FFF7FEFF 		bl	free
 901              		.loc 1 381 0
 902 0094 3046     		mov	r0, r6
 903 0096 BDE8F883 		pop	{r3, r4, r5, r6, r7, r8, r9, pc}
 904              	.L51:
 905 009a 00BF     		.align	2
 906              	.L50:
 907 009c 00000000 		.word	.LANCHOR1
 908              		.cfi_endproc
ARM GAS  /tmp/ccDSXDsV.s 			page 17


 909              	.LFE18:
 910              		.size	setproperty, .-setproperty
 911              		.section	.text.delproperty,"ax",%progbits
 912              		.align	1
 913              		.thumb
 914              		.thumb_func
 915              		.type	delproperty, %function
 916              	delproperty:
 917              	.LFB19:
 918              		.loc 1 385 0
 919              		.cfi_startproc
 920              		@ args = 0, pretend = 0, frame = 8
 921              		@ frame_needed = 0, uses_anonymous_args = 0
 922              	.LVL99:
 923 0000 37B5     		push	{r0, r1, r2, r4, r5, lr}
 924              	.LCFI10:
 925              		.cfi_def_cfa_offset 24
 926              		.loc 1 393 0
 927 0002 8868     		ldr	r0, [r1, #8]
 928              		.cfi_offset 14, -4
 929              		.cfi_offset 5, -8
 930              		.cfi_offset 4, -12
 931              		.cfi_offset 2, -16
 932              		.cfi_offset 1, -20
 933              		.cfi_offset 0, -24
 934              	.LVL100:
 935              		.loc 1 385 0
 936 0004 0D46     		mov	r5, r1
 937              		.loc 1 393 0
 938 0006 FFF7FEFF 		bl	MakePackedString
 939              	.LVL101:
 940 000a 0446     		mov	r4, r0
 941              	.LVL102:
 942              		.loc 1 394 0
 943 000c 2146     		mov	r1, r4
 944 000e 6868     		ldr	r0, [r5, #4]
 945              	.LVL103:
 946 0010 EA68     		ldr	r2, [r5, #12]
 947 0012 01AB     		add	r3, sp, #4
 948 0014 FFF7FEFF 		bl	list_finditem.clone.3
 949              	.LVL104:
 950              		.loc 1 395 0
 951 0018 0146     		mov	r1, r0
 952 001a 20B1     		cbz	r0, .L54
 953              		.loc 1 396 0
 954 001c C568     		ldr	r5, [r0, #12]
 955              	.LVL105:
 956              		.loc 1 397 0
 957 001e 0198     		ldr	r0, [sp, #4]
 958              	.LVL106:
 959 0020 FFF7FEFF 		bl	list_delete.clone.0
 960              	.LVL107:
 961 0024 00E0     		b	.L53
 962              	.LVL108:
 963              	.L54:
 964              		.loc 1 386 0
 965 0026 0546     		mov	r5, r0
ARM GAS  /tmp/ccDSXDsV.s 			page 18


 966              	.LVL109:
 967              	.L53:
 968              		.loc 1 399 0
 969 0028 2046     		mov	r0, r4
 970 002a FFF7FEFF 		bl	free
 971              		.loc 1 401 0
 972 002e 2846     		mov	r0, r5
 973 0030 3EBD     		pop	{r1, r2, r3, r4, r5, pc}
 974              		.cfi_endproc
 975              	.LFE19:
 976              		.size	delproperty, .-delproperty
 977              		.section	.text.existproperty,"ax",%progbits
 978              		.align	1
 979              		.thumb
 980              		.thumb_func
 981              		.type	existproperty, %function
 982              	existproperty:
 983              	.LFB20:
 984              		.loc 1 405 0
 985              		.cfi_startproc
 986              		@ args = 0, pretend = 0, frame = 0
 987              		@ frame_needed = 0, uses_anonymous_args = 0
 988              	.LVL110:
 989 0000 38B5     		push	{r3, r4, r5, lr}
 990              	.LCFI11:
 991              		.cfi_def_cfa_offset 16
 992              		.loc 1 412 0
 993 0002 8868     		ldr	r0, [r1, #8]
 994              	.LVL111:
 995              		.loc 1 405 0
 996 0004 0D46     		mov	r5, r1
 997              		.cfi_offset 14, -4
 998              		.cfi_offset 5, -8
 999              		.cfi_offset 4, -12
 1000              		.cfi_offset 3, -16
 1001              		.loc 1 412 0
 1002 0006 FFF7FEFF 		bl	MakePackedString
 1003              	.LVL112:
 1004 000a 0446     		mov	r4, r0
 1005              	.LVL113:
 1006              		.loc 1 413 0
 1007 000c EA68     		ldr	r2, [r5, #12]
 1008 000e 0023     		movs	r3, #0
 1009 0010 2146     		mov	r1, r4
 1010 0012 6868     		ldr	r0, [r5, #4]
 1011              	.LVL114:
 1012 0014 FFF7FEFF 		bl	list_finditem.clone.3
 1013              	.LVL115:
 1014 0018 0546     		mov	r5, r0
 1015              	.LVL116:
 1016              		.loc 1 414 0
 1017 001a 2046     		mov	r0, r4
 1018              	.LVL117:
 1019 001c FFF7FEFF 		bl	free
 1020              		.loc 1 416 0
 1021 0020 281E     		subs	r0, r5, #0
 1022 0022 18BF     		it	ne
ARM GAS  /tmp/ccDSXDsV.s 			page 19


 1023 0024 0120     		movne	r0, #1
 1024 0026 38BD     		pop	{r3, r4, r5, pc}
 1025              		.cfi_endproc
 1026              	.LFE20:
 1027              		.size	existproperty, .-existproperty
 1028              		.section	.text.amx_swapcell,"ax",%progbits
 1029              		.align	1
 1030              		.global	amx_swapcell
 1031              		.thumb
 1032              		.thumb_func
 1033              		.type	amx_swapcell, %function
 1034              	amx_swapcell:
 1035              	.LFB9:
 1036              		.loc 1 212 0
 1037              		.cfi_startproc
 1038              		@ args = 0, pretend = 0, frame = 0
 1039              		@ frame_needed = 0, uses_anonymous_args = 0
 1040              		@ link register save eliminated.
 1041              	.LVL118:
 1042              		.loc 1 228 0
 1043 0000 0368     		ldr	r3, [r0, #0]
 1044              	.LVL119:
 1045              		.loc 1 235 0
 1046 0002 190E     		lsrs	r1, r3, #24
 1047              	.LVL120:
 1048              		.loc 1 234 0
 1049 0004 DAB2     		uxtb	r2, r3
 1050              	.LVL121:
 1051              		.loc 1 235 0
 1052 0006 61F30703 		bfi	r3, r1, #0, #8
 1053              		.loc 1 236 0
 1054 000a 62F31F63 		bfi	r3, r2, #24, #8
 1055              		.loc 1 238 0
 1056 000e C3F30741 		ubfx	r1, r3, #16, #8
 1057              		.loc 1 237 0
 1058 0012 C3F30722 		ubfx	r2, r3, #8, #8
 1059              	.LVL122:
 1060              		.loc 1 238 0
 1061 0016 61F30F23 		bfi	r3, r1, #8, #8
 1062              		.loc 1 239 0
 1063 001a 62F31743 		bfi	r3, r2, #16, #8
 1064              		.loc 1 256 0
 1065 001e 0360     		str	r3, [r0, #0]
 1066              		.loc 1 257 0
 1067 0020 7047     		bx	lr
 1068              		.cfi_endproc
 1069              	.LFE9:
 1070              		.size	amx_swapcell, .-amx_swapcell
 1071              		.section	.text.swapchars,"ax",%progbits
 1072              		.align	1
 1073              		.thumb
 1074              		.thumb_func
 1075              		.type	swapchars, %function
 1076              	swapchars:
 1077              	.LFB10:
 1078              		.loc 1 260 0
 1079              		.cfi_startproc
ARM GAS  /tmp/ccDSXDsV.s 			page 20


 1080              		@ args = 0, pretend = 0, frame = 8
 1081              		@ frame_needed = 0, uses_anonymous_args = 0
 1082              	.LVL123:
 1083 0000 07B5     		push	{r0, r1, r2, lr}
 1084              	.LCFI12:
 1085              		.cfi_def_cfa_offset 16
 1086              		.loc 1 266 0
 1087 0002 4B68     		ldr	r3, [r1, #4]
 1088 0004 02A8     		add	r0, sp, #8
 1089              		.cfi_offset 14, -4
 1090              		.cfi_offset 2, -8
 1091              		.cfi_offset 1, -12
 1092              		.cfi_offset 0, -16
 1093              	.LVL124:
 1094 0006 40F8043D 		str	r3, [r0, #-4]!
 1095              	.LVL125:
 1096              		.loc 1 267 0
 1097 000a FFF7FEFF 		bl	amx_swapcell
 1098              	.LVL126:
 1099              		.loc 1 269 0
 1100 000e 0198     		ldr	r0, [sp, #4]
 1101 0010 0EBD     		pop	{r1, r2, r3, pc}
 1102              		.cfi_endproc
 1103              	.LFE10:
 1104              		.size	swapchars, .-swapchars
 1105              		.section	.text.amx_CoreInit,"ax",%progbits
 1106              		.align	1
 1107              		.global	amx_CoreInit
 1108              		.thumb
 1109              		.thumb_func
 1110              		.type	amx_CoreInit, %function
 1111              	amx_CoreInit:
 1112              	.LFB22:
 1113              		.loc 1 488 0
 1114              		.cfi_startproc
 1115              		@ args = 0, pretend = 0, frame = 0
 1116              		@ frame_needed = 0, uses_anonymous_args = 0
 1117              		@ link register save eliminated.
 1118              	.LVL127:
 1119              		.loc 1 489 0
 1120 0000 0249     		ldr	r1, .L59
 1121 0002 4FF0FF32 		mov	r2, #-1
 1122              		.loc 1 490 0
 1123              		.loc 1 489 0
 1124 0006 FFF7FEBF 		b	amx_Register
 1125              	.LVL128:
 1126              	.L60:
 1127 000a 00BF     		.align	2
 1128              	.L59:
 1129 000c 00000000 		.word	.LANCHOR2
 1130              		.cfi_endproc
 1131              	.LFE22:
 1132              		.size	amx_CoreInit, .-amx_CoreInit
 1133              		.section	.text.amx_CoreCleanup,"ax",%progbits
 1134              		.align	1
 1135              		.global	amx_CoreCleanup
 1136              		.thumb
ARM GAS  /tmp/ccDSXDsV.s 			page 21


 1137              		.thumb_func
 1138              		.type	amx_CoreCleanup, %function
 1139              	amx_CoreCleanup:
 1140              	.LFB23:
 1141              		.loc 1 493 0
 1142              		.cfi_startproc
 1143              		@ args = 0, pretend = 0, frame = 0
 1144              		@ frame_needed = 0, uses_anonymous_args = 0
 1145              	.LVL129:
 1146 0000 08B5     		push	{r3, lr}
 1147              	.LCFI13:
 1148              		.cfi_def_cfa_offset 8
 1149              		.loc 1 496 0
 1150 0002 01E0     		b	.L62
 1151              		.cfi_offset 14, -4
 1152              		.cfi_offset 3, -8
 1153              	.LVL130:
 1154              	.L63:
 1155              		.loc 1 497 0
 1156 0004 FFF7FEFF 		bl	list_delete.clone.0
 1157              	.L62:
 1158              		.loc 1 496 0 discriminator 1
 1159 0008 0248     		ldr	r0, .L64
 1160 000a 0168     		ldr	r1, [r0, #0]
 1161 000c 0029     		cmp	r1, #0
 1162 000e F9D1     		bne	.L63
 1163              		.loc 1 500 0
 1164 0010 0846     		mov	r0, r1
 1165 0012 08BD     		pop	{r3, pc}
 1166              	.L65:
 1167              		.align	2
 1168              	.L64:
 1169 0014 00000000 		.word	.LANCHOR1
 1170              		.cfi_endproc
 1171              	.LFE23:
 1172              		.size	amx_CoreCleanup, .-amx_CoreCleanup
 1173              		.global	core_Natives
 1174              		.section	.bss.proproot,"aw",%nobits
 1175              		.align	2
 1176              		.set	.LANCHOR1,. + 0
 1177              		.type	proproot, %object
 1178              		.size	proproot, 16
 1179              	proproot:
 1180 0000 00000000 		.space	16
 1180      00000000 
 1180      00000000 
 1180      00000000 
 1181              		.section	.rodata.str1.1,"aMS",%progbits,1
 1182              	.LC0:
 1183 0000 6E756D61 		.ascii	"numargs\000"
 1183      72677300 
 1184              	.LC1:
 1185 0008 67657461 		.ascii	"getarg\000"
 1185      726700
 1186              	.LC2:
 1187 000f 73657461 		.ascii	"setarg\000"
 1187      726700
ARM GAS  /tmp/ccDSXDsV.s 			page 22


 1188              	.LC3:
 1189 0016 68656170 		.ascii	"heapspace\000"
 1189      73706163 
 1189      6500
 1190              	.LC4:
 1191 0020 66756E63 		.ascii	"funcidx\000"
 1191      69647800 
 1192              	.LC5:
 1193 0028 73776170 		.ascii	"swapchars\000"
 1193      63686172 
 1193      7300
 1194              	.LC6:
 1195 0032 746F6C6F 		.ascii	"tolower\000"
 1195      77657200 
 1196              	.LC7:
 1197 003a 746F7570 		.ascii	"toupper\000"
 1197      70657200 
 1198              	.LC8:
 1199 0042 6D696E00 		.ascii	"min\000"
 1200              	.LC9:
 1201 0046 6D617800 		.ascii	"max\000"
 1202              	.LC10:
 1203 004a 636C616D 		.ascii	"clamp\000"
 1203      7000
 1204              	.LC11:
 1205 0050 72616E64 		.ascii	"random\000"
 1205      6F6D00
 1206              	.LC12:
 1207 0057 67657470 		.ascii	"getproperty\000"
 1207      726F7065 
 1207      72747900 
 1208              	.LC13:
 1209 0063 73657470 		.ascii	"setproperty\000"
 1209      726F7065 
 1209      72747900 
 1210              	.LC14:
 1211 006f 64656C65 		.ascii	"deleteproperty\000"
 1211      74657072 
 1211      6F706572 
 1211      747900
 1212              	.LC15:
 1213 007e 65786973 		.ascii	"existproperty\000"
 1213      7470726F 
 1213      70657274 
 1213      7900
 1214              		.section	.rodata.core_Natives,"a",%progbits
 1215              		.set	.LANCHOR2,. + 0
 1216              		.type	core_Natives, %object
 1217              		.size	core_Natives, 136
 1218              	core_Natives:
 1219 0000 00000000 		.4byte	.LC0
 1220 0004 00000000 		.4byte	numargs
 1221 0008 08000000 		.4byte	.LC1
 1222 000c 00000000 		.4byte	getarg
 1223 0010 0F000000 		.4byte	.LC2
 1224 0014 00000000 		.4byte	setarg
 1225 0018 16000000 		.4byte	.LC3
ARM GAS  /tmp/ccDSXDsV.s 			page 23


 1226 001c 00000000 		.4byte	heapspace
 1227 0020 20000000 		.4byte	.LC4
 1228 0024 00000000 		.4byte	funcidx
 1229 0028 28000000 		.4byte	.LC5
 1230 002c 00000000 		.4byte	swapchars
 1231 0030 32000000 		.4byte	.LC6
 1232 0034 00000000 		.4byte	core_tolower
 1233 0038 3A000000 		.4byte	.LC7
 1234 003c 00000000 		.4byte	core_toupper
 1235 0040 42000000 		.4byte	.LC8
 1236 0044 00000000 		.4byte	core_min
 1237 0048 46000000 		.4byte	.LC9
 1238 004c 00000000 		.4byte	core_max
 1239 0050 4A000000 		.4byte	.LC10
 1240 0054 00000000 		.4byte	core_clamp
 1241 0058 50000000 		.4byte	.LC11
 1242 005c 00000000 		.4byte	core_random
 1243 0060 57000000 		.4byte	.LC12
 1244 0064 00000000 		.4byte	getproperty
 1245 0068 63000000 		.4byte	.LC13
 1246 006c 00000000 		.4byte	setproperty
 1247 0070 6F000000 		.4byte	.LC14
 1248 0074 00000000 		.4byte	delproperty
 1249 0078 7E000000 		.4byte	.LC15
 1250 007c 00000000 		.4byte	existproperty
 1251 0080 00000000 		.4byte	0
 1252 0084 00000000 		.4byte	0
 1253              		.section	.data.IL_StandardRandom_seed,"aw",%progbits
 1254              		.align	2
 1255              		.set	.LANCHOR0,. + 0
 1256              		.type	IL_StandardRandom_seed, %object
 1257              		.size	IL_StandardRandom_seed, 4
 1258              	IL_StandardRandom_seed:
 1259 0000 DB38A9CA 		.word	-894879525
 1260              		.text
 1261              	.Letext0:
 1262              		.section	.debug_loc,"",%progbits
 1263              	.Ldebug_loc0:
 1264              	.LLST0:
 1265 0000 00000000 		.4byte	.LVL0
 1266 0004 10000000 		.4byte	.LVL5
 1267 0008 0100     		.2byte	0x1
 1268 000a 50       		.byte	0x50
 1269 000b 00000000 		.4byte	0x0
 1270 000f 00000000 		.4byte	0x0
 1271              	.LLST1:
 1272 0013 04000000 		.4byte	.LVL1
 1273 0017 0C000000 		.4byte	.LVL3
 1274 001b 0100     		.2byte	0x1
 1275 001d 52       		.byte	0x52
 1276 001e 00000000 		.4byte	0x0
 1277 0022 00000000 		.4byte	0x0
 1278              	.LLST2:
 1279 0026 0A000000 		.4byte	.LVL2
 1280 002a 0E000000 		.4byte	.LVL4
 1281 002e 0100     		.2byte	0x1
 1282 0030 53       		.byte	0x53
ARM GAS  /tmp/ccDSXDsV.s 			page 24


 1283 0031 00000000 		.4byte	0x0
 1284 0035 00000000 		.4byte	0x0
 1285              	.LLST3:
 1286 0039 00000000 		.4byte	.LVL6
 1287 003d 0E000000 		.4byte	.LVL10
 1288 0041 0100     		.2byte	0x1
 1289 0043 50       		.byte	0x50
 1290 0044 00000000 		.4byte	0x0
 1291 0048 00000000 		.4byte	0x0
 1292              	.LLST4:
 1293 004c 00000000 		.4byte	.LVL6
 1294 0050 16000000 		.4byte	.LVL11
 1295 0054 0100     		.2byte	0x1
 1296 0056 51       		.byte	0x51
 1297 0057 00000000 		.4byte	0x0
 1298 005b 00000000 		.4byte	0x0
 1299              	.LLST5:
 1300 005f 04000000 		.4byte	.LVL7
 1301 0063 0C000000 		.4byte	.LVL9
 1302 0067 0100     		.2byte	0x1
 1303 0069 52       		.byte	0x52
 1304 006a 00000000 		.4byte	0x0
 1305 006e 00000000 		.4byte	0x0
 1306              	.LLST6:
 1307 0072 00000000 		.4byte	.LFB6
 1308 0076 02000000 		.4byte	.LCFI0
 1309 007a 0200     		.2byte	0x2
 1310 007c 7D       		.byte	0x7d
 1311 007d 00       		.sleb128 0
 1312 007e 02000000 		.4byte	.LCFI0
 1313 0082 3C000000 		.4byte	.LFE6
 1314 0086 0200     		.2byte	0x2
 1315 0088 7D       		.byte	0x7d
 1316 0089 08       		.sleb128 8
 1317 008a 00000000 		.4byte	0x0
 1318 008e 00000000 		.4byte	0x0
 1319              	.LLST7:
 1320 0092 00000000 		.4byte	.LVL13
 1321 0096 28000000 		.4byte	.LVL19
 1322 009a 0100     		.2byte	0x1
 1323 009c 50       		.byte	0x50
 1324 009d 34000000 		.4byte	.LVL21
 1325 00a1 36000000 		.4byte	.LVL22
 1326 00a5 0100     		.2byte	0x1
 1327 00a7 50       		.byte	0x50
 1328 00a8 00000000 		.4byte	0x0
 1329 00ac 00000000 		.4byte	0x0
 1330              	.LLST8:
 1331 00b0 00000000 		.4byte	.LVL13
 1332 00b4 2E000000 		.4byte	.LVL20
 1333 00b8 0100     		.2byte	0x1
 1334 00ba 51       		.byte	0x51
 1335 00bb 34000000 		.4byte	.LVL21
 1336 00bf 3C000000 		.4byte	.LFE6
 1337 00c3 0100     		.2byte	0x1
 1338 00c5 51       		.byte	0x51
 1339 00c6 00000000 		.4byte	0x0
ARM GAS  /tmp/ccDSXDsV.s 			page 25


 1340 00ca 00000000 		.4byte	0x0
 1341              	.LLST9:
 1342 00ce 06000000 		.4byte	.LVL14
 1343 00d2 0E000000 		.4byte	.LVL16
 1344 00d6 0100     		.2byte	0x1
 1345 00d8 52       		.byte	0x52
 1346 00d9 00000000 		.4byte	0x0
 1347 00dd 00000000 		.4byte	0x0
 1348              	.LLST10:
 1349 00e1 1A000000 		.4byte	.LVL17
 1350 00e5 1E000000 		.4byte	.LVL18
 1351 00e9 0900     		.2byte	0x9
 1352 00eb 71       		.byte	0x71
 1353 00ec 08       		.sleb128 8
 1354 00ed 06       		.byte	0x6
 1355 00ee 32       		.byte	0x32
 1356 00ef 24       		.byte	0x24
 1357 00f0 72       		.byte	0x72
 1358 00f1 00       		.sleb128 0
 1359 00f2 22       		.byte	0x22
 1360 00f3 9F       		.byte	0x9f
 1361 00f4 1E000000 		.4byte	.LVL18
 1362 00f8 3C000000 		.4byte	.LFE6
 1363 00fc 0100     		.2byte	0x1
 1364 00fe 52       		.byte	0x52
 1365 00ff 00000000 		.4byte	0x0
 1366 0103 00000000 		.4byte	0x0
 1367              	.LLST11:
 1368 0107 00000000 		.4byte	.LVL23
 1369 010b 06000000 		.4byte	.LVL24
 1370 010f 0100     		.2byte	0x1
 1371 0111 50       		.byte	0x50
 1372 0112 00000000 		.4byte	0x0
 1373 0116 00000000 		.4byte	0x0
 1374              	.LLST12:
 1375 011a 00000000 		.4byte	.LVL25
 1376 011e 02000000 		.4byte	.LVL26
 1377 0122 0100     		.2byte	0x1
 1378 0124 50       		.byte	0x50
 1379 0125 00000000 		.4byte	0x0
 1380 0129 00000000 		.4byte	0x0
 1381              	.LLST13:
 1382 012d 00000000 		.4byte	.LVL27
 1383 0131 02000000 		.4byte	.LVL28
 1384 0135 0100     		.2byte	0x1
 1385 0137 50       		.byte	0x50
 1386 0138 00000000 		.4byte	0x0
 1387 013c 00000000 		.4byte	0x0
 1388              	.LLST14:
 1389 0140 00000000 		.4byte	.LVL29
 1390 0144 02000000 		.4byte	.LVL30
 1391 0148 0100     		.2byte	0x1
 1392 014a 50       		.byte	0x50
 1393 014b 00000000 		.4byte	0x0
 1394 014f 00000000 		.4byte	0x0
 1395              	.LLST15:
 1396 0153 00000000 		.4byte	.LVL31
ARM GAS  /tmp/ccDSXDsV.s 			page 26


 1397 0157 02000000 		.4byte	.LVL32
 1398 015b 0100     		.2byte	0x1
 1399 015d 50       		.byte	0x50
 1400 015e 00000000 		.4byte	0x0
 1401 0162 00000000 		.4byte	0x0
 1402              	.LLST16:
 1403 0166 00000000 		.4byte	.LFB16
 1404 016a 02000000 		.4byte	.LCFI1
 1405 016e 0200     		.2byte	0x2
 1406 0170 7D       		.byte	0x7d
 1407 0171 00       		.sleb128 0
 1408 0172 02000000 		.4byte	.LCFI1
 1409 0176 24000000 		.4byte	.LFE16
 1410 017a 0200     		.2byte	0x2
 1411 017c 7D       		.byte	0x7d
 1412 017d 18       		.sleb128 24
 1413 017e 00000000 		.4byte	0x0
 1414 0182 00000000 		.4byte	0x0
 1415              	.LLST17:
 1416 0186 00000000 		.4byte	.LVL33
 1417 018a 09000000 		.4byte	.LVL34-1
 1418 018e 0100     		.2byte	0x1
 1419 0190 50       		.byte	0x50
 1420 0191 09000000 		.4byte	.LVL34-1
 1421 0195 24000000 		.4byte	.LFE16
 1422 0199 0100     		.2byte	0x1
 1423 019b 55       		.byte	0x55
 1424 019c 00000000 		.4byte	0x0
 1425 01a0 00000000 		.4byte	0x0
 1426              	.LLST18:
 1427 01a4 16000000 		.4byte	.LVL35
 1428 01a8 1F000000 		.4byte	.LVL36-1
 1429 01ac 0100     		.2byte	0x1
 1430 01ae 50       		.byte	0x50
 1431 01af 1F000000 		.4byte	.LVL36-1
 1432 01b3 24000000 		.4byte	.LFE16
 1433 01b7 0100     		.2byte	0x1
 1434 01b9 54       		.byte	0x54
 1435 01ba 00000000 		.4byte	0x0
 1436 01be 00000000 		.4byte	0x0
 1437              	.LLST19:
 1438 01c2 00000000 		.4byte	.LFB15
 1439 01c6 02000000 		.4byte	.LCFI2
 1440 01ca 0200     		.2byte	0x2
 1441 01cc 7D       		.byte	0x7d
 1442 01cd 00       		.sleb128 0
 1443 01ce 02000000 		.4byte	.LCFI2
 1444 01d2 24000000 		.4byte	.LFE15
 1445 01d6 0200     		.2byte	0x2
 1446 01d8 7D       		.byte	0x7d
 1447 01d9 10       		.sleb128 16
 1448 01da 00000000 		.4byte	0x0
 1449 01de 00000000 		.4byte	0x0
 1450              	.LLST20:
 1451 01e2 00000000 		.4byte	.LVL37
 1452 01e6 13000000 		.4byte	.LVL40-1
 1453 01ea 0100     		.2byte	0x1
ARM GAS  /tmp/ccDSXDsV.s 			page 27


 1454 01ec 50       		.byte	0x50
 1455 01ed 00000000 		.4byte	0x0
 1456 01f1 00000000 		.4byte	0x0
 1457              	.LLST21:
 1458 01f5 00000000 		.4byte	.LVL37
 1459 01f9 10000000 		.4byte	.LVL39
 1460 01fd 0100     		.2byte	0x1
 1461 01ff 51       		.byte	0x51
 1462 0200 10000000 		.4byte	.LVL39
 1463 0204 24000000 		.4byte	.LFE15
 1464 0208 0100     		.2byte	0x1
 1465 020a 54       		.byte	0x54
 1466 020b 00000000 		.4byte	0x0
 1467 020f 00000000 		.4byte	0x0
 1468              	.LLST22:
 1469 0213 0C000000 		.4byte	.LVL38
 1470 0217 10000000 		.4byte	.LVL39
 1471 021b 0200     		.2byte	0x2
 1472 021d 71       		.byte	0x71
 1473 021e 04       		.sleb128 4
 1474 021f 10000000 		.4byte	.LVL39
 1475 0223 13000000 		.4byte	.LVL40-1
 1476 0227 0200     		.2byte	0x2
 1477 0229 74       		.byte	0x74
 1478 022a 04       		.sleb128 4
 1479 022b 13000000 		.4byte	.LVL40-1
 1480 022f 22000000 		.4byte	.LVL41
 1481 0233 0100     		.2byte	0x1
 1482 0235 55       		.byte	0x55
 1483 0236 22000000 		.4byte	.LVL41
 1484 023a 24000000 		.4byte	.LFE15
 1485 023e 0100     		.2byte	0x1
 1486 0240 50       		.byte	0x50
 1487 0241 00000000 		.4byte	0x0
 1488 0245 00000000 		.4byte	0x0
 1489              	.LLST23:
 1490 0249 00000000 		.4byte	.LFB21
 1491 024d 02000000 		.4byte	.LCFI3
 1492 0251 0200     		.2byte	0x2
 1493 0253 7D       		.byte	0x7d
 1494 0254 00       		.sleb128 0
 1495 0255 02000000 		.4byte	.LCFI3
 1496 0259 6C000000 		.4byte	.LFE21
 1497 025d 0200     		.2byte	0x2
 1498 025f 7D       		.byte	0x7d
 1499 0260 10       		.sleb128 16
 1500 0261 00000000 		.4byte	0x0
 1501 0265 00000000 		.4byte	0x0
 1502              	.LLST24:
 1503 0269 00000000 		.4byte	.LVL42
 1504 026d 10000000 		.4byte	.LVL43
 1505 0271 0100     		.2byte	0x1
 1506 0273 50       		.byte	0x50
 1507 0274 00000000 		.4byte	0x0
 1508 0278 00000000 		.4byte	0x0
 1509              	.LLST25:
 1510 027c 00000000 		.4byte	.LVL42
ARM GAS  /tmp/ccDSXDsV.s 			page 28


 1511 0280 13000000 		.4byte	.LVL44-1
 1512 0284 0100     		.2byte	0x1
 1513 0286 51       		.byte	0x51
 1514 0287 13000000 		.4byte	.LVL44-1
 1515 028b 6C000000 		.4byte	.LFE21
 1516 028f 0100     		.2byte	0x1
 1517 0291 55       		.byte	0x55
 1518 0292 00000000 		.4byte	0x0
 1519 0296 00000000 		.4byte	0x0
 1520              	.LLST26:
 1521 029a 4C000000 		.4byte	.LVL48
 1522 029e 52000000 		.4byte	.LVL49
 1523 02a2 0100     		.2byte	0x1
 1524 02a4 50       		.byte	0x50
 1525 02a5 52000000 		.4byte	.LVL49
 1526 02a9 5C000000 		.4byte	.LVL50
 1527 02ad 0100     		.2byte	0x1
 1528 02af 50       		.byte	0x50
 1529 02b0 5C000000 		.4byte	.LVL50
 1530 02b4 6C000000 		.4byte	.LFE21
 1531 02b8 0100     		.2byte	0x1
 1532 02ba 50       		.byte	0x50
 1533 02bb 00000000 		.4byte	0x0
 1534 02bf 00000000 		.4byte	0x0
 1535              	.LLST27:
 1536 02c3 00000000 		.4byte	.LFB8
 1537 02c7 02000000 		.4byte	.LCFI4
 1538 02cb 0200     		.2byte	0x2
 1539 02cd 7D       		.byte	0x7d
 1540 02ce 00       		.sleb128 0
 1541 02cf 02000000 		.4byte	.LCFI4
 1542 02d3 04000000 		.4byte	.LCFI5
 1543 02d7 0200     		.2byte	0x2
 1544 02d9 7D       		.byte	0x7d
 1545 02da 08       		.sleb128 8
 1546 02db 04000000 		.4byte	.LCFI5
 1547 02df 2A000000 		.4byte	.LFE8
 1548 02e3 0300     		.2byte	0x3
 1549 02e5 7D       		.byte	0x7d
 1550 02e6 D000     		.sleb128 80
 1551 02e8 00000000 		.4byte	0x0
 1552 02ec 00000000 		.4byte	0x0
 1553              	.LLST28:
 1554 02f0 00000000 		.4byte	.LVL51
 1555 02f4 0C000000 		.4byte	.LVL53
 1556 02f8 0100     		.2byte	0x1
 1557 02fa 50       		.byte	0x50
 1558 02fb 0C000000 		.4byte	.LVL53
 1559 02ff 2A000000 		.4byte	.LFE8
 1560 0303 0100     		.2byte	0x1
 1561 0305 54       		.byte	0x54
 1562 0306 00000000 		.4byte	0x0
 1563 030a 00000000 		.4byte	0x0
 1564              	.LLST29:
 1565 030e 00000000 		.4byte	.LVL51
 1566 0312 08000000 		.4byte	.LVL52
 1567 0316 0100     		.2byte	0x1
ARM GAS  /tmp/ccDSXDsV.s 			page 29


 1568 0318 51       		.byte	0x51
 1569 0319 00000000 		.4byte	0x0
 1570 031d 00000000 		.4byte	0x0
 1571              	.LLST30:
 1572 0321 00000000 		.4byte	.LVL51
 1573 0325 08000000 		.4byte	.LVL52
 1574 0329 0200     		.2byte	0x2
 1575 032b 71       		.byte	0x71
 1576 032c 04       		.sleb128 4
 1577 032d 00000000 		.4byte	0x0
 1578 0331 00000000 		.4byte	0x0
 1579              	.LLST31:
 1580 0335 1C000000 		.4byte	.LVL54
 1581 0339 26000000 		.4byte	.LVL56
 1582 033d 0100     		.2byte	0x1
 1583 033f 50       		.byte	0x50
 1584 0340 00000000 		.4byte	0x0
 1585 0344 00000000 		.4byte	0x0
 1586              	.LLST32:
 1587 0348 00000000 		.4byte	.LFB24
 1588 034c 04000000 		.4byte	.LCFI6
 1589 0350 0200     		.2byte	0x2
 1590 0352 7D       		.byte	0x7d
 1591 0353 00       		.sleb128 0
 1592 0354 04000000 		.4byte	.LCFI6
 1593 0358 18000000 		.4byte	.LFE24
 1594 035c 0200     		.2byte	0x2
 1595 035e 7D       		.byte	0x7d
 1596 035f 08       		.sleb128 8
 1597 0360 00000000 		.4byte	0x0
 1598 0364 00000000 		.4byte	0x0
 1599              	.LLST33:
 1600 0368 00000000 		.4byte	.LVL57
 1601 036c 0D000000 		.4byte	.LVL58-1
 1602 0370 0100     		.2byte	0x1
 1603 0372 51       		.byte	0x51
 1604 0373 0D000000 		.4byte	.LVL58-1
 1605 0377 18000000 		.4byte	.LFE24
 1606 037b 0100     		.2byte	0x1
 1607 037d 54       		.byte	0x54
 1608 037e 00000000 		.4byte	0x0
 1609 0382 00000000 		.4byte	0x0
 1610              	.LLST34:
 1611 0386 00000000 		.4byte	.LFB26
 1612 038a 04000000 		.4byte	.LCFI7
 1613 038e 0200     		.2byte	0x2
 1614 0390 7D       		.byte	0x7d
 1615 0391 00       		.sleb128 0
 1616 0392 04000000 		.4byte	.LCFI7
 1617 0396 54000000 		.4byte	.LFE26
 1618 039a 0200     		.2byte	0x2
 1619 039c 7D       		.byte	0x7d
 1620 039d 18       		.sleb128 24
 1621 039e 00000000 		.4byte	0x0
 1622 03a2 00000000 		.4byte	0x0
 1623              	.LLST35:
 1624 03a6 00000000 		.4byte	.LVL59
ARM GAS  /tmp/ccDSXDsV.s 			page 30


 1625 03aa 14000000 		.4byte	.LVL62
 1626 03ae 0100     		.2byte	0x1
 1627 03b0 50       		.byte	0x50
 1628 03b1 14000000 		.4byte	.LVL62
 1629 03b5 54000000 		.4byte	.LFE26
 1630 03b9 0100     		.2byte	0x1
 1631 03bb 54       		.byte	0x54
 1632 03bc 00000000 		.4byte	0x0
 1633 03c0 00000000 		.4byte	0x0
 1634              	.LLST36:
 1635 03c4 00000000 		.4byte	.LVL59
 1636 03c8 14000000 		.4byte	.LVL62
 1637 03cc 0100     		.2byte	0x1
 1638 03ce 51       		.byte	0x51
 1639 03cf 14000000 		.4byte	.LVL62
 1640 03d3 54000000 		.4byte	.LFE26
 1641 03d7 0100     		.2byte	0x1
 1642 03d9 55       		.byte	0x55
 1643 03da 00000000 		.4byte	0x0
 1644 03de 00000000 		.4byte	0x0
 1645              	.LLST37:
 1646 03e2 00000000 		.4byte	.LVL59
 1647 03e6 14000000 		.4byte	.LVL62
 1648 03ea 0100     		.2byte	0x1
 1649 03ec 52       		.byte	0x52
 1650 03ed 2E000000 		.4byte	.LVL64
 1651 03f1 40000000 		.4byte	.LVL66
 1652 03f5 0100     		.2byte	0x1
 1653 03f7 52       		.byte	0x52
 1654 03f8 00000000 		.4byte	0x0
 1655 03fc 00000000 		.4byte	0x0
 1656              	.LLST38:
 1657 0400 00000000 		.4byte	.LVL59
 1658 0404 0A000000 		.4byte	.LVL60
 1659 0408 0100     		.2byte	0x1
 1660 040a 53       		.byte	0x53
 1661 040b 0A000000 		.4byte	.LVL60
 1662 040f 54000000 		.4byte	.LFE26
 1663 0413 0100     		.2byte	0x1
 1664 0415 58       		.byte	0x58
 1665 0416 00000000 		.4byte	0x0
 1666 041a 00000000 		.4byte	0x0
 1667              	.LLST39:
 1668 041e 10000000 		.4byte	.LVL61
 1669 0422 14000000 		.4byte	.LVL62
 1670 0426 0500     		.2byte	0x5
 1671 0428 03       		.byte	0x3
 1672 0429 00000000 		.4byte	proproot
 1673 042d 14000000 		.4byte	.LVL62
 1674 0431 18000000 		.4byte	.LVL63
 1675 0435 0200     		.2byte	0x2
 1676 0437 76       		.byte	0x76
 1677 0438 00       		.sleb128 0
 1678 0439 18000000 		.4byte	.LVL63
 1679 043d 2E000000 		.4byte	.LVL64
 1680 0441 0100     		.2byte	0x1
 1681 0443 56       		.byte	0x56
ARM GAS  /tmp/ccDSXDsV.s 			page 31


 1682 0444 2E000000 		.4byte	.LVL64
 1683 0448 32000000 		.4byte	.LVL65
 1684 044c 0200     		.2byte	0x2
 1685 044e 76       		.byte	0x76
 1686 044f 00       		.sleb128 0
 1687 0450 32000000 		.4byte	.LVL65
 1688 0454 54000000 		.4byte	.LFE26
 1689 0458 0100     		.2byte	0x1
 1690 045a 56       		.byte	0x56
 1691 045b 00000000 		.4byte	0x0
 1692 045f 00000000 		.4byte	0x0
 1693              	.LLST40:
 1694 0463 10000000 		.4byte	.LVL61
 1695 0467 14000000 		.4byte	.LVL62
 1696 046b 0600     		.2byte	0x6
 1697 046d 03       		.byte	0x3
 1698 046e 00000000 		.4byte	proproot
 1699 0472 9F       		.byte	0x9f
 1700 0473 14000000 		.4byte	.LVL62
 1701 0477 18000000 		.4byte	.LVL63
 1702 047b 0100     		.2byte	0x1
 1703 047d 56       		.byte	0x56
 1704 047e 18000000 		.4byte	.LVL63
 1705 0482 2E000000 		.4byte	.LVL64
 1706 0486 0100     		.2byte	0x1
 1707 0488 57       		.byte	0x57
 1708 0489 2E000000 		.4byte	.LVL64
 1709 048d 32000000 		.4byte	.LVL65
 1710 0491 0100     		.2byte	0x1
 1711 0493 56       		.byte	0x56
 1712 0494 32000000 		.4byte	.LVL65
 1713 0498 54000000 		.4byte	.LFE26
 1714 049c 0100     		.2byte	0x1
 1715 049e 57       		.byte	0x57
 1716 049f 00000000 		.4byte	0x0
 1717 04a3 00000000 		.4byte	0x0
 1718              	.LLST41:
 1719 04a7 00000000 		.4byte	.LFB17
 1720 04ab 02000000 		.4byte	.LCFI8
 1721 04af 0200     		.2byte	0x2
 1722 04b1 7D       		.byte	0x7d
 1723 04b2 00       		.sleb128 0
 1724 04b3 02000000 		.4byte	.LCFI8
 1725 04b7 46000000 		.4byte	.LFE17
 1726 04bb 0200     		.2byte	0x2
 1727 04bd 7D       		.byte	0x7d
 1728 04be 18       		.sleb128 24
 1729 04bf 00000000 		.4byte	0x0
 1730 04c3 00000000 		.4byte	0x0
 1731              	.LLST42:
 1732 04c7 00000000 		.4byte	.LVL67
 1733 04cb 04000000 		.4byte	.LVL68
 1734 04cf 0100     		.2byte	0x1
 1735 04d1 50       		.byte	0x50
 1736 04d2 00000000 		.4byte	0x0
 1737 04d6 00000000 		.4byte	0x0
 1738              	.LLST43:
ARM GAS  /tmp/ccDSXDsV.s 			page 32


 1739 04da 00000000 		.4byte	.LVL67
 1740 04de 09000000 		.4byte	.LVL69-1
 1741 04e2 0100     		.2byte	0x1
 1742 04e4 51       		.byte	0x51
 1743 04e5 09000000 		.4byte	.LVL69-1
 1744 04e9 46000000 		.4byte	.LFE17
 1745 04ed 0100     		.2byte	0x1
 1746 04ef 55       		.byte	0x55
 1747 04f0 00000000 		.4byte	0x0
 1748 04f4 00000000 		.4byte	0x0
 1749              	.LLST44:
 1750 04f8 00000000 		.4byte	.LVL67
 1751 04fc 09000000 		.4byte	.LVL69-1
 1752 0500 0200     		.2byte	0x2
 1753 0502 71       		.byte	0x71
 1754 0503 08       		.sleb128 8
 1755 0504 28000000 		.4byte	.LVL73
 1756 0508 35000000 		.4byte	.LVL75-1
 1757 050c 0200     		.2byte	0x2
 1758 050e 75       		.byte	0x75
 1759 050f 10       		.sleb128 16
 1760 0510 00000000 		.4byte	0x0
 1761 0514 00000000 		.4byte	0x0
 1762              	.LLST45:
 1763 0518 0C000000 		.4byte	.LVL70
 1764 051c 10000000 		.4byte	.LVL71
 1765 0520 0100     		.2byte	0x1
 1766 0522 50       		.byte	0x50
 1767 0523 10000000 		.4byte	.LVL71
 1768 0527 17000000 		.4byte	.LVL72-1
 1769 052b 0100     		.2byte	0x1
 1770 052d 51       		.byte	0x51
 1771 052e 17000000 		.4byte	.LVL72-1
 1772 0532 46000000 		.4byte	.LFE17
 1773 0536 0100     		.2byte	0x1
 1774 0538 56       		.byte	0x56
 1775 0539 00000000 		.4byte	0x0
 1776 053d 00000000 		.4byte	0x0
 1777              	.LLST46:
 1778 0541 18000000 		.4byte	.LVL72
 1779 0545 2C000000 		.4byte	.LVL74
 1780 0549 0100     		.2byte	0x1
 1781 054b 50       		.byte	0x50
 1782 054c 2C000000 		.4byte	.LVL74
 1783 0550 46000000 		.4byte	.LFE17
 1784 0554 0100     		.2byte	0x1
 1785 0556 54       		.byte	0x54
 1786 0557 00000000 		.4byte	0x0
 1787 055b 00000000 		.4byte	0x0
 1788              	.LLST47:
 1789 055f 00000000 		.4byte	.LFB18
 1790 0563 04000000 		.4byte	.LCFI9
 1791 0567 0200     		.2byte	0x2
 1792 0569 7D       		.byte	0x7d
 1793 056a 00       		.sleb128 0
 1794 056b 04000000 		.4byte	.LCFI9
 1795 056f A0000000 		.4byte	.LFE18
ARM GAS  /tmp/ccDSXDsV.s 			page 33


 1796 0573 0200     		.2byte	0x2
 1797 0575 7D       		.byte	0x7d
 1798 0576 20       		.sleb128 32
 1799 0577 00000000 		.4byte	0x0
 1800 057b 00000000 		.4byte	0x0
 1801              	.LLST48:
 1802 057f 00000000 		.4byte	.LVL76
 1803 0583 08000000 		.4byte	.LVL77
 1804 0587 0100     		.2byte	0x1
 1805 0589 50       		.byte	0x50
 1806 058a 08000000 		.4byte	.LVL77
 1807 058e 46000000 		.4byte	.LVL87
 1808 0592 0100     		.2byte	0x1
 1809 0594 56       		.byte	0x56
 1810 0595 48000000 		.4byte	.LVL88
 1811 0599 4C000000 		.4byte	.LVL89
 1812 059d 0100     		.2byte	0x1
 1813 059f 56       		.byte	0x56
 1814 05a0 00000000 		.4byte	0x0
 1815 05a4 00000000 		.4byte	0x0
 1816              	.LLST49:
 1817 05a8 00000000 		.4byte	.LVL76
 1818 05ac 0D000000 		.4byte	.LVL78-1
 1819 05b0 0100     		.2byte	0x1
 1820 05b2 51       		.byte	0x51
 1821 05b3 0D000000 		.4byte	.LVL78-1
 1822 05b7 72000000 		.4byte	.LVL96
 1823 05bb 0100     		.2byte	0x1
 1824 05bd 55       		.byte	0x55
 1825 05be 00000000 		.4byte	0x0
 1826 05c2 00000000 		.4byte	0x0
 1827              	.LLST50:
 1828 05c6 00000000 		.4byte	.LVL76
 1829 05ca 4C000000 		.4byte	.LVL89
 1830 05ce 0200     		.2byte	0x2
 1831 05d0 30       		.byte	0x30
 1832 05d1 9F       		.byte	0x9f
 1833 05d2 4C000000 		.4byte	.LVL89
 1834 05d6 50000000 		.4byte	.LVL90
 1835 05da 0200     		.2byte	0x2
 1836 05dc 70       		.byte	0x70
 1837 05dd 0C       		.sleb128 12
 1838 05de 50000000 		.4byte	.LVL90
 1839 05e2 53000000 		.4byte	.LVL91-1
 1840 05e6 0200     		.2byte	0x2
 1841 05e8 77       		.byte	0x77
 1842 05e9 0C       		.sleb128 12
 1843 05ea 53000000 		.4byte	.LVL91-1
 1844 05ee 8E000000 		.4byte	.LVL98
 1845 05f2 0100     		.2byte	0x1
 1846 05f4 56       		.byte	0x56
 1847 05f5 8E000000 		.4byte	.LVL98
 1848 05f9 A0000000 		.4byte	.LFE18
 1849 05fd 0100     		.2byte	0x1
 1850 05ff 56       		.byte	0x56
 1851 0600 00000000 		.4byte	0x0
 1852 0604 00000000 		.4byte	0x0
ARM GAS  /tmp/ccDSXDsV.s 			page 34


 1853              	.LLST51:
 1854 0608 00000000 		.4byte	.LVL76
 1855 060c 0D000000 		.4byte	.LVL78-1
 1856 0610 0200     		.2byte	0x2
 1857 0612 71       		.byte	0x71
 1858 0613 08       		.sleb128 8
 1859 0614 54000000 		.4byte	.LVL91
 1860 0618 59000000 		.4byte	.LVL92-1
 1861 061c 0200     		.2byte	0x2
 1862 061e 75       		.byte	0x75
 1863 061f 10       		.sleb128 16
 1864 0620 00000000 		.4byte	0x0
 1865 0624 00000000 		.4byte	0x0
 1866              	.LLST52:
 1867 0628 10000000 		.4byte	.LVL79
 1868 062c 14000000 		.4byte	.LVL80
 1869 0630 0100     		.2byte	0x1
 1870 0632 50       		.byte	0x50
 1871 0633 14000000 		.4byte	.LVL80
 1872 0637 1B000000 		.4byte	.LVL81-1
 1873 063b 0100     		.2byte	0x1
 1874 063d 51       		.byte	0x51
 1875 063e 1B000000 		.4byte	.LVL81-1
 1876 0642 5C000000 		.4byte	.LVL93
 1877 0646 0100     		.2byte	0x1
 1878 0648 54       		.byte	0x54
 1879 0649 5C000000 		.4byte	.LVL93
 1880 064d A0000000 		.4byte	.LFE18
 1881 0651 0100     		.2byte	0x1
 1882 0653 54       		.byte	0x54
 1883 0654 00000000 		.4byte	0x0
 1884 0658 00000000 		.4byte	0x0
 1885              	.LLST53:
 1886 065c 1C000000 		.4byte	.LVL81
 1887 0660 22000000 		.4byte	.LVL82
 1888 0664 0100     		.2byte	0x1
 1889 0666 50       		.byte	0x50
 1890 0667 22000000 		.4byte	.LVL82
 1891 066b 28000000 		.4byte	.LVL83
 1892 066f 0100     		.2byte	0x1
 1893 0671 57       		.byte	0x57
 1894 0672 38000000 		.4byte	.LVL84
 1895 0676 3C000000 		.4byte	.LVL85
 1896 067a 0100     		.2byte	0x1
 1897 067c 50       		.byte	0x50
 1898 067d 3C000000 		.4byte	.LVL85
 1899 0681 48000000 		.4byte	.LVL88
 1900 0685 0200     		.2byte	0x2
 1901 0687 30       		.byte	0x30
 1902 0688 9F       		.byte	0x9f
 1903 0689 48000000 		.4byte	.LVL88
 1904 068d 50000000 		.4byte	.LVL90
 1905 0691 0100     		.2byte	0x1
 1906 0693 50       		.byte	0x50
 1907 0694 50000000 		.4byte	.LVL90
 1908 0698 8E000000 		.4byte	.LVL98
 1909 069c 0100     		.2byte	0x1
ARM GAS  /tmp/ccDSXDsV.s 			page 35


 1910 069e 57       		.byte	0x57
 1911 069f 00000000 		.4byte	0x0
 1912 06a3 00000000 		.4byte	0x0
 1913              	.LLST54:
 1914 06a7 28000000 		.4byte	.LVL83
 1915 06ab 3E000000 		.4byte	.LVL86
 1916 06af 0100     		.2byte	0x1
 1917 06b1 50       		.byte	0x50
 1918 06b2 3E000000 		.4byte	.LVL86
 1919 06b6 48000000 		.4byte	.LVL88
 1920 06ba 0100     		.2byte	0x1
 1921 06bc 57       		.byte	0x57
 1922 06bd 00000000 		.4byte	0x0
 1923 06c1 00000000 		.4byte	0x0
 1924              	.LLST55:
 1925 06c5 6C000000 		.4byte	.LVL94
 1926 06c9 6F000000 		.4byte	.LVL95-1
 1927 06cd 0200     		.2byte	0x2
 1928 06cf 75       		.byte	0x75
 1929 06d0 0C       		.sleb128 12
 1930 06d1 6F000000 		.4byte	.LVL95-1
 1931 06d5 8E000000 		.4byte	.LVL98
 1932 06d9 0100     		.2byte	0x1
 1933 06db 58       		.byte	0x58
 1934 06dc 00000000 		.4byte	0x0
 1935 06e0 00000000 		.4byte	0x0
 1936              	.LLST56:
 1937 06e4 6C000000 		.4byte	.LVL94
 1938 06e8 8E000000 		.4byte	.LVL98
 1939 06ec 0100     		.2byte	0x1
 1940 06ee 54       		.byte	0x54
 1941 06ef 00000000 		.4byte	0x0
 1942 06f3 00000000 		.4byte	0x0
 1943              	.LLST57:
 1944 06f7 6C000000 		.4byte	.LVL94
 1945 06fb 6F000000 		.4byte	.LVL95-1
 1946 06ff 0200     		.2byte	0x2
 1947 0701 75       		.byte	0x75
 1948 0702 04       		.sleb128 4
 1949 0703 6F000000 		.4byte	.LVL95-1
 1950 0707 8E000000 		.4byte	.LVL98
 1951 070b 0100     		.2byte	0x1
 1952 070d 59       		.byte	0x59
 1953 070e 00000000 		.4byte	0x0
 1954 0712 00000000 		.4byte	0x0
 1955              	.LLST58:
 1956 0716 6C000000 		.4byte	.LVL94
 1957 071a 8E000000 		.4byte	.LVL98
 1958 071e 0100     		.2byte	0x1
 1959 0720 57       		.byte	0x57
 1960 0721 00000000 		.4byte	0x0
 1961 0725 00000000 		.4byte	0x0
 1962              	.LLST59:
 1963 0729 70000000 		.4byte	.LVL95
 1964 072d 76000000 		.4byte	.LVL97
 1965 0731 0100     		.2byte	0x1
 1966 0733 50       		.byte	0x50
ARM GAS  /tmp/ccDSXDsV.s 			page 36


 1967 0734 76000000 		.4byte	.LVL97
 1968 0738 8E000000 		.4byte	.LVL98
 1969 073c 0100     		.2byte	0x1
 1970 073e 55       		.byte	0x55
 1971 073f 00000000 		.4byte	0x0
 1972 0743 00000000 		.4byte	0x0
 1973              	.LLST60:
 1974 0747 00000000 		.4byte	.LFB19
 1975 074b 02000000 		.4byte	.LCFI10
 1976 074f 0200     		.2byte	0x2
 1977 0751 7D       		.byte	0x7d
 1978 0752 00       		.sleb128 0
 1979 0753 02000000 		.4byte	.LCFI10
 1980 0757 32000000 		.4byte	.LFE19
 1981 075b 0200     		.2byte	0x2
 1982 075d 7D       		.byte	0x7d
 1983 075e 18       		.sleb128 24
 1984 075f 00000000 		.4byte	0x0
 1985 0763 00000000 		.4byte	0x0
 1986              	.LLST61:
 1987 0767 00000000 		.4byte	.LVL99
 1988 076b 04000000 		.4byte	.LVL100
 1989 076f 0100     		.2byte	0x1
 1990 0771 50       		.byte	0x50
 1991 0772 00000000 		.4byte	0x0
 1992 0776 00000000 		.4byte	0x0
 1993              	.LLST62:
 1994 077a 00000000 		.4byte	.LVL99
 1995 077e 09000000 		.4byte	.LVL101-1
 1996 0782 0100     		.2byte	0x1
 1997 0784 51       		.byte	0x51
 1998 0785 09000000 		.4byte	.LVL101-1
 1999 0789 1E000000 		.4byte	.LVL105
 2000 078d 0100     		.2byte	0x1
 2001 078f 55       		.byte	0x55
 2002 0790 26000000 		.4byte	.LVL108
 2003 0794 28000000 		.4byte	.LVL109
 2004 0798 0100     		.2byte	0x1
 2005 079a 55       		.byte	0x55
 2006 079b 00000000 		.4byte	0x0
 2007 079f 00000000 		.4byte	0x0
 2008              	.LLST63:
 2009 07a3 00000000 		.4byte	.LVL99
 2010 07a7 1E000000 		.4byte	.LVL105
 2011 07ab 0200     		.2byte	0x2
 2012 07ad 30       		.byte	0x30
 2013 07ae 9F       		.byte	0x9f
 2014 07af 1E000000 		.4byte	.LVL105
 2015 07b3 20000000 		.4byte	.LVL106
 2016 07b7 0200     		.2byte	0x2
 2017 07b9 70       		.byte	0x70
 2018 07ba 0C       		.sleb128 12
 2019 07bb 20000000 		.4byte	.LVL106
 2020 07bf 23000000 		.4byte	.LVL107-1
 2021 07c3 0200     		.2byte	0x2
 2022 07c5 71       		.byte	0x71
 2023 07c6 0C       		.sleb128 12
ARM GAS  /tmp/ccDSXDsV.s 			page 37


 2024 07c7 23000000 		.4byte	.LVL107-1
 2025 07cb 26000000 		.4byte	.LVL108
 2026 07cf 0100     		.2byte	0x1
 2027 07d1 55       		.byte	0x55
 2028 07d2 26000000 		.4byte	.LVL108
 2029 07d6 28000000 		.4byte	.LVL109
 2030 07da 0200     		.2byte	0x2
 2031 07dc 30       		.byte	0x30
 2032 07dd 9F       		.byte	0x9f
 2033 07de 28000000 		.4byte	.LVL109
 2034 07e2 32000000 		.4byte	.LFE19
 2035 07e6 0100     		.2byte	0x1
 2036 07e8 55       		.byte	0x55
 2037 07e9 00000000 		.4byte	0x0
 2038 07ed 00000000 		.4byte	0x0
 2039              	.LLST64:
 2040 07f1 00000000 		.4byte	.LVL99
 2041 07f5 09000000 		.4byte	.LVL101-1
 2042 07f9 0200     		.2byte	0x2
 2043 07fb 71       		.byte	0x71
 2044 07fc 08       		.sleb128 8
 2045 07fd 00000000 		.4byte	0x0
 2046 0801 00000000 		.4byte	0x0
 2047              	.LLST65:
 2048 0805 0C000000 		.4byte	.LVL102
 2049 0809 10000000 		.4byte	.LVL103
 2050 080d 0100     		.2byte	0x1
 2051 080f 50       		.byte	0x50
 2052 0810 10000000 		.4byte	.LVL103
 2053 0814 17000000 		.4byte	.LVL104-1
 2054 0818 0100     		.2byte	0x1
 2055 081a 51       		.byte	0x51
 2056 081b 17000000 		.4byte	.LVL104-1
 2057 081f 32000000 		.4byte	.LFE19
 2058 0823 0100     		.2byte	0x1
 2059 0825 54       		.byte	0x54
 2060 0826 00000000 		.4byte	0x0
 2061 082a 00000000 		.4byte	0x0
 2062              	.LLST66:
 2063 082e 18000000 		.4byte	.LVL104
 2064 0832 20000000 		.4byte	.LVL106
 2065 0836 0100     		.2byte	0x1
 2066 0838 50       		.byte	0x50
 2067 0839 20000000 		.4byte	.LVL106
 2068 083d 23000000 		.4byte	.LVL107-1
 2069 0841 0100     		.2byte	0x1
 2070 0843 51       		.byte	0x51
 2071 0844 26000000 		.4byte	.LVL108
 2072 0848 28000000 		.4byte	.LVL109
 2073 084c 0100     		.2byte	0x1
 2074 084e 50       		.byte	0x50
 2075 084f 00000000 		.4byte	0x0
 2076 0853 00000000 		.4byte	0x0
 2077              	.LLST67:
 2078 0857 1E000000 		.4byte	.LVL105
 2079 085b 26000000 		.4byte	.LVL108
 2080 085f 0200     		.2byte	0x2
ARM GAS  /tmp/ccDSXDsV.s 			page 38


 2081 0861 91       		.byte	0x91
 2082 0862 6C       		.sleb128 -20
 2083 0863 28000000 		.4byte	.LVL109
 2084 0867 32000000 		.4byte	.LFE19
 2085 086b 0200     		.2byte	0x2
 2086 086d 91       		.byte	0x91
 2087 086e 6C       		.sleb128 -20
 2088 086f 00000000 		.4byte	0x0
 2089 0873 00000000 		.4byte	0x0
 2090              	.LLST68:
 2091 0877 00000000 		.4byte	.LFB20
 2092 087b 02000000 		.4byte	.LCFI11
 2093 087f 0200     		.2byte	0x2
 2094 0881 7D       		.byte	0x7d
 2095 0882 00       		.sleb128 0
 2096 0883 02000000 		.4byte	.LCFI11
 2097 0887 28000000 		.4byte	.LFE20
 2098 088b 0200     		.2byte	0x2
 2099 088d 7D       		.byte	0x7d
 2100 088e 10       		.sleb128 16
 2101 088f 00000000 		.4byte	0x0
 2102 0893 00000000 		.4byte	0x0
 2103              	.LLST69:
 2104 0897 00000000 		.4byte	.LVL110
 2105 089b 04000000 		.4byte	.LVL111
 2106 089f 0100     		.2byte	0x1
 2107 08a1 50       		.byte	0x50
 2108 08a2 00000000 		.4byte	0x0
 2109 08a6 00000000 		.4byte	0x0
 2110              	.LLST70:
 2111 08aa 00000000 		.4byte	.LVL110
 2112 08ae 09000000 		.4byte	.LVL112-1
 2113 08b2 0100     		.2byte	0x1
 2114 08b4 51       		.byte	0x51
 2115 08b5 09000000 		.4byte	.LVL112-1
 2116 08b9 1A000000 		.4byte	.LVL116
 2117 08bd 0100     		.2byte	0x1
 2118 08bf 55       		.byte	0x55
 2119 08c0 00000000 		.4byte	0x0
 2120 08c4 00000000 		.4byte	0x0
 2121              	.LLST71:
 2122 08c8 00000000 		.4byte	.LVL110
 2123 08cc 09000000 		.4byte	.LVL112-1
 2124 08d0 0200     		.2byte	0x2
 2125 08d2 71       		.byte	0x71
 2126 08d3 08       		.sleb128 8
 2127 08d4 00000000 		.4byte	0x0
 2128 08d8 00000000 		.4byte	0x0
 2129              	.LLST72:
 2130 08dc 0C000000 		.4byte	.LVL113
 2131 08e0 14000000 		.4byte	.LVL114
 2132 08e4 0100     		.2byte	0x1
 2133 08e6 50       		.byte	0x50
 2134 08e7 14000000 		.4byte	.LVL114
 2135 08eb 17000000 		.4byte	.LVL115-1
 2136 08ef 0100     		.2byte	0x1
 2137 08f1 51       		.byte	0x51
ARM GAS  /tmp/ccDSXDsV.s 			page 39


 2138 08f2 17000000 		.4byte	.LVL115-1
 2139 08f6 28000000 		.4byte	.LFE20
 2140 08fa 0100     		.2byte	0x1
 2141 08fc 54       		.byte	0x54
 2142 08fd 00000000 		.4byte	0x0
 2143 0901 00000000 		.4byte	0x0
 2144              	.LLST73:
 2145 0905 1A000000 		.4byte	.LVL116
 2146 0909 1C000000 		.4byte	.LVL117
 2147 090d 0100     		.2byte	0x1
 2148 090f 50       		.byte	0x50
 2149 0910 1C000000 		.4byte	.LVL117
 2150 0914 28000000 		.4byte	.LFE20
 2151 0918 0100     		.2byte	0x1
 2152 091a 55       		.byte	0x55
 2153 091b 00000000 		.4byte	0x0
 2154 091f 00000000 		.4byte	0x0
 2155              	.LLST74:
 2156 0923 04000000 		.4byte	.LVL120
 2157 0927 22000000 		.4byte	.LFE9
 2158 092b 0100     		.2byte	0x1
 2159 092d 53       		.byte	0x53
 2160 092e 00000000 		.4byte	0x0
 2161 0932 00000000 		.4byte	0x0
 2162              	.LLST75:
 2163 0936 06000000 		.4byte	.LVL121
 2164 093a 16000000 		.4byte	.LVL122
 2165 093e 0100     		.2byte	0x1
 2166 0940 52       		.byte	0x52
 2167 0941 00000000 		.4byte	0x0
 2168 0945 00000000 		.4byte	0x0
 2169              	.LLST76:
 2170 0949 00000000 		.4byte	.LFB10
 2171 094d 02000000 		.4byte	.LCFI12
 2172 0951 0200     		.2byte	0x2
 2173 0953 7D       		.byte	0x7d
 2174 0954 00       		.sleb128 0
 2175 0955 02000000 		.4byte	.LCFI12
 2176 0959 12000000 		.4byte	.LFE10
 2177 095d 0200     		.2byte	0x2
 2178 095f 7D       		.byte	0x7d
 2179 0960 10       		.sleb128 16
 2180 0961 00000000 		.4byte	0x0
 2181 0965 00000000 		.4byte	0x0
 2182              	.LLST77:
 2183 0969 00000000 		.4byte	.LVL123
 2184 096d 06000000 		.4byte	.LVL124
 2185 0971 0100     		.2byte	0x1
 2186 0973 50       		.byte	0x50
 2187 0974 00000000 		.4byte	0x0
 2188 0978 00000000 		.4byte	0x0
 2189              	.LLST78:
 2190 097c 00000000 		.4byte	.LVL123
 2191 0980 0D000000 		.4byte	.LVL126-1
 2192 0984 0100     		.2byte	0x1
 2193 0986 51       		.byte	0x51
 2194 0987 00000000 		.4byte	0x0
ARM GAS  /tmp/ccDSXDsV.s 			page 40


 2195 098b 00000000 		.4byte	0x0
 2196              	.LLST79:
 2197 098f 00000000 		.4byte	.LVL127
 2198 0993 09000000 		.4byte	.LVL128-1
 2199 0997 0100     		.2byte	0x1
 2200 0999 50       		.byte	0x50
 2201 099a 00000000 		.4byte	0x0
 2202 099e 00000000 		.4byte	0x0
 2203              	.LLST80:
 2204 09a2 00000000 		.4byte	.LFB23
 2205 09a6 02000000 		.4byte	.LCFI13
 2206 09aa 0200     		.2byte	0x2
 2207 09ac 7D       		.byte	0x7d
 2208 09ad 00       		.sleb128 0
 2209 09ae 02000000 		.4byte	.LCFI13
 2210 09b2 18000000 		.4byte	.LFE23
 2211 09b6 0200     		.2byte	0x2
 2212 09b8 7D       		.byte	0x7d
 2213 09b9 08       		.sleb128 8
 2214 09ba 00000000 		.4byte	0x0
 2215 09be 00000000 		.4byte	0x0
 2216              	.LLST81:
 2217 09c2 00000000 		.4byte	.LVL129
 2218 09c6 04000000 		.4byte	.LVL130
 2219 09ca 0100     		.2byte	0x1
 2220 09cc 50       		.byte	0x50
 2221 09cd 00000000 		.4byte	0x0
 2222 09d1 00000000 		.4byte	0x0
 2223              		.file 2 "/home/z80/programs/code-sourcery/2011.03-42/bin/../lib/gcc/arm-none-eabi/4.5.2/../../../.
 2224              		.file 3 "pawn/amx.h"
 2225              		.section	.debug_info
 2226 0000 E60E0000 		.4byte	0xee6
 2227 0004 0200     		.2byte	0x2
 2228 0006 00000000 		.4byte	.Ldebug_abbrev0
 2229 000a 04       		.byte	0x4
 2230 000b 01       		.uleb128 0x1
 2231 000c 86020000 		.4byte	.LASF122
 2232 0010 01       		.byte	0x1
 2233 0011 F4030000 		.4byte	.LASF123
 2234 0015 29030000 		.4byte	.LASF124
 2235 0019 00000000 		.4byte	0x0
 2236 001d 00000000 		.4byte	0x0
 2237 0021 30000000 		.4byte	.Ldebug_ranges0+0x30
 2238 0025 00000000 		.4byte	.Ldebug_line0
 2239 0029 02       		.uleb128 0x2
 2240 002a 04       		.byte	0x4
 2241 002b 07       		.byte	0x7
 2242 002c 91000000 		.4byte	.LASF0
 2243 0030 02       		.uleb128 0x2
 2244 0031 01       		.byte	0x1
 2245 0032 06       		.byte	0x6
 2246 0033 08050000 		.4byte	.LASF1
 2247 0037 02       		.uleb128 0x2
 2248 0038 01       		.byte	0x1
 2249 0039 08       		.byte	0x8
 2250 003a A2040000 		.4byte	.LASF2
 2251 003e 02       		.uleb128 0x2
ARM GAS  /tmp/ccDSXDsV.s 			page 41


 2252 003f 02       		.byte	0x2
 2253 0040 05       		.byte	0x5
 2254 0041 B1030000 		.4byte	.LASF3
 2255 0045 02       		.uleb128 0x2
 2256 0046 02       		.byte	0x2
 2257 0047 07       		.byte	0x7
 2258 0048 14050000 		.4byte	.LASF4
 2259 004c 03       		.uleb128 0x3
 2260 004d 04       		.byte	0x4
 2261 004e 05       		.byte	0x5
 2262 004f 696E7400 		.ascii	"int\000"
 2263 0053 02       		.uleb128 0x2
 2264 0054 08       		.byte	0x8
 2265 0055 05       		.byte	0x5
 2266 0056 FD020000 		.4byte	.LASF5
 2267 005a 02       		.uleb128 0x2
 2268 005b 08       		.byte	0x8
 2269 005c 07       		.byte	0x7
 2270 005d 92010000 		.4byte	.LASF6
 2271 0061 02       		.uleb128 0x2
 2272 0062 04       		.byte	0x4
 2273 0063 05       		.byte	0x5
 2274 0064 C5030000 		.4byte	.LASF7
 2275 0068 04       		.uleb128 0x4
 2276 0069 04       		.byte	0x4
 2277 006a 02       		.uleb128 0x2
 2278 006b 04       		.byte	0x4
 2279 006c 07       		.byte	0x7
 2280 006d 3C040000 		.4byte	.LASF8
 2281 0071 05       		.uleb128 0x5
 2282 0072 04       		.byte	0x4
 2283 0073 37000000 		.4byte	0x37
 2284 0077 05       		.uleb128 0x5
 2285 0078 04       		.byte	0x4
 2286 0079 7D000000 		.4byte	0x7d
 2287 007d 02       		.uleb128 0x2
 2288 007e 01       		.byte	0x1
 2289 007f 08       		.byte	0x8
 2290 0080 6B020000 		.4byte	.LASF9
 2291 0084 05       		.uleb128 0x5
 2292 0085 04       		.byte	0x4
 2293 0086 8A000000 		.4byte	0x8a
 2294 008a 06       		.uleb128 0x6
 2295 008b 7D000000 		.4byte	0x7d
 2296 008f 07       		.uleb128 0x7
 2297 0090 83010000 		.4byte	.LASF10
 2298 0094 02       		.byte	0x2
 2299 0095 35       		.byte	0x35
 2300 0096 3E000000 		.4byte	0x3e
 2301 009a 07       		.uleb128 0x7
 2302 009b 85030000 		.4byte	.LASF11
 2303 009f 02       		.byte	0x2
 2304 00a0 36       		.byte	0x36
 2305 00a1 45000000 		.4byte	0x45
 2306 00a5 07       		.uleb128 0x7
 2307 00a6 67040000 		.4byte	.LASF12
 2308 00aa 02       		.byte	0x2
ARM GAS  /tmp/ccDSXDsV.s 			page 42


 2309 00ab 4F       		.byte	0x4f
 2310 00ac 61000000 		.4byte	0x61
 2311 00b0 07       		.uleb128 0x7
 2312 00b1 5E050000 		.4byte	.LASF13
 2313 00b5 03       		.byte	0x3
 2314 00b6 B9       		.byte	0xb9
 2315 00b7 A5000000 		.4byte	0xa5
 2316 00bb 07       		.uleb128 0x7
 2317 00bc DA020000 		.4byte	.LASF14
 2318 00c0 03       		.byte	0x3
 2319 00c1 C5       		.byte	0xc5
 2320 00c2 C6000000 		.4byte	0xc6
 2321 00c6 05       		.uleb128 0x5
 2322 00c7 04       		.byte	0x4
 2323 00c8 CC000000 		.4byte	0xcc
 2324 00cc 08       		.uleb128 0x8
 2325 00cd 01       		.byte	0x1
 2326 00ce B0000000 		.4byte	0xb0
 2327 00d2 E1000000 		.4byte	0xe1
 2328 00d6 09       		.uleb128 0x9
 2329 00d7 E1000000 		.4byte	0xe1
 2330 00db 09       		.uleb128 0x9
 2331 00dc 5D020000 		.4byte	0x25d
 2332 00e0 00       		.byte	0x0
 2333 00e1 05       		.uleb128 0x5
 2334 00e2 04       		.byte	0x4
 2335 00e3 E7000000 		.4byte	0xe7
 2336 00e7 0A       		.uleb128 0xa
 2337 00e8 DD010000 		.4byte	.LASF34
 2338 00ec 78       		.byte	0x78
 2339 00ed 03       		.byte	0x3
 2340 00ee 0901     		.2byte	0x109
 2341 00f0 5D020000 		.4byte	0x25d
 2342 00f4 0B       		.uleb128 0xb
 2343 00f5 78010000 		.4byte	.LASF15
 2344 00f9 03       		.byte	0x3
 2345 00fa 0A01     		.2byte	0x10a
 2346 00fc 71000000 		.4byte	0x71
 2347 0100 02       		.byte	0x2
 2348 0101 23       		.byte	0x23
 2349 0102 00       		.uleb128 0x0
 2350 0103 0B       		.uleb128 0xb
 2351 0104 35020000 		.4byte	.LASF16
 2352 0108 03       		.byte	0x3
 2353 0109 0B01     		.2byte	0x10b
 2354 010b 71000000 		.4byte	0x71
 2355 010f 02       		.byte	0x2
 2356 0110 23       		.byte	0x23
 2357 0111 04       		.uleb128 0x4
 2358 0112 0B       		.uleb128 0xb
 2359 0113 A8020000 		.4byte	.LASF17
 2360 0117 03       		.byte	0x3
 2361 0118 0C01     		.2byte	0x10c
 2362 011a 71000000 		.4byte	0x71
 2363 011e 02       		.byte	0x2
 2364 011f 23       		.byte	0x23
 2365 0120 08       		.uleb128 0x8
ARM GAS  /tmp/ccDSXDsV.s 			page 43


 2366 0121 0B       		.uleb128 0xb
 2367 0122 DB040000 		.4byte	.LASF18
 2368 0126 03       		.byte	0x3
 2369 0127 0D01     		.2byte	0x10d
 2370 0129 68020000 		.4byte	0x268
 2371 012d 02       		.byte	0x2
 2372 012e 23       		.byte	0x23
 2373 012f 0C       		.uleb128 0xc
 2374 0130 0B       		.uleb128 0xb
 2375 0131 50000000 		.4byte	.LASF19
 2376 0135 03       		.byte	0x3
 2377 0136 0E01     		.2byte	0x10e
 2378 0138 9E020000 		.4byte	0x29e
 2379 013c 02       		.byte	0x2
 2380 013d 23       		.byte	0x23
 2381 013e 10       		.uleb128 0x10
 2382 013f 0B       		.uleb128 0xb
 2383 0140 CE030000 		.4byte	.LASF20
 2384 0144 03       		.byte	0x3
 2385 0145 0F01     		.2byte	0x10f
 2386 0147 BF020000 		.4byte	0x2bf
 2387 014b 02       		.byte	0x2
 2388 014c 23       		.byte	0x23
 2389 014d 14       		.uleb128 0x14
 2390 014e 0C       		.uleb128 0xc
 2391 014f 63697000 		.ascii	"cip\000"
 2392 0153 03       		.byte	0x3
 2393 0154 1101     		.2byte	0x111
 2394 0156 B0000000 		.4byte	0xb0
 2395 015a 02       		.byte	0x2
 2396 015b 23       		.byte	0x23
 2397 015c 18       		.uleb128 0x18
 2398 015d 0C       		.uleb128 0xc
 2399 015e 66726D00 		.ascii	"frm\000"
 2400 0162 03       		.byte	0x3
 2401 0163 1201     		.2byte	0x112
 2402 0165 B0000000 		.4byte	0xb0
 2403 0169 02       		.byte	0x2
 2404 016a 23       		.byte	0x23
 2405 016b 1C       		.uleb128 0x1c
 2406 016c 0C       		.uleb128 0xc
 2407 016d 68656100 		.ascii	"hea\000"
 2408 0171 03       		.byte	0x3
 2409 0172 1301     		.2byte	0x113
 2410 0174 B0000000 		.4byte	0xb0
 2411 0178 02       		.byte	0x2
 2412 0179 23       		.byte	0x23
 2413 017a 20       		.uleb128 0x20
 2414 017b 0C       		.uleb128 0xc
 2415 017c 686C7700 		.ascii	"hlw\000"
 2416 0180 03       		.byte	0x3
 2417 0181 1401     		.2byte	0x114
 2418 0183 B0000000 		.4byte	0xb0
 2419 0187 02       		.byte	0x2
 2420 0188 23       		.byte	0x23
 2421 0189 24       		.uleb128 0x24
 2422 018a 0C       		.uleb128 0xc
ARM GAS  /tmp/ccDSXDsV.s 			page 44


 2423 018b 73746B00 		.ascii	"stk\000"
 2424 018f 03       		.byte	0x3
 2425 0190 1501     		.2byte	0x115
 2426 0192 B0000000 		.4byte	0xb0
 2427 0196 02       		.byte	0x2
 2428 0197 23       		.byte	0x23
 2429 0198 28       		.uleb128 0x28
 2430 0199 0C       		.uleb128 0xc
 2431 019a 73747000 		.ascii	"stp\000"
 2432 019e 03       		.byte	0x3
 2433 019f 1601     		.2byte	0x116
 2434 01a1 B0000000 		.4byte	0xb0
 2435 01a5 02       		.byte	0x2
 2436 01a6 23       		.byte	0x23
 2437 01a7 2C       		.uleb128 0x2c
 2438 01a8 0B       		.uleb128 0xb
 2439 01a9 7E000000 		.4byte	.LASF21
 2440 01ad 03       		.byte	0x3
 2441 01ae 1701     		.2byte	0x117
 2442 01b0 4C000000 		.4byte	0x4c
 2443 01b4 02       		.byte	0x2
 2444 01b5 23       		.byte	0x23
 2445 01b6 30       		.uleb128 0x30
 2446 01b7 0B       		.uleb128 0xb
 2447 01b8 2A040000 		.4byte	.LASF22
 2448 01bc 03       		.byte	0x3
 2449 01bd 1A01     		.2byte	0x11a
 2450 01bf 19030000 		.4byte	0x319
 2451 01c3 02       		.byte	0x2
 2452 01c4 23       		.byte	0x23
 2453 01c5 34       		.uleb128 0x34
 2454 01c6 0B       		.uleb128 0xb
 2455 01c7 3A020000 		.4byte	.LASF23
 2456 01cb 03       		.byte	0x3
 2457 01cc 1B01     		.2byte	0x11b
 2458 01ce 29030000 		.4byte	0x329
 2459 01d2 02       		.byte	0x2
 2460 01d3 23       		.byte	0x23
 2461 01d4 44       		.uleb128 0x44
 2462 01d5 0B       		.uleb128 0xb
 2463 01d6 04010000 		.4byte	.LASF24
 2464 01da 03       		.byte	0x3
 2465 01db 1E01     		.2byte	0x11e
 2466 01dd 4C000000 		.4byte	0x4c
 2467 01e1 02       		.byte	0x2
 2468 01e2 23       		.byte	0x23
 2469 01e3 54       		.uleb128 0x54
 2470 01e4 0B       		.uleb128 0xb
 2471 01e5 7B020000 		.4byte	.LASF25
 2472 01e9 03       		.byte	0x3
 2473 01ea 2001     		.2byte	0x120
 2474 01ec 4C000000 		.4byte	0x4c
 2475 01f0 02       		.byte	0x2
 2476 01f1 23       		.byte	0x23
 2477 01f2 58       		.uleb128 0x58
 2478 01f3 0C       		.uleb128 0xc
 2479 01f4 70726900 		.ascii	"pri\000"
ARM GAS  /tmp/ccDSXDsV.s 			page 45


 2480 01f8 03       		.byte	0x3
 2481 01f9 2201     		.2byte	0x122
 2482 01fb B0000000 		.4byte	0xb0
 2483 01ff 02       		.byte	0x2
 2484 0200 23       		.byte	0x23
 2485 0201 5C       		.uleb128 0x5c
 2486 0202 0C       		.uleb128 0xc
 2487 0203 616C7400 		.ascii	"alt\000"
 2488 0207 03       		.byte	0x3
 2489 0208 2301     		.2byte	0x123
 2490 020a B0000000 		.4byte	0xb0
 2491 020e 02       		.byte	0x2
 2492 020f 23       		.byte	0x23
 2493 0210 60       		.uleb128 0x60
 2494 0211 0B       		.uleb128 0xb
 2495 0212 9E020000 		.4byte	.LASF26
 2496 0216 03       		.byte	0x3
 2497 0217 2401     		.2byte	0x124
 2498 0219 B0000000 		.4byte	0xb0
 2499 021d 02       		.byte	0x2
 2500 021e 23       		.byte	0x23
 2501 021f 64       		.uleb128 0x64
 2502 0220 0B       		.uleb128 0xb
 2503 0221 B2000000 		.4byte	.LASF27
 2504 0225 03       		.byte	0x3
 2505 0226 2501     		.2byte	0x125
 2506 0228 B0000000 		.4byte	0xb0
 2507 022c 02       		.byte	0x2
 2508 022d 23       		.byte	0x23
 2509 022e 68       		.uleb128 0x68
 2510 022f 0B       		.uleb128 0xb
 2511 0230 89050000 		.4byte	.LASF28
 2512 0234 03       		.byte	0x3
 2513 0235 2701     		.2byte	0x127
 2514 0237 B0000000 		.4byte	0xb0
 2515 023b 02       		.byte	0x2
 2516 023c 23       		.byte	0x23
 2517 023d 6C       		.uleb128 0x6c
 2518 023e 0B       		.uleb128 0xb
 2519 023f 08040000 		.4byte	.LASF29
 2520 0243 03       		.byte	0x3
 2521 0244 2901     		.2byte	0x129
 2522 0246 4C000000 		.4byte	0x4c
 2523 024a 02       		.byte	0x2
 2524 024b 23       		.byte	0x23
 2525 024c 70       		.uleb128 0x70
 2526 024d 0B       		.uleb128 0xb
 2527 024e D6030000 		.4byte	.LASF30
 2528 0252 03       		.byte	0x3
 2529 0253 2A01     		.2byte	0x12a
 2530 0255 61000000 		.4byte	0x61
 2531 0259 02       		.byte	0x2
 2532 025a 23       		.byte	0x23
 2533 025b 74       		.uleb128 0x74
 2534 025c 00       		.byte	0x0
 2535 025d 05       		.uleb128 0x5
 2536 025e 04       		.byte	0x4
ARM GAS  /tmp/ccDSXDsV.s 			page 46


 2537 025f 63020000 		.4byte	0x263
 2538 0263 06       		.uleb128 0x6
 2539 0264 B0000000 		.4byte	0xb0
 2540 0268 07       		.uleb128 0x7
 2541 0269 B1010000 		.4byte	.LASF31
 2542 026d 03       		.byte	0x3
 2543 026e C6       		.byte	0xc6
 2544 026f 73020000 		.4byte	0x273
 2545 0273 05       		.uleb128 0x5
 2546 0274 04       		.byte	0x4
 2547 0275 79020000 		.4byte	0x279
 2548 0279 08       		.uleb128 0x8
 2549 027a 01       		.byte	0x1
 2550 027b 4C000000 		.4byte	0x4c
 2551 027f 98020000 		.4byte	0x298
 2552 0283 09       		.uleb128 0x9
 2553 0284 E1000000 		.4byte	0xe1
 2554 0288 09       		.uleb128 0x9
 2555 0289 B0000000 		.4byte	0xb0
 2556 028d 09       		.uleb128 0x9
 2557 028e 98020000 		.4byte	0x298
 2558 0292 09       		.uleb128 0x9
 2559 0293 5D020000 		.4byte	0x25d
 2560 0297 00       		.byte	0x0
 2561 0298 05       		.uleb128 0x5
 2562 0299 04       		.byte	0x4
 2563 029a B0000000 		.4byte	0xb0
 2564 029e 07       		.uleb128 0x7
 2565 029f 4D010000 		.4byte	.LASF32
 2566 02a3 03       		.byte	0x3
 2567 02a4 C8       		.byte	0xc8
 2568 02a5 A9020000 		.4byte	0x2a9
 2569 02a9 05       		.uleb128 0x5
 2570 02aa 04       		.byte	0x4
 2571 02ab AF020000 		.4byte	0x2af
 2572 02af 08       		.uleb128 0x8
 2573 02b0 01       		.byte	0x1
 2574 02b1 4C000000 		.4byte	0x4c
 2575 02b5 BF020000 		.4byte	0x2bf
 2576 02b9 09       		.uleb128 0x9
 2577 02ba E1000000 		.4byte	0xe1
 2578 02be 00       		.byte	0x0
 2579 02bf 07       		.uleb128 0x7
 2580 02c0 F1020000 		.4byte	.LASF33
 2581 02c4 03       		.byte	0x3
 2582 02c5 C9       		.byte	0xc9
 2583 02c6 CA020000 		.4byte	0x2ca
 2584 02ca 05       		.uleb128 0x5
 2585 02cb 04       		.byte	0x4
 2586 02cc D0020000 		.4byte	0x2d0
 2587 02d0 08       		.uleb128 0x8
 2588 02d1 01       		.byte	0x1
 2589 02d2 4C000000 		.4byte	0x4c
 2590 02d6 E5020000 		.4byte	0x2e5
 2591 02da 09       		.uleb128 0x9
 2592 02db E1000000 		.4byte	0xe1
 2593 02df 09       		.uleb128 0x9
ARM GAS  /tmp/ccDSXDsV.s 			page 47


 2594 02e0 4C000000 		.4byte	0x4c
 2595 02e4 00       		.byte	0x0
 2596 02e5 0D       		.uleb128 0xd
 2597 02e6 22020000 		.4byte	.LASF35
 2598 02ea 08       		.byte	0x8
 2599 02eb 03       		.byte	0x3
 2600 02ec F1       		.byte	0xf1
 2601 02ed 0E030000 		.4byte	0x30e
 2602 02f1 0E       		.uleb128 0xe
 2603 02f2 12040000 		.4byte	.LASF36
 2604 02f6 03       		.byte	0x3
 2605 02f7 F2       		.byte	0xf2
 2606 02f8 84000000 		.4byte	0x84
 2607 02fc 02       		.byte	0x2
 2608 02fd 23       		.byte	0x23
 2609 02fe 00       		.uleb128 0x0
 2610 02ff 0E       		.uleb128 0xe
 2611 0300 0A010000 		.4byte	.LASF37
 2612 0304 03       		.byte	0x3
 2613 0305 F3       		.byte	0xf3
 2614 0306 BB000000 		.4byte	0xbb
 2615 030a 02       		.byte	0x2
 2616 030b 23       		.byte	0x23
 2617 030c 04       		.uleb128 0x4
 2618 030d 00       		.byte	0x0
 2619 030e 07       		.uleb128 0x7
 2620 030f B0040000 		.4byte	.LASF38
 2621 0313 03       		.byte	0x3
 2622 0314 F4       		.byte	0xf4
 2623 0315 E5020000 		.4byte	0x2e5
 2624 0319 0F       		.uleb128 0xf
 2625 031a 61000000 		.4byte	0x61
 2626 031e 29030000 		.4byte	0x329
 2627 0322 10       		.uleb128 0x10
 2628 0323 29000000 		.4byte	0x29
 2629 0327 03       		.byte	0x3
 2630 0328 00       		.byte	0x0
 2631 0329 0F       		.uleb128 0xf
 2632 032a 68000000 		.4byte	0x68
 2633 032e 39030000 		.4byte	0x339
 2634 0332 10       		.uleb128 0x10
 2635 0333 29000000 		.4byte	0x29
 2636 0337 03       		.byte	0x3
 2637 0338 00       		.byte	0x0
 2638 0339 11       		.uleb128 0x11
 2639 033a 414D5800 		.ascii	"AMX\000"
 2640 033e 03       		.byte	0x3
 2641 033f 2F01     		.2byte	0x12f
 2642 0341 E7000000 		.4byte	0xe7
 2643 0345 0A       		.uleb128 0xa
 2644 0346 50050000 		.4byte	.LASF39
 2645 034a 3C       		.byte	0x3c
 2646 034b 03       		.byte	0x3
 2647 034c 3401     		.2byte	0x134
 2648 034e 61040000 		.4byte	0x461
 2649 0352 0B       		.uleb128 0xb
 2650 0353 5F030000 		.4byte	.LASF40
ARM GAS  /tmp/ccDSXDsV.s 			page 48


 2651 0357 03       		.byte	0x3
 2652 0358 3501     		.2byte	0x135
 2653 035a A5000000 		.4byte	0xa5
 2654 035e 02       		.byte	0x2
 2655 035f 23       		.byte	0x23
 2656 0360 00       		.uleb128 0x0
 2657 0361 0B       		.uleb128 0xb
 2658 0362 17040000 		.4byte	.LASF41
 2659 0366 03       		.byte	0x3
 2660 0367 3601     		.2byte	0x136
 2661 0369 9A000000 		.4byte	0x9a
 2662 036d 02       		.byte	0x2
 2663 036e 23       		.byte	0x23
 2664 036f 04       		.uleb128 0x4
 2665 0370 0B       		.uleb128 0xb
 2666 0371 CD020000 		.4byte	.LASF42
 2667 0375 03       		.byte	0x3
 2668 0376 3701     		.2byte	0x137
 2669 0378 7D000000 		.4byte	0x7d
 2670 037c 02       		.byte	0x2
 2671 037d 23       		.byte	0x23
 2672 037e 06       		.uleb128 0x6
 2673 037f 0B       		.uleb128 0xb
 2674 0380 92020000 		.4byte	.LASF43
 2675 0384 03       		.byte	0x3
 2676 0385 3801     		.2byte	0x138
 2677 0387 7D000000 		.4byte	0x7d
 2678 038b 02       		.byte	0x2
 2679 038c 23       		.byte	0x23
 2680 038d 07       		.uleb128 0x7
 2681 038e 0B       		.uleb128 0xb
 2682 038f 7E000000 		.4byte	.LASF21
 2683 0393 03       		.byte	0x3
 2684 0394 3901     		.2byte	0x139
 2685 0396 8F000000 		.4byte	0x8f
 2686 039a 02       		.byte	0x2
 2687 039b 23       		.byte	0x23
 2688 039c 08       		.uleb128 0x8
 2689 039d 0B       		.uleb128 0xb
 2690 039e 37050000 		.4byte	.LASF44
 2691 03a2 03       		.byte	0x3
 2692 03a3 3A01     		.2byte	0x13a
 2693 03a5 8F000000 		.4byte	0x8f
 2694 03a9 02       		.byte	0x2
 2695 03aa 23       		.byte	0x23
 2696 03ab 0A       		.uleb128 0xa
 2697 03ac 0C       		.uleb128 0xc
 2698 03ad 636F6400 		.ascii	"cod\000"
 2699 03b1 03       		.byte	0x3
 2700 03b2 3B01     		.2byte	0x13b
 2701 03b4 A5000000 		.4byte	0xa5
 2702 03b8 02       		.byte	0x2
 2703 03b9 23       		.byte	0x23
 2704 03ba 0C       		.uleb128 0xc
 2705 03bb 0C       		.uleb128 0xc
 2706 03bc 64617400 		.ascii	"dat\000"
 2707 03c0 03       		.byte	0x3
ARM GAS  /tmp/ccDSXDsV.s 			page 49


 2708 03c1 3C01     		.2byte	0x13c
 2709 03c3 A5000000 		.4byte	0xa5
 2710 03c7 02       		.byte	0x2
 2711 03c8 23       		.byte	0x23
 2712 03c9 10       		.uleb128 0x10
 2713 03ca 0C       		.uleb128 0xc
 2714 03cb 68656100 		.ascii	"hea\000"
 2715 03cf 03       		.byte	0x3
 2716 03d0 3D01     		.2byte	0x13d
 2717 03d2 A5000000 		.4byte	0xa5
 2718 03d6 02       		.byte	0x2
 2719 03d7 23       		.byte	0x23
 2720 03d8 14       		.uleb128 0x14
 2721 03d9 0C       		.uleb128 0xc
 2722 03da 73747000 		.ascii	"stp\000"
 2723 03de 03       		.byte	0x3
 2724 03df 3E01     		.2byte	0x13e
 2725 03e1 A5000000 		.4byte	0xa5
 2726 03e5 02       		.byte	0x2
 2727 03e6 23       		.byte	0x23
 2728 03e7 18       		.uleb128 0x18
 2729 03e8 0C       		.uleb128 0xc
 2730 03e9 63697000 		.ascii	"cip\000"
 2731 03ed 03       		.byte	0x3
 2732 03ee 3F01     		.2byte	0x13f
 2733 03f0 A5000000 		.4byte	0xa5
 2734 03f4 02       		.byte	0x2
 2735 03f5 23       		.byte	0x23
 2736 03f6 1C       		.uleb128 0x1c
 2737 03f7 0B       		.uleb128 0xb
 2738 03f8 1C010000 		.4byte	.LASF45
 2739 03fc 03       		.byte	0x3
 2740 03fd 4001     		.2byte	0x140
 2741 03ff A5000000 		.4byte	0xa5
 2742 0403 02       		.byte	0x2
 2743 0404 23       		.byte	0x23
 2744 0405 20       		.uleb128 0x20
 2745 0406 0B       		.uleb128 0xb
 2746 0407 A9010000 		.4byte	.LASF46
 2747 040b 03       		.byte	0x3
 2748 040c 4101     		.2byte	0x141
 2749 040e A5000000 		.4byte	0xa5
 2750 0412 02       		.byte	0x2
 2751 0413 23       		.byte	0x23
 2752 0414 24       		.uleb128 0x24
 2753 0415 0B       		.uleb128 0xb
 2754 0416 29010000 		.4byte	.LASF47
 2755 041a 03       		.byte	0x3
 2756 041b 4201     		.2byte	0x142
 2757 041d A5000000 		.4byte	0xa5
 2758 0421 02       		.byte	0x2
 2759 0422 23       		.byte	0x23
 2760 0423 28       		.uleb128 0x28
 2761 0424 0B       		.uleb128 0xb
 2762 0425 EC030000 		.4byte	.LASF48
 2763 0429 03       		.byte	0x3
 2764 042a 4301     		.2byte	0x143
ARM GAS  /tmp/ccDSXDsV.s 			page 50


 2765 042c A5000000 		.4byte	0xa5
 2766 0430 02       		.byte	0x2
 2767 0431 23       		.byte	0x23
 2768 0432 2C       		.uleb128 0x2c
 2769 0433 0B       		.uleb128 0xb
 2770 0434 03040000 		.4byte	.LASF49
 2771 0438 03       		.byte	0x3
 2772 0439 4401     		.2byte	0x144
 2773 043b A5000000 		.4byte	0xa5
 2774 043f 02       		.byte	0x2
 2775 0440 23       		.byte	0x23
 2776 0441 30       		.uleb128 0x30
 2777 0442 0B       		.uleb128 0xb
 2778 0443 CD010000 		.4byte	.LASF50
 2779 0447 03       		.byte	0x3
 2780 0448 4501     		.2byte	0x145
 2781 044a A5000000 		.4byte	0xa5
 2782 044e 02       		.byte	0x2
 2783 044f 23       		.byte	0x23
 2784 0450 34       		.uleb128 0x34
 2785 0451 0B       		.uleb128 0xb
 2786 0452 33040000 		.4byte	.LASF51
 2787 0456 03       		.byte	0x3
 2788 0457 4601     		.2byte	0x146
 2789 0459 A5000000 		.4byte	0xa5
 2790 045d 02       		.byte	0x2
 2791 045e 23       		.byte	0x23
 2792 045f 38       		.uleb128 0x38
 2793 0460 00       		.byte	0x0
 2794 0461 12       		.uleb128 0x12
 2795 0462 70020000 		.4byte	.LASF52
 2796 0466 03       		.byte	0x3
 2797 0467 4701     		.2byte	0x147
 2798 0469 45030000 		.4byte	0x345
 2799 046d 13       		.uleb128 0x13
 2800 046e 01       		.byte	0x1
 2801 046f 03       		.byte	0x3
 2802 0470 5401     		.2byte	0x154
 2803 0472 19050000 		.4byte	0x519
 2804 0476 14       		.uleb128 0x14
 2805 0477 DF030000 		.4byte	.LASF53
 2806 047b 00       		.sleb128 0
 2807 047c 14       		.uleb128 0x14
 2808 047d 1D040000 		.4byte	.LASF54
 2809 0481 01       		.sleb128 1
 2810 0482 14       		.uleb128 0x14
 2811 0483 B6020000 		.4byte	.LASF55
 2812 0487 02       		.sleb128 2
 2813 0488 14       		.uleb128 0x14
 2814 0489 3F050000 		.4byte	.LASF56
 2815 048d 03       		.sleb128 3
 2816 048e 14       		.uleb128 0x14
 2817 048f BE010000 		.4byte	.LASF57
 2818 0493 04       		.sleb128 4
 2819 0494 14       		.uleb128 0x14
 2820 0495 66010000 		.4byte	.LASF58
 2821 0499 05       		.sleb128 5
ARM GAS  /tmp/ccDSXDsV.s 			page 51


 2822 049a 14       		.uleb128 0x14
 2823 049b 00000000 		.4byte	.LASF59
 2824 049f 06       		.sleb128 6
 2825 04a0 14       		.uleb128 0x14
 2826 04a1 18030000 		.4byte	.LASF60
 2827 04a5 07       		.sleb128 7
 2828 04a6 14       		.uleb128 0x14
 2829 04a7 F8040000 		.4byte	.LASF61
 2830 04ab 08       		.sleb128 8
 2831 04ac 14       		.uleb128 0x14
 2832 04ad 0B020000 		.4byte	.LASF62
 2833 04b1 09       		.sleb128 9
 2834 04b2 14       		.uleb128 0x14
 2835 04b3 30000000 		.4byte	.LASF63
 2836 04b7 0A       		.sleb128 10
 2837 04b8 14       		.uleb128 0x14
 2838 04b9 E9000000 		.4byte	.LASF64
 2839 04bd 0B       		.sleb128 11
 2840 04be 14       		.uleb128 0x14
 2841 04bf 77030000 		.4byte	.LASF65
 2842 04c3 0C       		.sleb128 12
 2843 04c4 14       		.uleb128 0x14
 2844 04c5 80040000 		.4byte	.LASF66
 2845 04c9 0D       		.sleb128 13
 2846 04ca 14       		.uleb128 0x14
 2847 04cb 57010000 		.4byte	.LASF67
 2848 04cf 10       		.sleb128 16
 2849 04d0 14       		.uleb128 0x14
 2850 04d1 C8000000 		.4byte	.LASF68
 2851 04d5 11       		.sleb128 17
 2852 04d6 14       		.uleb128 0x14
 2853 04d7 E4010000 		.4byte	.LASF69
 2854 04db 12       		.sleb128 18
 2855 04dc 14       		.uleb128 0x14
 2856 04dd 3C010000 		.4byte	.LASF70
 2857 04e1 13       		.sleb128 19
 2858 04e2 14       		.uleb128 0x14
 2859 04e3 C0040000 		.4byte	.LASF71
 2860 04e7 14       		.sleb128 20
 2861 04e8 14       		.uleb128 0x14
 2862 04e9 A3030000 		.4byte	.LASF72
 2863 04ed 15       		.sleb128 21
 2864 04ee 14       		.uleb128 0x14
 2865 04ef D7000000 		.4byte	.LASF73
 2866 04f3 16       		.sleb128 22
 2867 04f4 14       		.uleb128 0x14
 2868 04f5 91040000 		.4byte	.LASF74
 2869 04f9 17       		.sleb128 23
 2870 04fa 14       		.uleb128 0x14
 2871 04fb 6F040000 		.4byte	.LASF75
 2872 04ff 18       		.sleb128 24
 2873 0500 14       		.uleb128 0x14
 2874 0501 4E020000 		.4byte	.LASF76
 2875 0505 19       		.sleb128 25
 2876 0506 14       		.uleb128 0x14
 2877 0507 21000000 		.4byte	.LASF77
 2878 050b 1A       		.sleb128 26
ARM GAS  /tmp/ccDSXDsV.s 			page 52


 2879 050c 14       		.uleb128 0x14
 2880 050d 11000000 		.4byte	.LASF78
 2881 0511 1B       		.sleb128 27
 2882 0512 14       		.uleb128 0x14
 2883 0513 27050000 		.4byte	.LASF79
 2884 0517 1C       		.sleb128 28
 2885 0518 00       		.byte	0x0
 2886 0519 07       		.uleb128 0x7
 2887 051a 71030000 		.4byte	.LASF80
 2888 051e 01       		.byte	0x1
 2889 051f 3E       		.byte	0x3e
 2890 0520 37000000 		.4byte	0x37
 2891 0524 0D       		.uleb128 0xd
 2892 0525 A3000000 		.4byte	.LASF81
 2893 0529 10       		.byte	0x10
 2894 052a 01       		.byte	0x1
 2895 052b 41       		.byte	0x41
 2896 052c 68050000 		.4byte	0x568
 2897 0530 0E       		.uleb128 0xe
 2898 0531 9E000000 		.4byte	.LASF82
 2899 0535 01       		.byte	0x1
 2900 0536 42       		.byte	0x42
 2901 0537 68050000 		.4byte	0x568
 2902 053b 02       		.byte	0x2
 2903 053c 23       		.byte	0x23
 2904 053d 00       		.uleb128 0x0
 2905 053e 15       		.uleb128 0x15
 2906 053f 696400   		.ascii	"id\000"
 2907 0542 01       		.byte	0x1
 2908 0543 43       		.byte	0x43
 2909 0544 B0000000 		.4byte	0xb0
 2910 0548 02       		.byte	0x2
 2911 0549 23       		.byte	0x23
 2912 054a 04       		.uleb128 0x4
 2913 054b 0E       		.uleb128 0xe
 2914 054c 12040000 		.4byte	.LASF36
 2915 0550 01       		.byte	0x1
 2916 0551 44       		.byte	0x44
 2917 0552 77000000 		.4byte	0x77
 2918 0556 02       		.byte	0x2
 2919 0557 23       		.byte	0x23
 2920 0558 08       		.uleb128 0x8
 2921 0559 0E       		.uleb128 0xe
 2922 055a D7010000 		.4byte	.LASF83
 2923 055e 01       		.byte	0x1
 2924 055f 45       		.byte	0x45
 2925 0560 B0000000 		.4byte	0xb0
 2926 0564 02       		.byte	0x2
 2927 0565 23       		.byte	0x23
 2928 0566 0C       		.uleb128 0xc
 2929 0567 00       		.byte	0x0
 2930 0568 05       		.uleb128 0x5
 2931 0569 04       		.byte	0x4
 2932 056a 24050000 		.4byte	0x524
 2933 056e 07       		.uleb128 0x7
 2934 056f AD020000 		.4byte	.LASF84
 2935 0573 01       		.byte	0x1
ARM GAS  /tmp/ccDSXDsV.s 			page 53


 2936 0574 46       		.byte	0x46
 2937 0575 24050000 		.4byte	0x524
 2938 0579 16       		.uleb128 0x16
 2939 057a E5020000 		.4byte	.LASF111
 2940 057e 01       		.byte	0x1
 2941 057f 58       		.byte	0x58
 2942 0580 01       		.byte	0x1
 2943 0581 01       		.byte	0x1
 2944 0582 9D050000 		.4byte	0x59d
 2945 0586 17       		.uleb128 0x17
 2946 0587 E4000000 		.4byte	.LASF85
 2947 058b 01       		.byte	0x1
 2948 058c 58       		.byte	0x58
 2949 058d 9D050000 		.4byte	0x59d
 2950 0591 17       		.uleb128 0x17
 2951 0592 EC040000 		.4byte	.LASF86
 2952 0596 01       		.byte	0x1
 2953 0597 58       		.byte	0x58
 2954 0598 9D050000 		.4byte	0x59d
 2955 059c 00       		.byte	0x0
 2956 059d 05       		.uleb128 0x5
 2957 059e 04       		.byte	0x4
 2958 059f 6E050000 		.4byte	0x56e
 2959 05a3 18       		.uleb128 0x18
 2960 05a4 97050000 		.4byte	.LASF88
 2961 05a8 01       		.byte	0x1
 2962 05a9 4A       		.byte	0x4a
 2963 05aa 01       		.byte	0x1
 2964 05ab 9D050000 		.4byte	0x59d
 2965 05af 01       		.byte	0x1
 2966 05b0 CB050000 		.4byte	0x5cb
 2967 05b4 17       		.uleb128 0x17
 2968 05b5 97030000 		.4byte	.LASF87
 2969 05b9 01       		.byte	0x1
 2970 05ba 4A       		.byte	0x4a
 2971 05bb 9D050000 		.4byte	0x59d
 2972 05bf 19       		.uleb128 0x19
 2973 05c0 EC040000 		.4byte	.LASF86
 2974 05c4 01       		.byte	0x1
 2975 05c5 4C       		.byte	0x4c
 2976 05c6 9D050000 		.4byte	0x59d
 2977 05ca 00       		.byte	0x0
 2978 05cb 18       		.uleb128 0x18
 2979 05cc 64000000 		.4byte	.LASF89
 2980 05d0 01       		.byte	0x1
 2981 05d1 6F       		.byte	0x6f
 2982 05d2 01       		.byte	0x1
 2983 05d3 9D050000 		.4byte	0x59d
 2984 05d7 01       		.byte	0x1
 2985 05d8 29060000 		.4byte	0x629
 2986 05dc 17       		.uleb128 0x17
 2987 05dd 97030000 		.4byte	.LASF87
 2988 05e1 01       		.byte	0x1
 2989 05e2 6F       		.byte	0x6f
 2990 05e3 9D050000 		.4byte	0x59d
 2991 05e7 1A       		.uleb128 0x1a
 2992 05e8 696400   		.ascii	"id\000"
ARM GAS  /tmp/ccDSXDsV.s 			page 54


 2993 05eb 01       		.byte	0x1
 2994 05ec 6F       		.byte	0x6f
 2995 05ed B0000000 		.4byte	0xb0
 2996 05f1 17       		.uleb128 0x17
 2997 05f2 12040000 		.4byte	.LASF36
 2998 05f6 01       		.byte	0x1
 2999 05f7 6F       		.byte	0x6f
 3000 05f8 77000000 		.4byte	0x77
 3001 05fc 17       		.uleb128 0x17
 3002 05fd D7010000 		.4byte	.LASF83
 3003 0601 01       		.byte	0x1
 3004 0602 6F       		.byte	0x6f
 3005 0603 B0000000 		.4byte	0xb0
 3006 0607 17       		.uleb128 0x17
 3007 0608 E4000000 		.4byte	.LASF85
 3008 060c 01       		.byte	0x1
 3009 060d 70       		.byte	0x70
 3010 060e 29060000 		.4byte	0x629
 3011 0612 19       		.uleb128 0x19
 3012 0613 EC040000 		.4byte	.LASF86
 3013 0617 01       		.byte	0x1
 3014 0618 72       		.byte	0x72
 3015 0619 9D050000 		.4byte	0x59d
 3016 061d 19       		.uleb128 0x19
 3017 061e 24010000 		.4byte	.LASF90
 3018 0622 01       		.byte	0x1
 3019 0623 73       		.byte	0x73
 3020 0624 9D050000 		.4byte	0x59d
 3021 0628 00       		.byte	0x0
 3022 0629 05       		.uleb128 0x5
 3023 062a 04       		.byte	0x4
 3024 062b 9D050000 		.4byte	0x59d
 3025 062f 1B       		.uleb128 0x1b
 3026 0630 C5020000 		.4byte	.LASF93
 3027 0634 01       		.byte	0x1
 3028 0635 8A       		.byte	0x8a
 3029 0636 01       		.byte	0x1
 3030 0637 B0000000 		.4byte	0xb0
 3031 063b 00000000 		.4byte	.LFB4
 3032 063f 14000000 		.4byte	.LFE4
 3033 0643 02       		.byte	0x2
 3034 0644 7D       		.byte	0x7d
 3035 0645 00       		.sleb128 0
 3036 0646 90060000 		.4byte	0x690
 3037 064a 1C       		.uleb128 0x1c
 3038 064b 616D7800 		.ascii	"amx\000"
 3039 064f 01       		.byte	0x1
 3040 0650 8A       		.byte	0x8a
 3041 0651 90060000 		.4byte	0x690
 3042 0655 00000000 		.4byte	.LLST0
 3043 0659 1D       		.uleb128 0x1d
 3044 065a 3F000000 		.4byte	.LASF91
 3045 065e 01       		.byte	0x1
 3046 065f 8A       		.byte	0x8a
 3047 0660 5D020000 		.4byte	0x25d
 3048 0664 01       		.byte	0x1
 3049 0665 51       		.byte	0x51
ARM GAS  /tmp/ccDSXDsV.s 			page 55


 3050 0666 1E       		.uleb128 0x1e
 3051 0667 68647200 		.ascii	"hdr\000"
 3052 066b 01       		.byte	0x1
 3053 066c 8C       		.byte	0x8c
 3054 066d 96060000 		.4byte	0x696
 3055 0671 13000000 		.4byte	.LLST1
 3056 0675 1F       		.uleb128 0x1f
 3057 0676 A8020000 		.4byte	.LASF17
 3058 067a 01       		.byte	0x1
 3059 067b 8D       		.byte	0x8d
 3060 067c 9C060000 		.4byte	0x69c
 3061 0680 26000000 		.4byte	.LLST2
 3062 0684 19       		.uleb128 0x19
 3063 0685 1C020000 		.4byte	.LASF92
 3064 0689 01       		.byte	0x1
 3065 068a 8E       		.byte	0x8e
 3066 068b B0000000 		.4byte	0xb0
 3067 068f 00       		.byte	0x0
 3068 0690 05       		.uleb128 0x5
 3069 0691 04       		.byte	0x4
 3070 0692 39030000 		.4byte	0x339
 3071 0696 05       		.uleb128 0x5
 3072 0697 04       		.byte	0x4
 3073 0698 61040000 		.4byte	0x461
 3074 069c 05       		.uleb128 0x5
 3075 069d 04       		.byte	0x4
 3076 069e 19050000 		.4byte	0x519
 3077 06a2 1B       		.uleb128 0x1b
 3078 06a3 9C030000 		.4byte	.LASF94
 3079 06a7 01       		.byte	0x1
 3080 06a8 9A       		.byte	0x9a
 3081 06a9 01       		.byte	0x1
 3082 06aa B0000000 		.4byte	0xb0
 3083 06ae 00000000 		.4byte	.LFB5
 3084 06b2 20000000 		.4byte	.LFE5
 3085 06b6 02       		.byte	0x2
 3086 06b7 7D       		.byte	0x7d
 3087 06b8 00       		.sleb128 0
 3088 06b9 09070000 		.4byte	0x709
 3089 06bd 1C       		.uleb128 0x1c
 3090 06be 616D7800 		.ascii	"amx\000"
 3091 06c2 01       		.byte	0x1
 3092 06c3 9A       		.byte	0x9a
 3093 06c4 90060000 		.4byte	0x690
 3094 06c8 39000000 		.4byte	.LLST3
 3095 06cc 20       		.uleb128 0x20
 3096 06cd 3F000000 		.4byte	.LASF91
 3097 06d1 01       		.byte	0x1
 3098 06d2 9A       		.byte	0x9a
 3099 06d3 5D020000 		.4byte	0x25d
 3100 06d7 4C000000 		.4byte	.LLST4
 3101 06db 1E       		.uleb128 0x1e
 3102 06dc 68647200 		.ascii	"hdr\000"
 3103 06e0 01       		.byte	0x1
 3104 06e1 9C       		.byte	0x9c
 3105 06e2 96060000 		.4byte	0x696
 3106 06e6 5F000000 		.4byte	.LLST5
ARM GAS  /tmp/ccDSXDsV.s 			page 56


 3107 06ea 21       		.uleb128 0x21
 3108 06eb A8020000 		.4byte	.LASF17
 3109 06ef 01       		.byte	0x1
 3110 06f0 9D       		.byte	0x9d
 3111 06f1 9C060000 		.4byte	0x69c
 3112 06f5 01       		.byte	0x1
 3113 06f6 53       		.byte	0x53
 3114 06f7 21       		.uleb128 0x21
 3115 06f8 D7010000 		.4byte	.LASF83
 3116 06fc 01       		.byte	0x1
 3117 06fd 9E       		.byte	0x9e
 3118 06fe B0000000 		.4byte	0xb0
 3119 0702 05       		.byte	0x5
 3120 0703 73       		.byte	0x73
 3121 0704 00       		.sleb128 0
 3122 0705 72       		.byte	0x72
 3123 0706 00       		.sleb128 0
 3124 0707 22       		.byte	0x22
 3125 0708 00       		.byte	0x0
 3126 0709 22       		.uleb128 0x22
 3127 070a F1040000 		.4byte	.LASF95
 3128 070e 01       		.byte	0x1
 3129 070f AB       		.byte	0xab
 3130 0710 01       		.byte	0x1
 3131 0711 B0000000 		.4byte	0xb0
 3132 0715 00000000 		.4byte	.LFB6
 3133 0719 3C000000 		.4byte	.LFE6
 3134 071d 72000000 		.4byte	.LLST6
 3135 0721 6F070000 		.4byte	0x76f
 3136 0725 1C       		.uleb128 0x1c
 3137 0726 616D7800 		.ascii	"amx\000"
 3138 072a 01       		.byte	0x1
 3139 072b AB       		.byte	0xab
 3140 072c 90060000 		.4byte	0x690
 3141 0730 92000000 		.4byte	.LLST7
 3142 0734 20       		.uleb128 0x20
 3143 0735 3F000000 		.4byte	.LASF91
 3144 0739 01       		.byte	0x1
 3145 073a AB       		.byte	0xab
 3146 073b 5D020000 		.4byte	0x25d
 3147 073f B0000000 		.4byte	.LLST8
 3148 0743 1E       		.uleb128 0x1e
 3149 0744 68647200 		.ascii	"hdr\000"
 3150 0748 01       		.byte	0x1
 3151 0749 AD       		.byte	0xad
 3152 074a 96060000 		.4byte	0x696
 3153 074e CE000000 		.4byte	.LLST9
 3154 0752 21       		.uleb128 0x21
 3155 0753 A8020000 		.4byte	.LASF17
 3156 0757 01       		.byte	0x1
 3157 0758 AE       		.byte	0xae
 3158 0759 9C060000 		.4byte	0x69c
 3159 075d 01       		.byte	0x1
 3160 075e 53       		.byte	0x53
 3161 075f 1F       		.uleb128 0x1f
 3162 0760 D7010000 		.4byte	.LASF83
 3163 0764 01       		.byte	0x1
ARM GAS  /tmp/ccDSXDsV.s 			page 57


 3164 0765 AF       		.byte	0xaf
 3165 0766 B0000000 		.4byte	0xb0
 3166 076a E1000000 		.4byte	.LLST10
 3167 076e 00       		.byte	0x0
 3168 076f 1B       		.uleb128 0x1b
 3169 0770 46000000 		.4byte	.LASF96
 3170 0774 01       		.byte	0x1
 3171 0775 BF       		.byte	0xbf
 3172 0776 01       		.byte	0x1
 3173 0777 B0000000 		.4byte	0xb0
 3174 077b 00000000 		.4byte	.LFB7
 3175 077f 08000000 		.4byte	.LFE7
 3176 0783 02       		.byte	0x2
 3177 0784 7D       		.byte	0x7d
 3178 0785 00       		.sleb128 0
 3179 0786 A7070000 		.4byte	0x7a7
 3180 078a 1C       		.uleb128 0x1c
 3181 078b 616D7800 		.ascii	"amx\000"
 3182 078f 01       		.byte	0x1
 3183 0790 BF       		.byte	0xbf
 3184 0791 90060000 		.4byte	0x690
 3185 0795 07010000 		.4byte	.LLST11
 3186 0799 1D       		.uleb128 0x1d
 3187 079a 3F000000 		.4byte	.LASF91
 3188 079e 01       		.byte	0x1
 3189 079f BF       		.byte	0xbf
 3190 07a0 5D020000 		.4byte	0x25d
 3191 07a4 01       		.byte	0x1
 3192 07a5 51       		.byte	0x51
 3193 07a6 00       		.byte	0x0
 3194 07a7 23       		.uleb128 0x23
 3195 07a8 64030000 		.4byte	.LASF97
 3196 07ac 01       		.byte	0x1
 3197 07ad 0F01     		.2byte	0x10f
 3198 07af 01       		.byte	0x1
 3199 07b0 B0000000 		.4byte	0xb0
 3200 07b4 00000000 		.4byte	.LFB11
 3201 07b8 0E000000 		.4byte	.LFE11
 3202 07bc 02       		.byte	0x2
 3203 07bd 7D       		.byte	0x7d
 3204 07be 00       		.sleb128 0
 3205 07bf E2070000 		.4byte	0x7e2
 3206 07c3 24       		.uleb128 0x24
 3207 07c4 616D7800 		.ascii	"amx\000"
 3208 07c8 01       		.byte	0x1
 3209 07c9 0F01     		.2byte	0x10f
 3210 07cb 90060000 		.4byte	0x690
 3211 07cf 1A010000 		.4byte	.LLST12
 3212 07d3 25       		.uleb128 0x25
 3213 07d4 3F000000 		.4byte	.LASF91
 3214 07d8 01       		.byte	0x1
 3215 07d9 0F01     		.2byte	0x10f
 3216 07db 5D020000 		.4byte	0x25d
 3217 07df 01       		.byte	0x1
 3218 07e0 51       		.byte	0x51
 3219 07e1 00       		.byte	0x0
 3220 07e2 23       		.uleb128 0x23
ARM GAS  /tmp/ccDSXDsV.s 			page 58


 3221 07e3 84000000 		.4byte	.LASF98
 3222 07e7 01       		.byte	0x1
 3223 07e8 1D01     		.2byte	0x11d
 3224 07ea 01       		.byte	0x1
 3225 07eb B0000000 		.4byte	0xb0
 3226 07ef 00000000 		.4byte	.LFB12
 3227 07f3 0E000000 		.4byte	.LFE12
 3228 07f7 02       		.byte	0x2
 3229 07f8 7D       		.byte	0x7d
 3230 07f9 00       		.sleb128 0
 3231 07fa 1D080000 		.4byte	0x81d
 3232 07fe 24       		.uleb128 0x24
 3233 07ff 616D7800 		.ascii	"amx\000"
 3234 0803 01       		.byte	0x1
 3235 0804 1D01     		.2byte	0x11d
 3236 0806 90060000 		.4byte	0x690
 3237 080a 2D010000 		.4byte	.LLST13
 3238 080e 25       		.uleb128 0x25
 3239 080f 3F000000 		.4byte	.LASF91
 3240 0813 01       		.byte	0x1
 3241 0814 1D01     		.2byte	0x11d
 3242 0816 5D020000 		.4byte	0x25d
 3243 081a 01       		.byte	0x1
 3244 081b 51       		.byte	0x51
 3245 081c 00       		.byte	0x0
 3246 081d 23       		.uleb128 0x23
 3247 081e 33010000 		.4byte	.LASF99
 3248 0822 01       		.byte	0x1
 3249 0823 2B01     		.2byte	0x12b
 3250 0825 01       		.byte	0x1
 3251 0826 B0000000 		.4byte	0xb0
 3252 082a 00000000 		.4byte	.LFB13
 3253 082e 0C000000 		.4byte	.LFE13
 3254 0832 02       		.byte	0x2
 3255 0833 7D       		.byte	0x7d
 3256 0834 00       		.sleb128 0
 3257 0835 58080000 		.4byte	0x858
 3258 0839 24       		.uleb128 0x24
 3259 083a 616D7800 		.ascii	"amx\000"
 3260 083e 01       		.byte	0x1
 3261 083f 2B01     		.2byte	0x12b
 3262 0841 90060000 		.4byte	0x690
 3263 0845 40010000 		.4byte	.LLST14
 3264 0849 25       		.uleb128 0x25
 3265 084a 3F000000 		.4byte	.LASF91
 3266 084e 01       		.byte	0x1
 3267 084f 2B01     		.2byte	0x12b
 3268 0851 5D020000 		.4byte	0x25d
 3269 0855 01       		.byte	0x1
 3270 0856 51       		.byte	0x51
 3271 0857 00       		.byte	0x0
 3272 0858 23       		.uleb128 0x23
 3273 0859 8E030000 		.4byte	.LASF100
 3274 085d 01       		.byte	0x1
 3275 085e 3101     		.2byte	0x131
 3276 0860 01       		.byte	0x1
 3277 0861 B0000000 		.4byte	0xb0
ARM GAS  /tmp/ccDSXDsV.s 			page 59


 3278 0865 00000000 		.4byte	.LFB14
 3279 0869 0C000000 		.4byte	.LFE14
 3280 086d 02       		.byte	0x2
 3281 086e 7D       		.byte	0x7d
 3282 086f 00       		.sleb128 0
 3283 0870 93080000 		.4byte	0x893
 3284 0874 24       		.uleb128 0x24
 3285 0875 616D7800 		.ascii	"amx\000"
 3286 0879 01       		.byte	0x1
 3287 087a 3101     		.2byte	0x131
 3288 087c 90060000 		.4byte	0x690
 3289 0880 53010000 		.4byte	.LLST15
 3290 0884 25       		.uleb128 0x25
 3291 0885 3F000000 		.4byte	.LASF91
 3292 0889 01       		.byte	0x1
 3293 088a 3101     		.2byte	0x131
 3294 088c 5D020000 		.4byte	0x25d
 3295 0890 01       		.byte	0x1
 3296 0891 51       		.byte	0x51
 3297 0892 00       		.byte	0x0
 3298 0893 26       		.uleb128 0x26
 3299 0894 68050000 		.4byte	.LASF101
 3300 0898 01       		.byte	0x1
 3301 0899 4401     		.2byte	0x144
 3302 089b 01       		.byte	0x1
 3303 089c 77000000 		.4byte	0x77
 3304 08a0 00000000 		.4byte	.LFB16
 3305 08a4 24000000 		.4byte	.LFE16
 3306 08a8 66010000 		.4byte	.LLST16
 3307 08ac E0080000 		.4byte	0x8e0
 3308 08b0 27       		.uleb128 0x27
 3309 08b1 63050000 		.4byte	.LASF102
 3310 08b5 01       		.byte	0x1
 3311 08b6 4401     		.2byte	0x144
 3312 08b8 98020000 		.4byte	0x298
 3313 08bc 86010000 		.4byte	.LLST17
 3314 08c0 28       		.uleb128 0x28
 3315 08c1 6C656E00 		.ascii	"len\000"
 3316 08c5 01       		.byte	0x1
 3317 08c6 4601     		.2byte	0x146
 3318 08c8 4C000000 		.4byte	0x4c
 3319 08cc 02       		.byte	0x2
 3320 08cd 91       		.byte	0x91
 3321 08ce 6C       		.sleb128 -20
 3322 08cf 29       		.uleb128 0x29
 3323 08d0 92050000 		.4byte	.LASF103
 3324 08d4 01       		.byte	0x1
 3325 08d5 4701     		.2byte	0x147
 3326 08d7 77000000 		.4byte	0x77
 3327 08db A4010000 		.4byte	.LLST18
 3328 08df 00       		.byte	0x0
 3329 08e0 26       		.uleb128 0x26
 3330 08e1 43020000 		.4byte	.LASF104
 3331 08e5 01       		.byte	0x1
 3332 08e6 3701     		.2byte	0x137
 3333 08e8 01       		.byte	0x1
 3334 08e9 B0000000 		.4byte	0xb0
ARM GAS  /tmp/ccDSXDsV.s 			page 60


 3335 08ed 00000000 		.4byte	.LFB15
 3336 08f1 24000000 		.4byte	.LFE15
 3337 08f5 C2010000 		.4byte	.LLST19
 3338 08f9 2E090000 		.4byte	0x92e
 3339 08fd 24       		.uleb128 0x24
 3340 08fe 616D7800 		.ascii	"amx\000"
 3341 0902 01       		.byte	0x1
 3342 0903 3701     		.2byte	0x137
 3343 0905 90060000 		.4byte	0x690
 3344 0909 E2010000 		.4byte	.LLST20
 3345 090d 27       		.uleb128 0x27
 3346 090e 3F000000 		.4byte	.LASF91
 3347 0912 01       		.byte	0x1
 3348 0913 3701     		.2byte	0x137
 3349 0915 5D020000 		.4byte	0x25d
 3350 0919 F5010000 		.4byte	.LLST21
 3351 091d 29       		.uleb128 0x29
 3352 091e D7010000 		.4byte	.LASF83
 3353 0922 01       		.byte	0x1
 3354 0923 3901     		.2byte	0x139
 3355 0925 B0000000 		.4byte	0xb0
 3356 0929 13020000 		.4byte	.LLST22
 3357 092d 00       		.byte	0x0
 3358 092e 26       		.uleb128 0x26
 3359 092f BC000000 		.4byte	.LASF105
 3360 0933 01       		.byte	0x1
 3361 0934 AF01     		.2byte	0x1af
 3362 0936 01       		.byte	0x1
 3363 0937 B0000000 		.4byte	0xb0
 3364 093b 00000000 		.4byte	.LFB21
 3365 093f 6C000000 		.4byte	.LFE21
 3366 0943 49020000 		.4byte	.LLST23
 3367 0947 E2090000 		.4byte	0x9e2
 3368 094b 24       		.uleb128 0x24
 3369 094c 616D7800 		.ascii	"amx\000"
 3370 0950 01       		.byte	0x1
 3371 0951 AF01     		.2byte	0x1af
 3372 0953 90060000 		.4byte	0x690
 3373 0957 69020000 		.4byte	.LLST24
 3374 095b 27       		.uleb128 0x27
 3375 095c 3F000000 		.4byte	.LASF91
 3376 0960 01       		.byte	0x1
 3377 0961 AF01     		.2byte	0x1af
 3378 0963 5D020000 		.4byte	0x25d
 3379 0967 7C020000 		.4byte	.LLST25
 3380 096b 28       		.uleb128 0x28
 3381 096c 6C6F00   		.ascii	"lo\000"
 3382 096f 01       		.byte	0x1
 3383 0970 B101     		.2byte	0x1b1
 3384 0972 6A000000 		.4byte	0x6a
 3385 0976 01       		.byte	0x1
 3386 0977 51       		.byte	0x51
 3387 0978 28       		.uleb128 0x28
 3388 0979 686900   		.ascii	"hi\000"
 3389 097c 01       		.byte	0x1
 3390 097d B101     		.2byte	0x1b1
 3391 097f 6A000000 		.4byte	0x6a
ARM GAS  /tmp/ccDSXDsV.s 			page 61


 3392 0983 01       		.byte	0x1
 3393 0984 56       		.byte	0x56
 3394 0985 28       		.uleb128 0x28
 3395 0986 6C6C00   		.ascii	"ll\000"
 3396 0989 01       		.byte	0x1
 3397 098a B101     		.2byte	0x1b1
 3398 098c 6A000000 		.4byte	0x6a
 3399 0990 07       		.byte	0x7
 3400 0991 71       		.byte	0x71
 3401 0992 00       		.sleb128 0
 3402 0993 0A       		.byte	0xa
 3403 0994 6D4E     		.2byte	0x4e6d
 3404 0996 1E       		.byte	0x1e
 3405 0997 9F       		.byte	0x9f
 3406 0998 28       		.uleb128 0x28
 3407 0999 6C6800   		.ascii	"lh\000"
 3408 099c 01       		.byte	0x1
 3409 099d B101     		.2byte	0x1b1
 3410 099f 6A000000 		.4byte	0x6a
 3411 09a3 07       		.byte	0x7
 3412 09a4 71       		.byte	0x71
 3413 09a5 00       		.sleb128 0
 3414 09a6 0A       		.byte	0xa
 3415 09a7 C641     		.2byte	0x41c6
 3416 09a9 1E       		.byte	0x1e
 3417 09aa 9F       		.byte	0x9f
 3418 09ab 28       		.uleb128 0x28
 3419 09ac 686800   		.ascii	"hh\000"
 3420 09af 01       		.byte	0x1
 3421 09b0 B101     		.2byte	0x1b1
 3422 09b2 6A000000 		.4byte	0x6a
 3423 09b6 07       		.byte	0x7
 3424 09b7 76       		.byte	0x76
 3425 09b8 00       		.sleb128 0
 3426 09b9 0A       		.byte	0xa
 3427 09ba C641     		.2byte	0x41c6
 3428 09bc 1E       		.byte	0x1e
 3429 09bd 9F       		.byte	0x9f
 3430 09be 28       		.uleb128 0x28
 3431 09bf 686C00   		.ascii	"hl\000"
 3432 09c2 01       		.byte	0x1
 3433 09c3 B101     		.2byte	0x1b1
 3434 09c5 6A000000 		.4byte	0x6a
 3435 09c9 07       		.byte	0x7
 3436 09ca 76       		.byte	0x76
 3437 09cb 00       		.sleb128 0
 3438 09cc 0A       		.byte	0xa
 3439 09cd 6D4E     		.2byte	0x4e6d
 3440 09cf 1E       		.byte	0x1e
 3441 09d0 9F       		.byte	0x9f
 3442 09d1 29       		.uleb128 0x29
 3443 09d2 8B010000 		.4byte	.LASF106
 3444 09d6 01       		.byte	0x1
 3445 09d7 B201     		.2byte	0x1b2
 3446 09d9 6A000000 		.4byte	0x6a
 3447 09dd 9A020000 		.4byte	.LLST26
 3448 09e1 00       		.byte	0x0
ARM GAS  /tmp/ccDSXDsV.s 			page 62


 3449 09e2 22       		.uleb128 0x22
 3450 09e3 E4040000 		.4byte	.LASF107
 3451 09e7 01       		.byte	0x1
 3452 09e8 C5       		.byte	0xc5
 3453 09e9 01       		.byte	0x1
 3454 09ea B0000000 		.4byte	0xb0
 3455 09ee 00000000 		.4byte	.LFB8
 3456 09f2 2A000000 		.4byte	.LFE8
 3457 09f6 C3020000 		.4byte	.LLST27
 3458 09fa 580A0000 		.4byte	0xa58
 3459 09fe 1C       		.uleb128 0x1c
 3460 09ff 616D7800 		.ascii	"amx\000"
 3461 0a03 01       		.byte	0x1
 3462 0a04 C5       		.byte	0xc5
 3463 0a05 90060000 		.4byte	0x690
 3464 0a09 F0020000 		.4byte	.LLST28
 3465 0a0d 20       		.uleb128 0x20
 3466 0a0e 3F000000 		.4byte	.LASF91
 3467 0a12 01       		.byte	0x1
 3468 0a13 C5       		.byte	0xc5
 3469 0a14 5D020000 		.4byte	0x25d
 3470 0a18 0E030000 		.4byte	.LLST29
 3471 0a1c 21       		.uleb128 0x21
 3472 0a1d 12040000 		.4byte	.LASF36
 3473 0a21 01       		.byte	0x1
 3474 0a22 C7       		.byte	0xc7
 3475 0a23 580A0000 		.4byte	0xa58
 3476 0a27 03       		.byte	0x3
 3477 0a28 91       		.byte	0x91
 3478 0a29 B47F     		.sleb128 -76
 3479 0a2b 1F       		.uleb128 0x1f
 3480 0a2c 56000000 		.4byte	.LASF108
 3481 0a30 01       		.byte	0x1
 3482 0a31 C8       		.byte	0xc8
 3483 0a32 98020000 		.4byte	0x298
 3484 0a36 21030000 		.4byte	.LLST30
 3485 0a3a 21       		.uleb128 0x21
 3486 0a3b 7D010000 		.4byte	.LASF109
 3487 0a3f 01       		.byte	0x1
 3488 0a40 C9       		.byte	0xc9
 3489 0a41 4C000000 		.4byte	0x4c
 3490 0a45 02       		.byte	0x2
 3491 0a46 91       		.byte	0x91
 3492 0a47 74       		.sleb128 -12
 3493 0a48 1E       		.uleb128 0x1e
 3494 0a49 65727200 		.ascii	"err\000"
 3495 0a4d 01       		.byte	0x1
 3496 0a4e C9       		.byte	0xc9
 3497 0a4f 4C000000 		.4byte	0x4c
 3498 0a53 35030000 		.4byte	.LLST31
 3499 0a57 00       		.byte	0x0
 3500 0a58 0F       		.uleb128 0xf
 3501 0a59 7D000000 		.4byte	0x7d
 3502 0a5d 680A0000 		.4byte	0xa68
 3503 0a61 10       		.uleb128 0x10
 3504 0a62 29000000 		.4byte	0x29
 3505 0a66 3F       		.byte	0x3f
ARM GAS  /tmp/ccDSXDsV.s 			page 63


 3506 0a67 00       		.byte	0x0
 3507 0a68 2A       		.uleb128 0x2a
 3508 0a69 79050000 		.4byte	0x579
 3509 0a6d 00000000 		.4byte	.LFB24
 3510 0a71 18000000 		.4byte	.LFE24
 3511 0a75 48030000 		.4byte	.LLST32
 3512 0a79 870A0000 		.4byte	0xa87
 3513 0a7d 2B       		.uleb128 0x2b
 3514 0a7e 91050000 		.4byte	0x591
 3515 0a82 68030000 		.4byte	.LLST33
 3516 0a86 00       		.byte	0x0
 3517 0a87 2A       		.uleb128 0x2a
 3518 0a88 CB050000 		.4byte	0x5cb
 3519 0a8c 00000000 		.4byte	.LFB26
 3520 0a90 54000000 		.4byte	.LFE26
 3521 0a94 86030000 		.4byte	.LLST34
 3522 0a98 DF0A0000 		.4byte	0xadf
 3523 0a9c 2B       		.uleb128 0x2b
 3524 0a9d E7050000 		.4byte	0x5e7
 3525 0aa1 A6030000 		.4byte	.LLST35
 3526 0aa5 2B       		.uleb128 0x2b
 3527 0aa6 F1050000 		.4byte	0x5f1
 3528 0aaa C4030000 		.4byte	.LLST36
 3529 0aae 2B       		.uleb128 0x2b
 3530 0aaf FC050000 		.4byte	0x5fc
 3531 0ab3 E2030000 		.4byte	.LLST37
 3532 0ab7 2B       		.uleb128 0x2b
 3533 0ab8 07060000 		.4byte	0x607
 3534 0abc 00040000 		.4byte	.LLST38
 3535 0ac0 2C       		.uleb128 0x2c
 3536 0ac1 12060000 		.4byte	0x612
 3537 0ac5 1E040000 		.4byte	.LLST39
 3538 0ac9 2C       		.uleb128 0x2c
 3539 0aca 1D060000 		.4byte	0x61d
 3540 0ace 63040000 		.4byte	.LLST40
 3541 0ad2 2D       		.uleb128 0x2d
 3542 0ad3 DC050000 		.4byte	0x5dc
 3543 0ad7 06       		.byte	0x6
 3544 0ad8 03       		.byte	0x3
 3545 0ad9 00000000 		.4byte	proproot
 3546 0add 9F       		.byte	0x9f
 3547 0ade 00       		.byte	0x0
 3548 0adf 26       		.uleb128 0x26
 3549 0ae0 F8000000 		.4byte	.LASF110
 3550 0ae4 01       		.byte	0x1
 3551 0ae5 5001     		.2byte	0x150
 3552 0ae7 01       		.byte	0x1
 3553 0ae8 B0000000 		.4byte	0xb0
 3554 0aec 00000000 		.4byte	.LFB17
 3555 0af0 46000000 		.4byte	.LFE17
 3556 0af4 A7040000 		.4byte	.LLST41
 3557 0af8 4D0B0000 		.4byte	0xb4d
 3558 0afc 24       		.uleb128 0x24
 3559 0afd 616D7800 		.ascii	"amx\000"
 3560 0b01 01       		.byte	0x1
 3561 0b02 5001     		.2byte	0x150
 3562 0b04 90060000 		.4byte	0x690
ARM GAS  /tmp/ccDSXDsV.s 			page 64


 3563 0b08 C7040000 		.4byte	.LLST42
 3564 0b0c 27       		.uleb128 0x27
 3565 0b0d 3F000000 		.4byte	.LASF91
 3566 0b11 01       		.byte	0x1
 3567 0b12 5001     		.2byte	0x150
 3568 0b14 5D020000 		.4byte	0x25d
 3569 0b18 DA040000 		.4byte	.LLST43
 3570 0b1c 29       		.uleb128 0x29
 3571 0b1d 56000000 		.4byte	.LASF108
 3572 0b21 01       		.byte	0x1
 3573 0b22 5201     		.2byte	0x152
 3574 0b24 98020000 		.4byte	0x298
 3575 0b28 F8040000 		.4byte	.LLST44
 3576 0b2c 29       		.uleb128 0x29
 3577 0b2d 12040000 		.4byte	.LASF36
 3578 0b31 01       		.byte	0x1
 3579 0b32 5301     		.2byte	0x153
 3580 0b34 77000000 		.4byte	0x77
 3581 0b38 18050000 		.4byte	.LLST45
 3582 0b3c 29       		.uleb128 0x29
 3583 0b3d EC040000 		.4byte	.LASF86
 3584 0b41 01       		.byte	0x1
 3585 0b42 5401     		.2byte	0x154
 3586 0b44 9D050000 		.4byte	0x59d
 3587 0b48 41050000 		.4byte	.LLST46
 3588 0b4c 00       		.byte	0x0
 3589 0b4d 16       		.uleb128 0x16
 3590 0b4e CE040000 		.4byte	.LASF112
 3591 0b52 01       		.byte	0x1
 3592 0b53 61       		.byte	0x61
 3593 0b54 01       		.byte	0x1
 3594 0b55 01       		.byte	0x1
 3595 0b56 910B0000 		.4byte	0xb91
 3596 0b5a 17       		.uleb128 0x17
 3597 0b5b EC040000 		.4byte	.LASF86
 3598 0b5f 01       		.byte	0x1
 3599 0b60 61       		.byte	0x61
 3600 0b61 9D050000 		.4byte	0x59d
 3601 0b65 1A       		.uleb128 0x1a
 3602 0b66 696400   		.ascii	"id\000"
 3603 0b69 01       		.byte	0x1
 3604 0b6a 61       		.byte	0x61
 3605 0b6b B0000000 		.4byte	0xb0
 3606 0b6f 17       		.uleb128 0x17
 3607 0b70 12040000 		.4byte	.LASF36
 3608 0b74 01       		.byte	0x1
 3609 0b75 61       		.byte	0x61
 3610 0b76 77000000 		.4byte	0x77
 3611 0b7a 17       		.uleb128 0x17
 3612 0b7b D7010000 		.4byte	.LASF83
 3613 0b7f 01       		.byte	0x1
 3614 0b80 61       		.byte	0x61
 3615 0b81 B0000000 		.4byte	0xb0
 3616 0b85 2E       		.uleb128 0x2e
 3617 0b86 70747200 		.ascii	"ptr\000"
 3618 0b8a 01       		.byte	0x1
 3619 0b8b 63       		.byte	0x63
ARM GAS  /tmp/ccDSXDsV.s 			page 65


 3620 0b8c 77000000 		.4byte	0x77
 3621 0b90 00       		.byte	0x0
 3622 0b91 26       		.uleb128 0x26
 3623 0b92 4E040000 		.4byte	.LASF113
 3624 0b96 01       		.byte	0x1
 3625 0b97 6401     		.2byte	0x164
 3626 0b99 01       		.byte	0x1
 3627 0b9a B0000000 		.4byte	0xb0
 3628 0b9e 00000000 		.4byte	.LFB18
 3629 0ba2 A0000000 		.4byte	.LFE18
 3630 0ba6 5F050000 		.4byte	.LLST47
 3631 0baa 7B0C0000 		.4byte	0xc7b
 3632 0bae 24       		.uleb128 0x24
 3633 0baf 616D7800 		.ascii	"amx\000"
 3634 0bb3 01       		.byte	0x1
 3635 0bb4 6401     		.2byte	0x164
 3636 0bb6 90060000 		.4byte	0x690
 3637 0bba 7F050000 		.4byte	.LLST48
 3638 0bbe 27       		.uleb128 0x27
 3639 0bbf 3F000000 		.4byte	.LASF91
 3640 0bc3 01       		.byte	0x1
 3641 0bc4 6401     		.2byte	0x164
 3642 0bc6 5D020000 		.4byte	0x25d
 3643 0bca A8050000 		.4byte	.LLST49
 3644 0bce 29       		.uleb128 0x29
 3645 0bcf 24010000 		.4byte	.LASF90
 3646 0bd3 01       		.byte	0x1
 3647 0bd4 6601     		.2byte	0x166
 3648 0bd6 B0000000 		.4byte	0xb0
 3649 0bda C6050000 		.4byte	.LLST50
 3650 0bde 29       		.uleb128 0x29
 3651 0bdf 56000000 		.4byte	.LASF108
 3652 0be3 01       		.byte	0x1
 3653 0be4 6701     		.2byte	0x167
 3654 0be6 98020000 		.4byte	0x298
 3655 0bea 08060000 		.4byte	.LLST51
 3656 0bee 29       		.uleb128 0x29
 3657 0bef 12040000 		.4byte	.LASF36
 3658 0bf3 01       		.byte	0x1
 3659 0bf4 6801     		.2byte	0x168
 3660 0bf6 77000000 		.4byte	0x77
 3661 0bfa 28060000 		.4byte	.LLST52
 3662 0bfe 29       		.uleb128 0x29
 3663 0bff EC040000 		.4byte	.LASF86
 3664 0c03 01       		.byte	0x1
 3665 0c04 6901     		.2byte	0x169
 3666 0c06 9D050000 		.4byte	0x59d
 3667 0c0a 5C060000 		.4byte	.LLST53
 3668 0c0e 2F       		.uleb128 0x2f
 3669 0c0f A3050000 		.4byte	0x5a3
 3670 0c13 20000000 		.4byte	.LBB6
 3671 0c17 3C000000 		.4byte	.LBE6
 3672 0c1b 01       		.byte	0x1
 3673 0c1c 6F01     		.2byte	0x16f
 3674 0c1e 360C0000 		.4byte	0xc36
 3675 0c22 30       		.uleb128 0x30
 3676 0c23 20000000 		.4byte	.LBB7
ARM GAS  /tmp/ccDSXDsV.s 			page 66


 3677 0c27 3C000000 		.4byte	.LBE7
 3678 0c2b 2C       		.uleb128 0x2c
 3679 0c2c BF050000 		.4byte	0x5bf
 3680 0c30 A7060000 		.4byte	.LLST54
 3681 0c34 00       		.byte	0x0
 3682 0c35 00       		.byte	0x0
 3683 0c36 31       		.uleb128 0x31
 3684 0c37 4D0B0000 		.4byte	0xb4d
 3685 0c3b 5C000000 		.4byte	.LBB8
 3686 0c3f 00000000 		.4byte	.Ldebug_ranges0+0x0
 3687 0c43 01       		.byte	0x1
 3688 0c44 7901     		.2byte	0x179
 3689 0c46 2B       		.uleb128 0x2b
 3690 0c47 7A0B0000 		.4byte	0xb7a
 3691 0c4b C5060000 		.4byte	.LLST55
 3692 0c4f 2B       		.uleb128 0x2b
 3693 0c50 6F0B0000 		.4byte	0xb6f
 3694 0c54 E4060000 		.4byte	.LLST56
 3695 0c58 2B       		.uleb128 0x2b
 3696 0c59 650B0000 		.4byte	0xb65
 3697 0c5d F7060000 		.4byte	.LLST57
 3698 0c61 2B       		.uleb128 0x2b
 3699 0c62 5A0B0000 		.4byte	0xb5a
 3700 0c66 16070000 		.4byte	.LLST58
 3701 0c6a 32       		.uleb128 0x32
 3702 0c6b 18000000 		.4byte	.Ldebug_ranges0+0x18
 3703 0c6f 2C       		.uleb128 0x2c
 3704 0c70 850B0000 		.4byte	0xb85
 3705 0c74 29070000 		.4byte	.LLST59
 3706 0c78 00       		.byte	0x0
 3707 0c79 00       		.byte	0x0
 3708 0c7a 00       		.byte	0x0
 3709 0c7b 26       		.uleb128 0x26
 3710 0c7c 72000000 		.4byte	.LASF114
 3711 0c80 01       		.byte	0x1
 3712 0c81 8001     		.2byte	0x180
 3713 0c83 01       		.byte	0x1
 3714 0c84 B0000000 		.4byte	0xb0
 3715 0c88 00000000 		.4byte	.LFB19
 3716 0c8c 32000000 		.4byte	.LFE19
 3717 0c90 47070000 		.4byte	.LLST60
 3718 0c94 090D0000 		.4byte	0xd09
 3719 0c98 24       		.uleb128 0x24
 3720 0c99 616D7800 		.ascii	"amx\000"
 3721 0c9d 01       		.byte	0x1
 3722 0c9e 8001     		.2byte	0x180
 3723 0ca0 90060000 		.4byte	0x690
 3724 0ca4 67070000 		.4byte	.LLST61
 3725 0ca8 27       		.uleb128 0x27
 3726 0ca9 3F000000 		.4byte	.LASF91
 3727 0cad 01       		.byte	0x1
 3728 0cae 8001     		.2byte	0x180
 3729 0cb0 5D020000 		.4byte	0x25d
 3730 0cb4 7A070000 		.4byte	.LLST62
 3731 0cb8 29       		.uleb128 0x29
 3732 0cb9 24010000 		.4byte	.LASF90
 3733 0cbd 01       		.byte	0x1
ARM GAS  /tmp/ccDSXDsV.s 			page 67


 3734 0cbe 8201     		.2byte	0x182
 3735 0cc0 B0000000 		.4byte	0xb0
 3736 0cc4 A3070000 		.4byte	.LLST63
 3737 0cc8 29       		.uleb128 0x29
 3738 0cc9 56000000 		.4byte	.LASF108
 3739 0ccd 01       		.byte	0x1
 3740 0cce 8301     		.2byte	0x183
 3741 0cd0 98020000 		.4byte	0x298
 3742 0cd4 F1070000 		.4byte	.LLST64
 3743 0cd8 29       		.uleb128 0x29
 3744 0cd9 12040000 		.4byte	.LASF36
 3745 0cdd 01       		.byte	0x1
 3746 0cde 8401     		.2byte	0x184
 3747 0ce0 77000000 		.4byte	0x77
 3748 0ce4 05080000 		.4byte	.LLST65
 3749 0ce8 29       		.uleb128 0x29
 3750 0ce9 EC040000 		.4byte	.LASF86
 3751 0ced 01       		.byte	0x1
 3752 0cee 8501     		.2byte	0x185
 3753 0cf0 9D050000 		.4byte	0x59d
 3754 0cf4 2E080000 		.4byte	.LLST66
 3755 0cf8 29       		.uleb128 0x29
 3756 0cf9 E4000000 		.4byte	.LASF85
 3757 0cfd 01       		.byte	0x1
 3758 0cfe 8501     		.2byte	0x185
 3759 0d00 9D050000 		.4byte	0x59d
 3760 0d04 57080000 		.4byte	.LLST67
 3761 0d08 00       		.byte	0x0
 3762 0d09 26       		.uleb128 0x26
 3763 0d0a 5D020000 		.4byte	.LASF115
 3764 0d0e 01       		.byte	0x1
 3765 0d0f 9401     		.2byte	0x194
 3766 0d11 01       		.byte	0x1
 3767 0d12 B0000000 		.4byte	0xb0
 3768 0d16 00000000 		.4byte	.LFB20
 3769 0d1a 28000000 		.4byte	.LFE20
 3770 0d1e 77080000 		.4byte	.LLST68
 3771 0d22 770D0000 		.4byte	0xd77
 3772 0d26 24       		.uleb128 0x24
 3773 0d27 616D7800 		.ascii	"amx\000"
 3774 0d2b 01       		.byte	0x1
 3775 0d2c 9401     		.2byte	0x194
 3776 0d2e 90060000 		.4byte	0x690
 3777 0d32 97080000 		.4byte	.LLST69
 3778 0d36 27       		.uleb128 0x27
 3779 0d37 3F000000 		.4byte	.LASF91
 3780 0d3b 01       		.byte	0x1
 3781 0d3c 9401     		.2byte	0x194
 3782 0d3e 5D020000 		.4byte	0x25d
 3783 0d42 AA080000 		.4byte	.LLST70
 3784 0d46 29       		.uleb128 0x29
 3785 0d47 56000000 		.4byte	.LASF108
 3786 0d4b 01       		.byte	0x1
 3787 0d4c 9601     		.2byte	0x196
 3788 0d4e 98020000 		.4byte	0x298
 3789 0d52 C8080000 		.4byte	.LLST71
 3790 0d56 29       		.uleb128 0x29
ARM GAS  /tmp/ccDSXDsV.s 			page 68


 3791 0d57 12040000 		.4byte	.LASF36
 3792 0d5b 01       		.byte	0x1
 3793 0d5c 9701     		.2byte	0x197
 3794 0d5e 77000000 		.4byte	0x77
 3795 0d62 DC080000 		.4byte	.LLST72
 3796 0d66 29       		.uleb128 0x29
 3797 0d67 EC040000 		.4byte	.LASF86
 3798 0d6b 01       		.byte	0x1
 3799 0d6c 9801     		.2byte	0x198
 3800 0d6e 9D050000 		.4byte	0x59d
 3801 0d72 05090000 		.4byte	.LLST73
 3802 0d76 00       		.byte	0x0
 3803 0d77 33       		.uleb128 0x33
 3804 0d78 01       		.byte	0x1
 3805 0d79 0F010000 		.4byte	.LASF125
 3806 0d7d 01       		.byte	0x1
 3807 0d7e D3       		.byte	0xd3
 3808 0d7f 01       		.byte	0x1
 3809 0d80 00000000 		.4byte	.LFB9
 3810 0d84 22000000 		.4byte	.LFE9
 3811 0d88 02       		.byte	0x2
 3812 0d89 7D       		.byte	0x7d
 3813 0d8a 00       		.sleb128 0
 3814 0d8b D30D0000 		.4byte	0xdd3
 3815 0d8f 34       		.uleb128 0x34
 3816 0d90 706300   		.ascii	"pc\000"
 3817 0d93 01       		.byte	0x1
 3818 0d94 D3       		.byte	0xd3
 3819 0d95 98020000 		.4byte	0x298
 3820 0d99 01       		.byte	0x1
 3821 0d9a 50       		.byte	0x50
 3822 0d9b 35       		.uleb128 0x35
 3823 0d9c 04       		.byte	0x4
 3824 0d9d 01       		.byte	0x1
 3825 0d9e D5       		.byte	0xd5
 3826 0d9f B60D0000 		.4byte	0xdb6
 3827 0da3 36       		.uleb128 0x36
 3828 0da4 6300     		.ascii	"c\000"
 3829 0da6 01       		.byte	0x1
 3830 0da7 D6       		.byte	0xd6
 3831 0da8 B0000000 		.4byte	0xb0
 3832 0dac 36       		.uleb128 0x36
 3833 0dad 6200     		.ascii	"b\000"
 3834 0daf 01       		.byte	0x1
 3835 0db0 DA       		.byte	0xda
 3836 0db1 D30D0000 		.4byte	0xdd3
 3837 0db5 00       		.byte	0x0
 3838 0db6 1F       		.uleb128 0x1f
 3839 0db7 D7010000 		.4byte	.LASF83
 3840 0dbb 01       		.byte	0x1
 3841 0dbc E0       		.byte	0xe0
 3842 0dbd 9B0D0000 		.4byte	0xd9b
 3843 0dc1 23090000 		.4byte	.LLST74
 3844 0dc5 1E       		.uleb128 0x1e
 3845 0dc6 7400     		.ascii	"t\000"
 3846 0dc8 01       		.byte	0x1
 3847 0dc9 E1       		.byte	0xe1
ARM GAS  /tmp/ccDSXDsV.s 			page 69


 3848 0dca 19050000 		.4byte	0x519
 3849 0dce 36090000 		.4byte	.LLST75
 3850 0dd2 00       		.byte	0x0
 3851 0dd3 0F       		.uleb128 0xf
 3852 0dd4 19050000 		.4byte	0x519
 3853 0dd8 E30D0000 		.4byte	0xde3
 3854 0ddc 10       		.uleb128 0x10
 3855 0ddd 29000000 		.4byte	0x29
 3856 0de1 03       		.byte	0x3
 3857 0de2 00       		.byte	0x0
 3858 0de3 26       		.uleb128 0x26
 3859 0de4 BB030000 		.4byte	.LASF116
 3860 0de8 01       		.byte	0x1
 3861 0de9 0301     		.2byte	0x103
 3862 0deb 01       		.byte	0x1
 3863 0dec B0000000 		.4byte	0xb0
 3864 0df0 00000000 		.4byte	.LFB10
 3865 0df4 12000000 		.4byte	.LFE10
 3866 0df8 49090000 		.4byte	.LLST76
 3867 0dfc 2E0E0000 		.4byte	0xe2e
 3868 0e00 24       		.uleb128 0x24
 3869 0e01 616D7800 		.ascii	"amx\000"
 3870 0e05 01       		.byte	0x1
 3871 0e06 0301     		.2byte	0x103
 3872 0e08 90060000 		.4byte	0x690
 3873 0e0c 69090000 		.4byte	.LLST77
 3874 0e10 27       		.uleb128 0x27
 3875 0e11 3F000000 		.4byte	.LASF91
 3876 0e15 01       		.byte	0x1
 3877 0e16 0301     		.2byte	0x103
 3878 0e18 5D020000 		.4byte	0x25d
 3879 0e1c 7C090000 		.4byte	.LLST78
 3880 0e20 28       		.uleb128 0x28
 3881 0e21 6300     		.ascii	"c\000"
 3882 0e23 01       		.byte	0x1
 3883 0e24 0501     		.2byte	0x105
 3884 0e26 B0000000 		.4byte	0xb0
 3885 0e2a 02       		.byte	0x2
 3886 0e2b 70       		.byte	0x70
 3887 0e2c 7C       		.sleb128 -4
 3888 0e2d 00       		.byte	0x0
 3889 0e2e 37       		.uleb128 0x37
 3890 0e2f 01       		.byte	0x1
 3891 0e30 5A040000 		.4byte	.LASF117
 3892 0e34 01       		.byte	0x1
 3893 0e35 E701     		.2byte	0x1e7
 3894 0e37 01       		.byte	0x1
 3895 0e38 4C000000 		.4byte	0x4c
 3896 0e3c 00000000 		.4byte	.LFB22
 3897 0e40 10000000 		.4byte	.LFE22
 3898 0e44 02       		.byte	0x2
 3899 0e45 7D       		.byte	0x7d
 3900 0e46 00       		.sleb128 0
 3901 0e47 5C0E0000 		.4byte	0xe5c
 3902 0e4b 24       		.uleb128 0x24
 3903 0e4c 616D7800 		.ascii	"amx\000"
 3904 0e50 01       		.byte	0x1
ARM GAS  /tmp/ccDSXDsV.s 			page 70


 3905 0e51 E701     		.2byte	0x1e7
 3906 0e53 90060000 		.4byte	0x690
 3907 0e57 8F090000 		.4byte	.LLST79
 3908 0e5b 00       		.byte	0x0
 3909 0e5c 38       		.uleb128 0x38
 3910 0e5d 01       		.byte	0x1
 3911 0e5e 79050000 		.4byte	.LASF118
 3912 0e62 01       		.byte	0x1
 3913 0e63 EC01     		.2byte	0x1ec
 3914 0e65 01       		.byte	0x1
 3915 0e66 4C000000 		.4byte	0x4c
 3916 0e6a 00000000 		.4byte	.LFB23
 3917 0e6e 18000000 		.4byte	.LFE23
 3918 0e72 A2090000 		.4byte	.LLST80
 3919 0e76 8B0E0000 		.4byte	0xe8b
 3920 0e7a 24       		.uleb128 0x24
 3921 0e7b 616D7800 		.ascii	"amx\000"
 3922 0e7f 01       		.byte	0x1
 3923 0e80 EC01     		.2byte	0x1ec
 3924 0e82 90060000 		.4byte	0x690
 3925 0e86 C2090000 		.4byte	.LLST81
 3926 0e8a 00       		.byte	0x0
 3927 0e8b 21       		.uleb128 0x21
 3928 0e8c 5B000000 		.4byte	.LASF119
 3929 0e90 01       		.byte	0x1
 3930 0e91 48       		.byte	0x48
 3931 0e92 6E050000 		.4byte	0x56e
 3932 0e96 05       		.byte	0x5
 3933 0e97 03       		.byte	0x3
 3934 0e98 00000000 		.4byte	proproot
 3935 0e9c 39       		.uleb128 0x39
 3936 0e9d F4010000 		.4byte	.LASF120
 3937 0ea1 01       		.byte	0x1
 3938 0ea2 AA01     		.2byte	0x1aa
 3939 0ea4 6A000000 		.4byte	0x6a
 3940 0ea8 05       		.byte	0x5
 3941 0ea9 03       		.byte	0x3
 3942 0eaa 00000000 		.4byte	IL_StandardRandom_seed
 3943 0eae 0F       		.uleb128 0xf
 3944 0eaf 0E030000 		.4byte	0x30e
 3945 0eb3 BE0E0000 		.4byte	0xebe
 3946 0eb7 10       		.uleb128 0x10
 3947 0eb8 29000000 		.4byte	0x29
 3948 0ebc 10       		.byte	0x10
 3949 0ebd 00       		.byte	0x0
 3950 0ebe 3A       		.uleb128 0x3a
 3951 0ebf 0B030000 		.4byte	.LASF121
 3952 0ec3 01       		.byte	0x1
 3953 0ec4 CF01     		.2byte	0x1cf
 3954 0ec6 CC0E0000 		.4byte	0xecc
 3955 0eca 01       		.byte	0x1
 3956 0ecb 01       		.byte	0x1
 3957 0ecc 06       		.uleb128 0x6
 3958 0ecd AE0E0000 		.4byte	0xeae
 3959 0ed1 3B       		.uleb128 0x3b
 3960 0ed2 0B030000 		.4byte	.LASF121
 3961 0ed6 01       		.byte	0x1
ARM GAS  /tmp/ccDSXDsV.s 			page 71


 3962 0ed7 CF01     		.2byte	0x1cf
 3963 0ed9 E40E0000 		.4byte	0xee4
 3964 0edd 01       		.byte	0x1
 3965 0ede 05       		.byte	0x5
 3966 0edf 03       		.byte	0x3
 3967 0ee0 00000000 		.4byte	core_Natives
 3968 0ee4 06       		.uleb128 0x6
 3969 0ee5 AE0E0000 		.4byte	0xeae
 3970 0ee9 00       		.byte	0x0
 3971              		.section	.debug_abbrev
 3972 0000 01       		.uleb128 0x1
 3973 0001 11       		.uleb128 0x11
 3974 0002 01       		.byte	0x1
 3975 0003 25       		.uleb128 0x25
 3976 0004 0E       		.uleb128 0xe
 3977 0005 13       		.uleb128 0x13
 3978 0006 0B       		.uleb128 0xb
 3979 0007 03       		.uleb128 0x3
 3980 0008 0E       		.uleb128 0xe
 3981 0009 1B       		.uleb128 0x1b
 3982 000a 0E       		.uleb128 0xe
 3983 000b 11       		.uleb128 0x11
 3984 000c 01       		.uleb128 0x1
 3985 000d 52       		.uleb128 0x52
 3986 000e 01       		.uleb128 0x1
 3987 000f 55       		.uleb128 0x55
 3988 0010 06       		.uleb128 0x6
 3989 0011 10       		.uleb128 0x10
 3990 0012 06       		.uleb128 0x6
 3991 0013 00       		.byte	0x0
 3992 0014 00       		.byte	0x0
 3993 0015 02       		.uleb128 0x2
 3994 0016 24       		.uleb128 0x24
 3995 0017 00       		.byte	0x0
 3996 0018 0B       		.uleb128 0xb
 3997 0019 0B       		.uleb128 0xb
 3998 001a 3E       		.uleb128 0x3e
 3999 001b 0B       		.uleb128 0xb
 4000 001c 03       		.uleb128 0x3
 4001 001d 0E       		.uleb128 0xe
 4002 001e 00       		.byte	0x0
 4003 001f 00       		.byte	0x0
 4004 0020 03       		.uleb128 0x3
 4005 0021 24       		.uleb128 0x24
 4006 0022 00       		.byte	0x0
 4007 0023 0B       		.uleb128 0xb
 4008 0024 0B       		.uleb128 0xb
 4009 0025 3E       		.uleb128 0x3e
 4010 0026 0B       		.uleb128 0xb
 4011 0027 03       		.uleb128 0x3
 4012 0028 08       		.uleb128 0x8
 4013 0029 00       		.byte	0x0
 4014 002a 00       		.byte	0x0
 4015 002b 04       		.uleb128 0x4
 4016 002c 0F       		.uleb128 0xf
 4017 002d 00       		.byte	0x0
 4018 002e 0B       		.uleb128 0xb
ARM GAS  /tmp/ccDSXDsV.s 			page 72


 4019 002f 0B       		.uleb128 0xb
 4020 0030 00       		.byte	0x0
 4021 0031 00       		.byte	0x0
 4022 0032 05       		.uleb128 0x5
 4023 0033 0F       		.uleb128 0xf
 4024 0034 00       		.byte	0x0
 4025 0035 0B       		.uleb128 0xb
 4026 0036 0B       		.uleb128 0xb
 4027 0037 49       		.uleb128 0x49
 4028 0038 13       		.uleb128 0x13
 4029 0039 00       		.byte	0x0
 4030 003a 00       		.byte	0x0
 4031 003b 06       		.uleb128 0x6
 4032 003c 26       		.uleb128 0x26
 4033 003d 00       		.byte	0x0
 4034 003e 49       		.uleb128 0x49
 4035 003f 13       		.uleb128 0x13
 4036 0040 00       		.byte	0x0
 4037 0041 00       		.byte	0x0
 4038 0042 07       		.uleb128 0x7
 4039 0043 16       		.uleb128 0x16
 4040 0044 00       		.byte	0x0
 4041 0045 03       		.uleb128 0x3
 4042 0046 0E       		.uleb128 0xe
 4043 0047 3A       		.uleb128 0x3a
 4044 0048 0B       		.uleb128 0xb
 4045 0049 3B       		.uleb128 0x3b
 4046 004a 0B       		.uleb128 0xb
 4047 004b 49       		.uleb128 0x49
 4048 004c 13       		.uleb128 0x13
 4049 004d 00       		.byte	0x0
 4050 004e 00       		.byte	0x0
 4051 004f 08       		.uleb128 0x8
 4052 0050 15       		.uleb128 0x15
 4053 0051 01       		.byte	0x1
 4054 0052 27       		.uleb128 0x27
 4055 0053 0C       		.uleb128 0xc
 4056 0054 49       		.uleb128 0x49
 4057 0055 13       		.uleb128 0x13
 4058 0056 01       		.uleb128 0x1
 4059 0057 13       		.uleb128 0x13
 4060 0058 00       		.byte	0x0
 4061 0059 00       		.byte	0x0
 4062 005a 09       		.uleb128 0x9
 4063 005b 05       		.uleb128 0x5
 4064 005c 00       		.byte	0x0
 4065 005d 49       		.uleb128 0x49
 4066 005e 13       		.uleb128 0x13
 4067 005f 00       		.byte	0x0
 4068 0060 00       		.byte	0x0
 4069 0061 0A       		.uleb128 0xa
 4070 0062 13       		.uleb128 0x13
 4071 0063 01       		.byte	0x1
 4072 0064 03       		.uleb128 0x3
 4073 0065 0E       		.uleb128 0xe
 4074 0066 0B       		.uleb128 0xb
 4075 0067 0B       		.uleb128 0xb
ARM GAS  /tmp/ccDSXDsV.s 			page 73


 4076 0068 3A       		.uleb128 0x3a
 4077 0069 0B       		.uleb128 0xb
 4078 006a 3B       		.uleb128 0x3b
 4079 006b 05       		.uleb128 0x5
 4080 006c 01       		.uleb128 0x1
 4081 006d 13       		.uleb128 0x13
 4082 006e 00       		.byte	0x0
 4083 006f 00       		.byte	0x0
 4084 0070 0B       		.uleb128 0xb
 4085 0071 0D       		.uleb128 0xd
 4086 0072 00       		.byte	0x0
 4087 0073 03       		.uleb128 0x3
 4088 0074 0E       		.uleb128 0xe
 4089 0075 3A       		.uleb128 0x3a
 4090 0076 0B       		.uleb128 0xb
 4091 0077 3B       		.uleb128 0x3b
 4092 0078 05       		.uleb128 0x5
 4093 0079 49       		.uleb128 0x49
 4094 007a 13       		.uleb128 0x13
 4095 007b 38       		.uleb128 0x38
 4096 007c 0A       		.uleb128 0xa
 4097 007d 00       		.byte	0x0
 4098 007e 00       		.byte	0x0
 4099 007f 0C       		.uleb128 0xc
 4100 0080 0D       		.uleb128 0xd
 4101 0081 00       		.byte	0x0
 4102 0082 03       		.uleb128 0x3
 4103 0083 08       		.uleb128 0x8
 4104 0084 3A       		.uleb128 0x3a
 4105 0085 0B       		.uleb128 0xb
 4106 0086 3B       		.uleb128 0x3b
 4107 0087 05       		.uleb128 0x5
 4108 0088 49       		.uleb128 0x49
 4109 0089 13       		.uleb128 0x13
 4110 008a 38       		.uleb128 0x38
 4111 008b 0A       		.uleb128 0xa
 4112 008c 00       		.byte	0x0
 4113 008d 00       		.byte	0x0
 4114 008e 0D       		.uleb128 0xd
 4115 008f 13       		.uleb128 0x13
 4116 0090 01       		.byte	0x1
 4117 0091 03       		.uleb128 0x3
 4118 0092 0E       		.uleb128 0xe
 4119 0093 0B       		.uleb128 0xb
 4120 0094 0B       		.uleb128 0xb
 4121 0095 3A       		.uleb128 0x3a
 4122 0096 0B       		.uleb128 0xb
 4123 0097 3B       		.uleb128 0x3b
 4124 0098 0B       		.uleb128 0xb
 4125 0099 01       		.uleb128 0x1
 4126 009a 13       		.uleb128 0x13
 4127 009b 00       		.byte	0x0
 4128 009c 00       		.byte	0x0
 4129 009d 0E       		.uleb128 0xe
 4130 009e 0D       		.uleb128 0xd
 4131 009f 00       		.byte	0x0
 4132 00a0 03       		.uleb128 0x3
ARM GAS  /tmp/ccDSXDsV.s 			page 74


 4133 00a1 0E       		.uleb128 0xe
 4134 00a2 3A       		.uleb128 0x3a
 4135 00a3 0B       		.uleb128 0xb
 4136 00a4 3B       		.uleb128 0x3b
 4137 00a5 0B       		.uleb128 0xb
 4138 00a6 49       		.uleb128 0x49
 4139 00a7 13       		.uleb128 0x13
 4140 00a8 38       		.uleb128 0x38
 4141 00a9 0A       		.uleb128 0xa
 4142 00aa 00       		.byte	0x0
 4143 00ab 00       		.byte	0x0
 4144 00ac 0F       		.uleb128 0xf
 4145 00ad 01       		.uleb128 0x1
 4146 00ae 01       		.byte	0x1
 4147 00af 49       		.uleb128 0x49
 4148 00b0 13       		.uleb128 0x13
 4149 00b1 01       		.uleb128 0x1
 4150 00b2 13       		.uleb128 0x13
 4151 00b3 00       		.byte	0x0
 4152 00b4 00       		.byte	0x0
 4153 00b5 10       		.uleb128 0x10
 4154 00b6 21       		.uleb128 0x21
 4155 00b7 00       		.byte	0x0
 4156 00b8 49       		.uleb128 0x49
 4157 00b9 13       		.uleb128 0x13
 4158 00ba 2F       		.uleb128 0x2f
 4159 00bb 0B       		.uleb128 0xb
 4160 00bc 00       		.byte	0x0
 4161 00bd 00       		.byte	0x0
 4162 00be 11       		.uleb128 0x11
 4163 00bf 16       		.uleb128 0x16
 4164 00c0 00       		.byte	0x0
 4165 00c1 03       		.uleb128 0x3
 4166 00c2 08       		.uleb128 0x8
 4167 00c3 3A       		.uleb128 0x3a
 4168 00c4 0B       		.uleb128 0xb
 4169 00c5 3B       		.uleb128 0x3b
 4170 00c6 05       		.uleb128 0x5
 4171 00c7 49       		.uleb128 0x49
 4172 00c8 13       		.uleb128 0x13
 4173 00c9 00       		.byte	0x0
 4174 00ca 00       		.byte	0x0
 4175 00cb 12       		.uleb128 0x12
 4176 00cc 16       		.uleb128 0x16
 4177 00cd 00       		.byte	0x0
 4178 00ce 03       		.uleb128 0x3
 4179 00cf 0E       		.uleb128 0xe
 4180 00d0 3A       		.uleb128 0x3a
 4181 00d1 0B       		.uleb128 0xb
 4182 00d2 3B       		.uleb128 0x3b
 4183 00d3 05       		.uleb128 0x5
 4184 00d4 49       		.uleb128 0x49
 4185 00d5 13       		.uleb128 0x13
 4186 00d6 00       		.byte	0x0
 4187 00d7 00       		.byte	0x0
 4188 00d8 13       		.uleb128 0x13
 4189 00d9 04       		.uleb128 0x4
ARM GAS  /tmp/ccDSXDsV.s 			page 75


 4190 00da 01       		.byte	0x1
 4191 00db 0B       		.uleb128 0xb
 4192 00dc 0B       		.uleb128 0xb
 4193 00dd 3A       		.uleb128 0x3a
 4194 00de 0B       		.uleb128 0xb
 4195 00df 3B       		.uleb128 0x3b
 4196 00e0 05       		.uleb128 0x5
 4197 00e1 01       		.uleb128 0x1
 4198 00e2 13       		.uleb128 0x13
 4199 00e3 00       		.byte	0x0
 4200 00e4 00       		.byte	0x0
 4201 00e5 14       		.uleb128 0x14
 4202 00e6 28       		.uleb128 0x28
 4203 00e7 00       		.byte	0x0
 4204 00e8 03       		.uleb128 0x3
 4205 00e9 0E       		.uleb128 0xe
 4206 00ea 1C       		.uleb128 0x1c
 4207 00eb 0D       		.uleb128 0xd
 4208 00ec 00       		.byte	0x0
 4209 00ed 00       		.byte	0x0
 4210 00ee 15       		.uleb128 0x15
 4211 00ef 0D       		.uleb128 0xd
 4212 00f0 00       		.byte	0x0
 4213 00f1 03       		.uleb128 0x3
 4214 00f2 08       		.uleb128 0x8
 4215 00f3 3A       		.uleb128 0x3a
 4216 00f4 0B       		.uleb128 0xb
 4217 00f5 3B       		.uleb128 0x3b
 4218 00f6 0B       		.uleb128 0xb
 4219 00f7 49       		.uleb128 0x49
 4220 00f8 13       		.uleb128 0x13
 4221 00f9 38       		.uleb128 0x38
 4222 00fa 0A       		.uleb128 0xa
 4223 00fb 00       		.byte	0x0
 4224 00fc 00       		.byte	0x0
 4225 00fd 16       		.uleb128 0x16
 4226 00fe 2E       		.uleb128 0x2e
 4227 00ff 01       		.byte	0x1
 4228 0100 03       		.uleb128 0x3
 4229 0101 0E       		.uleb128 0xe
 4230 0102 3A       		.uleb128 0x3a
 4231 0103 0B       		.uleb128 0xb
 4232 0104 3B       		.uleb128 0x3b
 4233 0105 0B       		.uleb128 0xb
 4234 0106 27       		.uleb128 0x27
 4235 0107 0C       		.uleb128 0xc
 4236 0108 20       		.uleb128 0x20
 4237 0109 0B       		.uleb128 0xb
 4238 010a 01       		.uleb128 0x1
 4239 010b 13       		.uleb128 0x13
 4240 010c 00       		.byte	0x0
 4241 010d 00       		.byte	0x0
 4242 010e 17       		.uleb128 0x17
 4243 010f 05       		.uleb128 0x5
 4244 0110 00       		.byte	0x0
 4245 0111 03       		.uleb128 0x3
 4246 0112 0E       		.uleb128 0xe
ARM GAS  /tmp/ccDSXDsV.s 			page 76


 4247 0113 3A       		.uleb128 0x3a
 4248 0114 0B       		.uleb128 0xb
 4249 0115 3B       		.uleb128 0x3b
 4250 0116 0B       		.uleb128 0xb
 4251 0117 49       		.uleb128 0x49
 4252 0118 13       		.uleb128 0x13
 4253 0119 00       		.byte	0x0
 4254 011a 00       		.byte	0x0
 4255 011b 18       		.uleb128 0x18
 4256 011c 2E       		.uleb128 0x2e
 4257 011d 01       		.byte	0x1
 4258 011e 03       		.uleb128 0x3
 4259 011f 0E       		.uleb128 0xe
 4260 0120 3A       		.uleb128 0x3a
 4261 0121 0B       		.uleb128 0xb
 4262 0122 3B       		.uleb128 0x3b
 4263 0123 0B       		.uleb128 0xb
 4264 0124 27       		.uleb128 0x27
 4265 0125 0C       		.uleb128 0xc
 4266 0126 49       		.uleb128 0x49
 4267 0127 13       		.uleb128 0x13
 4268 0128 20       		.uleb128 0x20
 4269 0129 0B       		.uleb128 0xb
 4270 012a 01       		.uleb128 0x1
 4271 012b 13       		.uleb128 0x13
 4272 012c 00       		.byte	0x0
 4273 012d 00       		.byte	0x0
 4274 012e 19       		.uleb128 0x19
 4275 012f 34       		.uleb128 0x34
 4276 0130 00       		.byte	0x0
 4277 0131 03       		.uleb128 0x3
 4278 0132 0E       		.uleb128 0xe
 4279 0133 3A       		.uleb128 0x3a
 4280 0134 0B       		.uleb128 0xb
 4281 0135 3B       		.uleb128 0x3b
 4282 0136 0B       		.uleb128 0xb
 4283 0137 49       		.uleb128 0x49
 4284 0138 13       		.uleb128 0x13
 4285 0139 00       		.byte	0x0
 4286 013a 00       		.byte	0x0
 4287 013b 1A       		.uleb128 0x1a
 4288 013c 05       		.uleb128 0x5
 4289 013d 00       		.byte	0x0
 4290 013e 03       		.uleb128 0x3
 4291 013f 08       		.uleb128 0x8
 4292 0140 3A       		.uleb128 0x3a
 4293 0141 0B       		.uleb128 0xb
 4294 0142 3B       		.uleb128 0x3b
 4295 0143 0B       		.uleb128 0xb
 4296 0144 49       		.uleb128 0x49
 4297 0145 13       		.uleb128 0x13
 4298 0146 00       		.byte	0x0
 4299 0147 00       		.byte	0x0
 4300 0148 1B       		.uleb128 0x1b
 4301 0149 2E       		.uleb128 0x2e
 4302 014a 01       		.byte	0x1
 4303 014b 03       		.uleb128 0x3
ARM GAS  /tmp/ccDSXDsV.s 			page 77


 4304 014c 0E       		.uleb128 0xe
 4305 014d 3A       		.uleb128 0x3a
 4306 014e 0B       		.uleb128 0xb
 4307 014f 3B       		.uleb128 0x3b
 4308 0150 0B       		.uleb128 0xb
 4309 0151 27       		.uleb128 0x27
 4310 0152 0C       		.uleb128 0xc
 4311 0153 49       		.uleb128 0x49
 4312 0154 13       		.uleb128 0x13
 4313 0155 11       		.uleb128 0x11
 4314 0156 01       		.uleb128 0x1
 4315 0157 12       		.uleb128 0x12
 4316 0158 01       		.uleb128 0x1
 4317 0159 40       		.uleb128 0x40
 4318 015a 0A       		.uleb128 0xa
 4319 015b 01       		.uleb128 0x1
 4320 015c 13       		.uleb128 0x13
 4321 015d 00       		.byte	0x0
 4322 015e 00       		.byte	0x0
 4323 015f 1C       		.uleb128 0x1c
 4324 0160 05       		.uleb128 0x5
 4325 0161 00       		.byte	0x0
 4326 0162 03       		.uleb128 0x3
 4327 0163 08       		.uleb128 0x8
 4328 0164 3A       		.uleb128 0x3a
 4329 0165 0B       		.uleb128 0xb
 4330 0166 3B       		.uleb128 0x3b
 4331 0167 0B       		.uleb128 0xb
 4332 0168 49       		.uleb128 0x49
 4333 0169 13       		.uleb128 0x13
 4334 016a 02       		.uleb128 0x2
 4335 016b 06       		.uleb128 0x6
 4336 016c 00       		.byte	0x0
 4337 016d 00       		.byte	0x0
 4338 016e 1D       		.uleb128 0x1d
 4339 016f 05       		.uleb128 0x5
 4340 0170 00       		.byte	0x0
 4341 0171 03       		.uleb128 0x3
 4342 0172 0E       		.uleb128 0xe
 4343 0173 3A       		.uleb128 0x3a
 4344 0174 0B       		.uleb128 0xb
 4345 0175 3B       		.uleb128 0x3b
 4346 0176 0B       		.uleb128 0xb
 4347 0177 49       		.uleb128 0x49
 4348 0178 13       		.uleb128 0x13
 4349 0179 02       		.uleb128 0x2
 4350 017a 0A       		.uleb128 0xa
 4351 017b 00       		.byte	0x0
 4352 017c 00       		.byte	0x0
 4353 017d 1E       		.uleb128 0x1e
 4354 017e 34       		.uleb128 0x34
 4355 017f 00       		.byte	0x0
 4356 0180 03       		.uleb128 0x3
 4357 0181 08       		.uleb128 0x8
 4358 0182 3A       		.uleb128 0x3a
 4359 0183 0B       		.uleb128 0xb
 4360 0184 3B       		.uleb128 0x3b
ARM GAS  /tmp/ccDSXDsV.s 			page 78


 4361 0185 0B       		.uleb128 0xb
 4362 0186 49       		.uleb128 0x49
 4363 0187 13       		.uleb128 0x13
 4364 0188 02       		.uleb128 0x2
 4365 0189 06       		.uleb128 0x6
 4366 018a 00       		.byte	0x0
 4367 018b 00       		.byte	0x0
 4368 018c 1F       		.uleb128 0x1f
 4369 018d 34       		.uleb128 0x34
 4370 018e 00       		.byte	0x0
 4371 018f 03       		.uleb128 0x3
 4372 0190 0E       		.uleb128 0xe
 4373 0191 3A       		.uleb128 0x3a
 4374 0192 0B       		.uleb128 0xb
 4375 0193 3B       		.uleb128 0x3b
 4376 0194 0B       		.uleb128 0xb
 4377 0195 49       		.uleb128 0x49
 4378 0196 13       		.uleb128 0x13
 4379 0197 02       		.uleb128 0x2
 4380 0198 06       		.uleb128 0x6
 4381 0199 00       		.byte	0x0
 4382 019a 00       		.byte	0x0
 4383 019b 20       		.uleb128 0x20
 4384 019c 05       		.uleb128 0x5
 4385 019d 00       		.byte	0x0
 4386 019e 03       		.uleb128 0x3
 4387 019f 0E       		.uleb128 0xe
 4388 01a0 3A       		.uleb128 0x3a
 4389 01a1 0B       		.uleb128 0xb
 4390 01a2 3B       		.uleb128 0x3b
 4391 01a3 0B       		.uleb128 0xb
 4392 01a4 49       		.uleb128 0x49
 4393 01a5 13       		.uleb128 0x13
 4394 01a6 02       		.uleb128 0x2
 4395 01a7 06       		.uleb128 0x6
 4396 01a8 00       		.byte	0x0
 4397 01a9 00       		.byte	0x0
 4398 01aa 21       		.uleb128 0x21
 4399 01ab 34       		.uleb128 0x34
 4400 01ac 00       		.byte	0x0
 4401 01ad 03       		.uleb128 0x3
 4402 01ae 0E       		.uleb128 0xe
 4403 01af 3A       		.uleb128 0x3a
 4404 01b0 0B       		.uleb128 0xb
 4405 01b1 3B       		.uleb128 0x3b
 4406 01b2 0B       		.uleb128 0xb
 4407 01b3 49       		.uleb128 0x49
 4408 01b4 13       		.uleb128 0x13
 4409 01b5 02       		.uleb128 0x2
 4410 01b6 0A       		.uleb128 0xa
 4411 01b7 00       		.byte	0x0
 4412 01b8 00       		.byte	0x0
 4413 01b9 22       		.uleb128 0x22
 4414 01ba 2E       		.uleb128 0x2e
 4415 01bb 01       		.byte	0x1
 4416 01bc 03       		.uleb128 0x3
 4417 01bd 0E       		.uleb128 0xe
ARM GAS  /tmp/ccDSXDsV.s 			page 79


 4418 01be 3A       		.uleb128 0x3a
 4419 01bf 0B       		.uleb128 0xb
 4420 01c0 3B       		.uleb128 0x3b
 4421 01c1 0B       		.uleb128 0xb
 4422 01c2 27       		.uleb128 0x27
 4423 01c3 0C       		.uleb128 0xc
 4424 01c4 49       		.uleb128 0x49
 4425 01c5 13       		.uleb128 0x13
 4426 01c6 11       		.uleb128 0x11
 4427 01c7 01       		.uleb128 0x1
 4428 01c8 12       		.uleb128 0x12
 4429 01c9 01       		.uleb128 0x1
 4430 01ca 40       		.uleb128 0x40
 4431 01cb 06       		.uleb128 0x6
 4432 01cc 01       		.uleb128 0x1
 4433 01cd 13       		.uleb128 0x13
 4434 01ce 00       		.byte	0x0
 4435 01cf 00       		.byte	0x0
 4436 01d0 23       		.uleb128 0x23
 4437 01d1 2E       		.uleb128 0x2e
 4438 01d2 01       		.byte	0x1
 4439 01d3 03       		.uleb128 0x3
 4440 01d4 0E       		.uleb128 0xe
 4441 01d5 3A       		.uleb128 0x3a
 4442 01d6 0B       		.uleb128 0xb
 4443 01d7 3B       		.uleb128 0x3b
 4444 01d8 05       		.uleb128 0x5
 4445 01d9 27       		.uleb128 0x27
 4446 01da 0C       		.uleb128 0xc
 4447 01db 49       		.uleb128 0x49
 4448 01dc 13       		.uleb128 0x13
 4449 01dd 11       		.uleb128 0x11
 4450 01de 01       		.uleb128 0x1
 4451 01df 12       		.uleb128 0x12
 4452 01e0 01       		.uleb128 0x1
 4453 01e1 40       		.uleb128 0x40
 4454 01e2 0A       		.uleb128 0xa
 4455 01e3 01       		.uleb128 0x1
 4456 01e4 13       		.uleb128 0x13
 4457 01e5 00       		.byte	0x0
 4458 01e6 00       		.byte	0x0
 4459 01e7 24       		.uleb128 0x24
 4460 01e8 05       		.uleb128 0x5
 4461 01e9 00       		.byte	0x0
 4462 01ea 03       		.uleb128 0x3
 4463 01eb 08       		.uleb128 0x8
 4464 01ec 3A       		.uleb128 0x3a
 4465 01ed 0B       		.uleb128 0xb
 4466 01ee 3B       		.uleb128 0x3b
 4467 01ef 05       		.uleb128 0x5
 4468 01f0 49       		.uleb128 0x49
 4469 01f1 13       		.uleb128 0x13
 4470 01f2 02       		.uleb128 0x2
 4471 01f3 06       		.uleb128 0x6
 4472 01f4 00       		.byte	0x0
 4473 01f5 00       		.byte	0x0
 4474 01f6 25       		.uleb128 0x25
ARM GAS  /tmp/ccDSXDsV.s 			page 80


 4475 01f7 05       		.uleb128 0x5
 4476 01f8 00       		.byte	0x0
 4477 01f9 03       		.uleb128 0x3
 4478 01fa 0E       		.uleb128 0xe
 4479 01fb 3A       		.uleb128 0x3a
 4480 01fc 0B       		.uleb128 0xb
 4481 01fd 3B       		.uleb128 0x3b
 4482 01fe 05       		.uleb128 0x5
 4483 01ff 49       		.uleb128 0x49
 4484 0200 13       		.uleb128 0x13
 4485 0201 02       		.uleb128 0x2
 4486 0202 0A       		.uleb128 0xa
 4487 0203 00       		.byte	0x0
 4488 0204 00       		.byte	0x0
 4489 0205 26       		.uleb128 0x26
 4490 0206 2E       		.uleb128 0x2e
 4491 0207 01       		.byte	0x1
 4492 0208 03       		.uleb128 0x3
 4493 0209 0E       		.uleb128 0xe
 4494 020a 3A       		.uleb128 0x3a
 4495 020b 0B       		.uleb128 0xb
 4496 020c 3B       		.uleb128 0x3b
 4497 020d 05       		.uleb128 0x5
 4498 020e 27       		.uleb128 0x27
 4499 020f 0C       		.uleb128 0xc
 4500 0210 49       		.uleb128 0x49
 4501 0211 13       		.uleb128 0x13
 4502 0212 11       		.uleb128 0x11
 4503 0213 01       		.uleb128 0x1
 4504 0214 12       		.uleb128 0x12
 4505 0215 01       		.uleb128 0x1
 4506 0216 40       		.uleb128 0x40
 4507 0217 06       		.uleb128 0x6
 4508 0218 01       		.uleb128 0x1
 4509 0219 13       		.uleb128 0x13
 4510 021a 00       		.byte	0x0
 4511 021b 00       		.byte	0x0
 4512 021c 27       		.uleb128 0x27
 4513 021d 05       		.uleb128 0x5
 4514 021e 00       		.byte	0x0
 4515 021f 03       		.uleb128 0x3
 4516 0220 0E       		.uleb128 0xe
 4517 0221 3A       		.uleb128 0x3a
 4518 0222 0B       		.uleb128 0xb
 4519 0223 3B       		.uleb128 0x3b
 4520 0224 05       		.uleb128 0x5
 4521 0225 49       		.uleb128 0x49
 4522 0226 13       		.uleb128 0x13
 4523 0227 02       		.uleb128 0x2
 4524 0228 06       		.uleb128 0x6
 4525 0229 00       		.byte	0x0
 4526 022a 00       		.byte	0x0
 4527 022b 28       		.uleb128 0x28
 4528 022c 34       		.uleb128 0x34
 4529 022d 00       		.byte	0x0
 4530 022e 03       		.uleb128 0x3
 4531 022f 08       		.uleb128 0x8
ARM GAS  /tmp/ccDSXDsV.s 			page 81


 4532 0230 3A       		.uleb128 0x3a
 4533 0231 0B       		.uleb128 0xb
 4534 0232 3B       		.uleb128 0x3b
 4535 0233 05       		.uleb128 0x5
 4536 0234 49       		.uleb128 0x49
 4537 0235 13       		.uleb128 0x13
 4538 0236 02       		.uleb128 0x2
 4539 0237 0A       		.uleb128 0xa
 4540 0238 00       		.byte	0x0
 4541 0239 00       		.byte	0x0
 4542 023a 29       		.uleb128 0x29
 4543 023b 34       		.uleb128 0x34
 4544 023c 00       		.byte	0x0
 4545 023d 03       		.uleb128 0x3
 4546 023e 0E       		.uleb128 0xe
 4547 023f 3A       		.uleb128 0x3a
 4548 0240 0B       		.uleb128 0xb
 4549 0241 3B       		.uleb128 0x3b
 4550 0242 05       		.uleb128 0x5
 4551 0243 49       		.uleb128 0x49
 4552 0244 13       		.uleb128 0x13
 4553 0245 02       		.uleb128 0x2
 4554 0246 06       		.uleb128 0x6
 4555 0247 00       		.byte	0x0
 4556 0248 00       		.byte	0x0
 4557 0249 2A       		.uleb128 0x2a
 4558 024a 2E       		.uleb128 0x2e
 4559 024b 01       		.byte	0x1
 4560 024c 31       		.uleb128 0x31
 4561 024d 13       		.uleb128 0x13
 4562 024e 11       		.uleb128 0x11
 4563 024f 01       		.uleb128 0x1
 4564 0250 12       		.uleb128 0x12
 4565 0251 01       		.uleb128 0x1
 4566 0252 40       		.uleb128 0x40
 4567 0253 06       		.uleb128 0x6
 4568 0254 01       		.uleb128 0x1
 4569 0255 13       		.uleb128 0x13
 4570 0256 00       		.byte	0x0
 4571 0257 00       		.byte	0x0
 4572 0258 2B       		.uleb128 0x2b
 4573 0259 05       		.uleb128 0x5
 4574 025a 00       		.byte	0x0
 4575 025b 31       		.uleb128 0x31
 4576 025c 13       		.uleb128 0x13
 4577 025d 02       		.uleb128 0x2
 4578 025e 06       		.uleb128 0x6
 4579 025f 00       		.byte	0x0
 4580 0260 00       		.byte	0x0
 4581 0261 2C       		.uleb128 0x2c
 4582 0262 34       		.uleb128 0x34
 4583 0263 00       		.byte	0x0
 4584 0264 31       		.uleb128 0x31
 4585 0265 13       		.uleb128 0x13
 4586 0266 02       		.uleb128 0x2
 4587 0267 06       		.uleb128 0x6
 4588 0268 00       		.byte	0x0
ARM GAS  /tmp/ccDSXDsV.s 			page 82


 4589 0269 00       		.byte	0x0
 4590 026a 2D       		.uleb128 0x2d
 4591 026b 05       		.uleb128 0x5
 4592 026c 00       		.byte	0x0
 4593 026d 31       		.uleb128 0x31
 4594 026e 13       		.uleb128 0x13
 4595 026f 02       		.uleb128 0x2
 4596 0270 0A       		.uleb128 0xa
 4597 0271 00       		.byte	0x0
 4598 0272 00       		.byte	0x0
 4599 0273 2E       		.uleb128 0x2e
 4600 0274 34       		.uleb128 0x34
 4601 0275 00       		.byte	0x0
 4602 0276 03       		.uleb128 0x3
 4603 0277 08       		.uleb128 0x8
 4604 0278 3A       		.uleb128 0x3a
 4605 0279 0B       		.uleb128 0xb
 4606 027a 3B       		.uleb128 0x3b
 4607 027b 0B       		.uleb128 0xb
 4608 027c 49       		.uleb128 0x49
 4609 027d 13       		.uleb128 0x13
 4610 027e 00       		.byte	0x0
 4611 027f 00       		.byte	0x0
 4612 0280 2F       		.uleb128 0x2f
 4613 0281 1D       		.uleb128 0x1d
 4614 0282 01       		.byte	0x1
 4615 0283 31       		.uleb128 0x31
 4616 0284 13       		.uleb128 0x13
 4617 0285 11       		.uleb128 0x11
 4618 0286 01       		.uleb128 0x1
 4619 0287 12       		.uleb128 0x12
 4620 0288 01       		.uleb128 0x1
 4621 0289 58       		.uleb128 0x58
 4622 028a 0B       		.uleb128 0xb
 4623 028b 59       		.uleb128 0x59
 4624 028c 05       		.uleb128 0x5
 4625 028d 01       		.uleb128 0x1
 4626 028e 13       		.uleb128 0x13
 4627 028f 00       		.byte	0x0
 4628 0290 00       		.byte	0x0
 4629 0291 30       		.uleb128 0x30
 4630 0292 0B       		.uleb128 0xb
 4631 0293 01       		.byte	0x1
 4632 0294 11       		.uleb128 0x11
 4633 0295 01       		.uleb128 0x1
 4634 0296 12       		.uleb128 0x12
 4635 0297 01       		.uleb128 0x1
 4636 0298 00       		.byte	0x0
 4637 0299 00       		.byte	0x0
 4638 029a 31       		.uleb128 0x31
 4639 029b 1D       		.uleb128 0x1d
 4640 029c 01       		.byte	0x1
 4641 029d 31       		.uleb128 0x31
 4642 029e 13       		.uleb128 0x13
 4643 029f 52       		.uleb128 0x52
 4644 02a0 01       		.uleb128 0x1
 4645 02a1 55       		.uleb128 0x55
ARM GAS  /tmp/ccDSXDsV.s 			page 83


 4646 02a2 06       		.uleb128 0x6
 4647 02a3 58       		.uleb128 0x58
 4648 02a4 0B       		.uleb128 0xb
 4649 02a5 59       		.uleb128 0x59
 4650 02a6 05       		.uleb128 0x5
 4651 02a7 00       		.byte	0x0
 4652 02a8 00       		.byte	0x0
 4653 02a9 32       		.uleb128 0x32
 4654 02aa 0B       		.uleb128 0xb
 4655 02ab 01       		.byte	0x1
 4656 02ac 55       		.uleb128 0x55
 4657 02ad 06       		.uleb128 0x6
 4658 02ae 00       		.byte	0x0
 4659 02af 00       		.byte	0x0
 4660 02b0 33       		.uleb128 0x33
 4661 02b1 2E       		.uleb128 0x2e
 4662 02b2 01       		.byte	0x1
 4663 02b3 3F       		.uleb128 0x3f
 4664 02b4 0C       		.uleb128 0xc
 4665 02b5 03       		.uleb128 0x3
 4666 02b6 0E       		.uleb128 0xe
 4667 02b7 3A       		.uleb128 0x3a
 4668 02b8 0B       		.uleb128 0xb
 4669 02b9 3B       		.uleb128 0x3b
 4670 02ba 0B       		.uleb128 0xb
 4671 02bb 27       		.uleb128 0x27
 4672 02bc 0C       		.uleb128 0xc
 4673 02bd 11       		.uleb128 0x11
 4674 02be 01       		.uleb128 0x1
 4675 02bf 12       		.uleb128 0x12
 4676 02c0 01       		.uleb128 0x1
 4677 02c1 40       		.uleb128 0x40
 4678 02c2 0A       		.uleb128 0xa
 4679 02c3 01       		.uleb128 0x1
 4680 02c4 13       		.uleb128 0x13
 4681 02c5 00       		.byte	0x0
 4682 02c6 00       		.byte	0x0
 4683 02c7 34       		.uleb128 0x34
 4684 02c8 05       		.uleb128 0x5
 4685 02c9 00       		.byte	0x0
 4686 02ca 03       		.uleb128 0x3
 4687 02cb 08       		.uleb128 0x8
 4688 02cc 3A       		.uleb128 0x3a
 4689 02cd 0B       		.uleb128 0xb
 4690 02ce 3B       		.uleb128 0x3b
 4691 02cf 0B       		.uleb128 0xb
 4692 02d0 49       		.uleb128 0x49
 4693 02d1 13       		.uleb128 0x13
 4694 02d2 02       		.uleb128 0x2
 4695 02d3 0A       		.uleb128 0xa
 4696 02d4 00       		.byte	0x0
 4697 02d5 00       		.byte	0x0
 4698 02d6 35       		.uleb128 0x35
 4699 02d7 17       		.uleb128 0x17
 4700 02d8 01       		.byte	0x1
 4701 02d9 0B       		.uleb128 0xb
 4702 02da 0B       		.uleb128 0xb
ARM GAS  /tmp/ccDSXDsV.s 			page 84


 4703 02db 3A       		.uleb128 0x3a
 4704 02dc 0B       		.uleb128 0xb
 4705 02dd 3B       		.uleb128 0x3b
 4706 02de 0B       		.uleb128 0xb
 4707 02df 01       		.uleb128 0x1
 4708 02e0 13       		.uleb128 0x13
 4709 02e1 00       		.byte	0x0
 4710 02e2 00       		.byte	0x0
 4711 02e3 36       		.uleb128 0x36
 4712 02e4 0D       		.uleb128 0xd
 4713 02e5 00       		.byte	0x0
 4714 02e6 03       		.uleb128 0x3
 4715 02e7 08       		.uleb128 0x8
 4716 02e8 3A       		.uleb128 0x3a
 4717 02e9 0B       		.uleb128 0xb
 4718 02ea 3B       		.uleb128 0x3b
 4719 02eb 0B       		.uleb128 0xb
 4720 02ec 49       		.uleb128 0x49
 4721 02ed 13       		.uleb128 0x13
 4722 02ee 00       		.byte	0x0
 4723 02ef 00       		.byte	0x0
 4724 02f0 37       		.uleb128 0x37
 4725 02f1 2E       		.uleb128 0x2e
 4726 02f2 01       		.byte	0x1
 4727 02f3 3F       		.uleb128 0x3f
 4728 02f4 0C       		.uleb128 0xc
 4729 02f5 03       		.uleb128 0x3
 4730 02f6 0E       		.uleb128 0xe
 4731 02f7 3A       		.uleb128 0x3a
 4732 02f8 0B       		.uleb128 0xb
 4733 02f9 3B       		.uleb128 0x3b
 4734 02fa 05       		.uleb128 0x5
 4735 02fb 27       		.uleb128 0x27
 4736 02fc 0C       		.uleb128 0xc
 4737 02fd 49       		.uleb128 0x49
 4738 02fe 13       		.uleb128 0x13
 4739 02ff 11       		.uleb128 0x11
 4740 0300 01       		.uleb128 0x1
 4741 0301 12       		.uleb128 0x12
 4742 0302 01       		.uleb128 0x1
 4743 0303 40       		.uleb128 0x40
 4744 0304 0A       		.uleb128 0xa
 4745 0305 01       		.uleb128 0x1
 4746 0306 13       		.uleb128 0x13
 4747 0307 00       		.byte	0x0
 4748 0308 00       		.byte	0x0
 4749 0309 38       		.uleb128 0x38
 4750 030a 2E       		.uleb128 0x2e
 4751 030b 01       		.byte	0x1
 4752 030c 3F       		.uleb128 0x3f
 4753 030d 0C       		.uleb128 0xc
 4754 030e 03       		.uleb128 0x3
 4755 030f 0E       		.uleb128 0xe
 4756 0310 3A       		.uleb128 0x3a
 4757 0311 0B       		.uleb128 0xb
 4758 0312 3B       		.uleb128 0x3b
 4759 0313 05       		.uleb128 0x5
ARM GAS  /tmp/ccDSXDsV.s 			page 85


 4760 0314 27       		.uleb128 0x27
 4761 0315 0C       		.uleb128 0xc
 4762 0316 49       		.uleb128 0x49
 4763 0317 13       		.uleb128 0x13
 4764 0318 11       		.uleb128 0x11
 4765 0319 01       		.uleb128 0x1
 4766 031a 12       		.uleb128 0x12
 4767 031b 01       		.uleb128 0x1
 4768 031c 40       		.uleb128 0x40
 4769 031d 06       		.uleb128 0x6
 4770 031e 01       		.uleb128 0x1
 4771 031f 13       		.uleb128 0x13
 4772 0320 00       		.byte	0x0
 4773 0321 00       		.byte	0x0
 4774 0322 39       		.uleb128 0x39
 4775 0323 34       		.uleb128 0x34
 4776 0324 00       		.byte	0x0
 4777 0325 03       		.uleb128 0x3
 4778 0326 0E       		.uleb128 0xe
 4779 0327 3A       		.uleb128 0x3a
 4780 0328 0B       		.uleb128 0xb
 4781 0329 3B       		.uleb128 0x3b
 4782 032a 05       		.uleb128 0x5
 4783 032b 49       		.uleb128 0x49
 4784 032c 13       		.uleb128 0x13
 4785 032d 02       		.uleb128 0x2
 4786 032e 0A       		.uleb128 0xa
 4787 032f 00       		.byte	0x0
 4788 0330 00       		.byte	0x0
 4789 0331 3A       		.uleb128 0x3a
 4790 0332 34       		.uleb128 0x34
 4791 0333 00       		.byte	0x0
 4792 0334 03       		.uleb128 0x3
 4793 0335 0E       		.uleb128 0xe
 4794 0336 3A       		.uleb128 0x3a
 4795 0337 0B       		.uleb128 0xb
 4796 0338 3B       		.uleb128 0x3b
 4797 0339 05       		.uleb128 0x5
 4798 033a 49       		.uleb128 0x49
 4799 033b 13       		.uleb128 0x13
 4800 033c 3F       		.uleb128 0x3f
 4801 033d 0C       		.uleb128 0xc
 4802 033e 3C       		.uleb128 0x3c
 4803 033f 0C       		.uleb128 0xc
 4804 0340 00       		.byte	0x0
 4805 0341 00       		.byte	0x0
 4806 0342 3B       		.uleb128 0x3b
 4807 0343 34       		.uleb128 0x34
 4808 0344 00       		.byte	0x0
 4809 0345 03       		.uleb128 0x3
 4810 0346 0E       		.uleb128 0xe
 4811 0347 3A       		.uleb128 0x3a
 4812 0348 0B       		.uleb128 0xb
 4813 0349 3B       		.uleb128 0x3b
 4814 034a 05       		.uleb128 0x5
 4815 034b 49       		.uleb128 0x49
 4816 034c 13       		.uleb128 0x13
ARM GAS  /tmp/ccDSXDsV.s 			page 86


 4817 034d 3F       		.uleb128 0x3f
 4818 034e 0C       		.uleb128 0xc
 4819 034f 02       		.uleb128 0x2
 4820 0350 0A       		.uleb128 0xa
 4821 0351 00       		.byte	0x0
 4822 0352 00       		.byte	0x0
 4823 0353 00       		.byte	0x0
 4824              		.section	.debug_pubnames,"",%progbits
 4825 0000 55000000 		.4byte	0x55
 4826 0004 0200     		.2byte	0x2
 4827 0006 00000000 		.4byte	.Ldebug_info0
 4828 000a EA0E0000 		.4byte	0xeea
 4829 000e 770D0000 		.4byte	0xd77
 4830 0012 616D785F 		.ascii	"amx_swapcell\000"
 4830      73776170 
 4830      63656C6C 
 4830      00
 4831 001f 2E0E0000 		.4byte	0xe2e
 4832 0023 616D785F 		.ascii	"amx_CoreInit\000"
 4832      436F7265 
 4832      496E6974 
 4832      00
 4833 0030 5C0E0000 		.4byte	0xe5c
 4834 0034 616D785F 		.ascii	"amx_CoreCleanup\000"
 4834      436F7265 
 4834      436C6561 
 4834      6E757000 
 4835 0044 D10E0000 		.4byte	0xed1
 4836 0048 636F7265 		.ascii	"core_Natives\000"
 4836      5F4E6174 
 4836      69766573 
 4836      00
 4837 0055 00000000 		.4byte	0x0
 4838              		.section	.debug_pubtypes,"",%progbits
 4839 0000 03010000 		.4byte	0x103
 4840 0004 0200     		.2byte	0x2
 4841 0006 00000000 		.4byte	.Ldebug_info0
 4842 000a EA0E0000 		.4byte	0xeea
 4843 000e 8F000000 		.4byte	0x8f
 4844 0012 696E7431 		.ascii	"int16_t\000"
 4844      365F7400 
 4845 001a 9A000000 		.4byte	0x9a
 4846 001e 75696E74 		.ascii	"uint16_t\000"
 4846      31365F74 
 4846      00
 4847 0027 A5000000 		.4byte	0xa5
 4848 002b 696E7433 		.ascii	"int32_t\000"
 4848      325F7400 
 4849 0033 B0000000 		.4byte	0xb0
 4850 0037 63656C6C 		.ascii	"cell\000"
 4850      00
 4851 003c BB000000 		.4byte	0xbb
 4852 0040 414D585F 		.ascii	"AMX_NATIVE\000"
 4852      4E415449 
 4852      564500
 4853 004b 68020000 		.4byte	0x268
 4854 004f 414D585F 		.ascii	"AMX_CALLBACK\000"
ARM GAS  /tmp/ccDSXDsV.s 			page 87


 4854      43414C4C 
 4854      4241434B 
 4854      00
 4855 005c 9E020000 		.4byte	0x29e
 4856 0060 414D585F 		.ascii	"AMX_DEBUG\000"
 4856      44454255 
 4856      4700
 4857 006a BF020000 		.4byte	0x2bf
 4858 006e 414D585F 		.ascii	"AMX_OVERLAY\000"
 4858      4F564552 
 4858      4C415900 
 4859 007a E5020000 		.4byte	0x2e5
 4860 007e 74616741 		.ascii	"tagAMX_NATIVE_INFO\000"
 4860      4D585F4E 
 4860      41544956 
 4860      455F494E 
 4860      464F00
 4861 0091 0E030000 		.4byte	0x30e
 4862 0095 414D585F 		.ascii	"AMX_NATIVE_INFO\000"
 4862      4E415449 
 4862      56455F49 
 4862      4E464F00 
 4863 00a5 E7000000 		.4byte	0xe7
 4864 00a9 74616741 		.ascii	"tagAMX\000"
 4864      4D5800
 4865 00b0 39030000 		.4byte	0x339
 4866 00b4 414D5800 		.ascii	"AMX\000"
 4867 00b8 45030000 		.4byte	0x345
 4868 00bc 74616741 		.ascii	"tagAMX_HEADER\000"
 4868      4D585F48 
 4868      45414445 
 4868      5200
 4869 00ca 61040000 		.4byte	0x461
 4870 00ce 414D585F 		.ascii	"AMX_HEADER\000"
 4870      48454144 
 4870      455200
 4871 00d9 19050000 		.4byte	0x519
 4872 00dd 75636861 		.ascii	"uchar\000"
 4872      7200
 4873 00e3 24050000 		.4byte	0x524
 4874 00e7 5F70726F 		.ascii	"_property_list\000"
 4874      70657274 
 4874      795F6C69 
 4874      737400
 4875 00f6 6E050000 		.4byte	0x56e
 4876 00fa 70726F70 		.ascii	"proplist\000"
 4876      6C697374 
 4876      00
 4877 0103 00000000 		.4byte	0x0
 4878              		.section	.debug_aranges,"",%progbits
 4879 0000 C4000000 		.4byte	0xc4
 4880 0004 0200     		.2byte	0x2
 4881 0006 00000000 		.4byte	.Ldebug_info0
 4882 000a 04       		.byte	0x4
 4883 000b 00       		.byte	0x0
 4884 000c 0000     		.2byte	0x0
 4885 000e 0000     		.2byte	0x0
ARM GAS  /tmp/ccDSXDsV.s 			page 88


 4886 0010 00000000 		.4byte	.LFB4
 4887 0014 14000000 		.4byte	.LFE4-.LFB4
 4888 0018 00000000 		.4byte	.LFB5
 4889 001c 20000000 		.4byte	.LFE5-.LFB5
 4890 0020 00000000 		.4byte	.LFB6
 4891 0024 3C000000 		.4byte	.LFE6-.LFB6
 4892 0028 00000000 		.4byte	.LFB7
 4893 002c 08000000 		.4byte	.LFE7-.LFB7
 4894 0030 00000000 		.4byte	.LFB11
 4895 0034 0E000000 		.4byte	.LFE11-.LFB11
 4896 0038 00000000 		.4byte	.LFB12
 4897 003c 0E000000 		.4byte	.LFE12-.LFB12
 4898 0040 00000000 		.4byte	.LFB13
 4899 0044 0C000000 		.4byte	.LFE13-.LFB13
 4900 0048 00000000 		.4byte	.LFB14
 4901 004c 0C000000 		.4byte	.LFE14-.LFB14
 4902 0050 00000000 		.4byte	.LFB16
 4903 0054 24000000 		.4byte	.LFE16-.LFB16
 4904 0058 00000000 		.4byte	.LFB15
 4905 005c 24000000 		.4byte	.LFE15-.LFB15
 4906 0060 00000000 		.4byte	.LFB21
 4907 0064 6C000000 		.4byte	.LFE21-.LFB21
 4908 0068 00000000 		.4byte	.LFB8
 4909 006c 2A000000 		.4byte	.LFE8-.LFB8
 4910 0070 00000000 		.4byte	.LFB24
 4911 0074 18000000 		.4byte	.LFE24-.LFB24
 4912 0078 00000000 		.4byte	.LFB26
 4913 007c 54000000 		.4byte	.LFE26-.LFB26
 4914 0080 00000000 		.4byte	.LFB17
 4915 0084 46000000 		.4byte	.LFE17-.LFB17
 4916 0088 00000000 		.4byte	.LFB18
 4917 008c A0000000 		.4byte	.LFE18-.LFB18
 4918 0090 00000000 		.4byte	.LFB19
 4919 0094 32000000 		.4byte	.LFE19-.LFB19
 4920 0098 00000000 		.4byte	.LFB20
 4921 009c 28000000 		.4byte	.LFE20-.LFB20
 4922 00a0 00000000 		.4byte	.LFB9
 4923 00a4 22000000 		.4byte	.LFE9-.LFB9
 4924 00a8 00000000 		.4byte	.LFB10
 4925 00ac 12000000 		.4byte	.LFE10-.LFB10
 4926 00b0 00000000 		.4byte	.LFB22
 4927 00b4 10000000 		.4byte	.LFE22-.LFB22
 4928 00b8 00000000 		.4byte	.LFB23
 4929 00bc 18000000 		.4byte	.LFE23-.LFB23
 4930 00c0 00000000 		.4byte	0x0
 4931 00c4 00000000 		.4byte	0x0
 4932              		.section	.debug_ranges,"",%progbits
 4933              	.Ldebug_ranges0:
 4934 0000 5C000000 		.4byte	.LBB8
 4935 0004 64000000 		.4byte	.LBE8
 4936 0008 6C000000 		.4byte	.LBB11
 4937 000c 8E000000 		.4byte	.LBE11
 4938 0010 00000000 		.4byte	0x0
 4939 0014 00000000 		.4byte	0x0
 4940 0018 5C000000 		.4byte	.LBB9
 4941 001c 64000000 		.4byte	.LBE9
 4942 0020 6C000000 		.4byte	.LBB10
ARM GAS  /tmp/ccDSXDsV.s 			page 89


 4943 0024 8E000000 		.4byte	.LBE10
 4944 0028 00000000 		.4byte	0x0
 4945 002c 00000000 		.4byte	0x0
 4946 0030 00000000 		.4byte	.LFB4
 4947 0034 14000000 		.4byte	.LFE4
 4948 0038 00000000 		.4byte	.LFB5
 4949 003c 20000000 		.4byte	.LFE5
 4950 0040 00000000 		.4byte	.LFB6
 4951 0044 3C000000 		.4byte	.LFE6
 4952 0048 00000000 		.4byte	.LFB7
 4953 004c 08000000 		.4byte	.LFE7
 4954 0050 00000000 		.4byte	.LFB11
 4955 0054 0E000000 		.4byte	.LFE11
 4956 0058 00000000 		.4byte	.LFB12
 4957 005c 0E000000 		.4byte	.LFE12
 4958 0060 00000000 		.4byte	.LFB13
 4959 0064 0C000000 		.4byte	.LFE13
 4960 0068 00000000 		.4byte	.LFB14
 4961 006c 0C000000 		.4byte	.LFE14
 4962 0070 00000000 		.4byte	.LFB16
 4963 0074 24000000 		.4byte	.LFE16
 4964 0078 00000000 		.4byte	.LFB15
 4965 007c 24000000 		.4byte	.LFE15
 4966 0080 00000000 		.4byte	.LFB21
 4967 0084 6C000000 		.4byte	.LFE21
 4968 0088 00000000 		.4byte	.LFB8
 4969 008c 2A000000 		.4byte	.LFE8
 4970 0090 00000000 		.4byte	.LFB24
 4971 0094 18000000 		.4byte	.LFE24
 4972 0098 00000000 		.4byte	.LFB26
 4973 009c 54000000 		.4byte	.LFE26
 4974 00a0 00000000 		.4byte	.LFB17
 4975 00a4 46000000 		.4byte	.LFE17
 4976 00a8 00000000 		.4byte	.LFB18
 4977 00ac A0000000 		.4byte	.LFE18
 4978 00b0 00000000 		.4byte	.LFB19
 4979 00b4 32000000 		.4byte	.LFE19
 4980 00b8 00000000 		.4byte	.LFB20
 4981 00bc 28000000 		.4byte	.LFE20
 4982 00c0 00000000 		.4byte	.LFB9
 4983 00c4 22000000 		.4byte	.LFE9
 4984 00c8 00000000 		.4byte	.LFB10
 4985 00cc 12000000 		.4byte	.LFE10
 4986 00d0 00000000 		.4byte	.LFB22
 4987 00d4 10000000 		.4byte	.LFE22
 4988 00d8 00000000 		.4byte	.LFB23
 4989 00dc 18000000 		.4byte	.LFE23
 4990 00e0 00000000 		.4byte	0x0
 4991 00e4 00000000 		.4byte	0x0
 4992              		.section	.debug_str,"MS",%progbits,1
 4993              	.LASF59:
 4994 0000 414D585F 		.ascii	"AMX_ERR_INVINSTR\000"
 4994      4552525F 
 4994      494E5649 
 4994      4E535452 
 4994      00
 4995              	.LASF78:
ARM GAS  /tmp/ccDSXDsV.s 			page 90


 4996 0011 414D585F 		.ascii	"AMX_ERR_GENERAL\000"
 4996      4552525F 
 4996      47454E45 
 4996      52414C00 
 4997              	.LASF77:
 4998 0021 414D585F 		.ascii	"AMX_ERR_DOMAIN\000"
 4998      4552525F 
 4998      444F4D41 
 4998      494E00
 4999              	.LASF63:
 5000 0030 414D585F 		.ascii	"AMX_ERR_NATIVE\000"
 5000      4552525F 
 5000      4E415449 
 5000      564500
 5001              	.LASF91:
 5002 003f 70617261 		.ascii	"params\000"
 5002      6D7300
 5003              	.LASF96:
 5004 0046 68656170 		.ascii	"heapspace\000"
 5004      73706163 
 5004      6500
 5005              	.LASF19:
 5006 0050 64656275 		.ascii	"debug\000"
 5006      6700
 5007              	.LASF108:
 5008 0056 63737472 		.ascii	"cstr\000"
 5008      00
 5009              	.LASF119:
 5010 005b 70726F70 		.ascii	"proproot\000"
 5010      726F6F74 
 5010      00
 5011              	.LASF89:
 5012 0064 6C697374 		.ascii	"list_finditem\000"
 5012      5F66696E 
 5012      64697465 
 5012      6D00
 5013              	.LASF114:
 5014 0072 64656C70 		.ascii	"delproperty\000"
 5014      726F7065 
 5014      72747900 
 5015              	.LASF21:
 5016 007e 666C6167 		.ascii	"flags\000"
 5016      7300
 5017              	.LASF98:
 5018 0084 636F7265 		.ascii	"core_toupper\000"
 5018      5F746F75 
 5018      70706572 
 5018      00
 5019              	.LASF0:
 5020 0091 756E7369 		.ascii	"unsigned int\000"
 5020      676E6564 
 5020      20696E74 
 5020      00
 5021              	.LASF82:
 5022 009e 6E657874 		.ascii	"next\000"
 5022      00
 5023              	.LASF81:
ARM GAS  /tmp/ccDSXDsV.s 			page 91


 5024 00a3 5F70726F 		.ascii	"_property_list\000"
 5024      70657274 
 5024      795F6C69 
 5024      737400
 5025              	.LASF27:
 5026 00b2 72657365 		.ascii	"reset_hea\000"
 5026      745F6865 
 5026      6100
 5027              	.LASF105:
 5028 00bc 636F7265 		.ascii	"core_random\000"
 5028      5F72616E 
 5028      646F6D00 
 5029              	.LASF68:
 5030 00c8 414D585F 		.ascii	"AMX_ERR_FORMAT\000"
 5030      4552525F 
 5030      464F524D 
 5030      415400
 5031              	.LASF73:
 5032 00d7 414D585F 		.ascii	"AMX_ERR_INIT\000"
 5032      4552525F 
 5032      494E4954 
 5032      00
 5033              	.LASF85:
 5034 00e4 70726564 		.ascii	"pred\000"
 5034      00
 5035              	.LASF64:
 5036 00e9 414D585F 		.ascii	"AMX_ERR_DIVIDE\000"
 5036      4552525F 
 5036      44495649 
 5036      444500
 5037              	.LASF110:
 5038 00f8 67657470 		.ascii	"getproperty\000"
 5038      726F7065 
 5038      72747900 
 5039              	.LASF24:
 5040 0104 6572726F 		.ascii	"error\000"
 5040      7200
 5041              	.LASF37:
 5042 010a 66756E63 		.ascii	"func\000"
 5042      00
 5043              	.LASF125:
 5044 010f 616D785F 		.ascii	"amx_swapcell\000"
 5044      73776170 
 5044      63656C6C 
 5044      00
 5045              	.LASF45:
 5046 011c 7075626C 		.ascii	"publics\000"
 5046      69637300 
 5047              	.LASF90:
 5048 0124 70726576 		.ascii	"prev\000"
 5048      00
 5049              	.LASF47:
 5050 0129 6C696272 		.ascii	"libraries\000"
 5050      61726965 
 5050      7300
 5051              	.LASF99:
 5052 0133 636F7265 		.ascii	"core_min\000"
ARM GAS  /tmp/ccDSXDsV.s 			page 92


 5052      5F6D696E 
 5052      00
 5053              	.LASF70:
 5054 013c 414D585F 		.ascii	"AMX_ERR_NOTFOUND\000"
 5054      4552525F 
 5054      4E4F5446 
 5054      4F554E44 
 5054      00
 5055              	.LASF32:
 5056 014d 414D585F 		.ascii	"AMX_DEBUG\000"
 5056      44454255 
 5056      4700
 5057              	.LASF67:
 5058 0157 414D585F 		.ascii	"AMX_ERR_MEMORY\000"
 5058      4552525F 
 5058      4D454D4F 
 5058      525900
 5059              	.LASF58:
 5060 0166 414D585F 		.ascii	"AMX_ERR_MEMACCESS\000"
 5060      4552525F 
 5060      4D454D41 
 5060      43434553 
 5060      5300
 5061              	.LASF15:
 5062 0178 62617365 		.ascii	"base\000"
 5062      00
 5063              	.LASF109:
 5064 017d 696E6465 		.ascii	"index\000"
 5064      7800
 5065              	.LASF10:
 5066 0183 696E7431 		.ascii	"int16_t\000"
 5066      365F7400 
 5067              	.LASF106:
 5068 018b 72657375 		.ascii	"result\000"
 5068      6C7400
 5069              	.LASF6:
 5070 0192 6C6F6E67 		.ascii	"long long unsigned int\000"
 5070      206C6F6E 
 5070      6720756E 
 5070      7369676E 
 5070      65642069 
 5071              	.LASF46:
 5072 01a9 6E617469 		.ascii	"natives\000"
 5072      76657300 
 5073              	.LASF31:
 5074 01b1 414D585F 		.ascii	"AMX_CALLBACK\000"
 5074      43414C4C 
 5074      4241434B 
 5074      00
 5075              	.LASF57:
 5076 01be 414D585F 		.ascii	"AMX_ERR_BOUNDS\000"
 5076      4552525F 
 5076      424F554E 
 5076      445300
 5077              	.LASF50:
 5078 01cd 6E616D65 		.ascii	"nametable\000"
 5078      7461626C 
ARM GAS  /tmp/ccDSXDsV.s 			page 93


 5078      6500
 5079              	.LASF83:
 5080 01d7 76616C75 		.ascii	"value\000"
 5080      6500
 5081              	.LASF34:
 5082 01dd 74616741 		.ascii	"tagAMX\000"
 5082      4D5800
 5083              	.LASF69:
 5084 01e4 414D585F 		.ascii	"AMX_ERR_VERSION\000"
 5084      4552525F 
 5084      56455253 
 5084      494F4E00 
 5085              	.LASF120:
 5086 01f4 494C5F53 		.ascii	"IL_StandardRandom_seed\000"
 5086      74616E64 
 5086      61726452 
 5086      616E646F 
 5086      6D5F7365 
 5087              	.LASF62:
 5088 020b 414D585F 		.ascii	"AMX_ERR_CALLBACK\000"
 5088      4552525F 
 5088      43414C4C 
 5088      4241434B 
 5088      00
 5089              	.LASF92:
 5090 021c 62797465 		.ascii	"bytes\000"
 5090      7300
 5091              	.LASF35:
 5092 0222 74616741 		.ascii	"tagAMX_NATIVE_INFO\000"
 5092      4D585F4E 
 5092      41544956 
 5092      455F494E 
 5092      464F00
 5093              	.LASF16:
 5094 0235 636F6465 		.ascii	"code\000"
 5094      00
 5095              	.LASF23:
 5096 023a 75736572 		.ascii	"userdata\000"
 5096      64617461 
 5096      00
 5097              	.LASF104:
 5098 0243 636F7265 		.ascii	"core_clamp\000"
 5098      5F636C61 
 5098      6D7000
 5099              	.LASF76:
 5100 024e 414D585F 		.ascii	"AMX_ERR_PARAMS\000"
 5100      4552525F 
 5100      50415241 
 5100      4D5300
 5101              	.LASF115:
 5102 025d 65786973 		.ascii	"existproperty\000"
 5102      7470726F 
 5102      70657274 
 5102      7900
 5103              	.LASF9:
 5104 026b 63686172 		.ascii	"char\000"
 5104      00
ARM GAS  /tmp/ccDSXDsV.s 			page 94


 5105              	.LASF52:
 5106 0270 414D585F 		.ascii	"AMX_HEADER\000"
 5106      48454144 
 5106      455200
 5107              	.LASF25:
 5108 027b 70617261 		.ascii	"paramcount\000"
 5108      6D636F75 
 5108      6E7400
 5109              	.LASF122:
 5110 0286 474E5520 		.ascii	"GNU C 4.5.2\000"
 5110      4320342E 
 5110      352E3200 
 5111              	.LASF43:
 5112 0292 616D785F 		.ascii	"amx_version\000"
 5112      76657273 
 5112      696F6E00 
 5113              	.LASF26:
 5114 029e 72657365 		.ascii	"reset_stk\000"
 5114      745F7374 
 5114      6B00
 5115              	.LASF17:
 5116 02a8 64617461 		.ascii	"data\000"
 5116      00
 5117              	.LASF84:
 5118 02ad 70726F70 		.ascii	"proplist\000"
 5118      6C697374 
 5118      00
 5119              	.LASF55:
 5120 02b6 414D585F 		.ascii	"AMX_ERR_ASSERT\000"
 5120      4552525F 
 5120      41535345 
 5120      525400
 5121              	.LASF93:
 5122 02c5 6E756D61 		.ascii	"numargs\000"
 5122      72677300 
 5123              	.LASF42:
 5124 02cd 66696C65 		.ascii	"file_version\000"
 5124      5F766572 
 5124      73696F6E 
 5124      00
 5125              	.LASF14:
 5126 02da 414D585F 		.ascii	"AMX_NATIVE\000"
 5126      4E415449 
 5126      564500
 5127              	.LASF111:
 5128 02e5 6C697374 		.ascii	"list_delete\000"
 5128      5F64656C 
 5128      65746500 
 5129              	.LASF33:
 5130 02f1 414D585F 		.ascii	"AMX_OVERLAY\000"
 5130      4F564552 
 5130      4C415900 
 5131              	.LASF5:
 5132 02fd 6C6F6E67 		.ascii	"long long int\000"
 5132      206C6F6E 
 5132      6720696E 
 5132      7400
ARM GAS  /tmp/ccDSXDsV.s 			page 95


 5133              	.LASF121:
 5134 030b 636F7265 		.ascii	"core_Natives\000"
 5134      5F4E6174 
 5134      69766573 
 5134      00
 5135              	.LASF60:
 5136 0318 414D585F 		.ascii	"AMX_ERR_STACKLOW\000"
 5136      4552525F 
 5136      53544143 
 5136      4B4C4F57 
 5136      00
 5137              	.LASF124:
 5138 0329 2F686F6D 		.ascii	"/home/z80/projects/dfu.git/firmware-pawn-dev/firmwa"
 5138      652F7A38 
 5138      302F7072 
 5138      6F6A6563 
 5138      74732F64 
 5139 035c 726500   		.ascii	"re\000"
 5140              	.LASF40:
 5141 035f 73697A65 		.ascii	"size\000"
 5141      00
 5142              	.LASF97:
 5143 0364 636F7265 		.ascii	"core_tolower\000"
 5143      5F746F6C 
 5143      6F776572 
 5143      00
 5144              	.LASF80:
 5145 0371 75636861 		.ascii	"uchar\000"
 5145      7200
 5146              	.LASF65:
 5147 0377 414D585F 		.ascii	"AMX_ERR_SLEEP\000"
 5147      4552525F 
 5147      534C4545 
 5147      5000
 5148              	.LASF11:
 5149 0385 75696E74 		.ascii	"uint16_t\000"
 5149      31365F74 
 5149      00
 5150              	.LASF100:
 5151 038e 636F7265 		.ascii	"core_max\000"
 5151      5F6D6178 
 5151      00
 5152              	.LASF87:
 5153 0397 726F6F74 		.ascii	"root\000"
 5153      00
 5154              	.LASF94:
 5155 039c 67657461 		.ascii	"getarg\000"
 5155      726700
 5156              	.LASF72:
 5157 03a3 414D585F 		.ascii	"AMX_ERR_DEBUG\000"
 5157      4552525F 
 5157      44454255 
 5157      4700
 5158              	.LASF3:
 5159 03b1 73686F72 		.ascii	"short int\000"
 5159      7420696E 
 5159      7400
ARM GAS  /tmp/ccDSXDsV.s 			page 96


 5160              	.LASF116:
 5161 03bb 73776170 		.ascii	"swapchars\000"
 5161      63686172 
 5161      7300
 5162              	.LASF7:
 5163 03c5 6C6F6E67 		.ascii	"long int\000"
 5163      20696E74 
 5163      00
 5164              	.LASF20:
 5165 03ce 6F766572 		.ascii	"overlay\000"
 5165      6C617900 
 5166              	.LASF30:
 5167 03d6 636F6465 		.ascii	"codesize\000"
 5167      73697A65 
 5167      00
 5168              	.LASF53:
 5169 03df 414D585F 		.ascii	"AMX_ERR_NONE\000"
 5169      4552525F 
 5169      4E4F4E45 
 5169      00
 5170              	.LASF48:
 5171 03ec 70756276 		.ascii	"pubvars\000"
 5171      61727300 
 5172              	.LASF123:
 5173 03f4 7061776E 		.ascii	"pawn/amxcore.c\000"
 5173      2F616D78 
 5173      636F7265 
 5173      2E6300
 5174              	.LASF49:
 5175 0403 74616773 		.ascii	"tags\000"
 5175      00
 5176              	.LASF29:
 5177 0408 6F766C5F 		.ascii	"ovl_index\000"
 5177      696E6465 
 5177      7800
 5178              	.LASF36:
 5179 0412 6E616D65 		.ascii	"name\000"
 5179      00
 5180              	.LASF41:
 5181 0417 6D616769 		.ascii	"magic\000"
 5181      6300
 5182              	.LASF54:
 5183 041d 414D585F 		.ascii	"AMX_ERR_EXIT\000"
 5183      4552525F 
 5183      45584954 
 5183      00
 5184              	.LASF22:
 5185 042a 75736572 		.ascii	"usertags\000"
 5185      74616773 
 5185      00
 5186              	.LASF51:
 5187 0433 6F766572 		.ascii	"overlays\000"
 5187      6C617973 
 5187      00
 5188              	.LASF8:
 5189 043c 6C6F6E67 		.ascii	"long unsigned int\000"
 5189      20756E73 
ARM GAS  /tmp/ccDSXDsV.s 			page 97


 5189      69676E65 
 5189      6420696E 
 5189      7400
 5190              	.LASF113:
 5191 044e 73657470 		.ascii	"setproperty\000"
 5191      726F7065 
 5191      72747900 
 5192              	.LASF117:
 5193 045a 616D785F 		.ascii	"amx_CoreInit\000"
 5193      436F7265 
 5193      496E6974 
 5193      00
 5194              	.LASF12:
 5195 0467 696E7433 		.ascii	"int32_t\000"
 5195      325F7400 
 5196              	.LASF75:
 5197 046f 414D585F 		.ascii	"AMX_ERR_INIT_JIT\000"
 5197      4552525F 
 5197      494E4954 
 5197      5F4A4954 
 5197      00
 5198              	.LASF66:
 5199 0480 414D585F 		.ascii	"AMX_ERR_INVSTATE\000"
 5199      4552525F 
 5199      494E5653 
 5199      54415445 
 5199      00
 5200              	.LASF74:
 5201 0491 414D585F 		.ascii	"AMX_ERR_USERDATA\000"
 5201      4552525F 
 5201      55534552 
 5201      44415441 
 5201      00
 5202              	.LASF2:
 5203 04a2 756E7369 		.ascii	"unsigned char\000"
 5203      676E6564 
 5203      20636861 
 5203      7200
 5204              	.LASF38:
 5205 04b0 414D585F 		.ascii	"AMX_NATIVE_INFO\000"
 5205      4E415449 
 5205      56455F49 
 5205      4E464F00 
 5206              	.LASF71:
 5207 04c0 414D585F 		.ascii	"AMX_ERR_INDEX\000"
 5207      4552525F 
 5207      494E4445 
 5207      5800
 5208              	.LASF112:
 5209 04ce 6C697374 		.ascii	"list_setitem\000"
 5209      5F736574 
 5209      6974656D 
 5209      00
 5210              	.LASF18:
 5211 04db 63616C6C 		.ascii	"callback\000"
 5211      6261636B 
 5211      00
ARM GAS  /tmp/ccDSXDsV.s 			page 98


 5212              	.LASF107:
 5213 04e4 66756E63 		.ascii	"funcidx\000"
 5213      69647800 
 5214              	.LASF86:
 5215 04ec 6974656D 		.ascii	"item\000"
 5215      00
 5216              	.LASF95:
 5217 04f1 73657461 		.ascii	"setarg\000"
 5217      726700
 5218              	.LASF61:
 5219 04f8 414D585F 		.ascii	"AMX_ERR_HEAPLOW\000"
 5219      4552525F 
 5219      48454150 
 5219      4C4F5700 
 5220              	.LASF1:
 5221 0508 7369676E 		.ascii	"signed char\000"
 5221      65642063 
 5221      68617200 
 5222              	.LASF4:
 5223 0514 73686F72 		.ascii	"short unsigned int\000"
 5223      7420756E 
 5223      7369676E 
 5223      65642069 
 5223      6E7400
 5224              	.LASF79:
 5225 0527 414D585F 		.ascii	"AMX_ERR_OVERLAY\000"
 5225      4552525F 
 5225      4F564552 
 5225      4C415900 
 5226              	.LASF44:
 5227 0537 64656673 		.ascii	"defsize\000"
 5227      697A6500 
 5228              	.LASF56:
 5229 053f 414D585F 		.ascii	"AMX_ERR_STACKERR\000"
 5229      4552525F 
 5229      53544143 
 5229      4B455252 
 5229      00
 5230              	.LASF39:
 5231 0550 74616741 		.ascii	"tagAMX_HEADER\000"
 5231      4D585F48 
 5231      45414445 
 5231      5200
 5232              	.LASF13:
 5233 055e 63656C6C 		.ascii	"cell\000"
 5233      00
 5234              	.LASF102:
 5235 0563 63707472 		.ascii	"cptr\000"
 5235      00
 5236              	.LASF101:
 5237 0568 4D616B65 		.ascii	"MakePackedString\000"
 5237      5061636B 
 5237      65645374 
 5237      72696E67 
 5237      00
 5238              	.LASF118:
 5239 0579 616D785F 		.ascii	"amx_CoreCleanup\000"
ARM GAS  /tmp/ccDSXDsV.s 			page 99


 5239      436F7265 
 5239      436C6561 
 5239      6E757000 
 5240              	.LASF28:
 5241 0589 73797372 		.ascii	"sysreq_d\000"
 5241      65715F64 
 5241      00
 5242              	.LASF103:
 5243 0592 64657374 		.ascii	"dest\000"
 5243      00
 5244              	.LASF88:
 5245 0597 6C697374 		.ascii	"list_additem\000"
 5245      5F616464 
 5245      6974656D 
 5245      00
 5246              		.ident	"GCC: (Sourcery G++ Lite 2011.03-42) 4.5.2"
ARM GAS  /tmp/ccDSXDsV.s 			page 100


DEFINED SYMBOLS
                            *ABS*:00000000 amxcore.c
     /tmp/ccDSXDsV.s:24     .text.numargs:00000000 $t
     /tmp/ccDSXDsV.s:28     .text.numargs:00000000 numargs
     /tmp/ccDSXDsV.s:64     .text.getarg:00000000 $t
     /tmp/ccDSXDsV.s:68     .text.getarg:00000000 getarg
     /tmp/ccDSXDsV.s:108    .text.setarg:00000000 $t
     /tmp/ccDSXDsV.s:112    .text.setarg:00000000 setarg
     /tmp/ccDSXDsV.s:182    .text.heapspace:00000000 $t
     /tmp/ccDSXDsV.s:186    .text.heapspace:00000000 heapspace
     /tmp/ccDSXDsV.s:205    .text.core_tolower:00000000 $t
     /tmp/ccDSXDsV.s:209    .text.core_tolower:00000000 core_tolower
     /tmp/ccDSXDsV.s:231    .text.core_toupper:00000000 $t
     /tmp/ccDSXDsV.s:235    .text.core_toupper:00000000 core_toupper
     /tmp/ccDSXDsV.s:257    .text.core_min:00000000 $t
     /tmp/ccDSXDsV.s:261    .text.core_min:00000000 core_min
     /tmp/ccDSXDsV.s:282    .text.core_max:00000000 $t
     /tmp/ccDSXDsV.s:286    .text.core_max:00000000 core_max
     /tmp/ccDSXDsV.s:307    .text.MakePackedString:00000000 $t
     /tmp/ccDSXDsV.s:311    .text.MakePackedString:00000000 MakePackedString
     /tmp/ccDSXDsV.s:356    .text.core_clamp:00000000 $t
     /tmp/ccDSXDsV.s:360    .text.core_clamp:00000000 core_clamp
     /tmp/ccDSXDsV.s:408    .text.core_random:00000000 $t
     /tmp/ccDSXDsV.s:412    .text.core_random:00000000 core_random
     /tmp/ccDSXDsV.s:492    .text.core_random:00000060 $d
     /tmp/ccDSXDsV.s:499    .text.funcidx:00000000 $t
     /tmp/ccDSXDsV.s:503    .text.funcidx:00000000 funcidx
     /tmp/ccDSXDsV.s:550    .text.list_delete.clone.0:00000000 $t
     /tmp/ccDSXDsV.s:554    .text.list_delete.clone.0:00000000 list_delete.clone.0
     /tmp/ccDSXDsV.s:588    .text.list_finditem.clone.3:00000000 $t
     /tmp/ccDSXDsV.s:592    .text.list_finditem.clone.3:00000000 list_finditem.clone.3
     /tmp/ccDSXDsV.s:671    .text.list_finditem.clone.3:00000050 $d
     /tmp/ccDSXDsV.s:676    .text.getproperty:00000000 $t
     /tmp/ccDSXDsV.s:680    .text.getproperty:00000000 getproperty
     /tmp/ccDSXDsV.s:753    .text.setproperty:00000000 $t
     /tmp/ccDSXDsV.s:757    .text.setproperty:00000000 setproperty
     /tmp/ccDSXDsV.s:907    .text.setproperty:0000009c $d
     /tmp/ccDSXDsV.s:912    .text.delproperty:00000000 $t
     /tmp/ccDSXDsV.s:916    .text.delproperty:00000000 delproperty
     /tmp/ccDSXDsV.s:978    .text.existproperty:00000000 $t
     /tmp/ccDSXDsV.s:982    .text.existproperty:00000000 existproperty
     /tmp/ccDSXDsV.s:1029   .text.amx_swapcell:00000000 $t
     /tmp/ccDSXDsV.s:1034   .text.amx_swapcell:00000000 amx_swapcell
     /tmp/ccDSXDsV.s:1072   .text.swapchars:00000000 $t
     /tmp/ccDSXDsV.s:1076   .text.swapchars:00000000 swapchars
     /tmp/ccDSXDsV.s:1106   .text.amx_CoreInit:00000000 $t
     /tmp/ccDSXDsV.s:1111   .text.amx_CoreInit:00000000 amx_CoreInit
     /tmp/ccDSXDsV.s:1129   .text.amx_CoreInit:0000000c $d
     /tmp/ccDSXDsV.s:1134   .text.amx_CoreCleanup:00000000 $t
     /tmp/ccDSXDsV.s:1139   .text.amx_CoreCleanup:00000000 amx_CoreCleanup
     /tmp/ccDSXDsV.s:1169   .text.amx_CoreCleanup:00000014 $d
     /tmp/ccDSXDsV.s:1218   .rodata.core_Natives:00000000 core_Natives
     /tmp/ccDSXDsV.s:1175   .bss.proproot:00000000 $d
     /tmp/ccDSXDsV.s:1179   .bss.proproot:00000000 proproot
     /tmp/ccDSXDsV.s:1254   .data.IL_StandardRandom_seed:00000000 $d
     /tmp/ccDSXDsV.s:1258   .data.IL_StandardRandom_seed:00000000 IL_StandardRandom_seed
                     .debug_frame:00000010 $d
ARM GAS  /tmp/ccDSXDsV.s 			page 101



UNDEFINED SYMBOLS
amx_StrLen
malloc
amx_GetString
amx_RaiseError
time
amx_FindPublic
free
strcasecmp
amx_SetString
strlen
strcpy
amx_Register
