ARM GAS  /tmp/ccg3uPwa.s 			page 1


   1              		.syntax unified
   2              		.cpu cortex-m3
   3              		.fpu softvfp
   4              		.eabi_attribute 20, 1
   5              		.eabi_attribute 21, 1
   6              		.eabi_attribute 23, 3
   7              		.eabi_attribute 24, 1
   8              		.eabi_attribute 25, 1
   9              		.eabi_attribute 26, 1
  10              		.eabi_attribute 30, 4
  11              		.eabi_attribute 18, 4
  12              		.thumb
  13              		.file	"chcore_v7m.c"
  20 0000 39020000 		.text
  20      02005801 
  20      00000201 
  20      FB0E0D00 
  20      01010101 
  21              	.Ltext0:
  22              		.cfi_sections	.debug_frame
  23              		.section	.text._port_switch_from_isr,"ax",%progbits
  24              		.align	1
  25              		.global	_port_switch_from_isr
  26              		.thumb
  27              		.thumb_func
  28              		.type	_port_switch_from_isr, %function
  29              	_port_switch_from_isr:
  30              	.LFB6:
  31              		.file 1 "../chibios/os/ports/GCC/ARMCMx/chcore_v7m.c"
  32              		.loc 1 207 0
  33              		.cfi_startproc
  34              		@ Naked Function: prologue and epilogue provided by programmer.
  35              		@ args = 0, pretend = 0, frame = 0
  36              		@ frame_needed = 0, uses_anonymous_args = 0
  37              		.loc 1 209 0
  38 0000 FFF7FEFF 		bl	dbg_check_lock
  39              		.loc 1 210 0
  40 0004 FFF7FEFF 		bl	chSchDoReschedule
  41              		.loc 1 211 0
  42 0008 FFF7FEFF 		bl	dbg_check_unlock
  43              		.loc 1 212 0
  44              	@ 212 "../chibios/os/ports/GCC/ARMCMx/chcore_v7m.c" 1
  45              		_port_exit_from_isr:
  46              	@ 0 "" 2
  47              		.loc 1 214 0
  48              	@ 214 "../chibios/os/ports/GCC/ARMCMx/chcore_v7m.c" 1
  49 000c 00DF     		svc     #0
  50              	@ 0 "" 2
  51              		.loc 1 221 0
  52              		.thumb
  53              		.cfi_endproc
ARM GAS  /tmp/ccg3uPwa.s 			page 2


  54              	.LFE6:
  55              		.size	_port_switch_from_isr, .-_port_switch_from_isr
  56              		.section	.text.SVCallVector,"ax",%progbits
  57              		.align	1
  58              		.global	SVCallVector
  59              		.thumb
  60              		.thumb_func
  61              		.type	SVCallVector, %function
  62              	SVCallVector:
  63              	.LFB1:
  64              		.loc 1 65 0
  65              		.cfi_startproc
  66              		@ args = 0, pretend = 0, frame = 0
  67              		@ frame_needed = 0, uses_anonymous_args = 0
  68 0000 00B5     		push	{lr}
  69              	.LCFI0:
  70              		.cfi_def_cfa_offset 4
  71              		.loc 1 69 0
  72              	@ 69 "../chibios/os/ports/GCC/ARMCMx/chcore_v7m.c" 1
  73 0002 EFF30983 		mrs     r3, PSP
  74              	@ 0 "" 2
  75              	.LVL0:
  76              		.loc 1 73 0
  77              		.thumb
  78 0006 2033     		adds	r3, r3, #32
  79              	.LVL1:
  80              		.loc 1 80 0
  81              	@ 80 "../chibios/os/ports/GCC/ARMCMx/chcore_v7m.c" 1
  82 0008 83F30988 		msr     PSP, r3
  83              	@ 0 "" 2
  84              		.loc 1 81 0
  85              	@ 81 "../chibios/os/ports/GCC/ARMCMx/chcore_v7m.c" 1
  86 000c FFF7FEFF 		bl      _port_unlock
  87              	@ 0 "" 2
  88              	.LVL2:
  89              		.loc 1 82 0
  90              		.thumb
  91 0010 5DF804FB 		ldr	pc, [sp], #4
  92              		.cfi_offset 14, -4
  93              		.cfi_endproc
  94              	.LFE1:
  95              		.size	SVCallVector, .-SVCallVector
  96              		.section	.text._port_init,"ax",%progbits
  97              		.align	1
  98              		.global	_port_init
  99              		.thumb
 100              		.thumb_func
 101              		.type	_port_init, %function
 102              	_port_init:
 103              	.LFB2:
 104              		.loc 1 118 0
 105              		.cfi_startproc
 106              		@ args = 0, pretend = 0, frame = 0
 107              		@ frame_needed = 0, uses_anonymous_args = 0
 108              		.loc 1 121 0
 109 0000 0A4B     		ldr	r3, .L4
 110 0002 0022     		movs	r2, #0
ARM GAS  /tmp/ccg3uPwa.s 			page 3


 111              		.loc 1 118 0
 112 0004 10B5     		push	{r4, lr}
 113              	.LCFI1:
 114              		.cfi_def_cfa_offset 8
 115              		.loc 1 121 0
 116 0006 9A60     		str	r2, [r3, #8]
 117              		.loc 1 122 0
 118 0008 094A     		ldr	r2, .L4+4
 119              		.loc 1 125 0
 120 000a 0720     		movs	r0, #7
 121              		.loc 1 122 0
 122 000c DA60     		str	r2, [r3, #12]
 123              		.loc 1 125 0
 124 000e 1021     		movs	r1, #16
 125              		.cfi_offset 14, -4
 126              		.cfi_offset 4, -8
 127 0010 FFF7FEFF 		bl	nvicSetSystemHandlerPriority
 128              		.loc 1 127 0
 129 0014 0A20     		movs	r0, #10
 130 0016 4FF40071 		mov	r1, #512
 131 001a FFF7FEFF 		bl	nvicSetSystemHandlerPriority
 132              		.loc 1 129 0
 133 001e 0B20     		movs	r0, #11
 134 0020 8021     		movs	r1, #128
 135              		.loc 1 131 0
 136 0022 BDE81040 		pop	{r4, lr}
 137              		.loc 1 129 0
 138 0026 FFF7FEBF 		b	nvicSetSystemHandlerPriority
 139              	.L5:
 140 002a 00BF     		.align	2
 141              	.L4:
 142 002c 00ED00E0 		.word	-536810240
 143 0030 0000FA05 		.word	100270080
 144              		.cfi_endproc
 145              	.LFE2:
 146              		.size	_port_init, .-_port_init
 147              		.section	.text._port_lock,"ax",%progbits
 148              		.align	1
 149              		.global	_port_lock
 150              		.thumb
 151              		.thumb_func
 152              		.type	_port_lock, %function
 153              	_port_lock:
 154              	.LFB3:
 155              		.loc 1 134 0
 156              		.cfi_startproc
 157              		@ args = 0, pretend = 0, frame = 0
 158              		@ frame_needed = 0, uses_anonymous_args = 0
 159              		@ link register save eliminated.
 160              		.loc 1 135 0
 161 0000 2023     		movs	r3, #32
 162              	.LVL3:
 163              		.loc 1 136 0
 164              	@ 136 "../chibios/os/ports/GCC/ARMCMx/chcore_v7m.c" 1
 165 0002 83F31188 		msr     BASEPRI, r3
 166              	@ 0 "" 2
 167              	.LVL4:
ARM GAS  /tmp/ccg3uPwa.s 			page 4


 168              		.loc 1 137 0
 169              		.thumb
 170 0006 7047     		bx	lr
 171              		.cfi_endproc
 172              	.LFE3:
 173              		.size	_port_lock, .-_port_lock
 174              		.section	.text._port_unlock,"ax",%progbits
 175              		.align	1
 176              		.global	_port_unlock
 177              		.thumb
 178              		.thumb_func
 179              		.type	_port_unlock, %function
 180              	_port_unlock:
 181              	.LFB4:
 182              		.loc 1 139 0
 183              		.cfi_startproc
 184              		@ args = 0, pretend = 0, frame = 0
 185              		@ frame_needed = 0, uses_anonymous_args = 0
 186              		@ link register save eliminated.
 187              		.loc 1 140 0
 188 0000 0023     		movs	r3, #0
 189              	.LVL5:
 190              		.loc 1 141 0
 191              	@ 141 "../chibios/os/ports/GCC/ARMCMx/chcore_v7m.c" 1
 192 0002 83F31188 		msr     BASEPRI, r3
 193              	@ 0 "" 2
 194              	.LVL6:
 195              		.loc 1 142 0
 196              		.thumb
 197 0006 7047     		bx	lr
 198              		.cfi_endproc
 199              	.LFE4:
 200              		.size	_port_unlock, .-_port_unlock
 201              		.section	.text._port_irq_epilogue,"ax",%progbits
 202              		.align	1
 203              		.global	_port_irq_epilogue
 204              		.thumb
 205              		.thumb_func
 206              		.type	_port_irq_epilogue, %function
 207              	_port_irq_epilogue:
 208              	.LFB5:
 209              		.loc 1 148 0
 210              		.cfi_startproc
 211              		@ args = 0, pretend = 0, frame = 0
 212              		@ frame_needed = 0, uses_anonymous_args = 0
 213 0000 00B5     		push	{lr}
 214              	.LCFI2:
 215              		.cfi_def_cfa_offset 4
 216              		.loc 1 150 0
 217              	@ 150 "../chibios/os/ports/GCC/ARMCMx/chcore_v7m.c" 1
 218 0002 FFF7FEFF 		bl      _port_lock
 219              	@ 0 "" 2
 220              		.loc 1 151 0
 221              		.thumb
 222 0006 164B     		ldr	r3, .L15
 223 0008 5B68     		ldr	r3, [r3, #4]
 224 000a 13F4006F 		tst	r3, #2048
ARM GAS  /tmp/ccg3uPwa.s 			page 5


 225 000e 22D0     		beq	.L9
 226              		.cfi_offset 14, -4
 227              	.LBB2:
 228              		.loc 1 155 0
 229              	@ 155 "../chibios/os/ports/GCC/ARMCMx/chcore_v7m.c" 1
 230 0010 EFF30982 		mrs     r2, PSP
 231              	@ 0 "" 2
 232              	.LVL7:
 233              		.loc 1 159 0
 234              		.thumb
 235 0014 203A     		subs	r2, r2, #32
 236              	.LVL8:
 237              		.loc 1 160 0
 238              	@ 160 "../chibios/os/ports/GCC/ARMCMx/chcore_v7m.c" 1
 239 0016 82F30988 		msr     PSP, r2
 240              	@ 0 "" 2
 241              		.loc 1 161 0
 242              		.thumb
 243 001a 4FF08073 		mov	r3, #16777216
 244 001e D361     		str	r3, [r2, #28]
 245              		.loc 1 165 0
 246 0020 104B     		ldr	r3, .L15+4
 247 0022 9969     		ldr	r1, [r3, #24]
 248 0024 41B1     		cbz	r1, .L10
 249              		.loc 1 165 0 is_stmt 0 discriminator 1
 250 0026 1968     		ldr	r1, [r3, #0]
 251 0028 DB69     		ldr	r3, [r3, #28]
 252 002a 8968     		ldr	r1, [r1, #8]
 253 002c 9B68     		ldr	r3, [r3, #8]
 254 002e 9942     		cmp	r1, r3
 255 0030 94BF     		ite	ls
 256 0032 0023     		movls	r3, #0
 257 0034 0123     		movhi	r3, #1
 258 0036 07E0     		b	.L11
 259              	.L10:
 260              		.loc 1 165 0 discriminator 2
 261 0038 1968     		ldr	r1, [r3, #0]
 262 003a DB69     		ldr	r3, [r3, #28]
 263 003c 8968     		ldr	r1, [r1, #8]
 264 003e 9B68     		ldr	r3, [r3, #8]
 265 0040 9942     		cmp	r1, r3
 266 0042 34BF     		ite	cc
 267 0044 0023     		movcc	r3, #0
 268 0046 0123     		movcs	r3, #1
 269              	.L11:
 270              		.loc 1 165 0 discriminator 3
 271 0048 0BB1     		cbz	r3, .L12
 272              		.loc 1 167 0 is_stmt 1
 273 004a 074B     		ldr	r3, .L15+8
 274 004c 00E0     		b	.L14
 275              	.L12:
 276              		.loc 1 176 0
 277 004e 074B     		ldr	r3, .L15+12
 278              	.L14:
 279 0050 9361     		str	r3, [r2, #24]
 280 0052 5DF804FB 		ldr	pc, [sp], #4
 281              	.LVL9:
ARM GAS  /tmp/ccg3uPwa.s 			page 6


 282              	.L9:
 283              	.LBE2:
 284              		.loc 1 197 0
 285              	@ 197 "../chibios/os/ports/GCC/ARMCMx/chcore_v7m.c" 1
 286 0056 FFF7FEFF 		bl      _port_unlock
 287              	@ 0 "" 2
 288              		.thumb
 289 005a 5DF804FB 		ldr	pc, [sp], #4
 290              	.L16:
 291 005e 00BF     		.align	2
 292              	.L15:
 293 0060 00ED00E0 		.word	-536810240
 294 0064 00000000 		.word	rlist
 295 0068 00000000 		.word	_port_switch_from_isr
 296 006c 0C000000 		.word	_port_exit_from_isr
 297              		.cfi_endproc
 298              	.LFE5:
 299              		.size	_port_irq_epilogue, .-_port_irq_epilogue
 300              		.section	.text.SysTickVector,"ax",%progbits
 301              		.align	1
 302              		.global	SysTickVector
 303              		.thumb
 304              		.thumb_func
 305              		.type	SysTickVector, %function
 306              	SysTickVector:
 307              	.LFB0:
 308              		.loc 1 47 0
 309              		.cfi_startproc
 310              		@ args = 0, pretend = 0, frame = 0
 311              		@ frame_needed = 0, uses_anonymous_args = 0
 312 0000 10B5     		push	{r4, lr}
 313              	.LCFI3:
 314              		.cfi_def_cfa_offset 8
 315              		.loc 1 49 0
 316              		.cfi_offset 14, -4
 317              		.cfi_offset 4, -8
 318 0002 FFF7FEFF 		bl	dbg_check_enter_isr
 319              		.loc 1 51 0
 320              	@ 51 "../chibios/os/ports/GCC/ARMCMx/chcore_v7m.c" 1
 321 0006 FFF7FEFF 		bl      _port_lock
 322              	@ 0 "" 2
 323              		.thumb
 324 000a FFF7FEFF 		bl	dbg_check_lock_from_isr
 325              		.loc 1 52 0
 326 000e FFF7FEFF 		bl	chSysTimerHandlerI
 327              		.loc 1 53 0
 328 0012 FFF7FEFF 		bl	dbg_check_unlock_from_isr
 329              	@ 53 "../chibios/os/ports/GCC/ARMCMx/chcore_v7m.c" 1
 330 0016 FFF7FEFF 		bl      _port_unlock
 331              	@ 0 "" 2
 332              		.loc 1 55 0
 333              		.thumb
 334 001a FFF7FEFF 		bl	dbg_check_leave_isr
 335              		.loc 1 56 0
 336 001e BDE81040 		pop	{r4, lr}
 337              		.loc 1 55 0
 338 0022 FFF7FEBF 		b	_port_irq_epilogue
ARM GAS  /tmp/ccg3uPwa.s 			page 7


 339              		.cfi_endproc
 340              	.LFE0:
 341              		.size	SysTickVector, .-SysTickVector
 342              		.section	.text._port_switch,"ax",%progbits
 343              		.align	1
 344              		.global	_port_switch
 345              		.thumb
 346              		.thumb_func
 347              		.type	_port_switch, %function
 348              	_port_switch:
 349              	.LFB7:
 350              		.loc 1 236 0
 351              		.cfi_startproc
 352              		@ Naked Function: prologue and epilogue provided by programmer.
 353              		@ args = 0, pretend = 0, frame = 0
 354              		@ frame_needed = 0, uses_anonymous_args = 0
 355              	.LVL10:
 356              		.loc 1 238 0
 357              	@ 238 "../chibios/os/ports/GCC/ARMCMx/chcore_v7m.c" 1
 358 0000 2DE9F04F 		push    {r4, r5, r6, r7, r8, r9, r10, r11, lr}
 359              	@ 0 "" 2
 360              		.loc 1 244 0
 361              	@ 244 "../chibios/os/ports/GCC/ARMCMx/chcore_v7m.c" 1
 362 0004 C1F80CD0 		str     sp, [r1, #12]                          
 363 0008 D0F80CD0 		ldr     sp, [r0, #12]
 364              	@ 0 "" 2
 365              		.loc 1 250 0
 366              	@ 250 "../chibios/os/ports/GCC/ARMCMx/chcore_v7m.c" 1
 367 000c BDE8F08F 		pop     {r4, r5, r6, r7, r8, r9, r10, r11, pc}
 368              	@ 0 "" 2
 369              		.loc 1 252 0
 370              		.thumb
 371              		.cfi_endproc
 372              	.LFE7:
 373              		.size	_port_switch, .-_port_switch
 374              		.section	.text._port_thread_start,"ax",%progbits
 375              		.align	1
 376              		.global	_port_thread_start
 377              		.thumb
 378              		.thumb_func
 379              		.type	_port_thread_start, %function
 380              	_port_thread_start:
 381              	.LFB8:
 382              		.loc 1 259 0
 383              		.cfi_startproc
 384              		@ args = 0, pretend = 0, frame = 0
 385              		@ frame_needed = 0, uses_anonymous_args = 0
 386 0000 08B5     		push	{r3, lr}
 387              	.LCFI4:
 388              		.cfi_def_cfa_offset 8
 389              		.loc 1 261 0
 390              		.cfi_offset 14, -4
 391              		.cfi_offset 3, -8
 392 0002 FFF7FEFF 		bl	dbg_check_unlock
 393              	@ 261 "../chibios/os/ports/GCC/ARMCMx/chcore_v7m.c" 1
 394 0006 FFF7FEFF 		bl      _port_unlock
 395              	@ 0 "" 2
ARM GAS  /tmp/ccg3uPwa.s 			page 8


 396              		.loc 1 262 0
 397              	@ 262 "../chibios/os/ports/GCC/ARMCMx/chcore_v7m.c" 1
 398 000a 2846     		mov     r0, r5                                 
 399 000c A047     		blx     r4                                     
 400 000e FFF7FEFF 		bl      chThdExit
 401              	@ 0 "" 2
 402              		.loc 1 265 0
 403              		.thumb
 404 0012 08BD     		pop	{r3, pc}
 405              		.cfi_endproc
 406              	.LFE8:
 407              		.size	_port_thread_start, .-_port_thread_start
 408              		.text
 409              	.Letext0: