ARM GAS  /tmp/ccO73bFa.s 			page 1


   1              		.syntax unified
   2              		.cpu cortex-m3
   3              		.fpu softvfp
   4              		.eabi_attribute 20, 1
   5              		.eabi_attribute 21, 1
   6              		.eabi_attribute 23, 3
   7              		.eabi_attribute 24, 1
   8              		.eabi_attribute 25, 1
   9              		.eabi_attribute 26, 1
  10              		.eabi_attribute 30, 4
  11              		.eabi_attribute 18, 4
  12              		.thumb
  13              		.file	"chdebug.c"
  14              		.section	.debug_abbrev,"",%progbits
  15              	.Ldebug_abbrev0:
  16              		.section	.debug_info,"",%progbits
  17              	.Ldebug_info0:
  18              		.section	.debug_line,"",%progbits
  19              	.Ldebug_line0:
  20 0000 D2020000 		.text
  20      02005901 
  20      00000201 
  20      FB0E0D00 
  20      01010101 
  21              	.Ltext0:
  22              		.cfi_sections	.debug_frame
  23              		.section	.text._trace_init,"ax",%progbits
  24              		.align	1
  25              		.global	_trace_init
  26              		.thumb
  27              		.thumb_func
  28              		.type	_trace_init, %function
  29              	_trace_init:
  30              	.LFB11:
  31              		.file 1 "../chibios/os/kernel/src/chdebug.c"
  32              		.loc 1 229 0
  33              		.cfi_startproc
  34              		@ args = 0, pretend = 0, frame = 0
  35              		@ frame_needed = 0, uses_anonymous_args = 0
  36              		@ link register save eliminated.
  37              		.loc 1 231 0
  38 0000 034A     		ldr	r2, .L2
  39 0002 4021     		movs	r1, #64
  40 0004 1346     		mov	r3, r2
  41 0006 43F8081B 		str	r1, [r3], #8
  42              		.loc 1 232 0
  43 000a 5360     		str	r3, [r2, #4]
  44              		.loc 1 233 0
  45 000c 7047     		bx	lr
  46              	.L3:
  47 000e 00BF     		.align	2
  48              	.L2:
  49 0010 00000000 		.word	.LANCHOR0
  50              		.cfi_endproc
  51              	.LFE11:
  52              		.size	_trace_init, .-_trace_init
  53              		.section	.text.dbg_trace,"ax",%progbits
ARM GAS  /tmp/ccO73bFa.s 			page 2


  54              		.align	1
  55              		.global	dbg_trace
  56              		.thumb
  57              		.thumb_func
  58              		.type	dbg_trace, %function
  59              	dbg_trace:
  60              	.LFB12:
  61              		.loc 1 242 0
  62              		.cfi_startproc
  63              		@ args = 0, pretend = 0, frame = 0
  64              		@ frame_needed = 0, uses_anonymous_args = 0
  65              		@ link register save eliminated.
  66              	.LVL0:
  67              		.loc 1 244 0
  68 0000 0B4B     		ldr	r3, .L6
  69 0002 0C49     		ldr	r1, .L6+4
  70 0004 5A68     		ldr	r2, [r3, #4]
  71 0006 C968     		ldr	r1, [r1, #12]
  72 0008 1160     		str	r1, [r2, #0]
  73              		.loc 1 245 0
  74 000a 0B49     		ldr	r1, .L6+8
  75 000c C969     		ldr	r1, [r1, #28]
  76 000e 5160     		str	r1, [r2, #4]
  77              		.loc 1 246 0
  78 0010 816A     		ldr	r1, [r0, #40]
  79 0012 9160     		str	r1, [r2, #8]
  80              		.loc 1 247 0
  81 0014 90F82010 		ldrb	r1, [r0, #32]	@ zero_extendqisi2
  82 0018 1173     		strb	r1, [r2, #12]
  83              		.loc 1 248 0
  84 001a 1032     		adds	r2, r2, #16
  85              		.loc 1 249 0
  86 001c 03F58161 		add	r1, r3, #1032
  87              		.loc 1 248 0
  88 0020 8A42     		cmp	r2, r1
  89 0022 5A60     		str	r2, [r3, #4]
  90              		.loc 1 250 0
  91 0024 24BF     		itt	cs
  92 0026 03F10802 		addcs	r2, r3, #8
  93 002a 5A60     		strcs	r2, [r3, #4]
  94 002c 7047     		bx	lr
  95              	.L7:
  96 002e 00BF     		.align	2
  97              	.L6:
  98 0030 00000000 		.word	.LANCHOR0
  99 0034 00000000 		.word	vtlist
 100 0038 00000000 		.word	rlist
 101              		.cfi_endproc
 102              	.LFE12:
 103              		.size	dbg_trace, .-dbg_trace
 104              		.section	.text.chDbgPanic,"ax",%progbits
 105              		.align	1
 106              		.global	chDbgPanic
 107              		.thumb
 108              		.thumb_func
 109              		.type	chDbgPanic, %function
 110              	chDbgPanic:
ARM GAS  /tmp/ccO73bFa.s 			page 3


 111              	.LFB13:
 112              		.loc 1 271 0
 113              		.cfi_startproc
 114              		@ args = 0, pretend = 0, frame = 0
 115              		@ frame_needed = 0, uses_anonymous_args = 0
 116              		@ link register save eliminated.
 117              	.LVL1:
 118              		.loc 1 273 0
 119 0000 014B     		ldr	r3, .L9
 120 0002 1860     		str	r0, [r3, #0]
 121              		.loc 1 275 0
 122              		.loc 1 274 0
 123 0004 FFF7FEBF 		b	port_halt
 124              	.LVL2:
 125              	.L10:
 126              		.align	2
 127              	.L9:
 128 0008 00000000 		.word	.LANCHOR1
 129              		.cfi_endproc
 130              	.LFE13:
 131              		.size	chDbgPanic, .-chDbgPanic
 132              		.section	.text.chDbgCheckClassS,"ax",%progbits
 133              		.align	1
 134              		.global	chDbgCheckClassS
 135              		.thumb
 136              		.thumb_func
 137              		.type	chDbgCheckClassS, %function
 138              	chDbgCheckClassS:
 139              	.LFB10:
 140              		.loc 1 207 0
 141              		.cfi_startproc
 142              		@ args = 0, pretend = 0, frame = 0
 143              		@ frame_needed = 0, uses_anonymous_args = 0
 144              		@ link register save eliminated.
 145              		.loc 1 209 0
 146 0000 054B     		ldr	r3, .L14
 147 0002 1B68     		ldr	r3, [r3, #0]
 148 0004 1BB9     		cbnz	r3, .L12
 149              		.loc 1 209 0 is_stmt 0 discriminator 1
 150 0006 054B     		ldr	r3, .L14+4
 151 0008 1B68     		ldr	r3, [r3, #0]
 152 000a 002B     		cmp	r3, #0
 153 000c 02DC     		bgt	.L11
 154              	.L12:
 155              		.loc 1 210 0 is_stmt 1
 156 000e 0448     		ldr	r0, .L14+8
 157              		.loc 1 211 0
 158              		.loc 1 210 0
 159 0010 FFF7FEBF 		b	chDbgPanic
 160              	.L11:
 161 0014 7047     		bx	lr
 162              	.L15:
 163 0016 00BF     		.align	2
 164              	.L14:
 165 0018 00000000 		.word	.LANCHOR2
 166 001c 00000000 		.word	.LANCHOR3
 167 0020 00000000 		.word	.LC0
ARM GAS  /tmp/ccO73bFa.s 			page 4


 168              		.cfi_endproc
 169              	.LFE10:
 170              		.size	chDbgCheckClassS, .-chDbgCheckClassS
 171              		.section	.text.chDbgCheckClassI,"ax",%progbits
 172              		.align	1
 173              		.global	chDbgCheckClassI
 174              		.thumb
 175              		.thumb_func
 176              		.type	chDbgCheckClassI, %function
 177              	chDbgCheckClassI:
 178              	.LFB9:
 179              		.loc 1 193 0
 180              		.cfi_startproc
 181              		@ args = 0, pretend = 0, frame = 0
 182              		@ frame_needed = 0, uses_anonymous_args = 0
 183              		@ link register save eliminated.
 184              		.loc 1 195 0
 185 0000 054B     		ldr	r3, .L19
 186 0002 1B68     		ldr	r3, [r3, #0]
 187 0004 002B     		cmp	r3, #0
 188 0006 03DB     		blt	.L17
 189              		.loc 1 195 0 is_stmt 0 discriminator 1
 190 0008 044B     		ldr	r3, .L19+4
 191 000a 1B68     		ldr	r3, [r3, #0]
 192 000c 002B     		cmp	r3, #0
 193 000e 02DC     		bgt	.L16
 194              	.L17:
 195              		.loc 1 196 0 is_stmt 1
 196 0010 0348     		ldr	r0, .L19+8
 197              		.loc 1 197 0
 198              		.loc 1 196 0
 199 0012 FFF7FEBF 		b	chDbgPanic
 200              	.L16:
 201 0016 7047     		bx	lr
 202              	.L20:
 203              		.align	2
 204              	.L19:
 205 0018 00000000 		.word	.LANCHOR2
 206 001c 00000000 		.word	.LANCHOR3
 207 0020 06000000 		.word	.LC1
 208              		.cfi_endproc
 209              	.LFE9:
 210              		.size	chDbgCheckClassI, .-chDbgCheckClassI
 211              		.section	.text.dbg_check_leave_isr,"ax",%progbits
 212              		.align	1
 213              		.global	dbg_check_leave_isr
 214              		.thumb
 215              		.thumb_func
 216              		.type	dbg_check_leave_isr, %function
 217              	dbg_check_leave_isr:
 218              	.LFB8:
 219              		.loc 1 176 0
 220              		.cfi_startproc
 221              		@ args = 0, pretend = 0, frame = 0
 222              		@ frame_needed = 0, uses_anonymous_args = 0
 223 0000 10B5     		push	{r4, lr}
 224              	.LCFI0:
ARM GAS  /tmp/ccO73bFa.s 			page 5


 225              		.cfi_def_cfa_offset 8
 226              		.loc 1 178 0
 227              	@ 178 "../chibios/os/kernel/src/chdebug.c" 1
 228 0002 FFF7FEFF 		bl      _port_lock
 229              	@ 0 "" 2
 230              		.loc 1 179 0
 231              		.thumb
 232 0006 084C     		ldr	r4, .L24
 233              		.cfi_offset 14, -4
 234              		.cfi_offset 4, -8
 235 0008 2368     		ldr	r3, [r4, #0]
 236 000a 002B     		cmp	r3, #0
 237 000c 02DD     		ble	.L22
 238              		.loc 1 179 0 is_stmt 0 discriminator 1
 239 000e 074B     		ldr	r3, .L24+4
 240 0010 1B68     		ldr	r3, [r3, #0]
 241 0012 13B1     		cbz	r3, .L23
 242              	.L22:
 243              		.loc 1 180 0 is_stmt 1
 244 0014 0648     		ldr	r0, .L24+8
 245 0016 FFF7FEFF 		bl	chDbgPanic
 246              	.L23:
 247              		.loc 1 181 0
 248 001a 2368     		ldr	r3, [r4, #0]
 249 001c 013B     		subs	r3, r3, #1
 250 001e 2360     		str	r3, [r4, #0]
 251              		.loc 1 182 0
 252              	@ 182 "../chibios/os/kernel/src/chdebug.c" 1
 253 0020 FFF7FEFF 		bl      _port_unlock
 254              	@ 0 "" 2
 255              		.loc 1 183 0
 256              		.thumb
 257 0024 10BD     		pop	{r4, pc}
 258              	.L25:
 259 0026 00BF     		.align	2
 260              	.L24:
 261 0028 00000000 		.word	.LANCHOR2
 262 002c 00000000 		.word	.LANCHOR3
 263 0030 0C000000 		.word	.LC2
 264              		.cfi_endproc
 265              	.LFE8:
 266              		.size	dbg_check_leave_isr, .-dbg_check_leave_isr
 267              		.section	.text.dbg_check_enter_isr,"ax",%progbits
 268              		.align	1
 269              		.global	dbg_check_enter_isr
 270              		.thumb
 271              		.thumb_func
 272              		.type	dbg_check_enter_isr, %function
 273              	dbg_check_enter_isr:
 274              	.LFB7:
 275              		.loc 1 162 0
 276              		.cfi_startproc
 277              		@ args = 0, pretend = 0, frame = 0
 278              		@ frame_needed = 0, uses_anonymous_args = 0
 279 0000 10B5     		push	{r4, lr}
 280              	.LCFI1:
 281              		.cfi_def_cfa_offset 8
ARM GAS  /tmp/ccO73bFa.s 			page 6


 282              		.loc 1 164 0
 283              	@ 164 "../chibios/os/kernel/src/chdebug.c" 1
 284 0002 FFF7FEFF 		bl      _port_lock
 285              	@ 0 "" 2
 286              		.loc 1 165 0
 287              		.thumb
 288 0006 084C     		ldr	r4, .L29
 289              		.cfi_offset 14, -4
 290              		.cfi_offset 4, -8
 291 0008 2368     		ldr	r3, [r4, #0]
 292 000a 002B     		cmp	r3, #0
 293 000c 02DB     		blt	.L27
 294              		.loc 1 165 0 is_stmt 0 discriminator 1
 295 000e 074B     		ldr	r3, .L29+4
 296 0010 1B68     		ldr	r3, [r3, #0]
 297 0012 13B1     		cbz	r3, .L28
 298              	.L27:
 299              		.loc 1 166 0 is_stmt 1
 300 0014 0648     		ldr	r0, .L29+8
 301 0016 FFF7FEFF 		bl	chDbgPanic
 302              	.L28:
 303              		.loc 1 167 0
 304 001a 2368     		ldr	r3, [r4, #0]
 305 001c 0133     		adds	r3, r3, #1
 306 001e 2360     		str	r3, [r4, #0]
 307              		.loc 1 168 0
 308              	@ 168 "../chibios/os/kernel/src/chdebug.c" 1
 309 0020 FFF7FEFF 		bl      _port_unlock
 310              	@ 0 "" 2
 311              		.loc 1 169 0
 312              		.thumb
 313 0024 10BD     		pop	{r4, pc}
 314              	.L30:
 315 0026 00BF     		.align	2
 316              	.L29:
 317 0028 00000000 		.word	.LANCHOR2
 318 002c 00000000 		.word	.LANCHOR3
 319 0030 11000000 		.word	.LC3
 320              		.cfi_endproc
 321              	.LFE7:
 322              		.size	dbg_check_enter_isr, .-dbg_check_enter_isr
 323              		.section	.text.dbg_check_unlock_from_isr,"ax",%progbits
 324              		.align	1
 325              		.global	dbg_check_unlock_from_isr
 326              		.thumb
 327              		.thumb_func
 328              		.type	dbg_check_unlock_from_isr, %function
 329              	dbg_check_unlock_from_isr:
 330              	.LFB6:
 331              		.loc 1 150 0
 332              		.cfi_startproc
 333              		@ args = 0, pretend = 0, frame = 0
 334              		@ frame_needed = 0, uses_anonymous_args = 0
 335              		.loc 1 152 0
 336 0000 074B     		ldr	r3, .L34
 337              		.loc 1 150 0
 338 0002 10B5     		push	{r4, lr}
ARM GAS  /tmp/ccO73bFa.s 			page 7


 339              	.LCFI2:
 340              		.cfi_def_cfa_offset 8
 341              		.loc 1 152 0
 342 0004 1B68     		ldr	r3, [r3, #0]
 343 0006 074C     		ldr	r4, .L34+4
 344              		.cfi_offset 14, -4
 345              		.cfi_offset 4, -8
 346 0008 002B     		cmp	r3, #0
 347 000a 02DD     		ble	.L32
 348              		.loc 1 152 0 is_stmt 0 discriminator 1
 349 000c 2368     		ldr	r3, [r4, #0]
 350 000e 002B     		cmp	r3, #0
 351 0010 02DC     		bgt	.L33
 352              	.L32:
 353              		.loc 1 153 0 is_stmt 1
 354 0012 0548     		ldr	r0, .L34+8
 355 0014 FFF7FEFF 		bl	chDbgPanic
 356              	.L33:
 357              		.loc 1 154 0
 358 0018 0023     		movs	r3, #0
 359 001a 2360     		str	r3, [r4, #0]
 360              		.loc 1 155 0
 361 001c 10BD     		pop	{r4, pc}
 362              	.L35:
 363 001e 00BF     		.align	2
 364              	.L34:
 365 0020 00000000 		.word	.LANCHOR2
 366 0024 00000000 		.word	.LANCHOR3
 367 0028 16000000 		.word	.LC4
 368              		.cfi_endproc
 369              	.LFE6:
 370              		.size	dbg_check_unlock_from_isr, .-dbg_check_unlock_from_isr
 371              		.section	.text.dbg_check_lock_from_isr,"ax",%progbits
 372              		.align	1
 373              		.global	dbg_check_lock_from_isr
 374              		.thumb
 375              		.thumb_func
 376              		.type	dbg_check_lock_from_isr, %function
 377              	dbg_check_lock_from_isr:
 378              	.LFB5:
 379              		.loc 1 138 0
 380              		.cfi_startproc
 381              		@ args = 0, pretend = 0, frame = 0
 382              		@ frame_needed = 0, uses_anonymous_args = 0
 383              		.loc 1 140 0
 384 0000 064B     		ldr	r3, .L39
 385              		.loc 1 138 0
 386 0002 10B5     		push	{r4, lr}
 387              	.LCFI3:
 388              		.cfi_def_cfa_offset 8
 389              		.loc 1 140 0
 390 0004 1B68     		ldr	r3, [r3, #0]
 391 0006 064C     		ldr	r4, .L39+4
 392              		.cfi_offset 14, -4
 393              		.cfi_offset 4, -8
 394 0008 002B     		cmp	r3, #0
 395 000a 01DD     		ble	.L37
ARM GAS  /tmp/ccO73bFa.s 			page 8


 396              		.loc 1 140 0 is_stmt 0 discriminator 1
 397 000c 2368     		ldr	r3, [r4, #0]
 398 000e 13B1     		cbz	r3, .L38
 399              	.L37:
 400              		.loc 1 141 0 is_stmt 1
 401 0010 0448     		ldr	r0, .L39+8
 402 0012 FFF7FEFF 		bl	chDbgPanic
 403              	.L38:
 404              		.loc 1 142 0
 405 0016 0123     		movs	r3, #1
 406 0018 2360     		str	r3, [r4, #0]
 407              		.loc 1 143 0
 408 001a 10BD     		pop	{r4, pc}
 409              	.L40:
 410              		.align	2
 411              	.L39:
 412 001c 00000000 		.word	.LANCHOR2
 413 0020 00000000 		.word	.LANCHOR3
 414 0024 1B000000 		.word	.LC5
 415              		.cfi_endproc
 416              	.LFE5:
 417              		.size	dbg_check_lock_from_isr, .-dbg_check_lock_from_isr
 418              		.section	.text.dbg_check_unlock,"ax",%progbits
 419              		.align	1
 420              		.global	dbg_check_unlock
 421              		.thumb
 422              		.thumb_func
 423              		.type	dbg_check_unlock, %function
 424              	dbg_check_unlock:
 425              	.LFB4:
 426              		.loc 1 126 0
 427              		.cfi_startproc
 428              		@ args = 0, pretend = 0, frame = 0
 429              		@ frame_needed = 0, uses_anonymous_args = 0
 430              		.loc 1 128 0
 431 0000 064B     		ldr	r3, .L44
 432              		.loc 1 126 0
 433 0002 10B5     		push	{r4, lr}
 434              	.LCFI4:
 435              		.cfi_def_cfa_offset 8
 436              		.loc 1 128 0
 437 0004 1B68     		ldr	r3, [r3, #0]
 438 0006 064C     		ldr	r4, .L44+4
 439              		.cfi_offset 14, -4
 440              		.cfi_offset 4, -8
 441 0008 13B9     		cbnz	r3, .L42
 442              		.loc 1 128 0 is_stmt 0 discriminator 1
 443 000a 2368     		ldr	r3, [r4, #0]
 444 000c 002B     		cmp	r3, #0
 445 000e 02DC     		bgt	.L43
 446              	.L42:
 447              		.loc 1 129 0 is_stmt 1
 448 0010 0448     		ldr	r0, .L44+8
 449 0012 FFF7FEFF 		bl	chDbgPanic
 450              	.L43:
 451              		.loc 1 130 0
 452 0016 0023     		movs	r3, #0
ARM GAS  /tmp/ccO73bFa.s 			page 9


 453 0018 2360     		str	r3, [r4, #0]
 454              		.loc 1 131 0
 455 001a 10BD     		pop	{r4, pc}
 456              	.L45:
 457              		.align	2
 458              	.L44:
 459 001c 00000000 		.word	.LANCHOR2
 460 0020 00000000 		.word	.LANCHOR3
 461 0024 20000000 		.word	.LC6
 462              		.cfi_endproc
 463              	.LFE4:
 464              		.size	dbg_check_unlock, .-dbg_check_unlock
 465              		.section	.text.dbg_check_lock,"ax",%progbits
 466              		.align	1
 467              		.global	dbg_check_lock
 468              		.thumb
 469              		.thumb_func
 470              		.type	dbg_check_lock, %function
 471              	dbg_check_lock:
 472              	.LFB3:
 473              		.loc 1 114 0
 474              		.cfi_startproc
 475              		@ args = 0, pretend = 0, frame = 0
 476              		@ frame_needed = 0, uses_anonymous_args = 0
 477              		.loc 1 116 0
 478 0000 064B     		ldr	r3, .L49
 479              		.loc 1 114 0
 480 0002 10B5     		push	{r4, lr}
 481              	.LCFI5:
 482              		.cfi_def_cfa_offset 8
 483              		.loc 1 116 0
 484 0004 1B68     		ldr	r3, [r3, #0]
 485 0006 064C     		ldr	r4, .L49+4
 486              		.cfi_offset 14, -4
 487              		.cfi_offset 4, -8
 488 0008 0BB9     		cbnz	r3, .L47
 489              		.loc 1 116 0 is_stmt 0 discriminator 1
 490 000a 2368     		ldr	r3, [r4, #0]
 491 000c 13B1     		cbz	r3, .L48
 492              	.L47:
 493              		.loc 1 117 0 is_stmt 1
 494 000e 0548     		ldr	r0, .L49+8
 495 0010 FFF7FEFF 		bl	chDbgPanic
 496              	.L48:
 497              		.loc 1 118 0
 498 0014 0123     		movs	r3, #1
 499 0016 2360     		str	r3, [r4, #0]
 500              		.loc 1 119 0
 501 0018 10BD     		pop	{r4, pc}
 502              	.L50:
 503 001a 00BF     		.align	2
 504              	.L49:
 505 001c 00000000 		.word	.LANCHOR2
 506 0020 00000000 		.word	.LANCHOR3
 507 0024 25000000 		.word	.LC7
 508              		.cfi_endproc
 509              	.LFE3:
ARM GAS  /tmp/ccO73bFa.s 			page 10


 510              		.size	dbg_check_lock, .-dbg_check_lock
 511              		.section	.text.dbg_check_enable,"ax",%progbits
 512              		.align	1
 513              		.global	dbg_check_enable
 514              		.thumb
 515              		.thumb_func
 516              		.type	dbg_check_enable, %function
 517              	dbg_check_enable:
 518              	.LFB2:
 519              		.loc 1 103 0
 520              		.cfi_startproc
 521              		@ args = 0, pretend = 0, frame = 0
 522              		@ frame_needed = 0, uses_anonymous_args = 0
 523              		@ link register save eliminated.
 524              		.loc 1 105 0
 525 0000 044B     		ldr	r3, .L54
 526 0002 1B68     		ldr	r3, [r3, #0]
 527 0004 13B9     		cbnz	r3, .L52
 528              		.loc 1 105 0 is_stmt 0 discriminator 1
 529 0006 044B     		ldr	r3, .L54+4
 530 0008 1B68     		ldr	r3, [r3, #0]
 531 000a 13B1     		cbz	r3, .L51
 532              	.L52:
 533              		.loc 1 106 0 is_stmt 1
 534 000c 0348     		ldr	r0, .L54+8
 535              		.loc 1 107 0
 536              		.loc 1 106 0
 537 000e FFF7FEBF 		b	chDbgPanic
 538              	.L51:
 539 0012 7047     		bx	lr
 540              	.L55:
 541              		.align	2
 542              	.L54:
 543 0014 00000000 		.word	.LANCHOR2
 544 0018 00000000 		.word	.LANCHOR3
 545 001c 2A000000 		.word	.LC8
 546              		.cfi_endproc
 547              	.LFE2:
 548              		.size	dbg_check_enable, .-dbg_check_enable
 549              		.section	.text.dbg_check_suspend,"ax",%progbits
 550              		.align	1
 551              		.global	dbg_check_suspend
 552              		.thumb
 553              		.thumb_func
 554              		.type	dbg_check_suspend, %function
 555              	dbg_check_suspend:
 556              	.LFB1:
 557              		.loc 1 92 0
 558              		.cfi_startproc
 559              		@ args = 0, pretend = 0, frame = 0
 560              		@ frame_needed = 0, uses_anonymous_args = 0
 561              		@ link register save eliminated.
 562              		.loc 1 94 0
 563 0000 044B     		ldr	r3, .L59
 564 0002 1B68     		ldr	r3, [r3, #0]
 565 0004 13B9     		cbnz	r3, .L57
 566              		.loc 1 94 0 is_stmt 0 discriminator 1
ARM GAS  /tmp/ccO73bFa.s 			page 11


 567 0006 044B     		ldr	r3, .L59+4
 568 0008 1B68     		ldr	r3, [r3, #0]
 569 000a 13B1     		cbz	r3, .L56
 570              	.L57:
 571              		.loc 1 95 0 is_stmt 1
 572 000c 0348     		ldr	r0, .L59+8
 573              		.loc 1 96 0
 574              		.loc 1 95 0
 575 000e FFF7FEBF 		b	chDbgPanic
 576              	.L56:
 577 0012 7047     		bx	lr
 578              	.L60:
 579              		.align	2
 580              	.L59:
 581 0014 00000000 		.word	.LANCHOR2
 582 0018 00000000 		.word	.LANCHOR3
 583 001c 2F000000 		.word	.LC9
 584              		.cfi_endproc
 585              	.LFE1:
 586              		.size	dbg_check_suspend, .-dbg_check_suspend
 587              		.section	.text.dbg_check_disable,"ax",%progbits
 588              		.align	1
 589              		.global	dbg_check_disable
 590              		.thumb
 591              		.thumb_func
 592              		.type	dbg_check_disable, %function
 593              	dbg_check_disable:
 594              	.LFB0:
 595              		.loc 1 81 0
 596              		.cfi_startproc
 597              		@ args = 0, pretend = 0, frame = 0
 598              		@ frame_needed = 0, uses_anonymous_args = 0
 599              		@ link register save eliminated.
 600              		.loc 1 83 0
 601 0000 044B     		ldr	r3, .L64
 602 0002 1B68     		ldr	r3, [r3, #0]
 603 0004 13B9     		cbnz	r3, .L62
 604              		.loc 1 83 0 is_stmt 0 discriminator 1
 605 0006 044B     		ldr	r3, .L64+4
 606 0008 1B68     		ldr	r3, [r3, #0]
 607 000a 13B1     		cbz	r3, .L61
 608              	.L62:
 609              		.loc 1 84 0 is_stmt 1
 610 000c 0348     		ldr	r0, .L64+8
 611              		.loc 1 85 0
 612              		.loc 1 84 0
 613 000e FFF7FEBF 		b	chDbgPanic
 614              	.L61:
 615 0012 7047     		bx	lr
 616              	.L65:
 617              		.align	2
 618              	.L64:
 619 0014 00000000 		.word	.LANCHOR2
 620 0018 00000000 		.word	.LANCHOR3
 621 001c 34000000 		.word	.LC10
 622              		.cfi_endproc
 623              	.LFE0:
ARM GAS  /tmp/ccO73bFa.s 			page 12


 624              		.size	dbg_check_disable, .-dbg_check_disable
 625              		.global	dbg_trace_buffer
 626              		.global	dbg_panic_msg
 627              		.global	dbg_isr_cnt
 628              		.global	dbg_lock_cnt
 629              		.section	.bss.dbg_isr_cnt,"aw",%nobits
 630              		.align	2
 631              		.set	.LANCHOR2,. + 0
 632              		.type	dbg_isr_cnt, %object
 633              		.size	dbg_isr_cnt, 4
 634              	dbg_isr_cnt:
 635 0000 00000000 		.space	4
 636              		.section	.bss.dbg_trace_buffer,"aw",%nobits
 637              		.align	2
 638              		.set	.LANCHOR0,. + 0
 639              		.type	dbg_trace_buffer, %object
 640              		.size	dbg_trace_buffer, 1032
 641              	dbg_trace_buffer:
 642 0000 00000000 		.space	1032
 642      00000000 
 642      00000000 
 642      00000000 
 642      00000000 
 643              		.section	.rodata.str1.1,"aMS",%progbits,1
 644              	.LC0:
 645 0000 53562331 		.ascii	"SV#11\000"
 645      3100
 646              	.LC1:
 647 0006 53562331 		.ascii	"SV#10\000"
 647      3000
 648              	.LC2:
 649 000c 53562339 		.ascii	"SV#9\000"
 649      00
 650              	.LC3:
 651 0011 53562338 		.ascii	"SV#8\000"
 651      00
 652              	.LC4:
 653 0016 53562337 		.ascii	"SV#7\000"
 653      00
 654              	.LC5:
 655 001b 53562336 		.ascii	"SV#6\000"
 655      00
 656              	.LC6:
 657 0020 53562335 		.ascii	"SV#5\000"
 657      00
 658              	.LC7:
 659 0025 53562334 		.ascii	"SV#4\000"
 659      00
 660              	.LC8:
 661 002a 53562333 		.ascii	"SV#3\000"
 661      00
 662              	.LC9:
 663 002f 53562332 		.ascii	"SV#2\000"
 663      00
 664              	.LC10:
 665 0034 53562331 		.ascii	"SV#1\000"
 665      00
ARM GAS  /tmp/ccO73bFa.s 			page 13


 666              		.section	.bss.dbg_lock_cnt,"aw",%nobits
 667              		.align	2
 668              		.set	.LANCHOR3,. + 0
 669              		.type	dbg_lock_cnt, %object
 670              		.size	dbg_lock_cnt, 4
 671              	dbg_lock_cnt:
 672 0000 00000000 		.space	4
 673              		.section	.bss.dbg_panic_msg,"aw",%nobits
 674              		.align	2
 675              		.set	.LANCHOR1,. + 0
 676              		.type	dbg_panic_msg, %object
 677              		.size	dbg_panic_msg, 4
 678              	dbg_panic_msg:
 679 0000 00000000 		.space	4
 680              		.text
 681              	.Letext0:
 682              		.section	.debug_loc,"",%progbits
 683              	.Ldebug_loc0:
 684              	.LLST0:
 685 0000 00000000 		.4byte	.LVL1
 686 0004 07000000 		.4byte	.LVL2-1
 687 0008 0100     		.2byte	0x1
 688 000a 50       		.byte	0x50
 689 000b 00000000 		.4byte	0x0
 690 000f 00000000 		.4byte	0x0
 691              	.LLST1:
 692 0013 00000000 		.4byte	.LFB8
 693 0017 02000000 		.4byte	.LCFI0
 694 001b 0200     		.2byte	0x2
 695 001d 7D       		.byte	0x7d
 696 001e 00       		.sleb128 0
 697 001f 02000000 		.4byte	.LCFI0
 698 0023 34000000 		.4byte	.LFE8
 699 0027 0200     		.2byte	0x2
 700 0029 7D       		.byte	0x7d
 701 002a 08       		.sleb128 8
 702 002b 00000000 		.4byte	0x0
 703 002f 00000000 		.4byte	0x0
 704              	.LLST2:
 705 0033 00000000 		.4byte	.LFB7
 706 0037 02000000 		.4byte	.LCFI1
 707 003b 0200     		.2byte	0x2
 708 003d 7D       		.byte	0x7d
 709 003e 00       		.sleb128 0
 710 003f 02000000 		.4byte	.LCFI1
 711 0043 34000000 		.4byte	.LFE7
 712 0047 0200     		.2byte	0x2
 713 0049 7D       		.byte	0x7d
 714 004a 08       		.sleb128 8
 715 004b 00000000 		.4byte	0x0
 716 004f 00000000 		.4byte	0x0
 717              	.LLST3:
 718 0053 00000000 		.4byte	.LFB6
 719 0057 04000000 		.4byte	.LCFI2
 720 005b 0200     		.2byte	0x2
 721 005d 7D       		.byte	0x7d
 722 005e 00       		.sleb128 0
ARM GAS  /tmp/ccO73bFa.s 			page 14


 723 005f 04000000 		.4byte	.LCFI2
 724 0063 2C000000 		.4byte	.LFE6
 725 0067 0200     		.2byte	0x2
 726 0069 7D       		.byte	0x7d
 727 006a 08       		.sleb128 8
 728 006b 00000000 		.4byte	0x0
 729 006f 00000000 		.4byte	0x0
 730              	.LLST4:
 731 0073 00000000 		.4byte	.LFB5
 732 0077 04000000 		.4byte	.LCFI3
 733 007b 0200     		.2byte	0x2
 734 007d 7D       		.byte	0x7d
 735 007e 00       		.sleb128 0
 736 007f 04000000 		.4byte	.LCFI3
 737 0083 28000000 		.4byte	.LFE5
 738 0087 0200     		.2byte	0x2
 739 0089 7D       		.byte	0x7d
 740 008a 08       		.sleb128 8
 741 008b 00000000 		.4byte	0x0
 742 008f 00000000 		.4byte	0x0
 743              	.LLST5:
 744 0093 00000000 		.4byte	.LFB4
 745 0097 04000000 		.4byte	.LCFI4
 746 009b 0200     		.2byte	0x2
 747 009d 7D       		.byte	0x7d
 748 009e 00       		.sleb128 0
 749 009f 04000000 		.4byte	.LCFI4
 750 00a3 28000000 		.4byte	.LFE4
 751 00a7 0200     		.2byte	0x2
 752 00a9 7D       		.byte	0x7d
 753 00aa 08       		.sleb128 8
 754 00ab 00000000 		.4byte	0x0
 755 00af 00000000 		.4byte	0x0
 756              	.LLST6:
 757 00b3 00000000 		.4byte	.LFB3
 758 00b7 04000000 		.4byte	.LCFI5
 759 00bb 0200     		.2byte	0x2
 760 00bd 7D       		.byte	0x7d
 761 00be 00       		.sleb128 0
 762 00bf 04000000 		.4byte	.LCFI5
 763 00c3 28000000 		.4byte	.LFE3
 764 00c7 0200     		.2byte	0x2
 765 00c9 7D       		.byte	0x7d
 766 00ca 08       		.sleb128 8
 767 00cb 00000000 		.4byte	0x0
 768 00cf 00000000 		.4byte	0x0
 769              		.file 2 "/home/z80/programs/code-sourcery/2011.03-42/bin/../lib/gcc/arm-none-eabi/4.5.2/../../../.
 770              		.file 3 "../chibios/os/ports/GCC/ARMCMx/chtypes.h"
 771              		.file 4 "../chibios/os/kernel/include/chlists.h"
 772              		.file 5 "../chibios/os/kernel/include/chthreads.h"
 773              		.file 6 "../chibios/os/ports/GCC/ARMCMx/chcore_v7m.h"
 774              		.file 7 "../chibios/os/kernel/include/chvt.h"
 775              		.file 8 "../chibios/os/kernel/include/chschd.h"
 776              		.file 9 "../chibios/os/kernel/include/chmtx.h"
 777              		.file 10 "../chibios/os/kernel/include/chdebug.h"
 778              		.section	.debug_info
 779 0000 C1070000 		.4byte	0x7c1
ARM GAS  /tmp/ccO73bFa.s 			page 15


 780 0004 0200     		.2byte	0x2
 781 0006 00000000 		.4byte	.Ldebug_abbrev0
 782 000a 04       		.byte	0x4
 783 000b 01       		.uleb128 0x1
 784 000c 15040000 		.4byte	.LASF102
 785 0010 01       		.byte	0x1
 786 0011 56040000 		.4byte	.LASF103
 787 0015 5A010000 		.4byte	.LASF104
 788 0019 00000000 		.4byte	0x0
 789 001d 00000000 		.4byte	0x0
 790 0021 00000000 		.4byte	.Ldebug_ranges0+0x0
 791 0025 00000000 		.4byte	.Ldebug_line0
 792 0029 02       		.uleb128 0x2
 793 002a 04       		.byte	0x4
 794 002b 05       		.byte	0x5
 795 002c 696E7400 		.ascii	"int\000"
 796 0030 03       		.uleb128 0x3
 797 0031 04       		.byte	0x4
 798 0032 07       		.byte	0x7
 799 0033 0F010000 		.4byte	.LASF0
 800 0037 03       		.uleb128 0x3
 801 0038 01       		.byte	0x1
 802 0039 06       		.byte	0x6
 803 003a 78000000 		.4byte	.LASF1
 804 003e 04       		.uleb128 0x4
 805 003f EE030000 		.4byte	.LASF5
 806 0043 02       		.byte	0x2
 807 0044 2A       		.byte	0x2a
 808 0045 49000000 		.4byte	0x49
 809 0049 03       		.uleb128 0x3
 810 004a 01       		.byte	0x1
 811 004b 08       		.byte	0x8
 812 004c AE020000 		.4byte	.LASF2
 813 0050 03       		.uleb128 0x3
 814 0051 02       		.byte	0x2
 815 0052 05       		.byte	0x5
 816 0053 D4020000 		.4byte	.LASF3
 817 0057 03       		.uleb128 0x3
 818 0058 02       		.byte	0x2
 819 0059 07       		.byte	0x7
 820 005a 6A030000 		.4byte	.LASF4
 821 005e 04       		.uleb128 0x4
 822 005f A6020000 		.4byte	.LASF6
 823 0063 02       		.byte	0x2
 824 0064 4F       		.byte	0x4f
 825 0065 69000000 		.4byte	0x69
 826 0069 03       		.uleb128 0x3
 827 006a 04       		.byte	0x4
 828 006b 05       		.byte	0x5
 829 006c B5000000 		.4byte	.LASF7
 830 0070 04       		.uleb128 0x4
 831 0071 15030000 		.4byte	.LASF8
 832 0075 02       		.byte	0x2
 833 0076 50       		.byte	0x50
 834 0077 7B000000 		.4byte	0x7b
 835 007b 03       		.uleb128 0x3
 836 007c 04       		.byte	0x4
ARM GAS  /tmp/ccO73bFa.s 			page 16


 837 007d 07       		.byte	0x7
 838 007e 2E010000 		.4byte	.LASF9
 839 0082 03       		.uleb128 0x3
 840 0083 08       		.byte	0x8
 841 0084 05       		.byte	0x5
 842 0085 6A000000 		.4byte	.LASF10
 843 0089 04       		.uleb128 0x4
 844 008a 18000000 		.4byte	.LASF11
 845 008e 02       		.byte	0x2
 846 008f 78       		.byte	0x78
 847 0090 94000000 		.4byte	0x94
 848 0094 03       		.uleb128 0x3
 849 0095 08       		.byte	0x8
 850 0096 07       		.byte	0x7
 851 0097 28000000 		.4byte	.LASF12
 852 009b 04       		.uleb128 0x4
 853 009c B3010000 		.4byte	.LASF13
 854 00a0 03       		.byte	0x3
 855 00a1 2F       		.byte	0x2f
 856 00a2 3E000000 		.4byte	0x3e
 857 00a6 04       		.uleb128 0x4
 858 00a7 BE000000 		.4byte	.LASF14
 859 00ab 03       		.byte	0x3
 860 00ac 30       		.byte	0x30
 861 00ad 3E000000 		.4byte	0x3e
 862 00b1 04       		.uleb128 0x4
 863 00b2 85020000 		.4byte	.LASF15
 864 00b6 03       		.byte	0x3
 865 00b7 31       		.byte	0x31
 866 00b8 3E000000 		.4byte	0x3e
 867 00bc 04       		.uleb128 0x4
 868 00bd 9E020000 		.4byte	.LASF16
 869 00c1 03       		.byte	0x3
 870 00c2 32       		.byte	0x32
 871 00c3 70000000 		.4byte	0x70
 872 00c7 04       		.uleb128 0x4
 873 00c8 9C010000 		.4byte	.LASF17
 874 00cc 03       		.byte	0x3
 875 00cd 33       		.byte	0x33
 876 00ce 5E000000 		.4byte	0x5e
 877 00d2 04       		.uleb128 0x4
 878 00d3 E4010000 		.4byte	.LASF18
 879 00d7 03       		.byte	0x3
 880 00d8 35       		.byte	0x35
 881 00d9 70000000 		.4byte	0x70
 882 00dd 04       		.uleb128 0x4
 883 00de 3F030000 		.4byte	.LASF19
 884 00e2 03       		.byte	0x3
 885 00e3 36       		.byte	0x36
 886 00e4 70000000 		.4byte	0x70
 887 00e8 04       		.uleb128 0x4
 888 00e9 FE000000 		.4byte	.LASF20
 889 00ed 03       		.byte	0x3
 890 00ee 37       		.byte	0x37
 891 00ef 5E000000 		.4byte	0x5e
 892 00f3 04       		.uleb128 0x4
 893 00f4 03030000 		.4byte	.LASF21
ARM GAS  /tmp/ccO73bFa.s 			page 17


 894 00f8 04       		.byte	0x4
 895 00f9 2A       		.byte	0x2a
 896 00fa FE000000 		.4byte	0xfe
 897 00fe 05       		.uleb128 0x5
 898 00ff 03030000 		.4byte	.LASF21
 899 0103 4C       		.byte	0x4c
 900 0104 05       		.byte	0x5
 901 0105 5E       		.byte	0x5e
 902 0106 23020000 		.4byte	0x223
 903 010a 06       		.uleb128 0x6
 904 010b F4020000 		.4byte	.LASF22
 905 010f 05       		.byte	0x5
 906 0110 5F       		.byte	0x5f
 907 0111 48020000 		.4byte	0x248
 908 0115 02       		.byte	0x2
 909 0116 23       		.byte	0x23
 910 0117 00       		.uleb128 0x0
 911 0118 06       		.uleb128 0x6
 912 0119 97020000 		.4byte	.LASF23
 913 011d 05       		.byte	0x5
 914 011e 61       		.byte	0x61
 915 011f 48020000 		.4byte	0x248
 916 0123 02       		.byte	0x2
 917 0124 23       		.byte	0x23
 918 0125 04       		.uleb128 0x4
 919 0126 06       		.uleb128 0x6
 920 0127 63000000 		.4byte	.LASF24
 921 012b 05       		.byte	0x5
 922 012c 63       		.byte	0x63
 923 012d BC000000 		.4byte	0xbc
 924 0131 02       		.byte	0x2
 925 0132 23       		.byte	0x23
 926 0133 08       		.uleb128 0x8
 927 0134 06       		.uleb128 0x6
 928 0135 83040000 		.4byte	.LASF25
 929 0139 05       		.byte	0x5
 930 013a 64       		.byte	0x64
 931 013b 20030000 		.4byte	0x320
 932 013f 02       		.byte	0x2
 933 0140 23       		.byte	0x23
 934 0141 0C       		.uleb128 0xc
 935 0142 06       		.uleb128 0x6
 936 0143 CD000000 		.4byte	.LASF26
 937 0147 05       		.byte	0x5
 938 0148 66       		.byte	0x66
 939 0149 48020000 		.4byte	0x248
 940 014d 02       		.byte	0x2
 941 014e 23       		.byte	0x23
 942 014f 10       		.uleb128 0x10
 943 0150 06       		.uleb128 0x6
 944 0151 36020000 		.4byte	.LASF27
 945 0155 05       		.byte	0x5
 946 0156 67       		.byte	0x67
 947 0157 48020000 		.4byte	0x248
 948 015b 02       		.byte	0x2
 949 015c 23       		.byte	0x23
 950 015d 14       		.uleb128 0x14
ARM GAS  /tmp/ccO73bFa.s 			page 18


 951 015e 06       		.uleb128 0x6
 952 015f 21040000 		.4byte	.LASF28
 953 0163 05       		.byte	0x5
 954 0164 6E       		.byte	0x6e
 955 0165 08050000 		.4byte	0x508
 956 0169 02       		.byte	0x2
 957 016a 23       		.byte	0x23
 958 016b 18       		.uleb128 0x18
 959 016c 06       		.uleb128 0x6
 960 016d 04010000 		.4byte	.LASF29
 961 0171 05       		.byte	0x5
 962 0172 74       		.byte	0x74
 963 0173 1A050000 		.4byte	0x51a
 964 0177 02       		.byte	0x2
 965 0178 23       		.byte	0x23
 966 0179 1C       		.uleb128 0x1c
 967 017a 06       		.uleb128 0x6
 968 017b DE020000 		.4byte	.LASF30
 969 017f 05       		.byte	0x5
 970 0180 79       		.byte	0x79
 971 0181 A6000000 		.4byte	0xa6
 972 0185 02       		.byte	0x2
 973 0186 23       		.byte	0x23
 974 0187 20       		.uleb128 0x20
 975 0188 06       		.uleb128 0x6
 976 0189 FB020000 		.4byte	.LASF31
 977 018d 05       		.byte	0x5
 978 018e 7D       		.byte	0x7d
 979 018f 9B000000 		.4byte	0x9b
 980 0193 02       		.byte	0x2
 981 0194 23       		.byte	0x23
 982 0195 21       		.uleb128 0x21
 983 0196 06       		.uleb128 0x6
 984 0197 BB030000 		.4byte	.LASF32
 985 019b 05       		.byte	0x5
 986 019c 82       		.byte	0x82
 987 019d B1000000 		.4byte	0xb1
 988 01a1 02       		.byte	0x2
 989 01a2 23       		.byte	0x23
 990 01a3 22       		.uleb128 0x22
 991 01a4 06       		.uleb128 0x6
 992 01a5 0E040000 		.4byte	.LASF33
 993 01a9 05       		.byte	0x5
 994 01aa 89       		.byte	0x89
 995 01ab 05040000 		.4byte	0x405
 996 01af 02       		.byte	0x2
 997 01b0 23       		.byte	0x23
 998 01b1 24       		.uleb128 0x24
 999 01b2 07       		.uleb128 0x7
 1000 01b3 705F7500 		.ascii	"p_u\000"
 1001 01b7 05       		.byte	0x5
 1002 01b8 AE       		.byte	0xae
 1003 01b9 D3040000 		.4byte	0x4d3
 1004 01bd 02       		.byte	0x2
 1005 01be 23       		.byte	0x23
 1006 01bf 28       		.uleb128 0x28
 1007 01c0 06       		.uleb128 0x6
ARM GAS  /tmp/ccO73bFa.s 			page 19


 1008 01c1 89040000 		.4byte	.LASF34
 1009 01c5 05       		.byte	0x5
 1010 01c6 B3       		.byte	0xb3
 1011 01c7 70020000 		.4byte	0x270
 1012 01cb 02       		.byte	0x2
 1013 01cc 23       		.byte	0x23
 1014 01cd 2C       		.uleb128 0x2c
 1015 01ce 06       		.uleb128 0x6
 1016 01cf 98030000 		.4byte	.LASF35
 1017 01d3 05       		.byte	0x5
 1018 01d4 B9       		.byte	0xb9
 1019 01d5 4E020000 		.4byte	0x24e
 1020 01d9 02       		.byte	0x2
 1021 01da 23       		.byte	0x23
 1022 01db 30       		.uleb128 0x30
 1023 01dc 06       		.uleb128 0x6
 1024 01dd 00000000 		.4byte	.LASF36
 1025 01e1 05       		.byte	0x5
 1026 01e2 BD       		.byte	0xbd
 1027 01e3 C7000000 		.4byte	0xc7
 1028 01e7 02       		.byte	0x2
 1029 01e8 23       		.byte	0x23
 1030 01e9 38       		.uleb128 0x38
 1031 01ea 06       		.uleb128 0x6
 1032 01eb 0A030000 		.4byte	.LASF37
 1033 01ef 05       		.byte	0x5
 1034 01f0 C3       		.byte	0xc3
 1035 01f1 D2000000 		.4byte	0xd2
 1036 01f5 02       		.byte	0x2
 1037 01f6 23       		.byte	0x23
 1038 01f7 3C       		.uleb128 0x3c
 1039 01f8 06       		.uleb128 0x6
 1040 01f9 CA020000 		.4byte	.LASF38
 1041 01fd 05       		.byte	0x5
 1042 01fe CA       		.byte	0xca
 1043 01ff 20050000 		.4byte	0x520
 1044 0203 02       		.byte	0x2
 1045 0204 23       		.byte	0x23
 1046 0205 40       		.uleb128 0x40
 1047 0206 06       		.uleb128 0x6
 1048 0207 49030000 		.4byte	.LASF39
 1049 020b 05       		.byte	0x5
 1050 020c CE       		.byte	0xce
 1051 020d BC000000 		.4byte	0xbc
 1052 0211 02       		.byte	0x2
 1053 0212 23       		.byte	0x23
 1054 0213 44       		.uleb128 0x44
 1055 0214 06       		.uleb128 0x6
 1056 0215 9E000000 		.4byte	.LASF40
 1057 0219 05       		.byte	0x5
 1058 021a D4       		.byte	0xd4
 1059 021b 86020000 		.4byte	0x286
 1060 021f 02       		.byte	0x2
 1061 0220 23       		.byte	0x23
 1062 0221 48       		.uleb128 0x48
 1063 0222 00       		.byte	0x0
 1064 0223 08       		.uleb128 0x8
ARM GAS  /tmp/ccO73bFa.s 			page 20


 1065 0224 08       		.byte	0x8
 1066 0225 04       		.byte	0x4
 1067 0226 61       		.byte	0x61
 1068 0227 48020000 		.4byte	0x248
 1069 022b 06       		.uleb128 0x6
 1070 022c F4020000 		.4byte	.LASF22
 1071 0230 04       		.byte	0x4
 1072 0231 62       		.byte	0x62
 1073 0232 48020000 		.4byte	0x248
 1074 0236 02       		.byte	0x2
 1075 0237 23       		.byte	0x23
 1076 0238 00       		.uleb128 0x0
 1077 0239 06       		.uleb128 0x6
 1078 023a 97020000 		.4byte	.LASF23
 1079 023e 04       		.byte	0x4
 1080 023f 64       		.byte	0x64
 1081 0240 48020000 		.4byte	0x248
 1082 0244 02       		.byte	0x2
 1083 0245 23       		.byte	0x23
 1084 0246 04       		.uleb128 0x4
 1085 0247 00       		.byte	0x0
 1086 0248 09       		.uleb128 0x9
 1087 0249 04       		.byte	0x4
 1088 024a F3000000 		.4byte	0xf3
 1089 024e 04       		.uleb128 0x4
 1090 024f 44020000 		.4byte	.LASF41
 1091 0253 04       		.byte	0x4
 1092 0254 66       		.byte	0x66
 1093 0255 23020000 		.4byte	0x223
 1094 0259 08       		.uleb128 0x8
 1095 025a 04       		.byte	0x4
 1096 025b 04       		.byte	0x4
 1097 025c 6B       		.byte	0x6b
 1098 025d 70020000 		.4byte	0x270
 1099 0261 06       		.uleb128 0x6
 1100 0262 F4020000 		.4byte	.LASF22
 1101 0266 04       		.byte	0x4
 1102 0267 6D       		.byte	0x6d
 1103 0268 48020000 		.4byte	0x248
 1104 026c 02       		.byte	0x2
 1105 026d 23       		.byte	0x23
 1106 026e 00       		.uleb128 0x0
 1107 026f 00       		.byte	0x0
 1108 0270 04       		.uleb128 0x4
 1109 0271 D8010000 		.4byte	.LASF42
 1110 0275 04       		.byte	0x4
 1111 0276 70       		.byte	0x70
 1112 0277 59020000 		.4byte	0x259
 1113 027b 04       		.uleb128 0x4
 1114 027c E5000000 		.4byte	.LASF43
 1115 0280 06       		.byte	0x6
 1116 0281 D7       		.byte	0xd7
 1117 0282 86020000 		.4byte	0x286
 1118 0286 0A       		.uleb128 0xa
 1119 0287 04       		.byte	0x4
 1120 0288 04       		.uleb128 0x4
 1121 0289 F6010000 		.4byte	.LASF44
ARM GAS  /tmp/ccO73bFa.s 			page 21


 1122 028d 06       		.byte	0x6
 1123 028e DD       		.byte	0xdd
 1124 028f 89000000 		.4byte	0x89
 1125 0293 05       		.uleb128 0x5
 1126 0294 91030000 		.4byte	.LASF45
 1127 0298 24       		.byte	0x24
 1128 0299 06       		.byte	0x6
 1129 029a FE       		.byte	0xfe
 1130 029b 20030000 		.4byte	0x320
 1131 029f 0B       		.uleb128 0xb
 1132 02a0 723400   		.ascii	"r4\000"
 1133 02a3 06       		.byte	0x6
 1134 02a4 1101     		.2byte	0x111
 1135 02a6 7B020000 		.4byte	0x27b
 1136 02aa 02       		.byte	0x2
 1137 02ab 23       		.byte	0x23
 1138 02ac 00       		.uleb128 0x0
 1139 02ad 0B       		.uleb128 0xb
 1140 02ae 723500   		.ascii	"r5\000"
 1141 02b1 06       		.byte	0x6
 1142 02b2 1201     		.2byte	0x112
 1143 02b4 7B020000 		.4byte	0x27b
 1144 02b8 02       		.byte	0x2
 1145 02b9 23       		.byte	0x23
 1146 02ba 04       		.uleb128 0x4
 1147 02bb 0B       		.uleb128 0xb
 1148 02bc 723600   		.ascii	"r6\000"
 1149 02bf 06       		.byte	0x6
 1150 02c0 1301     		.2byte	0x113
 1151 02c2 7B020000 		.4byte	0x27b
 1152 02c6 02       		.byte	0x2
 1153 02c7 23       		.byte	0x23
 1154 02c8 08       		.uleb128 0x8
 1155 02c9 0B       		.uleb128 0xb
 1156 02ca 723700   		.ascii	"r7\000"
 1157 02cd 06       		.byte	0x6
 1158 02ce 1401     		.2byte	0x114
 1159 02d0 7B020000 		.4byte	0x27b
 1160 02d4 02       		.byte	0x2
 1161 02d5 23       		.byte	0x23
 1162 02d6 0C       		.uleb128 0xc
 1163 02d7 0B       		.uleb128 0xb
 1164 02d8 723800   		.ascii	"r8\000"
 1165 02db 06       		.byte	0x6
 1166 02dc 1501     		.2byte	0x115
 1167 02de 7B020000 		.4byte	0x27b
 1168 02e2 02       		.byte	0x2
 1169 02e3 23       		.byte	0x23
 1170 02e4 10       		.uleb128 0x10
 1171 02e5 0B       		.uleb128 0xb
 1172 02e6 723900   		.ascii	"r9\000"
 1173 02e9 06       		.byte	0x6
 1174 02ea 1601     		.2byte	0x116
 1175 02ec 7B020000 		.4byte	0x27b
 1176 02f0 02       		.byte	0x2
 1177 02f1 23       		.byte	0x23
 1178 02f2 14       		.uleb128 0x14
ARM GAS  /tmp/ccO73bFa.s 			page 22


 1179 02f3 0B       		.uleb128 0xb
 1180 02f4 72313000 		.ascii	"r10\000"
 1181 02f8 06       		.byte	0x6
 1182 02f9 1701     		.2byte	0x117
 1183 02fb 7B020000 		.4byte	0x27b
 1184 02ff 02       		.byte	0x2
 1185 0300 23       		.byte	0x23
 1186 0301 18       		.uleb128 0x18
 1187 0302 0B       		.uleb128 0xb
 1188 0303 72313100 		.ascii	"r11\000"
 1189 0307 06       		.byte	0x6
 1190 0308 1801     		.2byte	0x118
 1191 030a 7B020000 		.4byte	0x27b
 1192 030e 02       		.byte	0x2
 1193 030f 23       		.byte	0x23
 1194 0310 1C       		.uleb128 0x1c
 1195 0311 0B       		.uleb128 0xb
 1196 0312 6C7200   		.ascii	"lr\000"
 1197 0315 06       		.byte	0x6
 1198 0316 1901     		.2byte	0x119
 1199 0318 7B020000 		.4byte	0x27b
 1200 031c 02       		.byte	0x2
 1201 031d 23       		.byte	0x23
 1202 031e 20       		.uleb128 0x20
 1203 031f 00       		.byte	0x0
 1204 0320 0C       		.uleb128 0xc
 1205 0321 52010000 		.4byte	.LASF46
 1206 0325 04       		.byte	0x4
 1207 0326 06       		.byte	0x6
 1208 0327 2301     		.2byte	0x123
 1209 0329 3D030000 		.4byte	0x33d
 1210 032d 0B       		.uleb128 0xb
 1211 032e 72313300 		.ascii	"r13\000"
 1212 0332 06       		.byte	0x6
 1213 0333 2401     		.2byte	0x124
 1214 0335 3D030000 		.4byte	0x33d
 1215 0339 02       		.byte	0x2
 1216 033a 23       		.byte	0x23
 1217 033b 00       		.uleb128 0x0
 1218 033c 00       		.byte	0x0
 1219 033d 09       		.uleb128 0x9
 1220 033e 04       		.byte	0x4
 1221 033f 93020000 		.4byte	0x293
 1222 0343 04       		.uleb128 0x4
 1223 0344 54030000 		.4byte	.LASF47
 1224 0348 07       		.byte	0x7
 1225 0349 53       		.byte	0x53
 1226 034a 4E030000 		.4byte	0x34e
 1227 034e 09       		.uleb128 0x9
 1228 034f 04       		.byte	0x4
 1229 0350 54030000 		.4byte	0x354
 1230 0354 0D       		.uleb128 0xd
 1231 0355 01       		.byte	0x1
 1232 0356 60030000 		.4byte	0x360
 1233 035a 0E       		.uleb128 0xe
 1234 035b 86020000 		.4byte	0x286
 1235 035f 00       		.byte	0x0
ARM GAS  /tmp/ccO73bFa.s 			page 23


 1236 0360 04       		.uleb128 0x4
 1237 0361 26030000 		.4byte	.LASF48
 1238 0365 07       		.byte	0x7
 1239 0366 58       		.byte	0x58
 1240 0367 6B030000 		.4byte	0x36b
 1241 036b 05       		.uleb128 0x5
 1242 036c 26030000 		.4byte	.LASF48
 1243 0370 14       		.byte	0x14
 1244 0371 07       		.byte	0x7
 1245 0372 5F       		.byte	0x5f
 1246 0373 BE030000 		.4byte	0x3be
 1247 0377 06       		.uleb128 0x6
 1248 0378 1C010000 		.4byte	.LASF49
 1249 037c 07       		.byte	0x7
 1250 037d 60       		.byte	0x60
 1251 037e BE030000 		.4byte	0x3be
 1252 0382 02       		.byte	0x2
 1253 0383 23       		.byte	0x23
 1254 0384 00       		.uleb128 0x0
 1255 0385 06       		.uleb128 0x6
 1256 0386 EE000000 		.4byte	.LASF50
 1257 038a 07       		.byte	0x7
 1258 038b 62       		.byte	0x62
 1259 038c BE030000 		.4byte	0x3be
 1260 0390 02       		.byte	0x2
 1261 0391 23       		.byte	0x23
 1262 0392 04       		.uleb128 0x4
 1263 0393 06       		.uleb128 0x6
 1264 0394 01020000 		.4byte	.LASF51
 1265 0398 07       		.byte	0x7
 1266 0399 64       		.byte	0x64
 1267 039a DD000000 		.4byte	0xdd
 1268 039e 02       		.byte	0x2
 1269 039f 23       		.byte	0x23
 1270 03a0 08       		.uleb128 0x8
 1271 03a1 06       		.uleb128 0x6
 1272 03a2 10020000 		.4byte	.LASF52
 1273 03a6 07       		.byte	0x7
 1274 03a7 65       		.byte	0x65
 1275 03a8 43030000 		.4byte	0x343
 1276 03ac 02       		.byte	0x2
 1277 03ad 23       		.byte	0x23
 1278 03ae 0C       		.uleb128 0xc
 1279 03af 06       		.uleb128 0x6
 1280 03b0 B4030000 		.4byte	.LASF53
 1281 03b4 07       		.byte	0x7
 1282 03b5 67       		.byte	0x67
 1283 03b6 86020000 		.4byte	0x286
 1284 03ba 02       		.byte	0x2
 1285 03bb 23       		.byte	0x23
 1286 03bc 10       		.uleb128 0x10
 1287 03bd 00       		.byte	0x0
 1288 03be 09       		.uleb128 0x9
 1289 03bf 04       		.byte	0x4
 1290 03c0 60030000 		.4byte	0x360
 1291 03c4 08       		.uleb128 0x8
 1292 03c5 10       		.byte	0x10
ARM GAS  /tmp/ccO73bFa.s 			page 24


 1293 03c6 07       		.byte	0x7
 1294 03c7 71       		.byte	0x71
 1295 03c8 05040000 		.4byte	0x405
 1296 03cc 06       		.uleb128 0x6
 1297 03cd 1C010000 		.4byte	.LASF49
 1298 03d1 07       		.byte	0x7
 1299 03d2 72       		.byte	0x72
 1300 03d3 BE030000 		.4byte	0x3be
 1301 03d7 02       		.byte	0x2
 1302 03d8 23       		.byte	0x23
 1303 03d9 00       		.uleb128 0x0
 1304 03da 06       		.uleb128 0x6
 1305 03db EE000000 		.4byte	.LASF50
 1306 03df 07       		.byte	0x7
 1307 03e0 74       		.byte	0x74
 1308 03e1 BE030000 		.4byte	0x3be
 1309 03e5 02       		.byte	0x2
 1310 03e6 23       		.byte	0x23
 1311 03e7 04       		.uleb128 0x4
 1312 03e8 06       		.uleb128 0x6
 1313 03e9 01020000 		.4byte	.LASF51
 1314 03ed 07       		.byte	0x7
 1315 03ee 76       		.byte	0x76
 1316 03ef DD000000 		.4byte	0xdd
 1317 03f3 02       		.byte	0x2
 1318 03f4 23       		.byte	0x23
 1319 03f5 08       		.uleb128 0x8
 1320 03f6 06       		.uleb128 0x6
 1321 03f7 28040000 		.4byte	.LASF54
 1322 03fb 07       		.byte	0x7
 1323 03fc 77       		.byte	0x77
 1324 03fd 05040000 		.4byte	0x405
 1325 0401 02       		.byte	0x2
 1326 0402 23       		.byte	0x23
 1327 0403 0C       		.uleb128 0xc
 1328 0404 00       		.byte	0x0
 1329 0405 0F       		.uleb128 0xf
 1330 0406 DD000000 		.4byte	0xdd
 1331 040a 04       		.uleb128 0x4
 1332 040b 33040000 		.4byte	.LASF55
 1333 040f 07       		.byte	0x7
 1334 0410 78       		.byte	0x78
 1335 0411 C4030000 		.4byte	0x3c4
 1336 0415 08       		.uleb128 0x8
 1337 0416 20       		.byte	0x20
 1338 0417 08       		.byte	0x8
 1339 0418 5E       		.byte	0x5e
 1340 0419 80040000 		.4byte	0x480
 1341 041d 06       		.uleb128 0x6
 1342 041e 1E030000 		.4byte	.LASF56
 1343 0422 08       		.byte	0x8
 1344 0423 5F       		.byte	0x5f
 1345 0424 4E020000 		.4byte	0x24e
 1346 0428 02       		.byte	0x2
 1347 0429 23       		.byte	0x23
 1348 042a 00       		.uleb128 0x0
 1349 042b 06       		.uleb128 0x6
ARM GAS  /tmp/ccO73bFa.s 			page 25


 1350 042c E6020000 		.4byte	.LASF57
 1351 0430 08       		.byte	0x8
 1352 0431 60       		.byte	0x60
 1353 0432 BC000000 		.4byte	0xbc
 1354 0436 02       		.byte	0x2
 1355 0437 23       		.byte	0x23
 1356 0438 08       		.uleb128 0x8
 1357 0439 06       		.uleb128 0x6
 1358 043a 3E020000 		.4byte	.LASF58
 1359 043e 08       		.byte	0x8
 1360 043f 62       		.byte	0x62
 1361 0440 20030000 		.4byte	0x320
 1362 0444 02       		.byte	0x2
 1363 0445 23       		.byte	0x23
 1364 0446 0C       		.uleb128 0xc
 1365 0447 06       		.uleb128 0x6
 1366 0448 DD000000 		.4byte	.LASF59
 1367 044c 08       		.byte	0x8
 1368 044d 65       		.byte	0x65
 1369 044e 48020000 		.4byte	0x248
 1370 0452 02       		.byte	0x2
 1371 0453 23       		.byte	0x23
 1372 0454 10       		.uleb128 0x10
 1373 0455 06       		.uleb128 0x6
 1374 0456 5B020000 		.4byte	.LASF60
 1375 045a 08       		.byte	0x8
 1376 045b 66       		.byte	0x66
 1377 045c 48020000 		.4byte	0x248
 1378 0460 02       		.byte	0x2
 1379 0461 23       		.byte	0x23
 1380 0462 14       		.uleb128 0x14
 1381 0463 06       		.uleb128 0x6
 1382 0464 3A040000 		.4byte	.LASF61
 1383 0468 08       		.byte	0x8
 1384 0469 6A       		.byte	0x6a
 1385 046a E8000000 		.4byte	0xe8
 1386 046e 02       		.byte	0x2
 1387 046f 23       		.byte	0x23
 1388 0470 18       		.uleb128 0x18
 1389 0471 06       		.uleb128 0x6
 1390 0472 51020000 		.4byte	.LASF62
 1391 0476 08       		.byte	0x8
 1392 0477 6C       		.byte	0x6c
 1393 0478 48020000 		.4byte	0x248
 1394 047c 02       		.byte	0x2
 1395 047d 23       		.byte	0x23
 1396 047e 1C       		.uleb128 0x1c
 1397 047f 00       		.byte	0x0
 1398 0480 04       		.uleb128 0x4
 1399 0481 C2030000 		.4byte	.LASF63
 1400 0485 08       		.byte	0x8
 1401 0486 6E       		.byte	0x6e
 1402 0487 15040000 		.4byte	0x415
 1403 048b 05       		.uleb128 0x5
 1404 048c F0010000 		.4byte	.LASF64
 1405 0490 10       		.byte	0x10
 1406 0491 09       		.byte	0x9
ARM GAS  /tmp/ccO73bFa.s 			page 26


 1407 0492 2C       		.byte	0x2c
 1408 0493 C2040000 		.4byte	0x4c2
 1409 0497 06       		.uleb128 0x6
 1410 0498 A6000000 		.4byte	.LASF65
 1411 049c 09       		.byte	0x9
 1412 049d 2D       		.byte	0x2d
 1413 049e 4E020000 		.4byte	0x24e
 1414 04a2 02       		.byte	0x2
 1415 04a3 23       		.byte	0x23
 1416 04a4 00       		.uleb128 0x0
 1417 04a5 06       		.uleb128 0x6
 1418 04a6 E6030000 		.4byte	.LASF66
 1419 04aa 09       		.byte	0x9
 1420 04ab 2F       		.byte	0x2f
 1421 04ac 48020000 		.4byte	0x248
 1422 04b0 02       		.byte	0x2
 1423 04b1 23       		.byte	0x23
 1424 04b2 08       		.uleb128 0x8
 1425 04b3 06       		.uleb128 0x6
 1426 04b4 38030000 		.4byte	.LASF67
 1427 04b8 09       		.byte	0x9
 1428 04b9 31       		.byte	0x31
 1429 04ba C2040000 		.4byte	0x4c2
 1430 04be 02       		.byte	0x2
 1431 04bf 23       		.byte	0x23
 1432 04c0 0C       		.uleb128 0xc
 1433 04c1 00       		.byte	0x0
 1434 04c2 09       		.uleb128 0x9
 1435 04c3 04       		.byte	0x4
 1436 04c4 8B040000 		.4byte	0x48b
 1437 04c8 04       		.uleb128 0x4
 1438 04c9 F0010000 		.4byte	.LASF64
 1439 04cd 09       		.byte	0x9
 1440 04ce 33       		.byte	0x33
 1441 04cf 8B040000 		.4byte	0x48b
 1442 04d3 10       		.uleb128 0x10
 1443 04d4 04       		.byte	0x4
 1444 04d5 05       		.byte	0x5
 1445 04d6 90       		.byte	0x90
 1446 04d7 08050000 		.4byte	0x508
 1447 04db 11       		.uleb128 0x11
 1448 04dc 11000000 		.4byte	.LASF68
 1449 04e0 05       		.byte	0x5
 1450 04e1 97       		.byte	0x97
 1451 04e2 C7000000 		.4byte	0xc7
 1452 04e6 11       		.uleb128 0x11
 1453 04e7 5A000000 		.4byte	.LASF69
 1454 04eb 05       		.byte	0x5
 1455 04ec 9E       		.byte	0x9e
 1456 04ed C7000000 		.4byte	0xc7
 1457 04f1 11       		.uleb128 0x11
 1458 04f2 AE000000 		.4byte	.LASF70
 1459 04f6 05       		.byte	0x5
 1460 04f7 A5       		.byte	0xa5
 1461 04f8 86020000 		.4byte	0x286
 1462 04fc 11       		.uleb128 0x11
 1463 04fd ED020000 		.4byte	.LASF71
ARM GAS  /tmp/ccO73bFa.s 			page 27


 1464 0501 05       		.byte	0x5
 1465 0502 AC       		.byte	0xac
 1466 0503 D2000000 		.4byte	0xd2
 1467 0507 00       		.byte	0x0
 1468 0508 09       		.uleb128 0x9
 1469 0509 04       		.byte	0x4
 1470 050a 0E050000 		.4byte	0x50e
 1471 050e 12       		.uleb128 0x12
 1472 050f 13050000 		.4byte	0x513
 1473 0513 03       		.uleb128 0x3
 1474 0514 01       		.byte	0x1
 1475 0515 08       		.byte	0x8
 1476 0516 33030000 		.4byte	.LASF72
 1477 051a 09       		.uleb128 0x9
 1478 051b 04       		.byte	0x4
 1479 051c 88020000 		.4byte	0x288
 1480 0520 09       		.uleb128 0x9
 1481 0521 04       		.byte	0x4
 1482 0522 C8040000 		.4byte	0x4c8
 1483 0526 08       		.uleb128 0x8
 1484 0527 10       		.byte	0x10
 1485 0528 0A       		.byte	0xa
 1486 0529 6C       		.byte	0x6c
 1487 052a 67050000 		.4byte	0x567
 1488 052e 06       		.uleb128 0x6
 1489 052f F6000000 		.4byte	.LASF73
 1490 0533 0A       		.byte	0xa
 1491 0534 6D       		.byte	0x6d
 1492 0535 DD000000 		.4byte	0xdd
 1493 0539 02       		.byte	0x2
 1494 053a 23       		.byte	0x23
 1495 053b 00       		.uleb128 0x0
 1496 053c 06       		.uleb128 0x6
 1497 053d C7000000 		.4byte	.LASF74
 1498 0541 0A       		.byte	0xa
 1499 0542 6E       		.byte	0x6e
 1500 0543 48020000 		.4byte	0x248
 1501 0547 02       		.byte	0x2
 1502 0548 23       		.byte	0x23
 1503 0549 04       		.uleb128 0x4
 1504 054a 06       		.uleb128 0x6
 1505 054b 79040000 		.4byte	.LASF75
 1506 054f 0A       		.byte	0xa
 1507 0550 6F       		.byte	0x6f
 1508 0551 86020000 		.4byte	0x286
 1509 0555 02       		.byte	0x2
 1510 0556 23       		.byte	0x23
 1511 0557 08       		.uleb128 0x8
 1512 0558 06       		.uleb128 0x6
 1513 0559 51000000 		.4byte	.LASF76
 1514 055d 0A       		.byte	0xa
 1515 055e 70       		.byte	0x70
 1516 055f 3E000000 		.4byte	0x3e
 1517 0563 02       		.byte	0x2
 1518 0564 23       		.byte	0x23
 1519 0565 0C       		.uleb128 0xc
 1520 0566 00       		.byte	0x0
ARM GAS  /tmp/ccO73bFa.s 			page 28


 1521 0567 04       		.uleb128 0x4
 1522 0568 27020000 		.4byte	.LASF77
 1523 056c 0A       		.byte	0xa
 1524 056d 71       		.byte	0x71
 1525 056e 26050000 		.4byte	0x526
 1526 0572 13       		.uleb128 0x13
 1527 0573 0804     		.2byte	0x408
 1528 0575 0A       		.byte	0xa
 1529 0576 76       		.byte	0x76
 1530 0577 A6050000 		.4byte	0x5a6
 1531 057b 06       		.uleb128 0x6
 1532 057c D5000000 		.4byte	.LASF78
 1533 0580 0A       		.byte	0xa
 1534 0581 77       		.byte	0x77
 1535 0582 30000000 		.4byte	0x30
 1536 0586 02       		.byte	0x2
 1537 0587 23       		.byte	0x23
 1538 0588 00       		.uleb128 0x0
 1539 0589 06       		.uleb128 0x6
 1540 058a 09020000 		.4byte	.LASF79
 1541 058e 0A       		.byte	0xa
 1542 058f 78       		.byte	0x78
 1543 0590 A6050000 		.4byte	0x5a6
 1544 0594 02       		.byte	0x2
 1545 0595 23       		.byte	0x23
 1546 0596 04       		.uleb128 0x4
 1547 0597 06       		.uleb128 0x6
 1548 0598 8D020000 		.4byte	.LASF80
 1549 059c 0A       		.byte	0xa
 1550 059d 7A       		.byte	0x7a
 1551 059e AC050000 		.4byte	0x5ac
 1552 05a2 02       		.byte	0x2
 1553 05a3 23       		.byte	0x23
 1554 05a4 08       		.uleb128 0x8
 1555 05a5 00       		.byte	0x0
 1556 05a6 09       		.uleb128 0x9
 1557 05a7 04       		.byte	0x4
 1558 05a8 67050000 		.4byte	0x567
 1559 05ac 14       		.uleb128 0x14
 1560 05ad 67050000 		.4byte	0x567
 1561 05b1 BC050000 		.4byte	0x5bc
 1562 05b5 15       		.uleb128 0x15
 1563 05b6 30000000 		.4byte	0x30
 1564 05ba 3F       		.byte	0x3f
 1565 05bb 00       		.byte	0x0
 1566 05bc 04       		.uleb128 0x4
 1567 05bd 3F000000 		.4byte	.LASF81
 1568 05c1 0A       		.byte	0xa
 1569 05c2 7B       		.byte	0x7b
 1570 05c3 72050000 		.4byte	0x572
 1571 05c7 16       		.uleb128 0x16
 1572 05c8 01       		.byte	0x1
 1573 05c9 90010000 		.4byte	.LASF84
 1574 05cd 01       		.byte	0x1
 1575 05ce E5       		.byte	0xe5
 1576 05cf 01       		.byte	0x1
 1577 05d0 00000000 		.4byte	.LFB11
ARM GAS  /tmp/ccO73bFa.s 			page 29


 1578 05d4 14000000 		.4byte	.LFE11
 1579 05d8 02       		.byte	0x2
 1580 05d9 7D       		.byte	0x7d
 1581 05da 00       		.sleb128 0
 1582 05db 17       		.uleb128 0x17
 1583 05dc 01       		.byte	0x1
 1584 05dd 24010000 		.4byte	.LASF82
 1585 05e1 01       		.byte	0x1
 1586 05e2 F2       		.byte	0xf2
 1587 05e3 01       		.byte	0x1
 1588 05e4 00000000 		.4byte	.LFB12
 1589 05e8 3C000000 		.4byte	.LFE12
 1590 05ec 02       		.byte	0x2
 1591 05ed 7D       		.byte	0x7d
 1592 05ee 00       		.sleb128 0
 1593 05ef 01060000 		.4byte	0x601
 1594 05f3 18       		.uleb128 0x18
 1595 05f4 6F747000 		.ascii	"otp\000"
 1596 05f8 01       		.byte	0x1
 1597 05f9 F2       		.byte	0xf2
 1598 05fa 48020000 		.4byte	0x248
 1599 05fe 01       		.byte	0x1
 1600 05ff 50       		.byte	0x50
 1601 0600 00       		.byte	0x0
 1602 0601 19       		.uleb128 0x19
 1603 0602 01       		.byte	0x1
 1604 0603 06000000 		.4byte	.LASF83
 1605 0607 01       		.byte	0x1
 1606 0608 0F01     		.2byte	0x10f
 1607 060a 01       		.byte	0x1
 1608 060b 00000000 		.4byte	.LFB13
 1609 060f 0C000000 		.4byte	.LFE13
 1610 0613 02       		.byte	0x2
 1611 0614 7D       		.byte	0x7d
 1612 0615 00       		.sleb128 0
 1613 0616 2B060000 		.4byte	0x62b
 1614 061a 1A       		.uleb128 0x1a
 1615 061b 6D736700 		.ascii	"msg\000"
 1616 061f 01       		.byte	0x1
 1617 0620 0F01     		.2byte	0x10f
 1618 0622 2B060000 		.4byte	0x62b
 1619 0626 00000000 		.4byte	.LLST0
 1620 062a 00       		.byte	0x0
 1621 062b 09       		.uleb128 0x9
 1622 062c 04       		.byte	0x4
 1623 062d 13050000 		.4byte	0x513
 1624 0631 16       		.uleb128 0x16
 1625 0632 01       		.byte	0x1
 1626 0633 C7010000 		.4byte	.LASF85
 1627 0637 01       		.byte	0x1
 1628 0638 CF       		.byte	0xcf
 1629 0639 01       		.byte	0x1
 1630 063a 00000000 		.4byte	.LFB10
 1631 063e 24000000 		.4byte	.LFE10
 1632 0642 02       		.byte	0x2
 1633 0643 7D       		.byte	0x7d
 1634 0644 00       		.sleb128 0
ARM GAS  /tmp/ccO73bFa.s 			page 30


 1635 0645 16       		.uleb128 0x16
 1636 0646 01       		.byte	0x1
 1637 0647 A2010000 		.4byte	.LASF86
 1638 064b 01       		.byte	0x1
 1639 064c C1       		.byte	0xc1
 1640 064d 01       		.byte	0x1
 1641 064e 00000000 		.4byte	.LFB9
 1642 0652 24000000 		.4byte	.LFE9
 1643 0656 02       		.byte	0x2
 1644 0657 7D       		.byte	0x7d
 1645 0658 00       		.sleb128 0
 1646 0659 1B       		.uleb128 0x1b
 1647 065a 01       		.byte	0x1
 1648 065b 7D030000 		.4byte	.LASF87
 1649 065f 01       		.byte	0x1
 1650 0660 B0       		.byte	0xb0
 1651 0661 01       		.byte	0x1
 1652 0662 00000000 		.4byte	.LFB8
 1653 0666 34000000 		.4byte	.LFE8
 1654 066a 13000000 		.4byte	.LLST1
 1655 066e 1B       		.uleb128 0x1b
 1656 066f 01       		.byte	0x1
 1657 0670 CC030000 		.4byte	.LASF88
 1658 0674 01       		.byte	0x1
 1659 0675 A2       		.byte	0xa2
 1660 0676 01       		.byte	0x1
 1661 0677 00000000 		.4byte	.LFB7
 1662 067b 34000000 		.4byte	.LFE7
 1663 067f 33000000 		.4byte	.LLST2
 1664 0683 1B       		.uleb128 0x1b
 1665 0684 01       		.byte	0x1
 1666 0685 84000000 		.4byte	.LASF89
 1667 0689 01       		.byte	0x1
 1668 068a 96       		.byte	0x96
 1669 068b 01       		.byte	0x1
 1670 068c 00000000 		.4byte	.LFB6
 1671 0690 2C000000 		.4byte	.LFE6
 1672 0694 53000000 		.4byte	.LLST3
 1673 0698 1B       		.uleb128 0x1b
 1674 0699 01       		.byte	0x1
 1675 069a F6030000 		.4byte	.LASF90
 1676 069e 01       		.byte	0x1
 1677 069f 8A       		.byte	0x8a
 1678 06a0 01       		.byte	0x1
 1679 06a1 00000000 		.4byte	.LFB5
 1680 06a5 28000000 		.4byte	.LFE5
 1681 06a9 73000000 		.4byte	.LLST4
 1682 06ad 1B       		.uleb128 0x1b
 1683 06ae 01       		.byte	0x1
 1684 06af 63020000 		.4byte	.LASF91
 1685 06b3 01       		.byte	0x1
 1686 06b4 7E       		.byte	0x7e
 1687 06b5 01       		.byte	0x1
 1688 06b6 00000000 		.4byte	.LFB4
 1689 06ba 28000000 		.4byte	.LFE4
 1690 06be 93000000 		.4byte	.LLST5
 1691 06c2 1B       		.uleb128 0x1b
ARM GAS  /tmp/ccO73bFa.s 			page 31


 1692 06c3 01       		.byte	0x1
 1693 06c4 18020000 		.4byte	.LASF92
 1694 06c8 01       		.byte	0x1
 1695 06c9 72       		.byte	0x72
 1696 06ca 01       		.byte	0x1
 1697 06cb 00000000 		.4byte	.LFB3
 1698 06cf 28000000 		.4byte	.LFE3
 1699 06d3 B3000000 		.4byte	.LLST6
 1700 06d7 16       		.uleb128 0x16
 1701 06d8 01       		.byte	0x1
 1702 06d9 A3030000 		.4byte	.LASF93
 1703 06dd 01       		.byte	0x1
 1704 06de 67       		.byte	0x67
 1705 06df 01       		.byte	0x1
 1706 06e0 00000000 		.4byte	.LFB2
 1707 06e4 20000000 		.4byte	.LFE2
 1708 06e8 02       		.byte	0x2
 1709 06e9 7D       		.byte	0x7d
 1710 06ea 00       		.sleb128 0
 1711 06eb 16       		.uleb128 0x16
 1712 06ec 01       		.byte	0x1
 1713 06ed 40010000 		.4byte	.LASF94
 1714 06f1 01       		.byte	0x1
 1715 06f2 5C       		.byte	0x5c
 1716 06f3 01       		.byte	0x1
 1717 06f4 00000000 		.4byte	.LFB1
 1718 06f8 20000000 		.4byte	.LFE1
 1719 06fc 02       		.byte	0x2
 1720 06fd 7D       		.byte	0x7d
 1721 06fe 00       		.sleb128 0
 1722 06ff 16       		.uleb128 0x16
 1723 0700 01       		.byte	0x1
 1724 0701 44040000 		.4byte	.LASF95
 1725 0705 01       		.byte	0x1
 1726 0706 51       		.byte	0x51
 1727 0707 01       		.byte	0x1
 1728 0708 00000000 		.4byte	.LFB0
 1729 070c 20000000 		.4byte	.LFE0
 1730 0710 02       		.byte	0x2
 1731 0711 7D       		.byte	0x7d
 1732 0712 00       		.sleb128 0
 1733 0713 1C       		.uleb128 0x1c
 1734 0714 21000000 		.4byte	.LASF96
 1735 0718 07       		.byte	0x7
 1736 0719 7A       		.byte	0x7a
 1737 071a 0A040000 		.4byte	0x40a
 1738 071e 01       		.byte	0x1
 1739 071f 01       		.byte	0x1
 1740 0720 1C       		.uleb128 0x1c
 1741 0721 E0030000 		.4byte	.LASF97
 1742 0725 08       		.byte	0x8
 1743 0726 72       		.byte	0x72
 1744 0727 80040000 		.4byte	0x480
 1745 072b 01       		.byte	0x1
 1746 072c 01       		.byte	0x1
 1747 072d 1C       		.uleb128 0x1c
 1748 072e 74020000 		.4byte	.LASF98
ARM GAS  /tmp/ccO73bFa.s 			page 32


 1749 0732 0A       		.byte	0xa
 1750 0733 7E       		.byte	0x7e
 1751 0734 BC050000 		.4byte	0x5bc
 1752 0738 01       		.byte	0x1
 1753 0739 01       		.byte	0x1
 1754 073a 1C       		.uleb128 0x1c
 1755 073b BC020000 		.4byte	.LASF99
 1756 073f 0A       		.byte	0xa
 1757 0740 CF       		.byte	0xcf
 1758 0741 2B060000 		.4byte	0x62b
 1759 0745 01       		.byte	0x1
 1760 0746 01       		.byte	0x1
 1761 0747 1C       		.uleb128 0x1c
 1762 0748 BB010000 		.4byte	.LASF100
 1763 074c 01       		.byte	0x1
 1764 074d 45       		.byte	0x45
 1765 074e E8000000 		.4byte	0xe8
 1766 0752 01       		.byte	0x1
 1767 0753 01       		.byte	0x1
 1768 0754 1C       		.uleb128 0x1c
 1769 0755 5D030000 		.4byte	.LASF101
 1770 0759 01       		.byte	0x1
 1771 075a 4A       		.byte	0x4a
 1772 075b E8000000 		.4byte	0xe8
 1773 075f 01       		.byte	0x1
 1774 0760 01       		.byte	0x1
 1775 0761 1C       		.uleb128 0x1c
 1776 0762 21000000 		.4byte	.LASF96
 1777 0766 07       		.byte	0x7
 1778 0767 7A       		.byte	0x7a
 1779 0768 0A040000 		.4byte	0x40a
 1780 076c 01       		.byte	0x1
 1781 076d 01       		.byte	0x1
 1782 076e 1C       		.uleb128 0x1c
 1783 076f E0030000 		.4byte	.LASF97
 1784 0773 08       		.byte	0x8
 1785 0774 72       		.byte	0x72
 1786 0775 80040000 		.4byte	0x480
 1787 0779 01       		.byte	0x1
 1788 077a 01       		.byte	0x1
 1789 077b 1D       		.uleb128 0x1d
 1790 077c 74020000 		.4byte	.LASF98
 1791 0780 01       		.byte	0x1
 1792 0781 DF       		.byte	0xdf
 1793 0782 BC050000 		.4byte	0x5bc
 1794 0786 01       		.byte	0x1
 1795 0787 05       		.byte	0x5
 1796 0788 03       		.byte	0x3
 1797 0789 00000000 		.4byte	dbg_trace_buffer
 1798 078d 1E       		.uleb128 0x1e
 1799 078e BC020000 		.4byte	.LASF99
 1800 0792 01       		.byte	0x1
 1801 0793 0801     		.2byte	0x108
 1802 0795 2B060000 		.4byte	0x62b
 1803 0799 01       		.byte	0x1
 1804 079a 05       		.byte	0x5
 1805 079b 03       		.byte	0x3
ARM GAS  /tmp/ccO73bFa.s 			page 33


 1806 079c 00000000 		.4byte	dbg_panic_msg
 1807 07a0 1D       		.uleb128 0x1d
 1808 07a1 BB010000 		.4byte	.LASF100
 1809 07a5 01       		.byte	0x1
 1810 07a6 45       		.byte	0x45
 1811 07a7 E8000000 		.4byte	0xe8
 1812 07ab 01       		.byte	0x1
 1813 07ac 05       		.byte	0x5
 1814 07ad 03       		.byte	0x3
 1815 07ae 00000000 		.4byte	dbg_isr_cnt
 1816 07b2 1D       		.uleb128 0x1d
 1817 07b3 5D030000 		.4byte	.LASF101
 1818 07b7 01       		.byte	0x1
 1819 07b8 4A       		.byte	0x4a
 1820 07b9 E8000000 		.4byte	0xe8
 1821 07bd 01       		.byte	0x1
 1822 07be 05       		.byte	0x5
 1823 07bf 03       		.byte	0x3
 1824 07c0 00000000 		.4byte	dbg_lock_cnt
 1825 07c4 00       		.byte	0x0
 1826              		.section	.debug_abbrev
 1827 0000 01       		.uleb128 0x1
 1828 0001 11       		.uleb128 0x11
 1829 0002 01       		.byte	0x1
 1830 0003 25       		.uleb128 0x25
 1831 0004 0E       		.uleb128 0xe
 1832 0005 13       		.uleb128 0x13
 1833 0006 0B       		.uleb128 0xb
 1834 0007 03       		.uleb128 0x3
 1835 0008 0E       		.uleb128 0xe
 1836 0009 1B       		.uleb128 0x1b
 1837 000a 0E       		.uleb128 0xe
 1838 000b 11       		.uleb128 0x11
 1839 000c 01       		.uleb128 0x1
 1840 000d 52       		.uleb128 0x52
 1841 000e 01       		.uleb128 0x1
 1842 000f 55       		.uleb128 0x55
 1843 0010 06       		.uleb128 0x6
 1844 0011 10       		.uleb128 0x10
 1845 0012 06       		.uleb128 0x6
 1846 0013 00       		.byte	0x0
 1847 0014 00       		.byte	0x0
 1848 0015 02       		.uleb128 0x2
 1849 0016 24       		.uleb128 0x24
 1850 0017 00       		.byte	0x0
 1851 0018 0B       		.uleb128 0xb
 1852 0019 0B       		.uleb128 0xb
 1853 001a 3E       		.uleb128 0x3e
 1854 001b 0B       		.uleb128 0xb
 1855 001c 03       		.uleb128 0x3
 1856 001d 08       		.uleb128 0x8
 1857 001e 00       		.byte	0x0
 1858 001f 00       		.byte	0x0
 1859 0020 03       		.uleb128 0x3
 1860 0021 24       		.uleb128 0x24
 1861 0022 00       		.byte	0x0
 1862 0023 0B       		.uleb128 0xb
ARM GAS  /tmp/ccO73bFa.s 			page 34


 1863 0024 0B       		.uleb128 0xb
 1864 0025 3E       		.uleb128 0x3e
 1865 0026 0B       		.uleb128 0xb
 1866 0027 03       		.uleb128 0x3
 1867 0028 0E       		.uleb128 0xe
 1868 0029 00       		.byte	0x0
 1869 002a 00       		.byte	0x0
 1870 002b 04       		.uleb128 0x4
 1871 002c 16       		.uleb128 0x16
 1872 002d 00       		.byte	0x0
 1873 002e 03       		.uleb128 0x3
 1874 002f 0E       		.uleb128 0xe
 1875 0030 3A       		.uleb128 0x3a
 1876 0031 0B       		.uleb128 0xb
 1877 0032 3B       		.uleb128 0x3b
 1878 0033 0B       		.uleb128 0xb
 1879 0034 49       		.uleb128 0x49
 1880 0035 13       		.uleb128 0x13
 1881 0036 00       		.byte	0x0
 1882 0037 00       		.byte	0x0
 1883 0038 05       		.uleb128 0x5
 1884 0039 13       		.uleb128 0x13
 1885 003a 01       		.byte	0x1
 1886 003b 03       		.uleb128 0x3
 1887 003c 0E       		.uleb128 0xe
 1888 003d 0B       		.uleb128 0xb
 1889 003e 0B       		.uleb128 0xb
 1890 003f 3A       		.uleb128 0x3a
 1891 0040 0B       		.uleb128 0xb
 1892 0041 3B       		.uleb128 0x3b
 1893 0042 0B       		.uleb128 0xb
 1894 0043 01       		.uleb128 0x1
 1895 0044 13       		.uleb128 0x13
 1896 0045 00       		.byte	0x0
 1897 0046 00       		.byte	0x0
 1898 0047 06       		.uleb128 0x6
 1899 0048 0D       		.uleb128 0xd
 1900 0049 00       		.byte	0x0
 1901 004a 03       		.uleb128 0x3
 1902 004b 0E       		.uleb128 0xe
 1903 004c 3A       		.uleb128 0x3a
 1904 004d 0B       		.uleb128 0xb
 1905 004e 3B       		.uleb128 0x3b
 1906 004f 0B       		.uleb128 0xb
 1907 0050 49       		.uleb128 0x49
 1908 0051 13       		.uleb128 0x13
 1909 0052 38       		.uleb128 0x38
 1910 0053 0A       		.uleb128 0xa
 1911 0054 00       		.byte	0x0
 1912 0055 00       		.byte	0x0
 1913 0056 07       		.uleb128 0x7
 1914 0057 0D       		.uleb128 0xd
 1915 0058 00       		.byte	0x0
 1916 0059 03       		.uleb128 0x3
 1917 005a 08       		.uleb128 0x8
 1918 005b 3A       		.uleb128 0x3a
 1919 005c 0B       		.uleb128 0xb
ARM GAS  /tmp/ccO73bFa.s 			page 35


 1920 005d 3B       		.uleb128 0x3b
 1921 005e 0B       		.uleb128 0xb
 1922 005f 49       		.uleb128 0x49
 1923 0060 13       		.uleb128 0x13
 1924 0061 38       		.uleb128 0x38
 1925 0062 0A       		.uleb128 0xa
 1926 0063 00       		.byte	0x0
 1927 0064 00       		.byte	0x0
 1928 0065 08       		.uleb128 0x8
 1929 0066 13       		.uleb128 0x13
 1930 0067 01       		.byte	0x1
 1931 0068 0B       		.uleb128 0xb
 1932 0069 0B       		.uleb128 0xb
 1933 006a 3A       		.uleb128 0x3a
 1934 006b 0B       		.uleb128 0xb
 1935 006c 3B       		.uleb128 0x3b
 1936 006d 0B       		.uleb128 0xb
 1937 006e 01       		.uleb128 0x1
 1938 006f 13       		.uleb128 0x13
 1939 0070 00       		.byte	0x0
 1940 0071 00       		.byte	0x0
 1941 0072 09       		.uleb128 0x9
 1942 0073 0F       		.uleb128 0xf
 1943 0074 00       		.byte	0x0
 1944 0075 0B       		.uleb128 0xb
 1945 0076 0B       		.uleb128 0xb
 1946 0077 49       		.uleb128 0x49
 1947 0078 13       		.uleb128 0x13
 1948 0079 00       		.byte	0x0
 1949 007a 00       		.byte	0x0
 1950 007b 0A       		.uleb128 0xa
 1951 007c 0F       		.uleb128 0xf
 1952 007d 00       		.byte	0x0
 1953 007e 0B       		.uleb128 0xb
 1954 007f 0B       		.uleb128 0xb
 1955 0080 00       		.byte	0x0
 1956 0081 00       		.byte	0x0
 1957 0082 0B       		.uleb128 0xb
 1958 0083 0D       		.uleb128 0xd
 1959 0084 00       		.byte	0x0
 1960 0085 03       		.uleb128 0x3
 1961 0086 08       		.uleb128 0x8
 1962 0087 3A       		.uleb128 0x3a
 1963 0088 0B       		.uleb128 0xb
 1964 0089 3B       		.uleb128 0x3b
 1965 008a 05       		.uleb128 0x5
 1966 008b 49       		.uleb128 0x49
 1967 008c 13       		.uleb128 0x13
 1968 008d 38       		.uleb128 0x38
 1969 008e 0A       		.uleb128 0xa
 1970 008f 00       		.byte	0x0
 1971 0090 00       		.byte	0x0
 1972 0091 0C       		.uleb128 0xc
 1973 0092 13       		.uleb128 0x13
 1974 0093 01       		.byte	0x1
 1975 0094 03       		.uleb128 0x3
 1976 0095 0E       		.uleb128 0xe
ARM GAS  /tmp/ccO73bFa.s 			page 36


 1977 0096 0B       		.uleb128 0xb
 1978 0097 0B       		.uleb128 0xb
 1979 0098 3A       		.uleb128 0x3a
 1980 0099 0B       		.uleb128 0xb
 1981 009a 3B       		.uleb128 0x3b
 1982 009b 05       		.uleb128 0x5
 1983 009c 01       		.uleb128 0x1
 1984 009d 13       		.uleb128 0x13
 1985 009e 00       		.byte	0x0
 1986 009f 00       		.byte	0x0
 1987 00a0 0D       		.uleb128 0xd
 1988 00a1 15       		.uleb128 0x15
 1989 00a2 01       		.byte	0x1
 1990 00a3 27       		.uleb128 0x27
 1991 00a4 0C       		.uleb128 0xc
 1992 00a5 01       		.uleb128 0x1
 1993 00a6 13       		.uleb128 0x13
 1994 00a7 00       		.byte	0x0
 1995 00a8 00       		.byte	0x0
 1996 00a9 0E       		.uleb128 0xe
 1997 00aa 05       		.uleb128 0x5
 1998 00ab 00       		.byte	0x0
 1999 00ac 49       		.uleb128 0x49
 2000 00ad 13       		.uleb128 0x13
 2001 00ae 00       		.byte	0x0
 2002 00af 00       		.byte	0x0
 2003 00b0 0F       		.uleb128 0xf
 2004 00b1 35       		.uleb128 0x35
 2005 00b2 00       		.byte	0x0
 2006 00b3 49       		.uleb128 0x49
 2007 00b4 13       		.uleb128 0x13
 2008 00b5 00       		.byte	0x0
 2009 00b6 00       		.byte	0x0
 2010 00b7 10       		.uleb128 0x10
 2011 00b8 17       		.uleb128 0x17
 2012 00b9 01       		.byte	0x1
 2013 00ba 0B       		.uleb128 0xb
 2014 00bb 0B       		.uleb128 0xb
 2015 00bc 3A       		.uleb128 0x3a
 2016 00bd 0B       		.uleb128 0xb
 2017 00be 3B       		.uleb128 0x3b
 2018 00bf 0B       		.uleb128 0xb
 2019 00c0 01       		.uleb128 0x1
 2020 00c1 13       		.uleb128 0x13
 2021 00c2 00       		.byte	0x0
 2022 00c3 00       		.byte	0x0
 2023 00c4 11       		.uleb128 0x11
 2024 00c5 0D       		.uleb128 0xd
 2025 00c6 00       		.byte	0x0
 2026 00c7 03       		.uleb128 0x3
 2027 00c8 0E       		.uleb128 0xe
 2028 00c9 3A       		.uleb128 0x3a
 2029 00ca 0B       		.uleb128 0xb
 2030 00cb 3B       		.uleb128 0x3b
 2031 00cc 0B       		.uleb128 0xb
 2032 00cd 49       		.uleb128 0x49
 2033 00ce 13       		.uleb128 0x13
ARM GAS  /tmp/ccO73bFa.s 			page 37


 2034 00cf 00       		.byte	0x0
 2035 00d0 00       		.byte	0x0
 2036 00d1 12       		.uleb128 0x12
 2037 00d2 26       		.uleb128 0x26
 2038 00d3 00       		.byte	0x0
 2039 00d4 49       		.uleb128 0x49
 2040 00d5 13       		.uleb128 0x13
 2041 00d6 00       		.byte	0x0
 2042 00d7 00       		.byte	0x0
 2043 00d8 13       		.uleb128 0x13
 2044 00d9 13       		.uleb128 0x13
 2045 00da 01       		.byte	0x1
 2046 00db 0B       		.uleb128 0xb
 2047 00dc 05       		.uleb128 0x5
 2048 00dd 3A       		.uleb128 0x3a
 2049 00de 0B       		.uleb128 0xb
 2050 00df 3B       		.uleb128 0x3b
 2051 00e0 0B       		.uleb128 0xb
 2052 00e1 01       		.uleb128 0x1
 2053 00e2 13       		.uleb128 0x13
 2054 00e3 00       		.byte	0x0
 2055 00e4 00       		.byte	0x0
 2056 00e5 14       		.uleb128 0x14
 2057 00e6 01       		.uleb128 0x1
 2058 00e7 01       		.byte	0x1
 2059 00e8 49       		.uleb128 0x49
 2060 00e9 13       		.uleb128 0x13
 2061 00ea 01       		.uleb128 0x1
 2062 00eb 13       		.uleb128 0x13
 2063 00ec 00       		.byte	0x0
 2064 00ed 00       		.byte	0x0
 2065 00ee 15       		.uleb128 0x15
 2066 00ef 21       		.uleb128 0x21
 2067 00f0 00       		.byte	0x0
 2068 00f1 49       		.uleb128 0x49
 2069 00f2 13       		.uleb128 0x13
 2070 00f3 2F       		.uleb128 0x2f
 2071 00f4 0B       		.uleb128 0xb
 2072 00f5 00       		.byte	0x0
 2073 00f6 00       		.byte	0x0
 2074 00f7 16       		.uleb128 0x16
 2075 00f8 2E       		.uleb128 0x2e
 2076 00f9 00       		.byte	0x0
 2077 00fa 3F       		.uleb128 0x3f
 2078 00fb 0C       		.uleb128 0xc
 2079 00fc 03       		.uleb128 0x3
 2080 00fd 0E       		.uleb128 0xe
 2081 00fe 3A       		.uleb128 0x3a
 2082 00ff 0B       		.uleb128 0xb
 2083 0100 3B       		.uleb128 0x3b
 2084 0101 0B       		.uleb128 0xb
 2085 0102 27       		.uleb128 0x27
 2086 0103 0C       		.uleb128 0xc
 2087 0104 11       		.uleb128 0x11
 2088 0105 01       		.uleb128 0x1
 2089 0106 12       		.uleb128 0x12
 2090 0107 01       		.uleb128 0x1
ARM GAS  /tmp/ccO73bFa.s 			page 38


 2091 0108 40       		.uleb128 0x40
 2092 0109 0A       		.uleb128 0xa
 2093 010a 00       		.byte	0x0
 2094 010b 00       		.byte	0x0
 2095 010c 17       		.uleb128 0x17
 2096 010d 2E       		.uleb128 0x2e
 2097 010e 01       		.byte	0x1
 2098 010f 3F       		.uleb128 0x3f
 2099 0110 0C       		.uleb128 0xc
 2100 0111 03       		.uleb128 0x3
 2101 0112 0E       		.uleb128 0xe
 2102 0113 3A       		.uleb128 0x3a
 2103 0114 0B       		.uleb128 0xb
 2104 0115 3B       		.uleb128 0x3b
 2105 0116 0B       		.uleb128 0xb
 2106 0117 27       		.uleb128 0x27
 2107 0118 0C       		.uleb128 0xc
 2108 0119 11       		.uleb128 0x11
 2109 011a 01       		.uleb128 0x1
 2110 011b 12       		.uleb128 0x12
 2111 011c 01       		.uleb128 0x1
 2112 011d 40       		.uleb128 0x40
 2113 011e 0A       		.uleb128 0xa
 2114 011f 01       		.uleb128 0x1
 2115 0120 13       		.uleb128 0x13
 2116 0121 00       		.byte	0x0
 2117 0122 00       		.byte	0x0
 2118 0123 18       		.uleb128 0x18
 2119 0124 05       		.uleb128 0x5
 2120 0125 00       		.byte	0x0
 2121 0126 03       		.uleb128 0x3
 2122 0127 08       		.uleb128 0x8
 2123 0128 3A       		.uleb128 0x3a
 2124 0129 0B       		.uleb128 0xb
 2125 012a 3B       		.uleb128 0x3b
 2126 012b 0B       		.uleb128 0xb
 2127 012c 49       		.uleb128 0x49
 2128 012d 13       		.uleb128 0x13
 2129 012e 02       		.uleb128 0x2
 2130 012f 0A       		.uleb128 0xa
 2131 0130 00       		.byte	0x0
 2132 0131 00       		.byte	0x0
 2133 0132 19       		.uleb128 0x19
 2134 0133 2E       		.uleb128 0x2e
 2135 0134 01       		.byte	0x1
 2136 0135 3F       		.uleb128 0x3f
 2137 0136 0C       		.uleb128 0xc
 2138 0137 03       		.uleb128 0x3
 2139 0138 0E       		.uleb128 0xe
 2140 0139 3A       		.uleb128 0x3a
 2141 013a 0B       		.uleb128 0xb
 2142 013b 3B       		.uleb128 0x3b
 2143 013c 05       		.uleb128 0x5
 2144 013d 27       		.uleb128 0x27
 2145 013e 0C       		.uleb128 0xc
 2146 013f 11       		.uleb128 0x11
 2147 0140 01       		.uleb128 0x1
ARM GAS  /tmp/ccO73bFa.s 			page 39


 2148 0141 12       		.uleb128 0x12
 2149 0142 01       		.uleb128 0x1
 2150 0143 40       		.uleb128 0x40
 2151 0144 0A       		.uleb128 0xa
 2152 0145 01       		.uleb128 0x1
 2153 0146 13       		.uleb128 0x13
 2154 0147 00       		.byte	0x0
 2155 0148 00       		.byte	0x0
 2156 0149 1A       		.uleb128 0x1a
 2157 014a 05       		.uleb128 0x5
 2158 014b 00       		.byte	0x0
 2159 014c 03       		.uleb128 0x3
 2160 014d 08       		.uleb128 0x8
 2161 014e 3A       		.uleb128 0x3a
 2162 014f 0B       		.uleb128 0xb
 2163 0150 3B       		.uleb128 0x3b
 2164 0151 05       		.uleb128 0x5
 2165 0152 49       		.uleb128 0x49
 2166 0153 13       		.uleb128 0x13
 2167 0154 02       		.uleb128 0x2
 2168 0155 06       		.uleb128 0x6
 2169 0156 00       		.byte	0x0
 2170 0157 00       		.byte	0x0
 2171 0158 1B       		.uleb128 0x1b
 2172 0159 2E       		.uleb128 0x2e
 2173 015a 00       		.byte	0x0
 2174 015b 3F       		.uleb128 0x3f
 2175 015c 0C       		.uleb128 0xc
 2176 015d 03       		.uleb128 0x3
 2177 015e 0E       		.uleb128 0xe
 2178 015f 3A       		.uleb128 0x3a
 2179 0160 0B       		.uleb128 0xb
 2180 0161 3B       		.uleb128 0x3b
 2181 0162 0B       		.uleb128 0xb
 2182 0163 27       		.uleb128 0x27
 2183 0164 0C       		.uleb128 0xc
 2184 0165 11       		.uleb128 0x11
 2185 0166 01       		.uleb128 0x1
 2186 0167 12       		.uleb128 0x12
 2187 0168 01       		.uleb128 0x1
 2188 0169 40       		.uleb128 0x40
 2189 016a 06       		.uleb128 0x6
 2190 016b 00       		.byte	0x0
 2191 016c 00       		.byte	0x0
 2192 016d 1C       		.uleb128 0x1c
 2193 016e 34       		.uleb128 0x34
 2194 016f 00       		.byte	0x0
 2195 0170 03       		.uleb128 0x3
 2196 0171 0E       		.uleb128 0xe
 2197 0172 3A       		.uleb128 0x3a
 2198 0173 0B       		.uleb128 0xb
 2199 0174 3B       		.uleb128 0x3b
 2200 0175 0B       		.uleb128 0xb
 2201 0176 49       		.uleb128 0x49
 2202 0177 13       		.uleb128 0x13
 2203 0178 3F       		.uleb128 0x3f
 2204 0179 0C       		.uleb128 0xc
ARM GAS  /tmp/ccO73bFa.s 			page 40


 2205 017a 3C       		.uleb128 0x3c
 2206 017b 0C       		.uleb128 0xc
 2207 017c 00       		.byte	0x0
 2208 017d 00       		.byte	0x0
 2209 017e 1D       		.uleb128 0x1d
 2210 017f 34       		.uleb128 0x34
 2211 0180 00       		.byte	0x0
 2212 0181 03       		.uleb128 0x3
 2213 0182 0E       		.uleb128 0xe
 2214 0183 3A       		.uleb128 0x3a
 2215 0184 0B       		.uleb128 0xb
 2216 0185 3B       		.uleb128 0x3b
 2217 0186 0B       		.uleb128 0xb
 2218 0187 49       		.uleb128 0x49
 2219 0188 13       		.uleb128 0x13
 2220 0189 3F       		.uleb128 0x3f
 2221 018a 0C       		.uleb128 0xc
 2222 018b 02       		.uleb128 0x2
 2223 018c 0A       		.uleb128 0xa
 2224 018d 00       		.byte	0x0
 2225 018e 00       		.byte	0x0
 2226 018f 1E       		.uleb128 0x1e
 2227 0190 34       		.uleb128 0x34
 2228 0191 00       		.byte	0x0
 2229 0192 03       		.uleb128 0x3
 2230 0193 0E       		.uleb128 0xe
 2231 0194 3A       		.uleb128 0x3a
 2232 0195 0B       		.uleb128 0xb
 2233 0196 3B       		.uleb128 0x3b
 2234 0197 05       		.uleb128 0x5
 2235 0198 49       		.uleb128 0x49
 2236 0199 13       		.uleb128 0x13
 2237 019a 3F       		.uleb128 0x3f
 2238 019b 0C       		.uleb128 0xc
 2239 019c 02       		.uleb128 0x2
 2240 019d 0A       		.uleb128 0xa
 2241 019e 00       		.byte	0x0
 2242 019f 00       		.byte	0x0
 2243 01a0 00       		.byte	0x0
 2244              		.section	.debug_pubnames,"",%progbits
 2245 0000 80010000 		.4byte	0x180
 2246 0004 0200     		.2byte	0x2
 2247 0006 00000000 		.4byte	.Ldebug_info0
 2248 000a C5070000 		.4byte	0x7c5
 2249 000e C7050000 		.4byte	0x5c7
 2250 0012 5F747261 		.ascii	"_trace_init\000"
 2250      63655F69 
 2250      6E697400 
 2251 001e DB050000 		.4byte	0x5db
 2252 0022 6462675F 		.ascii	"dbg_trace\000"
 2252      74726163 
 2252      6500
 2253 002c 01060000 		.4byte	0x601
 2254 0030 63684462 		.ascii	"chDbgPanic\000"
 2254      6750616E 
 2254      696300
 2255 003b 31060000 		.4byte	0x631
ARM GAS  /tmp/ccO73bFa.s 			page 41


 2256 003f 63684462 		.ascii	"chDbgCheckClassS\000"
 2256      67436865 
 2256      636B436C 
 2256      61737353 
 2256      00
 2257 0050 45060000 		.4byte	0x645
 2258 0054 63684462 		.ascii	"chDbgCheckClassI\000"
 2258      67436865 
 2258      636B436C 
 2258      61737349 
 2258      00
 2259 0065 59060000 		.4byte	0x659
 2260 0069 6462675F 		.ascii	"dbg_check_leave_isr\000"
 2260      63686563 
 2260      6B5F6C65 
 2260      6176655F 
 2260      69737200 
 2261 007d 6E060000 		.4byte	0x66e
 2262 0081 6462675F 		.ascii	"dbg_check_enter_isr\000"
 2262      63686563 
 2262      6B5F656E 
 2262      7465725F 
 2262      69737200 
 2263 0095 83060000 		.4byte	0x683
 2264 0099 6462675F 		.ascii	"dbg_check_unlock_from_isr\000"
 2264      63686563 
 2264      6B5F756E 
 2264      6C6F636B 
 2264      5F66726F 
 2265 00b3 98060000 		.4byte	0x698
 2266 00b7 6462675F 		.ascii	"dbg_check_lock_from_isr\000"
 2266      63686563 
 2266      6B5F6C6F 
 2266      636B5F66 
 2266      726F6D5F 
 2267 00cf AD060000 		.4byte	0x6ad
 2268 00d3 6462675F 		.ascii	"dbg_check_unlock\000"
 2268      63686563 
 2268      6B5F756E 
 2268      6C6F636B 
 2268      00
 2269 00e4 C2060000 		.4byte	0x6c2
 2270 00e8 6462675F 		.ascii	"dbg_check_lock\000"
 2270      63686563 
 2270      6B5F6C6F 
 2270      636B00
 2271 00f7 D7060000 		.4byte	0x6d7
 2272 00fb 6462675F 		.ascii	"dbg_check_enable\000"
 2272      63686563 
 2272      6B5F656E 
 2272      61626C65 
 2272      00
 2273 010c EB060000 		.4byte	0x6eb
 2274 0110 6462675F 		.ascii	"dbg_check_suspend\000"
 2274      63686563 
 2274      6B5F7375 
 2274      7370656E 
ARM GAS  /tmp/ccO73bFa.s 			page 42


 2274      6400
 2275 0122 FF060000 		.4byte	0x6ff
 2276 0126 6462675F 		.ascii	"dbg_check_disable\000"
 2276      63686563 
 2276      6B5F6469 
 2276      7361626C 
 2276      6500
 2277 0138 7B070000 		.4byte	0x77b
 2278 013c 6462675F 		.ascii	"dbg_trace_buffer\000"
 2278      74726163 
 2278      655F6275 
 2278      66666572 
 2278      00
 2279 014d 8D070000 		.4byte	0x78d
 2280 0151 6462675F 		.ascii	"dbg_panic_msg\000"
 2280      70616E69 
 2280      635F6D73 
 2280      6700
 2281 015f A0070000 		.4byte	0x7a0
 2282 0163 6462675F 		.ascii	"dbg_isr_cnt\000"
 2282      6973725F 
 2282      636E7400 
 2283 016f B2070000 		.4byte	0x7b2
 2284 0173 6462675F 		.ascii	"dbg_lock_cnt\000"
 2284      6C6F636B 
 2284      5F636E74 
 2284      00
 2285 0180 00000000 		.4byte	0x0
 2286              		.section	.debug_pubtypes,"",%progbits
 2287 0000 92010000 		.4byte	0x192
 2288 0004 0200     		.2byte	0x2
 2289 0006 00000000 		.4byte	.Ldebug_info0
 2290 000a C5070000 		.4byte	0x7c5
 2291 000e 3E000000 		.4byte	0x3e
 2292 0012 75696E74 		.ascii	"uint8_t\000"
 2292      385F7400 
 2293 001a 5E000000 		.4byte	0x5e
 2294 001e 696E7433 		.ascii	"int32_t\000"
 2294      325F7400 
 2295 0026 70000000 		.4byte	0x70
 2296 002a 75696E74 		.ascii	"uint32_t\000"
 2296      33325F74 
 2296      00
 2297 0033 89000000 		.4byte	0x89
 2298 0037 75696E74 		.ascii	"uint64_t\000"
 2298      36345F74 
 2298      00
 2299 0040 9B000000 		.4byte	0x9b
 2300 0044 746D6F64 		.ascii	"tmode_t\000"
 2300      655F7400 
 2301 004c A6000000 		.4byte	0xa6
 2302 0050 74737461 		.ascii	"tstate_t\000"
 2302      74655F74 
 2302      00
 2303 0059 B1000000 		.4byte	0xb1
 2304 005d 74726566 		.ascii	"trefs_t\000"
 2304      735F7400 
ARM GAS  /tmp/ccO73bFa.s 			page 43


 2305 0065 BC000000 		.4byte	0xbc
 2306 0069 74707269 		.ascii	"tprio_t\000"
 2306      6F5F7400 
 2307 0071 C7000000 		.4byte	0xc7
 2308 0075 6D73675F 		.ascii	"msg_t\000"
 2308      7400
 2309 007b D2000000 		.4byte	0xd2
 2310 007f 6576656E 		.ascii	"eventmask_t\000"
 2310      746D6173 
 2310      6B5F7400 
 2311 008b DD000000 		.4byte	0xdd
 2312 008f 73797374 		.ascii	"systime_t\000"
 2312      696D655F 
 2312      7400
 2313 0099 E8000000 		.4byte	0xe8
 2314 009d 636E745F 		.ascii	"cnt_t\000"
 2314      7400
 2315 00a3 F3000000 		.4byte	0xf3
 2316 00a7 54687265 		.ascii	"Thread\000"
 2316      616400
 2317 00ae 4E020000 		.4byte	0x24e
 2318 00b2 54687265 		.ascii	"ThreadsQueue\000"
 2318      61647351 
 2318      75657565 
 2318      00
 2319 00bf 70020000 		.4byte	0x270
 2320 00c3 54687265 		.ascii	"ThreadsList\000"
 2320      6164734C 
 2320      69737400 
 2321 00cf 7B020000 		.4byte	0x27b
 2322 00d3 72656761 		.ascii	"regarm_t\000"
 2322      726D5F74 
 2322      00
 2323 00dc 88020000 		.4byte	0x288
 2324 00e0 73746B61 		.ascii	"stkalign_t\000"
 2324      6C69676E 
 2324      5F7400
 2325 00eb 93020000 		.4byte	0x293
 2326 00ef 696E7463 		.ascii	"intctx\000"
 2326      747800
 2327 00f6 20030000 		.4byte	0x320
 2328 00fa 636F6E74 		.ascii	"context\000"
 2328      65787400 
 2329 0102 43030000 		.4byte	0x343
 2330 0106 76746675 		.ascii	"vtfunc_t\000"
 2330      6E635F74 
 2330      00
 2331 010f 60030000 		.4byte	0x360
 2332 0113 56697274 		.ascii	"VirtualTimer\000"
 2332      75616C54 
 2332      696D6572 
 2332      00
 2333 0120 6B030000 		.4byte	0x36b
 2334 0124 56697274 		.ascii	"VirtualTimer\000"
 2334      75616C54 
 2334      696D6572 
 2334      00
ARM GAS  /tmp/ccO73bFa.s 			page 44


 2335 0131 0A040000 		.4byte	0x40a
 2336 0135 56544C69 		.ascii	"VTList\000"
 2336      737400
 2337 013c 80040000 		.4byte	0x480
 2338 0140 52656164 		.ascii	"ReadyList\000"
 2338      794C6973 
 2338      7400
 2339 014a 8B040000 		.4byte	0x48b
 2340 014e 4D757465 		.ascii	"Mutex\000"
 2340      7800
 2341 0154 C8040000 		.4byte	0x4c8
 2342 0158 4D757465 		.ascii	"Mutex\000"
 2342      7800
 2343 015e FE000000 		.4byte	0xfe
 2344 0162 54687265 		.ascii	"Thread\000"
 2344      616400
 2345 0169 67050000 		.4byte	0x567
 2346 016d 63685F73 		.ascii	"ch_swc_event_t\000"
 2346      77635F65 
 2346      76656E74 
 2346      5F7400
 2347 017c BC050000 		.4byte	0x5bc
 2348 0180 63685F74 		.ascii	"ch_trace_buffer_t\000"
 2348      72616365 
 2348      5F627566 
 2348      6665725F 
 2348      7400
 2349 0192 00000000 		.4byte	0x0
 2350              		.section	.debug_aranges,"",%progbits
 2351 0000 84000000 		.4byte	0x84
 2352 0004 0200     		.2byte	0x2
 2353 0006 00000000 		.4byte	.Ldebug_info0
 2354 000a 04       		.byte	0x4
 2355 000b 00       		.byte	0x0
 2356 000c 0000     		.2byte	0x0
 2357 000e 0000     		.2byte	0x0
 2358 0010 00000000 		.4byte	.LFB11
 2359 0014 14000000 		.4byte	.LFE11-.LFB11
 2360 0018 00000000 		.4byte	.LFB12
 2361 001c 3C000000 		.4byte	.LFE12-.LFB12
 2362 0020 00000000 		.4byte	.LFB13
 2363 0024 0C000000 		.4byte	.LFE13-.LFB13
 2364 0028 00000000 		.4byte	.LFB10
 2365 002c 24000000 		.4byte	.LFE10-.LFB10
 2366 0030 00000000 		.4byte	.LFB9
 2367 0034 24000000 		.4byte	.LFE9-.LFB9
 2368 0038 00000000 		.4byte	.LFB8
 2369 003c 34000000 		.4byte	.LFE8-.LFB8
 2370 0040 00000000 		.4byte	.LFB7
 2371 0044 34000000 		.4byte	.LFE7-.LFB7
 2372 0048 00000000 		.4byte	.LFB6
 2373 004c 2C000000 		.4byte	.LFE6-.LFB6
 2374 0050 00000000 		.4byte	.LFB5
 2375 0054 28000000 		.4byte	.LFE5-.LFB5
 2376 0058 00000000 		.4byte	.LFB4
 2377 005c 28000000 		.4byte	.LFE4-.LFB4
 2378 0060 00000000 		.4byte	.LFB3
ARM GAS  /tmp/ccO73bFa.s 			page 45


 2379 0064 28000000 		.4byte	.LFE3-.LFB3
 2380 0068 00000000 		.4byte	.LFB2
 2381 006c 20000000 		.4byte	.LFE2-.LFB2
 2382 0070 00000000 		.4byte	.LFB1
 2383 0074 20000000 		.4byte	.LFE1-.LFB1
 2384 0078 00000000 		.4byte	.LFB0
 2385 007c 20000000 		.4byte	.LFE0-.LFB0
 2386 0080 00000000 		.4byte	0x0
 2387 0084 00000000 		.4byte	0x0
 2388              		.section	.debug_ranges,"",%progbits
 2389              	.Ldebug_ranges0:
 2390 0000 00000000 		.4byte	.LFB11
 2391 0004 14000000 		.4byte	.LFE11
 2392 0008 00000000 		.4byte	.LFB12
 2393 000c 3C000000 		.4byte	.LFE12
 2394 0010 00000000 		.4byte	.LFB13
 2395 0014 0C000000 		.4byte	.LFE13
 2396 0018 00000000 		.4byte	.LFB10
 2397 001c 24000000 		.4byte	.LFE10
 2398 0020 00000000 		.4byte	.LFB9
 2399 0024 24000000 		.4byte	.LFE9
 2400 0028 00000000 		.4byte	.LFB8
 2401 002c 34000000 		.4byte	.LFE8
 2402 0030 00000000 		.4byte	.LFB7
 2403 0034 34000000 		.4byte	.LFE7
 2404 0038 00000000 		.4byte	.LFB6
 2405 003c 2C000000 		.4byte	.LFE6
 2406 0040 00000000 		.4byte	.LFB5
 2407 0044 28000000 		.4byte	.LFE5
 2408 0048 00000000 		.4byte	.LFB4
 2409 004c 28000000 		.4byte	.LFE4
 2410 0050 00000000 		.4byte	.LFB3
 2411 0054 28000000 		.4byte	.LFE3
 2412 0058 00000000 		.4byte	.LFB2
 2413 005c 20000000 		.4byte	.LFE2
 2414 0060 00000000 		.4byte	.LFB1
 2415 0064 20000000 		.4byte	.LFE1
 2416 0068 00000000 		.4byte	.LFB0
 2417 006c 20000000 		.4byte	.LFE0
 2418 0070 00000000 		.4byte	0x0
 2419 0074 00000000 		.4byte	0x0
 2420              		.section	.debug_str,"MS",%progbits,1
 2421              	.LASF36:
 2422 0000 705F6D73 		.ascii	"p_msg\000"
 2422      6700
 2423              	.LASF83:
 2424 0006 63684462 		.ascii	"chDbgPanic\000"
 2424      6750616E 
 2424      696300
 2425              	.LASF68:
 2426 0011 7264796D 		.ascii	"rdymsg\000"
 2426      736700
 2427              	.LASF11:
 2428 0018 75696E74 		.ascii	"uint64_t\000"
 2428      36345F74 
 2428      00
 2429              	.LASF96:
ARM GAS  /tmp/ccO73bFa.s 			page 46


 2430 0021 76746C69 		.ascii	"vtlist\000"
 2430      737400
 2431              	.LASF12:
 2432 0028 6C6F6E67 		.ascii	"long long unsigned int\000"
 2432      206C6F6E 
 2432      6720756E 
 2432      7369676E 
 2432      65642069 
 2433              	.LASF81:
 2434 003f 63685F74 		.ascii	"ch_trace_buffer_t\000"
 2434      72616365 
 2434      5F627566 
 2434      6665725F 
 2434      7400
 2435              	.LASF76:
 2436 0051 73655F73 		.ascii	"se_state\000"
 2436      74617465 
 2436      00
 2437              	.LASF69:
 2438 005a 65786974 		.ascii	"exitcode\000"
 2438      636F6465 
 2438      00
 2439              	.LASF24:
 2440 0063 705F7072 		.ascii	"p_prio\000"
 2440      696F00
 2441              	.LASF10:
 2442 006a 6C6F6E67 		.ascii	"long long int\000"
 2442      206C6F6E 
 2442      6720696E 
 2442      7400
 2443              	.LASF1:
 2444 0078 7369676E 		.ascii	"signed char\000"
 2444      65642063 
 2444      68617200 
 2445              	.LASF89:
 2446 0084 6462675F 		.ascii	"dbg_check_unlock_from_isr\000"
 2446      63686563 
 2446      6B5F756E 
 2446      6C6F636B 
 2446      5F66726F 
 2447              	.LASF40:
 2448 009e 705F6D70 		.ascii	"p_mpool\000"
 2448      6F6F6C00 
 2449              	.LASF65:
 2450 00a6 6D5F7175 		.ascii	"m_queue\000"
 2450      65756500 
 2451              	.LASF70:
 2452 00ae 77746F62 		.ascii	"wtobjp\000"
 2452      6A7000
 2453              	.LASF7:
 2454 00b5 6C6F6E67 		.ascii	"long int\000"
 2454      20696E74 
 2454      00
 2455              	.LASF14:
 2456 00be 74737461 		.ascii	"tstate_t\000"
 2456      74655F74 
 2456      00
ARM GAS  /tmp/ccO73bFa.s 			page 47


 2457              	.LASF74:
 2458 00c7 73655F74 		.ascii	"se_tp\000"
 2458      7000
 2459              	.LASF26:
 2460 00cd 705F6E65 		.ascii	"p_newer\000"
 2460      77657200 
 2461              	.LASF78:
 2462 00d5 74625F73 		.ascii	"tb_size\000"
 2462      697A6500 
 2463              	.LASF59:
 2464 00dd 725F6E65 		.ascii	"r_newer\000"
 2464      77657200 
 2465              	.LASF43:
 2466 00e5 72656761 		.ascii	"regarm_t\000"
 2466      726D5F74 
 2466      00
 2467              	.LASF50:
 2468 00ee 76745F70 		.ascii	"vt_prev\000"
 2468      72657600 
 2469              	.LASF73:
 2470 00f6 73655F74 		.ascii	"se_time\000"
 2470      696D6500 
 2471              	.LASF20:
 2472 00fe 636E745F 		.ascii	"cnt_t\000"
 2472      7400
 2473              	.LASF29:
 2474 0104 705F7374 		.ascii	"p_stklimit\000"
 2474      6B6C696D 
 2474      697400
 2475              	.LASF0:
 2476 010f 756E7369 		.ascii	"unsigned int\000"
 2476      676E6564 
 2476      20696E74 
 2476      00
 2477              	.LASF49:
 2478 011c 76745F6E 		.ascii	"vt_next\000"
 2478      65787400 
 2479              	.LASF82:
 2480 0124 6462675F 		.ascii	"dbg_trace\000"
 2480      74726163 
 2480      6500
 2481              	.LASF9:
 2482 012e 6C6F6E67 		.ascii	"long unsigned int\000"
 2482      20756E73 
 2482      69676E65 
 2482      6420696E 
 2482      7400
 2483              	.LASF94:
 2484 0140 6462675F 		.ascii	"dbg_check_suspend\000"
 2484      63686563 
 2484      6B5F7375 
 2484      7370656E 
 2484      6400
 2485              	.LASF46:
 2486 0152 636F6E74 		.ascii	"context\000"
 2486      65787400 
 2487              	.LASF104:
ARM GAS  /tmp/ccO73bFa.s 			page 48


 2488 015a 2F686F6D 		.ascii	"/home/z80/projects/dfu.git/firmware-pawn-dev/firmwa"
 2488      652F7A38 
 2488      302F7072 
 2488      6F6A6563 
 2488      74732F64 
 2489 018d 726500   		.ascii	"re\000"
 2490              	.LASF84:
 2491 0190 5F747261 		.ascii	"_trace_init\000"
 2491      63655F69 
 2491      6E697400 
 2492              	.LASF17:
 2493 019c 6D73675F 		.ascii	"msg_t\000"
 2493      7400
 2494              	.LASF86:
 2495 01a2 63684462 		.ascii	"chDbgCheckClassI\000"
 2495      67436865 
 2495      636B436C 
 2495      61737349 
 2495      00
 2496              	.LASF13:
 2497 01b3 746D6F64 		.ascii	"tmode_t\000"
 2497      655F7400 
 2498              	.LASF100:
 2499 01bb 6462675F 		.ascii	"dbg_isr_cnt\000"
 2499      6973725F 
 2499      636E7400 
 2500              	.LASF85:
 2501 01c7 63684462 		.ascii	"chDbgCheckClassS\000"
 2501      67436865 
 2501      636B436C 
 2501      61737353 
 2501      00
 2502              	.LASF42:
 2503 01d8 54687265 		.ascii	"ThreadsList\000"
 2503      6164734C 
 2503      69737400 
 2504              	.LASF18:
 2505 01e4 6576656E 		.ascii	"eventmask_t\000"
 2505      746D6173 
 2505      6B5F7400 
 2506              	.LASF64:
 2507 01f0 4D757465 		.ascii	"Mutex\000"
 2507      7800
 2508              	.LASF44:
 2509 01f6 73746B61 		.ascii	"stkalign_t\000"
 2509      6C69676E 
 2509      5F7400
 2510              	.LASF51:
 2511 0201 76745F74 		.ascii	"vt_time\000"
 2511      696D6500 
 2512              	.LASF79:
 2513 0209 74625F70 		.ascii	"tb_ptr\000"
 2513      747200
 2514              	.LASF52:
 2515 0210 76745F66 		.ascii	"vt_func\000"
 2515      756E6300 
 2516              	.LASF92:
ARM GAS  /tmp/ccO73bFa.s 			page 49


 2517 0218 6462675F 		.ascii	"dbg_check_lock\000"
 2517      63686563 
 2517      6B5F6C6F 
 2517      636B00
 2518              	.LASF77:
 2519 0227 63685F73 		.ascii	"ch_swc_event_t\000"
 2519      77635F65 
 2519      76656E74 
 2519      5F7400
 2520              	.LASF27:
 2521 0236 705F6F6C 		.ascii	"p_older\000"
 2521      64657200 
 2522              	.LASF58:
 2523 023e 725F6374 		.ascii	"r_ctx\000"
 2523      7800
 2524              	.LASF41:
 2525 0244 54687265 		.ascii	"ThreadsQueue\000"
 2525      61647351 
 2525      75657565 
 2525      00
 2526              	.LASF62:
 2527 0251 725F6375 		.ascii	"r_current\000"
 2527      7272656E 
 2527      7400
 2528              	.LASF60:
 2529 025b 725F6F6C 		.ascii	"r_older\000"
 2529      64657200 
 2530              	.LASF91:
 2531 0263 6462675F 		.ascii	"dbg_check_unlock\000"
 2531      63686563 
 2531      6B5F756E 
 2531      6C6F636B 
 2531      00
 2532              	.LASF98:
 2533 0274 6462675F 		.ascii	"dbg_trace_buffer\000"
 2533      74726163 
 2533      655F6275 
 2533      66666572 
 2533      00
 2534              	.LASF15:
 2535 0285 74726566 		.ascii	"trefs_t\000"
 2535      735F7400 
 2536              	.LASF80:
 2537 028d 74625F62 		.ascii	"tb_buffer\000"
 2537      75666665 
 2537      7200
 2538              	.LASF23:
 2539 0297 705F7072 		.ascii	"p_prev\000"
 2539      657600
 2540              	.LASF16:
 2541 029e 74707269 		.ascii	"tprio_t\000"
 2541      6F5F7400 
 2542              	.LASF6:
 2543 02a6 696E7433 		.ascii	"int32_t\000"
 2543      325F7400 
 2544              	.LASF2:
 2545 02ae 756E7369 		.ascii	"unsigned char\000"
ARM GAS  /tmp/ccO73bFa.s 			page 50


 2545      676E6564 
 2545      20636861 
 2545      7200
 2546              	.LASF99:
 2547 02bc 6462675F 		.ascii	"dbg_panic_msg\000"
 2547      70616E69 
 2547      635F6D73 
 2547      6700
 2548              	.LASF38:
 2549 02ca 705F6D74 		.ascii	"p_mtxlist\000"
 2549      786C6973 
 2549      7400
 2550              	.LASF3:
 2551 02d4 73686F72 		.ascii	"short int\000"
 2551      7420696E 
 2551      7400
 2552              	.LASF30:
 2553 02de 705F7374 		.ascii	"p_state\000"
 2553      61746500 
 2554              	.LASF57:
 2555 02e6 725F7072 		.ascii	"r_prio\000"
 2555      696F00
 2556              	.LASF71:
 2557 02ed 65776D61 		.ascii	"ewmask\000"
 2557      736B00
 2558              	.LASF22:
 2559 02f4 705F6E65 		.ascii	"p_next\000"
 2559      787400
 2560              	.LASF31:
 2561 02fb 705F666C 		.ascii	"p_flags\000"
 2561      61677300 
 2562              	.LASF21:
 2563 0303 54687265 		.ascii	"Thread\000"
 2563      616400
 2564              	.LASF37:
 2565 030a 705F6570 		.ascii	"p_epending\000"
 2565      656E6469 
 2565      6E6700
 2566              	.LASF8:
 2567 0315 75696E74 		.ascii	"uint32_t\000"
 2567      33325F74 
 2567      00
 2568              	.LASF56:
 2569 031e 725F7175 		.ascii	"r_queue\000"
 2569      65756500 
 2570              	.LASF48:
 2571 0326 56697274 		.ascii	"VirtualTimer\000"
 2571      75616C54 
 2571      696D6572 
 2571      00
 2572              	.LASF72:
 2573 0333 63686172 		.ascii	"char\000"
 2573      00
 2574              	.LASF67:
 2575 0338 6D5F6E65 		.ascii	"m_next\000"
 2575      787400
 2576              	.LASF19:
ARM GAS  /tmp/ccO73bFa.s 			page 51


 2577 033f 73797374 		.ascii	"systime_t\000"
 2577      696D655F 
 2577      7400
 2578              	.LASF39:
 2579 0349 705F7265 		.ascii	"p_realprio\000"
 2579      616C7072 
 2579      696F00
 2580              	.LASF47:
 2581 0354 76746675 		.ascii	"vtfunc_t\000"
 2581      6E635F74 
 2581      00
 2582              	.LASF101:
 2583 035d 6462675F 		.ascii	"dbg_lock_cnt\000"
 2583      6C6F636B 
 2583      5F636E74 
 2583      00
 2584              	.LASF4:
 2585 036a 73686F72 		.ascii	"short unsigned int\000"
 2585      7420756E 
 2585      7369676E 
 2585      65642069 
 2585      6E7400
 2586              	.LASF87:
 2587 037d 6462675F 		.ascii	"dbg_check_leave_isr\000"
 2587      63686563 
 2587      6B5F6C65 
 2587      6176655F 
 2587      69737200 
 2588              	.LASF45:
 2589 0391 696E7463 		.ascii	"intctx\000"
 2589      747800
 2590              	.LASF35:
 2591 0398 705F6D73 		.ascii	"p_msgqueue\000"
 2591      67717565 
 2591      756500
 2592              	.LASF93:
 2593 03a3 6462675F 		.ascii	"dbg_check_enable\000"
 2593      63686563 
 2593      6B5F656E 
 2593      61626C65 
 2593      00
 2594              	.LASF53:
 2595 03b4 76745F70 		.ascii	"vt_par\000"
 2595      617200
 2596              	.LASF32:
 2597 03bb 705F7265 		.ascii	"p_refs\000"
 2597      667300
 2598              	.LASF63:
 2599 03c2 52656164 		.ascii	"ReadyList\000"
 2599      794C6973 
 2599      7400
 2600              	.LASF88:
 2601 03cc 6462675F 		.ascii	"dbg_check_enter_isr\000"
 2601      63686563 
 2601      6B5F656E 
 2601      7465725F 
 2601      69737200 
ARM GAS  /tmp/ccO73bFa.s 			page 52


 2602              	.LASF97:
 2603 03e0 726C6973 		.ascii	"rlist\000"
 2603      7400
 2604              	.LASF66:
 2605 03e6 6D5F6F77 		.ascii	"m_owner\000"
 2605      6E657200 
 2606              	.LASF5:
 2607 03ee 75696E74 		.ascii	"uint8_t\000"
 2607      385F7400 
 2608              	.LASF90:
 2609 03f6 6462675F 		.ascii	"dbg_check_lock_from_isr\000"
 2609      63686563 
 2609      6B5F6C6F 
 2609      636B5F66 
 2609      726F6D5F 
 2610              	.LASF33:
 2611 040e 705F7469 		.ascii	"p_time\000"
 2611      6D6500
 2612              	.LASF102:
 2613 0415 474E5520 		.ascii	"GNU C 4.5.2\000"
 2613      4320342E 
 2613      352E3200 
 2614              	.LASF28:
 2615 0421 705F6E61 		.ascii	"p_name\000"
 2615      6D6500
 2616              	.LASF54:
 2617 0428 76745F73 		.ascii	"vt_systime\000"
 2617      79737469 
 2617      6D6500
 2618              	.LASF55:
 2619 0433 56544C69 		.ascii	"VTList\000"
 2619      737400
 2620              	.LASF61:
 2621 043a 725F7072 		.ascii	"r_preempt\000"
 2621      65656D70 
 2621      7400
 2622              	.LASF95:
 2623 0444 6462675F 		.ascii	"dbg_check_disable\000"
 2623      63686563 
 2623      6B5F6469 
 2623      7361626C 
 2623      6500
 2624              	.LASF103:
 2625 0456 2E2E2F63 		.ascii	"../chibios/os/kernel/src/chdebug.c\000"
 2625      68696269 
 2625      6F732F6F 
 2625      732F6B65 
 2625      726E656C 
 2626              	.LASF75:
 2627 0479 73655F77 		.ascii	"se_wtobjp\000"
 2627      746F626A 
 2627      7000
 2628              	.LASF25:
 2629 0483 705F6374 		.ascii	"p_ctx\000"
 2629      7800
 2630              	.LASF34:
 2631 0489 705F7761 		.ascii	"p_waiting\000"
ARM GAS  /tmp/ccO73bFa.s 			page 53


 2631      6974696E 
 2631      6700
 2632              		.ident	"GCC: (Sourcery G++ Lite 2011.03-42) 4.5.2"
ARM GAS  /tmp/ccO73bFa.s 			page 54


DEFINED SYMBOLS
                            *ABS*:00000000 chdebug.c
     /tmp/ccO73bFa.s:24     .text._trace_init:00000000 $t
     /tmp/ccO73bFa.s:29     .text._trace_init:00000000 _trace_init
     /tmp/ccO73bFa.s:49     .text._trace_init:00000010 $d
     /tmp/ccO73bFa.s:54     .text.dbg_trace:00000000 $t
     /tmp/ccO73bFa.s:59     .text.dbg_trace:00000000 dbg_trace
     /tmp/ccO73bFa.s:98     .text.dbg_trace:00000030 $d
     /tmp/ccO73bFa.s:105    .text.chDbgPanic:00000000 $t
     /tmp/ccO73bFa.s:110    .text.chDbgPanic:00000000 chDbgPanic
     /tmp/ccO73bFa.s:128    .text.chDbgPanic:00000008 $d
     /tmp/ccO73bFa.s:133    .text.chDbgCheckClassS:00000000 $t
     /tmp/ccO73bFa.s:138    .text.chDbgCheckClassS:00000000 chDbgCheckClassS
     /tmp/ccO73bFa.s:165    .text.chDbgCheckClassS:00000018 $d
     /tmp/ccO73bFa.s:172    .text.chDbgCheckClassI:00000000 $t
     /tmp/ccO73bFa.s:177    .text.chDbgCheckClassI:00000000 chDbgCheckClassI
     /tmp/ccO73bFa.s:205    .text.chDbgCheckClassI:00000018 $d
     /tmp/ccO73bFa.s:212    .text.dbg_check_leave_isr:00000000 $t
     /tmp/ccO73bFa.s:217    .text.dbg_check_leave_isr:00000000 dbg_check_leave_isr
     /tmp/ccO73bFa.s:261    .text.dbg_check_leave_isr:00000028 $d
     /tmp/ccO73bFa.s:268    .text.dbg_check_enter_isr:00000000 $t
     /tmp/ccO73bFa.s:273    .text.dbg_check_enter_isr:00000000 dbg_check_enter_isr
     /tmp/ccO73bFa.s:317    .text.dbg_check_enter_isr:00000028 $d
     /tmp/ccO73bFa.s:324    .text.dbg_check_unlock_from_isr:00000000 $t
     /tmp/ccO73bFa.s:329    .text.dbg_check_unlock_from_isr:00000000 dbg_check_unlock_from_isr
     /tmp/ccO73bFa.s:365    .text.dbg_check_unlock_from_isr:00000020 $d
     /tmp/ccO73bFa.s:372    .text.dbg_check_lock_from_isr:00000000 $t
     /tmp/ccO73bFa.s:377    .text.dbg_check_lock_from_isr:00000000 dbg_check_lock_from_isr
     /tmp/ccO73bFa.s:412    .text.dbg_check_lock_from_isr:0000001c $d
     /tmp/ccO73bFa.s:419    .text.dbg_check_unlock:00000000 $t
     /tmp/ccO73bFa.s:424    .text.dbg_check_unlock:00000000 dbg_check_unlock
     /tmp/ccO73bFa.s:459    .text.dbg_check_unlock:0000001c $d
     /tmp/ccO73bFa.s:466    .text.dbg_check_lock:00000000 $t
     /tmp/ccO73bFa.s:471    .text.dbg_check_lock:00000000 dbg_check_lock
     /tmp/ccO73bFa.s:505    .text.dbg_check_lock:0000001c $d
     /tmp/ccO73bFa.s:512    .text.dbg_check_enable:00000000 $t
     /tmp/ccO73bFa.s:517    .text.dbg_check_enable:00000000 dbg_check_enable
     /tmp/ccO73bFa.s:543    .text.dbg_check_enable:00000014 $d
     /tmp/ccO73bFa.s:550    .text.dbg_check_suspend:00000000 $t
     /tmp/ccO73bFa.s:555    .text.dbg_check_suspend:00000000 dbg_check_suspend
     /tmp/ccO73bFa.s:581    .text.dbg_check_suspend:00000014 $d
     /tmp/ccO73bFa.s:588    .text.dbg_check_disable:00000000 $t
     /tmp/ccO73bFa.s:593    .text.dbg_check_disable:00000000 dbg_check_disable
     /tmp/ccO73bFa.s:619    .text.dbg_check_disable:00000014 $d
     /tmp/ccO73bFa.s:641    .bss.dbg_trace_buffer:00000000 dbg_trace_buffer
     /tmp/ccO73bFa.s:678    .bss.dbg_panic_msg:00000000 dbg_panic_msg
     /tmp/ccO73bFa.s:634    .bss.dbg_isr_cnt:00000000 dbg_isr_cnt
     /tmp/ccO73bFa.s:671    .bss.dbg_lock_cnt:00000000 dbg_lock_cnt
     /tmp/ccO73bFa.s:630    .bss.dbg_isr_cnt:00000000 $d
     /tmp/ccO73bFa.s:637    .bss.dbg_trace_buffer:00000000 $d
     /tmp/ccO73bFa.s:667    .bss.dbg_lock_cnt:00000000 $d
     /tmp/ccO73bFa.s:674    .bss.dbg_panic_msg:00000000 $d
                     .debug_frame:00000010 $d

UNDEFINED SYMBOLS
vtlist
rlist
ARM GAS  /tmp/ccO73bFa.s 			page 55


port_halt
_port_lock
_port_unlock
