ARM GAS  /tmp/ccO73bFa.s 			page 1


   1              		.syntax unified
   2              		.cpu cortex-m3
   3              		.fpu softvfp
   4              		.eabi_attribute 20, 1
   5              		.eabi_attribute 21, 1
   6              		.eabi_attribute 23, 3
   7              		.eabi_attribute 24, 1
   8              		.eabi_attribute 25, 1
   9              		.eabi_attribute 26, 1
  10              		.eabi_attribute 30, 4
  11              		.eabi_attribute 18, 4
  12              		.thumb
  13              		.file	"chdebug.c"
  20 0000 D2020000 		.text
  20      02005901 
  20      00000201 
  20      FB0E0D00 
  20      01010101 
  21              	.Ltext0:
  22              		.cfi_sections	.debug_frame
  23              		.section	.text._trace_init,"ax",%progbits
  24              		.align	1
  25              		.global	_trace_init
  26              		.thumb
  27              		.thumb_func
  28              		.type	_trace_init, %function
  29              	_trace_init:
  30              	.LFB11:
  31              		.file 1 "../chibios/os/kernel/src/chdebug.c"
  32              		.loc 1 229 0
  33              		.cfi_startproc
  34              		@ args = 0, pretend = 0, frame = 0
  35              		@ frame_needed = 0, uses_anonymous_args = 0
  36              		@ link register save eliminated.
  37              		.loc 1 231 0
  38 0000 034A     		ldr	r2, .L2
  39 0002 4021     		movs	r1, #64
  40 0004 1346     		mov	r3, r2
  41 0006 43F8081B 		str	r1, [r3], #8
  42              		.loc 1 232 0
  43 000a 5360     		str	r3, [r2, #4]
  44              		.loc 1 233 0
  45 000c 7047     		bx	lr
  46              	.L3:
  47 000e 00BF     		.align	2
  48              	.L2:
  49 0010 00000000 		.word	.LANCHOR0
  50              		.cfi_endproc
  51              	.LFE11:
  52              		.size	_trace_init, .-_trace_init
  53              		.section	.text.dbg_trace,"ax",%progbits
ARM GAS  /tmp/ccO73bFa.s 			page 2


  54              		.align	1
  55              		.global	dbg_trace
  56              		.thumb
  57              		.thumb_func
  58              		.type	dbg_trace, %function
  59              	dbg_trace:
  60              	.LFB12:
  61              		.loc 1 242 0
  62              		.cfi_startproc
  63              		@ args = 0, pretend = 0, frame = 0
  64              		@ frame_needed = 0, uses_anonymous_args = 0
  65              		@ link register save eliminated.
  66              	.LVL0:
  67              		.loc 1 244 0
  68 0000 0B4B     		ldr	r3, .L6
  69 0002 0C49     		ldr	r1, .L6+4
  70 0004 5A68     		ldr	r2, [r3, #4]
  71 0006 C968     		ldr	r1, [r1, #12]
  72 0008 1160     		str	r1, [r2, #0]
  73              		.loc 1 245 0
  74 000a 0B49     		ldr	r1, .L6+8
  75 000c C969     		ldr	r1, [r1, #28]
  76 000e 5160     		str	r1, [r2, #4]
  77              		.loc 1 246 0
  78 0010 816A     		ldr	r1, [r0, #40]
  79 0012 9160     		str	r1, [r2, #8]
  80              		.loc 1 247 0
  81 0014 90F82010 		ldrb	r1, [r0, #32]	@ zero_extendqisi2
  82 0018 1173     		strb	r1, [r2, #12]
  83              		.loc 1 248 0
  84 001a 1032     		adds	r2, r2, #16
  85              		.loc 1 249 0
  86 001c 03F58161 		add	r1, r3, #1032
  87              		.loc 1 248 0
  88 0020 8A42     		cmp	r2, r1
  89 0022 5A60     		str	r2, [r3, #4]
  90              		.loc 1 250 0
  91 0024 24BF     		itt	cs
  92 0026 03F10802 		addcs	r2, r3, #8
  93 002a 5A60     		strcs	r2, [r3, #4]
  94 002c 7047     		bx	lr
  95              	.L7:
  96 002e 00BF     		.align	2
  97              	.L6:
  98 0030 00000000 		.word	.LANCHOR0
  99 0034 00000000 		.word	vtlist
 100 0038 00000000 		.word	rlist
 101              		.cfi_endproc
 102              	.LFE12:
 103              		.size	dbg_trace, .-dbg_trace
 104              		.section	.text.chDbgPanic,"ax",%progbits
 105              		.align	1
 106              		.global	chDbgPanic
 107              		.thumb
 108              		.thumb_func
 109              		.type	chDbgPanic, %function
 110              	chDbgPanic:
ARM GAS  /tmp/ccO73bFa.s 			page 3


 111              	.LFB13:
 112              		.loc 1 271 0
 113              		.cfi_startproc
 114              		@ args = 0, pretend = 0, frame = 0
 115              		@ frame_needed = 0, uses_anonymous_args = 0
 116              		@ link register save eliminated.
 117              	.LVL1:
 118              		.loc 1 273 0
 119 0000 014B     		ldr	r3, .L9
 120 0002 1860     		str	r0, [r3, #0]
 121              		.loc 1 275 0
 122              		.loc 1 274 0
 123 0004 FFF7FEBF 		b	port_halt
 124              	.LVL2:
 125              	.L10:
 126              		.align	2
 127              	.L9:
 128 0008 00000000 		.word	.LANCHOR1
 129              		.cfi_endproc
 130              	.LFE13:
 131              		.size	chDbgPanic, .-chDbgPanic
 132              		.section	.text.chDbgCheckClassS,"ax",%progbits
 133              		.align	1
 134              		.global	chDbgCheckClassS
 135              		.thumb
 136              		.thumb_func
 137              		.type	chDbgCheckClassS, %function
 138              	chDbgCheckClassS:
 139              	.LFB10:
 140              		.loc 1 207 0
 141              		.cfi_startproc
 142              		@ args = 0, pretend = 0, frame = 0
 143              		@ frame_needed = 0, uses_anonymous_args = 0
 144              		@ link register save eliminated.
 145              		.loc 1 209 0
 146 0000 054B     		ldr	r3, .L14
 147 0002 1B68     		ldr	r3, [r3, #0]
 148 0004 1BB9     		cbnz	r3, .L12
 149              		.loc 1 209 0 is_stmt 0 discriminator 1
 150 0006 054B     		ldr	r3, .L14+4
 151 0008 1B68     		ldr	r3, [r3, #0]
 152 000a 002B     		cmp	r3, #0
 153 000c 02DC     		bgt	.L11
 154              	.L12:
 155              		.loc 1 210 0 is_stmt 1
 156 000e 0448     		ldr	r0, .L14+8
 157              		.loc 1 211 0
 158              		.loc 1 210 0
 159 0010 FFF7FEBF 		b	chDbgPanic
 160              	.L11:
 161 0014 7047     		bx	lr
 162              	.L15:
 163 0016 00BF     		.align	2
 164              	.L14:
 165 0018 00000000 		.word	.LANCHOR2
 166 001c 00000000 		.word	.LANCHOR3
 167 0020 00000000 		.word	.LC0
ARM GAS  /tmp/ccO73bFa.s 			page 4


 168              		.cfi_endproc
 169              	.LFE10:
 170              		.size	chDbgCheckClassS, .-chDbgCheckClassS
 171              		.section	.text.chDbgCheckClassI,"ax",%progbits
 172              		.align	1
 173              		.global	chDbgCheckClassI
 174              		.thumb
 175              		.thumb_func
 176              		.type	chDbgCheckClassI, %function
 177              	chDbgCheckClassI:
 178              	.LFB9:
 179              		.loc 1 193 0
 180              		.cfi_startproc
 181              		@ args = 0, pretend = 0, frame = 0
 182              		@ frame_needed = 0, uses_anonymous_args = 0
 183              		@ link register save eliminated.
 184              		.loc 1 195 0
 185 0000 054B     		ldr	r3, .L19
 186 0002 1B68     		ldr	r3, [r3, #0]
 187 0004 002B     		cmp	r3, #0
 188 0006 03DB     		blt	.L17
 189              		.loc 1 195 0 is_stmt 0 discriminator 1
 190 0008 044B     		ldr	r3, .L19+4
 191 000a 1B68     		ldr	r3, [r3, #0]
 192 000c 002B     		cmp	r3, #0
 193 000e 02DC     		bgt	.L16
 194              	.L17:
 195              		.loc 1 196 0 is_stmt 1
 196 0010 0348     		ldr	r0, .L19+8
 197              		.loc 1 197 0
 198              		.loc 1 196 0
 199 0012 FFF7FEBF 		b	chDbgPanic
 200              	.L16:
 201 0016 7047     		bx	lr
 202              	.L20:
 203              		.align	2
 204              	.L19:
 205 0018 00000000 		.word	.LANCHOR2
 206 001c 00000000 		.word	.LANCHOR3
 207 0020 06000000 		.word	.LC1
 208              		.cfi_endproc
 209              	.LFE9:
 210              		.size	chDbgCheckClassI, .-chDbgCheckClassI
 211              		.section	.text.dbg_check_leave_isr,"ax",%progbits
 212              		.align	1
 213              		.global	dbg_check_leave_isr
 214              		.thumb
 215              		.thumb_func
 216              		.type	dbg_check_leave_isr, %function
 217              	dbg_check_leave_isr:
 218              	.LFB8:
 219              		.loc 1 176 0
 220              		.cfi_startproc
 221              		@ args = 0, pretend = 0, frame = 0
 222              		@ frame_needed = 0, uses_anonymous_args = 0
 223 0000 10B5     		push	{r4, lr}
 224              	.LCFI0:
ARM GAS  /tmp/ccO73bFa.s 			page 5


 225              		.cfi_def_cfa_offset 8
 226              		.loc 1 178 0
 227              	@ 178 "../chibios/os/kernel/src/chdebug.c" 1
 228 0002 FFF7FEFF 		bl      _port_lock
 229              	@ 0 "" 2
 230              		.loc 1 179 0
 231              		.thumb
 232 0006 084C     		ldr	r4, .L24
 233              		.cfi_offset 14, -4
 234              		.cfi_offset 4, -8
 235 0008 2368     		ldr	r3, [r4, #0]
 236 000a 002B     		cmp	r3, #0
 237 000c 02DD     		ble	.L22
 238              		.loc 1 179 0 is_stmt 0 discriminator 1
 239 000e 074B     		ldr	r3, .L24+4
 240 0010 1B68     		ldr	r3, [r3, #0]
 241 0012 13B1     		cbz	r3, .L23
 242              	.L22:
 243              		.loc 1 180 0 is_stmt 1
 244 0014 0648     		ldr	r0, .L24+8
 245 0016 FFF7FEFF 		bl	chDbgPanic
 246              	.L23:
 247              		.loc 1 181 0
 248 001a 2368     		ldr	r3, [r4, #0]
 249 001c 013B     		subs	r3, r3, #1
 250 001e 2360     		str	r3, [r4, #0]
 251              		.loc 1 182 0
 252              	@ 182 "../chibios/os/kernel/src/chdebug.c" 1
 253 0020 FFF7FEFF 		bl      _port_unlock
 254              	@ 0 "" 2
 255              		.loc 1 183 0
 256              		.thumb
 257 0024 10BD     		pop	{r4, pc}
 258              	.L25:
 259 0026 00BF     		.align	2
 260              	.L24:
 261 0028 00000000 		.word	.LANCHOR2
 262 002c 00000000 		.word	.LANCHOR3
 263 0030 0C000000 		.word	.LC2
 264              		.cfi_endproc
 265              	.LFE8:
 266              		.size	dbg_check_leave_isr, .-dbg_check_leave_isr
 267              		.section	.text.dbg_check_enter_isr,"ax",%progbits
 268              		.align	1
 269              		.global	dbg_check_enter_isr
 270              		.thumb
 271              		.thumb_func
 272              		.type	dbg_check_enter_isr, %function
 273              	dbg_check_enter_isr:
 274              	.LFB7:
 275              		.loc 1 162 0
 276              		.cfi_startproc
 277              		@ args = 0, pretend = 0, frame = 0
 278              		@ frame_needed = 0, uses_anonymous_args = 0
 279 0000 10B5     		push	{r4, lr}
 280              	.LCFI1:
 281              		.cfi_def_cfa_offset 8
ARM GAS  /tmp/ccO73bFa.s 			page 6


 282              		.loc 1 164 0
 283              	@ 164 "../chibios/os/kernel/src/chdebug.c" 1
 284 0002 FFF7FEFF 		bl      _port_lock
 285              	@ 0 "" 2
 286              		.loc 1 165 0
 287              		.thumb
 288 0006 084C     		ldr	r4, .L29
 289              		.cfi_offset 14, -4
 290              		.cfi_offset 4, -8
 291 0008 2368     		ldr	r3, [r4, #0]
 292 000a 002B     		cmp	r3, #0
 293 000c 02DB     		blt	.L27
 294              		.loc 1 165 0 is_stmt 0 discriminator 1
 295 000e 074B     		ldr	r3, .L29+4
 296 0010 1B68     		ldr	r3, [r3, #0]
 297 0012 13B1     		cbz	r3, .L28
 298              	.L27:
 299              		.loc 1 166 0 is_stmt 1
 300 0014 0648     		ldr	r0, .L29+8
 301 0016 FFF7FEFF 		bl	chDbgPanic
 302              	.L28:
 303              		.loc 1 167 0
 304 001a 2368     		ldr	r3, [r4, #0]
 305 001c 0133     		adds	r3, r3, #1
 306 001e 2360     		str	r3, [r4, #0]
 307              		.loc 1 168 0
 308              	@ 168 "../chibios/os/kernel/src/chdebug.c" 1
 309 0020 FFF7FEFF 		bl      _port_unlock
 310              	@ 0 "" 2
 311              		.loc 1 169 0
 312              		.thumb
 313 0024 10BD     		pop	{r4, pc}
 314              	.L30:
 315 0026 00BF     		.align	2
 316              	.L29:
 317 0028 00000000 		.word	.LANCHOR2
 318 002c 00000000 		.word	.LANCHOR3
 319 0030 11000000 		.word	.LC3
 320              		.cfi_endproc
 321              	.LFE7:
 322              		.size	dbg_check_enter_isr, .-dbg_check_enter_isr
 323              		.section	.text.dbg_check_unlock_from_isr,"ax",%progbits
 324              		.align	1
 325              		.global	dbg_check_unlock_from_isr
 326              		.thumb
 327              		.thumb_func
 328              		.type	dbg_check_unlock_from_isr, %function
 329              	dbg_check_unlock_from_isr:
 330              	.LFB6:
 331              		.loc 1 150 0
 332              		.cfi_startproc
 333              		@ args = 0, pretend = 0, frame = 0
 334              		@ frame_needed = 0, uses_anonymous_args = 0
 335              		.loc 1 152 0
 336 0000 074B     		ldr	r3, .L34
 337              		.loc 1 150 0
 338 0002 10B5     		push	{r4, lr}
ARM GAS  /tmp/ccO73bFa.s 			page 7


 339              	.LCFI2:
 340              		.cfi_def_cfa_offset 8
 341              		.loc 1 152 0
 342 0004 1B68     		ldr	r3, [r3, #0]
 343 0006 074C     		ldr	r4, .L34+4
 344              		.cfi_offset 14, -4
 345              		.cfi_offset 4, -8
 346 0008 002B     		cmp	r3, #0
 347 000a 02DD     		ble	.L32
 348              		.loc 1 152 0 is_stmt 0 discriminator 1
 349 000c 2368     		ldr	r3, [r4, #0]
 350 000e 002B     		cmp	r3, #0
 351 0010 02DC     		bgt	.L33
 352              	.L32:
 353              		.loc 1 153 0 is_stmt 1
 354 0012 0548     		ldr	r0, .L34+8
 355 0014 FFF7FEFF 		bl	chDbgPanic
 356              	.L33:
 357              		.loc 1 154 0
 358 0018 0023     		movs	r3, #0
 359 001a 2360     		str	r3, [r4, #0]
 360              		.loc 1 155 0
 361 001c 10BD     		pop	{r4, pc}
 362              	.L35:
 363 001e 00BF     		.align	2
 364              	.L34:
 365 0020 00000000 		.word	.LANCHOR2
 366 0024 00000000 		.word	.LANCHOR3
 367 0028 16000000 		.word	.LC4
 368              		.cfi_endproc
 369              	.LFE6:
 370              		.size	dbg_check_unlock_from_isr, .-dbg_check_unlock_from_isr
 371              		.section	.text.dbg_check_lock_from_isr,"ax",%progbits
 372              		.align	1
 373              		.global	dbg_check_lock_from_isr
 374              		.thumb
 375              		.thumb_func
 376              		.type	dbg_check_lock_from_isr, %function
 377              	dbg_check_lock_from_isr:
 378              	.LFB5:
 379              		.loc 1 138 0
 380              		.cfi_startproc
 381              		@ args = 0, pretend = 0, frame = 0
 382              		@ frame_needed = 0, uses_anonymous_args = 0
 383              		.loc 1 140 0
 384 0000 064B     		ldr	r3, .L39
 385              		.loc 1 138 0
 386 0002 10B5     		push	{r4, lr}
 387              	.LCFI3:
 388              		.cfi_def_cfa_offset 8
 389              		.loc 1 140 0
 390 0004 1B68     		ldr	r3, [r3, #0]
 391 0006 064C     		ldr	r4, .L39+4
 392              		.cfi_offset 14, -4
 393              		.cfi_offset 4, -8
 394 0008 002B     		cmp	r3, #0
 395 000a 01DD     		ble	.L37
ARM GAS  /tmp/ccO73bFa.s 			page 8


 396              		.loc 1 140 0 is_stmt 0 discriminator 1
 397 000c 2368     		ldr	r3, [r4, #0]
 398 000e 13B1     		cbz	r3, .L38
 399              	.L37:
 400              		.loc 1 141 0 is_stmt 1
 401 0010 0448     		ldr	r0, .L39+8
 402 0012 FFF7FEFF 		bl	chDbgPanic
 403              	.L38:
 404              		.loc 1 142 0
 405 0016 0123     		movs	r3, #1
 406 0018 2360     		str	r3, [r4, #0]
 407              		.loc 1 143 0
 408 001a 10BD     		pop	{r4, pc}
 409              	.L40:
 410              		.align	2
 411              	.L39:
 412 001c 00000000 		.word	.LANCHOR2
 413 0020 00000000 		.word	.LANCHOR3
 414 0024 1B000000 		.word	.LC5
 415              		.cfi_endproc
 416              	.LFE5:
 417              		.size	dbg_check_lock_from_isr, .-dbg_check_lock_from_isr
 418              		.section	.text.dbg_check_unlock,"ax",%progbits
 419              		.align	1
 420              		.global	dbg_check_unlock
 421              		.thumb
 422              		.thumb_func
 423              		.type	dbg_check_unlock, %function
 424              	dbg_check_unlock:
 425              	.LFB4:
 426              		.loc 1 126 0
 427              		.cfi_startproc
 428              		@ args = 0, pretend = 0, frame = 0
 429              		@ frame_needed = 0, uses_anonymous_args = 0
 430              		.loc 1 128 0
 431 0000 064B     		ldr	r3, .L44
 432              		.loc 1 126 0
 433 0002 10B5     		push	{r4, lr}
 434              	.LCFI4:
 435              		.cfi_def_cfa_offset 8
 436              		.loc 1 128 0
 437 0004 1B68     		ldr	r3, [r3, #0]
 438 0006 064C     		ldr	r4, .L44+4
 439              		.cfi_offset 14, -4
 440              		.cfi_offset 4, -8
 441 0008 13B9     		cbnz	r3, .L42
 442              		.loc 1 128 0 is_stmt 0 discriminator 1
 443 000a 2368     		ldr	r3, [r4, #0]
 444 000c 002B     		cmp	r3, #0
 445 000e 02DC     		bgt	.L43
 446              	.L42:
 447              		.loc 1 129 0 is_stmt 1
 448 0010 0448     		ldr	r0, .L44+8
 449 0012 FFF7FEFF 		bl	chDbgPanic
 450              	.L43:
 451              		.loc 1 130 0
 452 0016 0023     		movs	r3, #0
ARM GAS  /tmp/ccO73bFa.s 			page 9


 453 0018 2360     		str	r3, [r4, #0]
 454              		.loc 1 131 0
 455 001a 10BD     		pop	{r4, pc}
 456              	.L45:
 457              		.align	2
 458              	.L44:
 459 001c 00000000 		.word	.LANCHOR2
 460 0020 00000000 		.word	.LANCHOR3
 461 0024 20000000 		.word	.LC6
 462              		.cfi_endproc
 463              	.LFE4:
 464              		.size	dbg_check_unlock, .-dbg_check_unlock
 465              		.section	.text.dbg_check_lock,"ax",%progbits
 466              		.align	1
 467              		.global	dbg_check_lock
 468              		.thumb
 469              		.thumb_func
 470              		.type	dbg_check_lock, %function
 471              	dbg_check_lock:
 472              	.LFB3:
 473              		.loc 1 114 0
 474              		.cfi_startproc
 475              		@ args = 0, pretend = 0, frame = 0
 476              		@ frame_needed = 0, uses_anonymous_args = 0
 477              		.loc 1 116 0
 478 0000 064B     		ldr	r3, .L49
 479              		.loc 1 114 0
 480 0002 10B5     		push	{r4, lr}
 481              	.LCFI5:
 482              		.cfi_def_cfa_offset 8
 483              		.loc 1 116 0
 484 0004 1B68     		ldr	r3, [r3, #0]
 485 0006 064C     		ldr	r4, .L49+4
 486              		.cfi_offset 14, -4
 487              		.cfi_offset 4, -8
 488 0008 0BB9     		cbnz	r3, .L47
 489              		.loc 1 116 0 is_stmt 0 discriminator 1
 490 000a 2368     		ldr	r3, [r4, #0]
 491 000c 13B1     		cbz	r3, .L48
 492              	.L47:
 493              		.loc 1 117 0 is_stmt 1
 494 000e 0548     		ldr	r0, .L49+8
 495 0010 FFF7FEFF 		bl	chDbgPanic
 496              	.L48:
 497              		.loc 1 118 0
 498 0014 0123     		movs	r3, #1
 499 0016 2360     		str	r3, [r4, #0]
 500              		.loc 1 119 0
 501 0018 10BD     		pop	{r4, pc}
 502              	.L50:
 503 001a 00BF     		.align	2
 504              	.L49:
 505 001c 00000000 		.word	.LANCHOR2
 506 0020 00000000 		.word	.LANCHOR3
 507 0024 25000000 		.word	.LC7
 508              		.cfi_endproc
 509              	.LFE3:
ARM GAS  /tmp/ccO73bFa.s 			page 10


 510              		.size	dbg_check_lock, .-dbg_check_lock
 511              		.section	.text.dbg_check_enable,"ax",%progbits
 512              		.align	1
 513              		.global	dbg_check_enable
 514              		.thumb
 515              		.thumb_func
 516              		.type	dbg_check_enable, %function
 517              	dbg_check_enable:
 518              	.LFB2:
 519              		.loc 1 103 0
 520              		.cfi_startproc
 521              		@ args = 0, pretend = 0, frame = 0
 522              		@ frame_needed = 0, uses_anonymous_args = 0
 523              		@ link register save eliminated.
 524              		.loc 1 105 0
 525 0000 044B     		ldr	r3, .L54
 526 0002 1B68     		ldr	r3, [r3, #0]
 527 0004 13B9     		cbnz	r3, .L52
 528              		.loc 1 105 0 is_stmt 0 discriminator 1
 529 0006 044B     		ldr	r3, .L54+4
 530 0008 1B68     		ldr	r3, [r3, #0]
 531 000a 13B1     		cbz	r3, .L51
 532              	.L52:
 533              		.loc 1 106 0 is_stmt 1
 534 000c 0348     		ldr	r0, .L54+8
 535              		.loc 1 107 0
 536              		.loc 1 106 0
 537 000e FFF7FEBF 		b	chDbgPanic
 538              	.L51:
 539 0012 7047     		bx	lr
 540              	.L55:
 541              		.align	2
 542              	.L54:
 543 0014 00000000 		.word	.LANCHOR2
 544 0018 00000000 		.word	.LANCHOR3
 545 001c 2A000000 		.word	.LC8
 546              		.cfi_endproc
 547              	.LFE2:
 548              		.size	dbg_check_enable, .-dbg_check_enable
 549              		.section	.text.dbg_check_suspend,"ax",%progbits
 550              		.align	1
 551              		.global	dbg_check_suspend
 552              		.thumb
 553              		.thumb_func
 554              		.type	dbg_check_suspend, %function
 555              	dbg_check_suspend:
 556              	.LFB1:
 557              		.loc 1 92 0
 558              		.cfi_startproc
 559              		@ args = 0, pretend = 0, frame = 0
 560              		@ frame_needed = 0, uses_anonymous_args = 0
 561              		@ link register save eliminated.
 562              		.loc 1 94 0
 563 0000 044B     		ldr	r3, .L59
 564 0002 1B68     		ldr	r3, [r3, #0]
 565 0004 13B9     		cbnz	r3, .L57
 566              		.loc 1 94 0 is_stmt 0 discriminator 1
ARM GAS  /tmp/ccO73bFa.s 			page 11


 567 0006 044B     		ldr	r3, .L59+4
 568 0008 1B68     		ldr	r3, [r3, #0]
 569 000a 13B1     		cbz	r3, .L56
 570              	.L57:
 571              		.loc 1 95 0 is_stmt 1
 572 000c 0348     		ldr	r0, .L59+8
 573              		.loc 1 96 0
 574              		.loc 1 95 0
 575 000e FFF7FEBF 		b	chDbgPanic
 576              	.L56:
 577 0012 7047     		bx	lr
 578              	.L60:
 579              		.align	2
 580              	.L59:
 581 0014 00000000 		.word	.LANCHOR2
 582 0018 00000000 		.word	.LANCHOR3
 583 001c 2F000000 		.word	.LC9
 584              		.cfi_endproc
 585              	.LFE1:
 586              		.size	dbg_check_suspend, .-dbg_check_suspend
 587              		.section	.text.dbg_check_disable,"ax",%progbits
 588              		.align	1
 589              		.global	dbg_check_disable
 590              		.thumb
 591              		.thumb_func
 592              		.type	dbg_check_disable, %function
 593              	dbg_check_disable:
 594              	.LFB0:
 595              		.loc 1 81 0
 596              		.cfi_startproc
 597              		@ args = 0, pretend = 0, frame = 0
 598              		@ frame_needed = 0, uses_anonymous_args = 0
 599              		@ link register save eliminated.
 600              		.loc 1 83 0
 601 0000 044B     		ldr	r3, .L64
 602 0002 1B68     		ldr	r3, [r3, #0]
 603 0004 13B9     		cbnz	r3, .L62
 604              		.loc 1 83 0 is_stmt 0 discriminator 1
 605 0006 044B     		ldr	r3, .L64+4
 606 0008 1B68     		ldr	r3, [r3, #0]
 607 000a 13B1     		cbz	r3, .L61
 608              	.L62:
 609              		.loc 1 84 0 is_stmt 1
 610 000c 0348     		ldr	r0, .L64+8
 611              		.loc 1 85 0
 612              		.loc 1 84 0
 613 000e FFF7FEBF 		b	chDbgPanic
 614              	.L61:
 615 0012 7047     		bx	lr
 616              	.L65:
 617              		.align	2
 618              	.L64:
 619 0014 00000000 		.word	.LANCHOR2
 620 0018 00000000 		.word	.LANCHOR3
 621 001c 34000000 		.word	.LC10
 622              		.cfi_endproc
 623              	.LFE0:
ARM GAS  /tmp/ccO73bFa.s 			page 12


 624              		.size	dbg_check_disable, .-dbg_check_disable
 625              		.global	dbg_trace_buffer
 626              		.global	dbg_panic_msg
 627              		.global	dbg_isr_cnt
 628              		.global	dbg_lock_cnt
 629              		.section	.bss.dbg_isr_cnt,"aw",%nobits
 630              		.align	2
 631              		.set	.LANCHOR2,. + 0
 632              		.type	dbg_isr_cnt, %object
 633              		.size	dbg_isr_cnt, 4
 634              	dbg_isr_cnt:
 635 0000 00000000 		.space	4
 636              		.section	.bss.dbg_trace_buffer,"aw",%nobits
 637              		.align	2
 638              		.set	.LANCHOR0,. + 0
 639              		.type	dbg_trace_buffer, %object
 640              		.size	dbg_trace_buffer, 1032
 641              	dbg_trace_buffer:
 642 0000 00000000 		.space	1032
 642      00000000 
 642      00000000 
 642      00000000 
 642      00000000 
 643              		.section	.rodata.str1.1,"aMS",%progbits,1
 644              	.LC0:
 645 0000 53562331 		.ascii	"SV#11\000"
 645      3100
 646              	.LC1:
 647 0006 53562331 		.ascii	"SV#10\000"
 647      3000
 648              	.LC2:
 649 000c 53562339 		.ascii	"SV#9\000"
 649      00
 650              	.LC3:
 651 0011 53562338 		.ascii	"SV#8\000"
 651      00
 652              	.LC4:
 653 0016 53562337 		.ascii	"SV#7\000"
 653      00
 654              	.LC5:
 655 001b 53562336 		.ascii	"SV#6\000"
 655      00
 656              	.LC6:
 657 0020 53562335 		.ascii	"SV#5\000"
 657      00
 658              	.LC7:
 659 0025 53562334 		.ascii	"SV#4\000"
 659      00
 660              	.LC8:
 661 002a 53562333 		.ascii	"SV#3\000"
 661      00
 662              	.LC9:
 663 002f 53562332 		.ascii	"SV#2\000"
 663      00
 664              	.LC10:
 665 0034 53562331 		.ascii	"SV#1\000"
 665      00
ARM GAS  /tmp/ccO73bFa.s 			page 13


 666              		.section	.bss.dbg_lock_cnt,"aw",%nobits
 667              		.align	2
 668              		.set	.LANCHOR3,. + 0
 669              		.type	dbg_lock_cnt, %object
 670              		.size	dbg_lock_cnt, 4
 671              	dbg_lock_cnt:
 672 0000 00000000 		.space	4
 673              		.section	.bss.dbg_panic_msg,"aw",%nobits
 674              		.align	2
 675              		.set	.LANCHOR1,. + 0
 676              		.type	dbg_panic_msg, %object
 677              		.size	dbg_panic_msg, 4
 678              	dbg_panic_msg:
 679 0000 00000000 		.space	4
 680              		.text
 681              	.Letext0: