ARM GAS  /tmp/ccc9VKF2.s 			page 1


   1              		.syntax unified
   2              		.cpu cortex-m3
   3              		.fpu softvfp
   4              		.eabi_attribute 20, 1
   5              		.eabi_attribute 21, 1
   6              		.eabi_attribute 23, 3
   7              		.eabi_attribute 24, 1
   8              		.eabi_attribute 25, 1
   9              		.eabi_attribute 26, 1
  10              		.eabi_attribute 30, 4
  11              		.eabi_attribute 18, 4
  12              		.thumb
  13              		.file	"chevents.c"
  20 0000 F4020000 		.text
  20      02005101 
  20      00000201 
  20      FB0E0D00 
  20      01010101 
  21              	.Ltext0:
  22              		.cfi_sections	.debug_frame
  23              		.section	.text.chEvtRegisterMask,"ax",%progbits
  24              		.align	1
  25              		.global	chEvtRegisterMask
  26              		.thumb
  27              		.thumb_func
  28              		.type	chEvtRegisterMask, %function
  29              	chEvtRegisterMask:
  30              	.LFB0:
  31              		.file 1 "../chibios/os/kernel/src/chevents.c"
  32              		.loc 1 82 0
  33              		.cfi_startproc
  34              		@ args = 0, pretend = 0, frame = 0
  35              		@ frame_needed = 0, uses_anonymous_args = 0
  36              	.LVL0:
  37 0000 70B5     		push	{r4, r5, r6, lr}
  38              	.LCFI0:
  39              		.cfi_def_cfa_offset 16
  40              		.loc 1 82 0
  41 0002 0C46     		mov	r4, r1
  42              		.cfi_offset 14, -4
  43              		.cfi_offset 6, -8
  44              		.cfi_offset 5, -12
  45              		.cfi_offset 4, -16
  46 0004 1646     		mov	r6, r2
  47              		.loc 1 84 0
  48 0006 0546     		mov	r5, r0
  49 0008 00B1     		cbz	r0, .L2
  50              		.loc 1 84 0 is_stmt 0 discriminator 2
  51 000a 11B9     		cbnz	r1, .L3
  52              	.L2:
  53              		.loc 1 84 0 discriminator 1
ARM GAS  /tmp/ccc9VKF2.s 			page 2


  54 000c 0948     		ldr	r0, .L4
  55              	.LVL1:
  56 000e FFF7FEFF 		bl	chDbgPanic
  57              	.LVL2:
  58              	.L3:
  59              		.loc 1 86 0 is_stmt 1
  60              	@ 86 "../chibios/os/kernel/src/chevents.c" 1
  61 0012 FFF7FEFF 		bl      _port_lock
  62              	@ 0 "" 2
  63              		.thumb
  64 0016 FFF7FEFF 		bl	dbg_check_lock
  65              		.loc 1 87 0
  66 001a 2B68     		ldr	r3, [r5, #0]
  67 001c 2360     		str	r3, [r4, #0]
  68              		.loc 1 89 0
  69 001e 064B     		ldr	r3, .L4+4
  70              		.loc 1 88 0
  71 0020 2C60     		str	r4, [r5, #0]
  72              		.loc 1 89 0
  73 0022 DB69     		ldr	r3, [r3, #28]
  74              		.loc 1 90 0
  75 0024 A660     		str	r6, [r4, #8]
  76              		.loc 1 89 0
  77 0026 6360     		str	r3, [r4, #4]
  78              		.loc 1 91 0
  79 0028 FFF7FEFF 		bl	dbg_check_unlock
  80              	@ 91 "../chibios/os/kernel/src/chevents.c" 1
  81 002c FFF7FEFF 		bl      _port_unlock
  82              	@ 0 "" 2
  83              		.loc 1 92 0
  84              		.thumb
  85 0030 70BD     		pop	{r4, r5, r6, pc}
  86              	.L5:
  87 0032 00BF     		.align	2
  88              	.L4:
  89 0034 00000000 		.word	.LC0
  90 0038 00000000 		.word	rlist
  91              		.cfi_endproc
  92              	.LFE0:
  93              		.size	chEvtRegisterMask, .-chEvtRegisterMask
  94              		.section	.text.chEvtUnregister,"ax",%progbits
  95              		.align	1
  96              		.global	chEvtUnregister
  97              		.thumb
  98              		.thumb_func
  99              		.type	chEvtUnregister, %function
 100              	chEvtUnregister:
 101              	.LFB1:
 102              		.loc 1 107 0
 103              		.cfi_startproc
 104              		@ args = 0, pretend = 0, frame = 0
 105              		@ frame_needed = 0, uses_anonymous_args = 0
 106              	.LVL3:
 107 0000 38B5     		push	{r3, r4, r5, lr}
 108              	.LCFI1:
 109              		.cfi_def_cfa_offset 16
 110              		.loc 1 107 0
ARM GAS  /tmp/ccc9VKF2.s 			page 3


 111 0002 0C46     		mov	r4, r1
 112              		.cfi_offset 14, -4
 113              		.cfi_offset 5, -8
 114              		.cfi_offset 4, -12
 115              		.cfi_offset 3, -16
 116              		.loc 1 110 0
 117 0004 0546     		mov	r5, r0
 118 0006 00B1     		cbz	r0, .L7
 119              		.loc 1 110 0 is_stmt 0 discriminator 2
 120 0008 11B9     		cbnz	r1, .L8
 121              	.L7:
 122              		.loc 1 110 0 discriminator 1
 123 000a 0B48     		ldr	r0, .L13
 124              	.LVL4:
 125 000c FFF7FEFF 		bl	chDbgPanic
 126              	.LVL5:
 127              	.L8:
 128              		.loc 1 113 0 is_stmt 1
 129              	@ 113 "../chibios/os/kernel/src/chevents.c" 1
 130 0010 FFF7FEFF 		bl      _port_lock
 131              	@ 0 "" 2
 132              		.thumb
 133 0014 FFF7FEFF 		bl	dbg_check_lock
 134              		.loc 1 112 0
 135 0018 2B46     		mov	r3, r5
 136              		.loc 1 114 0
 137 001a 05E0     		b	.L9
 138              	.LVL6:
 139              	.L11:
 140              		.loc 1 115 0
 141 001c A242     		cmp	r2, r4
 142 001e 02D1     		bne	.L12
 143              		.loc 1 116 0
 144 0020 2268     		ldr	r2, [r4, #0]
 145 0022 1A60     		str	r2, [r3, #0]
 146              		.loc 1 117 0
 147 0024 03E0     		b	.L10
 148              	.L12:
 149              		.loc 1 115 0
 150 0026 1346     		mov	r3, r2
 151              	.LVL7:
 152              	.L9:
 153              		.loc 1 114 0 discriminator 1
 154 0028 1A68     		ldr	r2, [r3, #0]
 155 002a AA42     		cmp	r2, r5
 156 002c F6D1     		bne	.L11
 157              	.L10:
 158              		.loc 1 121 0
 159 002e FFF7FEFF 		bl	dbg_check_unlock
 160              	.LVL8:
 161              	@ 121 "../chibios/os/kernel/src/chevents.c" 1
 162 0032 FFF7FEFF 		bl      _port_unlock
 163              	@ 0 "" 2
 164              		.loc 1 122 0
 165              		.thumb
 166 0036 38BD     		pop	{r3, r4, r5, pc}
 167              	.L14:
ARM GAS  /tmp/ccc9VKF2.s 			page 4


 168              		.align	2
 169              	.L13:
 170 0038 16000000 		.word	.LC1
 171              		.cfi_endproc
 172              	.LFE1:
 173              		.size	chEvtUnregister, .-chEvtUnregister
 174              		.section	.text.chEvtClearFlags,"ax",%progbits
 175              		.align	1
 176              		.global	chEvtClearFlags
 177              		.thumb
 178              		.thumb_func
 179              		.type	chEvtClearFlags, %function
 180              	chEvtClearFlags:
 181              	.LFB2:
 182              		.loc 1 132 0
 183              		.cfi_startproc
 184              		@ args = 0, pretend = 0, frame = 0
 185              		@ frame_needed = 0, uses_anonymous_args = 0
 186              	.LVL9:
 187 0000 38B5     		push	{r3, r4, r5, lr}
 188              	.LCFI2:
 189              		.cfi_def_cfa_offset 16
 190              		.loc 1 132 0
 191 0002 0546     		mov	r5, r0
 192              		.cfi_offset 14, -4
 193              		.cfi_offset 5, -8
 194              		.cfi_offset 4, -12
 195              		.cfi_offset 3, -16
 196              		.loc 1 135 0
 197              	@ 135 "../chibios/os/kernel/src/chevents.c" 1
 198 0004 FFF7FEFF 		bl      _port_lock
 199              	@ 0 "" 2
 200              		.thumb
 201 0008 FFF7FEFF 		bl	dbg_check_lock
 202              	.LVL10:
 203              		.loc 1 137 0
 204 000c 064B     		ldr	r3, .L16
 205 000e DB69     		ldr	r3, [r3, #28]
 206 0010 DC6B     		ldr	r4, [r3, #60]
 207              	.LVL11:
 208              		.loc 1 138 0
 209 0012 24EA0502 		bic	r2, r4, r5
 210 0016 DA63     		str	r2, [r3, #60]
 211              		.loc 1 140 0
 212 0018 FFF7FEFF 		bl	dbg_check_unlock
 213              	@ 140 "../chibios/os/kernel/src/chevents.c" 1
 214 001c FFF7FEFF 		bl      _port_unlock
 215              	@ 0 "" 2
 216              		.loc 1 142 0
 217              		.thumb
 218 0020 05EA0400 		and	r0, r5, r4
 219 0024 38BD     		pop	{r3, r4, r5, pc}
 220              	.L17:
 221 0026 00BF     		.align	2
 222              	.L16:
 223 0028 00000000 		.word	rlist
 224              		.cfi_endproc
ARM GAS  /tmp/ccc9VKF2.s 			page 5


 225              	.LFE2:
 226              		.size	chEvtClearFlags, .-chEvtClearFlags
 227              		.section	.text.chEvtAddFlags,"ax",%progbits
 228              		.align	1
 229              		.global	chEvtAddFlags
 230              		.thumb
 231              		.thumb_func
 232              		.type	chEvtAddFlags, %function
 233              	chEvtAddFlags:
 234              	.LFB3:
 235              		.loc 1 153 0
 236              		.cfi_startproc
 237              		@ args = 0, pretend = 0, frame = 0
 238              		@ frame_needed = 0, uses_anonymous_args = 0
 239              	.LVL12:
 240 0000 10B5     		push	{r4, lr}
 241              	.LCFI3:
 242              		.cfi_def_cfa_offset 8
 243              		.loc 1 153 0
 244 0002 0446     		mov	r4, r0
 245              		.cfi_offset 14, -4
 246              		.cfi_offset 4, -8
 247              		.loc 1 155 0
 248              	@ 155 "../chibios/os/kernel/src/chevents.c" 1
 249 0004 FFF7FEFF 		bl      _port_lock
 250              	@ 0 "" 2
 251              		.thumb
 252 0008 FFF7FEFF 		bl	dbg_check_lock
 253              	.LVL13:
 254              		.loc 1 157 0
 255 000c 054B     		ldr	r3, .L19
 256 000e DB69     		ldr	r3, [r3, #28]
 257 0010 DA6B     		ldr	r2, [r3, #60]
 258 0012 1443     		orrs	r4, r4, r2
 259              	.LVL14:
 260 0014 DC63     		str	r4, [r3, #60]
 261              	.LVL15:
 262              		.loc 1 159 0
 263 0016 FFF7FEFF 		bl	dbg_check_unlock
 264              	@ 159 "../chibios/os/kernel/src/chevents.c" 1
 265 001a FFF7FEFF 		bl      _port_unlock
 266              	@ 0 "" 2
 267              		.loc 1 161 0
 268              		.thumb
 269 001e 2046     		mov	r0, r4
 270 0020 10BD     		pop	{r4, pc}
 271              	.L20:
 272 0022 00BF     		.align	2
 273              	.L19:
 274 0024 00000000 		.word	rlist
 275              		.cfi_endproc
 276              	.LFE3:
 277              		.size	chEvtAddFlags, .-chEvtAddFlags
 278              		.section	.text.chEvtSignalFlagsI,"ax",%progbits
 279              		.align	1
 280              		.global	chEvtSignalFlagsI
 281              		.thumb
ARM GAS  /tmp/ccc9VKF2.s 			page 6


 282              		.thumb_func
 283              		.type	chEvtSignalFlagsI, %function
 284              	chEvtSignalFlagsI:
 285              	.LFB5:
 286              		.loc 1 193 0
 287              		.cfi_startproc
 288              		@ args = 0, pretend = 0, frame = 0
 289              		@ frame_needed = 0, uses_anonymous_args = 0
 290              	.LVL16:
 291 0000 38B5     		push	{r3, r4, r5, lr}
 292              	.LCFI4:
 293              		.cfi_def_cfa_offset 16
 294              		.loc 1 193 0
 295 0002 0446     		mov	r4, r0
 296              		.cfi_offset 14, -4
 297              		.cfi_offset 5, -8
 298              		.cfi_offset 4, -12
 299              		.cfi_offset 3, -16
 300 0004 0D46     		mov	r5, r1
 301              		.loc 1 195 0
 302 0006 FFF7FEFF 		bl	chDbgCheckClassI
 303              	.LVL17:
 304              		.loc 1 196 0
 305 000a 14B9     		cbnz	r4, .L22
 306              		.loc 1 196 0 is_stmt 0 discriminator 1
 307 000c 0C48     		ldr	r0, .L26
 308 000e FFF7FEFF 		bl	chDbgPanic
 309              	.L22:
 310              		.loc 1 198 0 is_stmt 1
 311 0012 E36B     		ldr	r3, [r4, #60]
 312 0014 1D43     		orrs	r5, r5, r3
 313              	.LVL18:
 314              		.loc 1 200 0
 315 0016 94F82030 		ldrb	r3, [r4, #32]	@ zero_extendqisi2
 316              		.loc 1 198 0
 317 001a E563     		str	r5, [r4, #60]
 318              		.loc 1 200 0
 319 001c 082B     		cmp	r3, #8
 320 001e 03D1     		bne	.L23
 321              		.loc 1 201 0 discriminator 1
 322 0020 A36A     		ldr	r3, [r4, #40]
 323              		.loc 1 200 0 discriminator 1
 324 0022 1D42     		tst	r5, r3
 325 0024 06D1     		bne	.L24
 326 0026 38BD     		pop	{r3, r4, r5, pc}
 327              	.L23:
 328              		.loc 1 201 0
 329 0028 092B     		cmp	r3, #9
 330 002a 08D1     		bne	.L21
 331              		.loc 1 203 0
 332 002c A36A     		ldr	r3, [r4, #40]
 333 002e 1D40     		ands	r5, r5, r3
 334              		.loc 1 202 0
 335 0030 9D42     		cmp	r5, r3
 336 0032 04D1     		bne	.L21
 337              	.L24:
 338              		.loc 1 204 0
ARM GAS  /tmp/ccc9VKF2.s 			page 7


 339 0034 2046     		mov	r0, r4
 340 0036 FFF7FEFF 		bl	chSchReadyI
 341 003a 0023     		movs	r3, #0
 342 003c 8362     		str	r3, [r0, #40]
 343              	.L21:
 344 003e 38BD     		pop	{r3, r4, r5, pc}
 345              	.L27:
 346              		.align	2
 347              	.L26:
 348 0040 2A000000 		.word	.LC2
 349              		.cfi_endproc
 350              	.LFE5:
 351              		.size	chEvtSignalFlagsI, .-chEvtSignalFlagsI
 352              		.section	.text.chEvtSignalFlags,"ax",%progbits
 353              		.align	1
 354              		.global	chEvtSignalFlags
 355              		.thumb
 356              		.thumb_func
 357              		.type	chEvtSignalFlags, %function
 358              	chEvtSignalFlags:
 359              	.LFB4:
 360              		.loc 1 171 0
 361              		.cfi_startproc
 362              		@ args = 0, pretend = 0, frame = 0
 363              		@ frame_needed = 0, uses_anonymous_args = 0
 364              	.LVL19:
 365 0000 38B5     		push	{r3, r4, r5, lr}
 366              	.LCFI5:
 367              		.cfi_def_cfa_offset 16
 368              		.loc 1 171 0
 369 0002 0D46     		mov	r5, r1
 370              		.cfi_offset 14, -4
 371              		.cfi_offset 5, -8
 372              		.cfi_offset 4, -12
 373              		.cfi_offset 3, -16
 374              		.loc 1 173 0
 375 0004 0446     		mov	r4, r0
 376 0006 10B9     		cbnz	r0, .L29
 377              		.loc 1 173 0 is_stmt 0 discriminator 1
 378 0008 0848     		ldr	r0, .L30
 379              	.LVL20:
 380 000a FFF7FEFF 		bl	chDbgPanic
 381              	.LVL21:
 382              	.L29:
 383              		.loc 1 175 0 is_stmt 1
 384              	@ 175 "../chibios/os/kernel/src/chevents.c" 1
 385 000e FFF7FEFF 		bl      _port_lock
 386              	@ 0 "" 2
 387              		.thumb
 388 0012 FFF7FEFF 		bl	dbg_check_lock
 389              		.loc 1 176 0
 390 0016 2046     		mov	r0, r4
 391 0018 2946     		mov	r1, r5
 392 001a FFF7FEFF 		bl	chEvtSignalFlagsI
 393              		.loc 1 177 0
 394 001e FFF7FEFF 		bl	chSchRescheduleS
 395              		.loc 1 178 0
ARM GAS  /tmp/ccc9VKF2.s 			page 8


 396 0022 FFF7FEFF 		bl	dbg_check_unlock
 397              	@ 178 "../chibios/os/kernel/src/chevents.c" 1
 398 0026 FFF7FEFF 		bl      _port_unlock
 399              	@ 0 "" 2
 400              		.loc 1 179 0
 401              		.thumb
 402 002a 38BD     		pop	{r3, r4, r5, pc}
 403              	.L31:
 404              		.align	2
 405              	.L30:
 406 002c 3B000000 		.word	.LC3
 407              		.cfi_endproc
 408              	.LFE4:
 409              		.size	chEvtSignalFlags, .-chEvtSignalFlags
 410              		.section	.text.chEvtBroadcastFlagsI,"ax",%progbits
 411              		.align	1
 412              		.global	chEvtBroadcastFlagsI
 413              		.thumb
 414              		.thumb_func
 415              		.type	chEvtBroadcastFlagsI, %function
 416              	chEvtBroadcastFlagsI:
 417              	.LFB7:
 418              		.loc 1 245 0
 419              		.cfi_startproc
 420              		@ args = 0, pretend = 0, frame = 0
 421              		@ frame_needed = 0, uses_anonymous_args = 0
 422              	.LVL22:
 423 0000 70B5     		push	{r4, r5, r6, lr}
 424              	.LCFI6:
 425              		.cfi_def_cfa_offset 16
 426              		.loc 1 245 0
 427 0002 0546     		mov	r5, r0
 428              		.cfi_offset 14, -4
 429              		.cfi_offset 6, -8
 430              		.cfi_offset 5, -12
 431              		.cfi_offset 4, -16
 432 0004 0E46     		mov	r6, r1
 433              		.loc 1 248 0
 434 0006 FFF7FEFF 		bl	chDbgCheckClassI
 435              	.LVL23:
 436              		.loc 1 249 0
 437 000a 15B9     		cbnz	r5, .L33
 438              		.loc 1 249 0 is_stmt 0 discriminator 1
 439 000c 0748     		ldr	r0, .L36
 440 000e FFF7FEFF 		bl	chDbgPanic
 441              	.L33:
 442              		.loc 1 251 0 is_stmt 1
 443 0012 2C68     		ldr	r4, [r5, #0]
 444              	.LVL24:
 445              		.loc 1 252 0
 446 0014 06E0     		b	.L34
 447              	.LVL25:
 448              	.L35:
 449              		.loc 1 253 0
 450 0016 A168     		ldr	r1, [r4, #8]
 451 0018 6068     		ldr	r0, [r4, #4]
 452 001a 46EA0101 		orr	r1, r6, r1
ARM GAS  /tmp/ccc9VKF2.s 			page 9


 453 001e FFF7FEFF 		bl	chEvtSignalFlagsI
 454              		.loc 1 254 0
 455 0022 2468     		ldr	r4, [r4, #0]
 456              	.LVL26:
 457              	.L34:
 458              		.loc 1 252 0 discriminator 1
 459 0024 AC42     		cmp	r4, r5
 460 0026 F6D1     		bne	.L35
 461              		.loc 1 256 0
 462 0028 70BD     		pop	{r4, r5, r6, pc}
 463              	.L37:
 464 002a 00BF     		.align	2
 465              	.L36:
 466 002c 4B000000 		.word	.LC4
 467              		.cfi_endproc
 468              	.LFE7:
 469              		.size	chEvtBroadcastFlagsI, .-chEvtBroadcastFlagsI
 470              		.section	.text.chEvtBroadcastFlags,"ax",%progbits
 471              		.align	1
 472              		.global	chEvtBroadcastFlags
 473              		.thumb
 474              		.thumb_func
 475              		.type	chEvtBroadcastFlags, %function
 476              	chEvtBroadcastFlags:
 477              	.LFB6:
 478              		.loc 1 220 0
 479              		.cfi_startproc
 480              		@ args = 0, pretend = 0, frame = 0
 481              		@ frame_needed = 0, uses_anonymous_args = 0
 482              	.LVL27:
 483 0000 38B5     		push	{r3, r4, r5, lr}
 484              	.LCFI7:
 485              		.cfi_def_cfa_offset 16
 486              		.loc 1 220 0
 487 0002 0546     		mov	r5, r0
 488              		.cfi_offset 14, -4
 489              		.cfi_offset 5, -8
 490              		.cfi_offset 4, -12
 491              		.cfi_offset 3, -16
 492 0004 0C46     		mov	r4, r1
 493              		.loc 1 222 0
 494              	@ 222 "../chibios/os/kernel/src/chevents.c" 1
 495 0006 FFF7FEFF 		bl      _port_lock
 496              	@ 0 "" 2
 497              		.thumb
 498 000a FFF7FEFF 		bl	dbg_check_lock
 499              	.LVL28:
 500              		.loc 1 223 0
 501 000e 2846     		mov	r0, r5
 502 0010 2146     		mov	r1, r4
 503 0012 FFF7FEFF 		bl	chEvtBroadcastFlagsI
 504              		.loc 1 224 0
 505 0016 FFF7FEFF 		bl	chSchRescheduleS
 506              		.loc 1 225 0
 507 001a FFF7FEFF 		bl	dbg_check_unlock
 508              	@ 225 "../chibios/os/kernel/src/chevents.c" 1
 509 001e FFF7FEFF 		bl      _port_unlock
ARM GAS  /tmp/ccc9VKF2.s 			page 10


 510              	@ 0 "" 2
 511              		.loc 1 226 0
 512              		.thumb
 513 0022 38BD     		pop	{r3, r4, r5, pc}
 514              		.cfi_endproc
 515              	.LFE6:
 516              		.size	chEvtBroadcastFlags, .-chEvtBroadcastFlags
 517              		.section	.text.chEvtDispatch,"ax",%progbits
 518              		.align	1
 519              		.global	chEvtDispatch
 520              		.thumb
 521              		.thumb_func
 522              		.type	chEvtDispatch, %function
 523              	chEvtDispatch:
 524              	.LFB8:
 525              		.loc 1 267 0
 526              		.cfi_startproc
 527              		@ args = 0, pretend = 0, frame = 0
 528              		@ frame_needed = 0, uses_anonymous_args = 0
 529              	.LVL29:
 530 0000 2DE9F041 		push	{r4, r5, r6, r7, r8, lr}
 531              	.LCFI8:
 532              		.cfi_def_cfa_offset 24
 533              		.loc 1 267 0
 534 0004 0E46     		mov	r6, r1
 535              		.cfi_offset 14, -4
 536              		.cfi_offset 8, -8
 537              		.cfi_offset 7, -12
 538              		.cfi_offset 6, -16
 539              		.cfi_offset 5, -20
 540              		.cfi_offset 4, -24
 541              		.loc 1 270 0
 542 0006 0746     		mov	r7, r0
 543 0008 10B9     		cbnz	r0, .L40
 544              		.loc 1 270 0 is_stmt 0 discriminator 1
 545 000a 0E48     		ldr	r0, .L45
 546              	.LVL30:
 547 000c FFF7FEFF 		bl	chDbgPanic
 548              	.LVL31:
 549              	.L40:
 550              		.loc 1 267 0 is_stmt 1 discriminator 1
 551 0010 0024     		movs	r4, #0
 552 0012 2546     		mov	r5, r4
 553 0014 12E0     		b	.L41
 554              	.LVL32:
 555              	.L44:
 556              		.loc 1 274 0
 557 0016 4FF00108 		mov	r8, #1
 558 001a 08FA05F8 		lsl	r8, r8, r5
 559 001e 18EA060F 		tst	r8, r6
 560 0022 09D0     		beq	.L42
 561              		.loc 1 275 0
 562 0024 3B59     		ldr	r3, [r7, r4]
 563 0026 13B9     		cbnz	r3, .L43
 564              		.loc 1 275 0 is_stmt 0 discriminator 1
 565 0028 0748     		ldr	r0, .L45+4
 566 002a FFF7FEFF 		bl	chDbgPanic
ARM GAS  /tmp/ccc9VKF2.s 			page 11


 567              	.L43:
 568              		.loc 1 279 0 is_stmt 1
 569 002e 3B59     		ldr	r3, [r7, r4]
 570 0030 2846     		mov	r0, r5
 571              		.loc 1 278 0
 572 0032 26EA0806 		bic	r6, r6, r8
 573              	.LVL33:
 574              		.loc 1 279 0
 575 0036 9847     		blx	r3
 576              	.L42:
 577              		.loc 1 281 0
 578 0038 0135     		adds	r5, r5, #1
 579              	.LVL34:
 580 003a 0434     		adds	r4, r4, #4
 581              	.LVL35:
 582              	.L41:
 583              		.loc 1 273 0 discriminator 1
 584 003c 002E     		cmp	r6, #0
 585 003e EAD1     		bne	.L44
 586              		.loc 1 283 0
 587 0040 BDE8F081 		pop	{r4, r5, r6, r7, r8, pc}
 588              	.L46:
 589              		.align	2
 590              	.L45:
 591 0044 63000000 		.word	.LC5
 592 0048 75000000 		.word	.LC6
 593              		.cfi_endproc
 594              	.LFE8:
 595              		.size	chEvtDispatch, .-chEvtDispatch
 596              		.section	.text.chEvtWaitOneTimeout,"ax",%progbits
 597              		.align	1
 598              		.global	chEvtWaitOneTimeout
 599              		.thumb
 600              		.thumb_func
 601              		.type	chEvtWaitOneTimeout, %function
 602              	chEvtWaitOneTimeout:
 603              	.LFB9:
 604              		.loc 1 398 0
 605              		.cfi_startproc
 606              		@ args = 0, pretend = 0, frame = 0
 607              		@ frame_needed = 0, uses_anonymous_args = 0
 608              	.LVL36:
 609 0000 F8B5     		push	{r3, r4, r5, r6, r7, lr}
 610              	.LCFI9:
 611              		.cfi_def_cfa_offset 24
 612              		.loc 1 399 0
 613 0002 164B     		ldr	r3, .L52
 614              		.cfi_offset 14, -4
 615              		.cfi_offset 7, -8
 616              		.cfi_offset 6, -12
 617              		.cfi_offset 5, -16
 618              		.cfi_offset 4, -20
 619              		.cfi_offset 3, -24
 620              		.loc 1 398 0
 621 0004 0646     		mov	r6, r0
 622              		.loc 1 399 0
 623 0006 DD69     		ldr	r5, [r3, #28]
ARM GAS  /tmp/ccc9VKF2.s 			page 12


 624              	.LVL37:
 625              		.loc 1 398 0
 626 0008 0F46     		mov	r7, r1
 627              		.loc 1 402 0
 628              	@ 402 "../chibios/os/kernel/src/chevents.c" 1
 629 000a FFF7FEFF 		bl      _port_lock
 630              	@ 0 "" 2
 631              	.LVL38:
 632              		.thumb
 633 000e FFF7FEFF 		bl	dbg_check_lock
 634              	.LVL39:
 635              		.loc 1 404 0
 636 0012 EC6B     		ldr	r4, [r5, #60]
 637              	.LVL40:
 638 0014 3440     		ands	r4, r6, r4
 639 0016 14D1     		bne	.L48
 640              		.loc 1 405 0
 641 0018 27B9     		cbnz	r7, .L49
 642              		.loc 1 406 0
 643 001a FFF7FEFF 		bl	dbg_check_unlock
 644              	.LVL41:
 645              	@ 406 "../chibios/os/kernel/src/chevents.c" 1
 646 001e FFF7FEFF 		bl      _port_unlock
 647              	@ 0 "" 2
 648              		.loc 1 407 0
 649              		.thumb
 650 0022 18E0     		b	.L50
 651              	.L49:
 652              		.loc 1 410 0
 653 0024 0820     		movs	r0, #8
 654              		.loc 1 409 0
 655 0026 AE62     		str	r6, [r5, #40]
 656              		.loc 1 410 0
 657 0028 3946     		mov	r1, r7
 658 002a FFF7FEFF 		bl	chSchGoSleepTimeoutS
 659 002e 0028     		cmp	r0, #0
 660 0030 04DA     		bge	.L51
 661              		.loc 1 411 0
 662 0032 FFF7FEFF 		bl	dbg_check_unlock
 663              	@ 411 "../chibios/os/kernel/src/chevents.c" 1
 664 0036 FFF7FEFF 		bl      _port_unlock
 665              	@ 0 "" 2
 666              		.loc 1 412 0
 667              		.thumb
 668 003a 0CE0     		b	.L50
 669              	.L51:
 670              		.loc 1 414 0
 671 003c EC6B     		ldr	r4, [r5, #60]
 672              	.LVL42:
 673 003e 06EA0404 		and	r4, r6, r4
 674              	.LVL43:
 675              	.L48:
 676              		.loc 1 416 0
 677 0042 6342     		negs	r3, r4
 678 0044 1C40     		ands	r4, r4, r3
 679              	.LVL44:
 680              		.loc 1 417 0
ARM GAS  /tmp/ccc9VKF2.s 			page 13


 681 0046 EB6B     		ldr	r3, [r5, #60]
 682 0048 23EA0403 		bic	r3, r3, r4
 683 004c EB63     		str	r3, [r5, #60]
 684              		.loc 1 419 0
 685 004e FFF7FEFF 		bl	dbg_check_unlock
 686              	@ 419 "../chibios/os/kernel/src/chevents.c" 1
 687 0052 FFF7FEFF 		bl      _port_unlock
 688              	@ 0 "" 2
 689              		.thumb
 690              	.L50:
 691              		.loc 1 421 0
 692 0056 2046     		mov	r0, r4
 693 0058 F8BD     		pop	{r3, r4, r5, r6, r7, pc}
 694              	.L53:
 695 005a 00BF     		.align	2
 696              	.L52:
 697 005c 00000000 		.word	rlist
 698              		.cfi_endproc
 699              	.LFE9:
 700              		.size	chEvtWaitOneTimeout, .-chEvtWaitOneTimeout
 701              		.section	.text.chEvtWaitAnyTimeout,"ax",%progbits
 702              		.align	1
 703              		.global	chEvtWaitAnyTimeout
 704              		.thumb
 705              		.thumb_func
 706              		.type	chEvtWaitAnyTimeout, %function
 707              	chEvtWaitAnyTimeout:
 708              	.LFB10:
 709              		.loc 1 441 0
 710              		.cfi_startproc
 711              		@ args = 0, pretend = 0, frame = 0
 712              		@ frame_needed = 0, uses_anonymous_args = 0
 713              	.LVL45:
 714 0000 F8B5     		push	{r3, r4, r5, r6, r7, lr}
 715              	.LCFI10:
 716              		.cfi_def_cfa_offset 24
 717              		.loc 1 442 0
 718 0002 154B     		ldr	r3, .L59
 719              		.cfi_offset 14, -4
 720              		.cfi_offset 7, -8
 721              		.cfi_offset 6, -12
 722              		.cfi_offset 5, -16
 723              		.cfi_offset 4, -20
 724              		.cfi_offset 3, -24
 725              		.loc 1 441 0
 726 0004 0546     		mov	r5, r0
 727              		.loc 1 442 0
 728 0006 DC69     		ldr	r4, [r3, #28]
 729              	.LVL46:
 730              		.loc 1 441 0
 731 0008 0F46     		mov	r7, r1
 732              		.loc 1 445 0
 733              	@ 445 "../chibios/os/kernel/src/chevents.c" 1
 734 000a FFF7FEFF 		bl      _port_lock
 735              	@ 0 "" 2
 736              	.LVL47:
 737              		.thumb
ARM GAS  /tmp/ccc9VKF2.s 			page 14


 738 000e FFF7FEFF 		bl	dbg_check_lock
 739              	.LVL48:
 740              		.loc 1 447 0
 741 0012 E66B     		ldr	r6, [r4, #60]
 742              	.LVL49:
 743 0014 2E40     		ands	r6, r5, r6
 744 0016 14D1     		bne	.L55
 745              		.loc 1 448 0
 746 0018 27B9     		cbnz	r7, .L56
 747              		.loc 1 449 0
 748 001a FFF7FEFF 		bl	dbg_check_unlock
 749              	.LVL50:
 750              	@ 449 "../chibios/os/kernel/src/chevents.c" 1
 751 001e FFF7FEFF 		bl      _port_unlock
 752              	@ 0 "" 2
 753              		.loc 1 450 0
 754              		.thumb
 755 0022 16E0     		b	.L57
 756              	.L56:
 757              		.loc 1 453 0
 758 0024 0820     		movs	r0, #8
 759              		.loc 1 452 0
 760 0026 A562     		str	r5, [r4, #40]
 761              		.loc 1 453 0
 762 0028 3946     		mov	r1, r7
 763 002a FFF7FEFF 		bl	chSchGoSleepTimeoutS
 764 002e 0028     		cmp	r0, #0
 765 0030 04DA     		bge	.L58
 766              		.loc 1 454 0
 767 0032 FFF7FEFF 		bl	dbg_check_unlock
 768              	@ 454 "../chibios/os/kernel/src/chevents.c" 1
 769 0036 FFF7FEFF 		bl      _port_unlock
 770              	@ 0 "" 2
 771              		.loc 1 455 0
 772              		.thumb
 773 003a 0AE0     		b	.L57
 774              	.L58:
 775              		.loc 1 457 0
 776 003c E66B     		ldr	r6, [r4, #60]
 777              	.LVL51:
 778 003e 05EA0606 		and	r6, r5, r6
 779              	.LVL52:
 780              	.L55:
 781              		.loc 1 459 0
 782 0042 E36B     		ldr	r3, [r4, #60]
 783 0044 23EA0603 		bic	r3, r3, r6
 784 0048 E363     		str	r3, [r4, #60]
 785              		.loc 1 461 0
 786 004a FFF7FEFF 		bl	dbg_check_unlock
 787              	@ 461 "../chibios/os/kernel/src/chevents.c" 1
 788 004e FFF7FEFF 		bl      _port_unlock
 789              	@ 0 "" 2
 790              		.thumb
 791              	.L57:
 792              		.loc 1 463 0
 793 0052 3046     		mov	r0, r6
 794 0054 F8BD     		pop	{r3, r4, r5, r6, r7, pc}
ARM GAS  /tmp/ccc9VKF2.s 			page 15


 795              	.L60:
 796 0056 00BF     		.align	2
 797              	.L59:
 798 0058 00000000 		.word	rlist
 799              		.cfi_endproc
 800              	.LFE10:
 801              		.size	chEvtWaitAnyTimeout, .-chEvtWaitAnyTimeout
 802              		.section	.text.chEvtWaitAllTimeout,"ax",%progbits
 803              		.align	1
 804              		.global	chEvtWaitAllTimeout
 805              		.thumb
 806              		.thumb_func
 807              		.type	chEvtWaitAllTimeout, %function
 808              	chEvtWaitAllTimeout:
 809              	.LFB11:
 810              		.loc 1 482 0
 811              		.cfi_startproc
 812              		@ args = 0, pretend = 0, frame = 0
 813              		@ frame_needed = 0, uses_anonymous_args = 0
 814              	.LVL53:
 815              		.loc 1 483 0
 816 0000 154B     		ldr	r3, .L65
 817              		.loc 1 482 0
 818 0002 70B5     		push	{r4, r5, r6, lr}
 819              	.LCFI11:
 820              		.cfi_def_cfa_offset 16
 821              		.loc 1 483 0
 822 0004 DD69     		ldr	r5, [r3, #28]
 823              		.cfi_offset 14, -4
 824              		.cfi_offset 6, -8
 825              		.cfi_offset 5, -12
 826              		.cfi_offset 4, -16
 827              	.LVL54:
 828              		.loc 1 482 0
 829 0006 0446     		mov	r4, r0
 830 0008 0E46     		mov	r6, r1
 831              		.loc 1 485 0
 832              	@ 485 "../chibios/os/kernel/src/chevents.c" 1
 833 000a FFF7FEFF 		bl      _port_lock
 834              	@ 0 "" 2
 835              	.LVL55:
 836              		.thumb
 837 000e FFF7FEFF 		bl	dbg_check_lock
 838              	.LVL56:
 839              		.loc 1 487 0
 840 0012 EB6B     		ldr	r3, [r5, #60]
 841 0014 04EA0303 		and	r3, r4, r3
 842 0018 A342     		cmp	r3, r4
 843 001a 13D0     		beq	.L62
 844              		.loc 1 488 0
 845 001c 2EB9     		cbnz	r6, .L63
 846              		.loc 1 489 0
 847 001e FFF7FEFF 		bl	dbg_check_unlock
 848              	@ 489 "../chibios/os/kernel/src/chevents.c" 1
 849 0022 FFF7FEFF 		bl      _port_unlock
 850              	@ 0 "" 2
 851              		.loc 1 490 0
ARM GAS  /tmp/ccc9VKF2.s 			page 16


 852              		.thumb
 853 0026 3446     		mov	r4, r6
 854              	.LVL57:
 855 0028 14E0     		b	.L64
 856              	.LVL58:
 857              	.L63:
 858              		.loc 1 493 0
 859 002a 0920     		movs	r0, #9
 860              		.loc 1 492 0
 861 002c AC62     		str	r4, [r5, #40]
 862              		.loc 1 493 0
 863 002e 3146     		mov	r1, r6
 864 0030 FFF7FEFF 		bl	chSchGoSleepTimeoutS
 865 0034 0028     		cmp	r0, #0
 866 0036 05DA     		bge	.L62
 867              		.loc 1 494 0
 868 0038 FFF7FEFF 		bl	dbg_check_unlock
 869              	@ 494 "../chibios/os/kernel/src/chevents.c" 1
 870 003c FFF7FEFF 		bl      _port_unlock
 871              	@ 0 "" 2
 872              		.loc 1 495 0
 873              		.thumb
 874 0040 0024     		movs	r4, #0
 875              	.LVL59:
 876 0042 07E0     		b	.L64
 877              	.LVL60:
 878              	.L62:
 879              		.loc 1 498 0
 880 0044 EB6B     		ldr	r3, [r5, #60]
 881 0046 23EA0403 		bic	r3, r3, r4
 882 004a EB63     		str	r3, [r5, #60]
 883              		.loc 1 500 0
 884 004c FFF7FEFF 		bl	dbg_check_unlock
 885              	@ 500 "../chibios/os/kernel/src/chevents.c" 1
 886 0050 FFF7FEFF 		bl      _port_unlock
 887              	@ 0 "" 2
 888              	.LVL61:
 889              		.thumb
 890              	.L64:
 891              		.loc 1 502 0
 892 0054 2046     		mov	r0, r4
 893 0056 70BD     		pop	{r4, r5, r6, pc}
 894              	.L66:
 895              		.align	2
 896              	.L65:
 897 0058 00000000 		.word	rlist
 898              		.cfi_endproc
 899              	.LFE11:
 900              		.size	chEvtWaitAllTimeout, .-chEvtWaitAllTimeout
 901              		.section	.rodata.str1.1,"aMS",%progbits,1
 902              	.LC0:
 903 0000 22636845 		.ascii	"\"chEvtRegisterMask\"()\000"
 903      76745265 
 903      67697374 
 903      65724D61 
 903      736B2228 
 904              	.LC1:
ARM GAS  /tmp/ccc9VKF2.s 			page 17


 905 0016 22636845 		.ascii	"\"chEvtUnregister\"()\000"
 905      7674556E 
 905      72656769 
 905      73746572 
 905      22282900 
 906              	.LC2:
 907 002a 22636845 		.ascii	"\"chEvtSignalI\"()\000"
 907      76745369 
 907      676E616C 
 907      49222829 
 907      00
 908              	.LC3:
 909 003b 22636845 		.ascii	"\"chEvtSignal\"()\000"
 909      76745369 
 909      676E616C 
 909      22282900 
 910              	.LC4:
 911 004b 22636845 		.ascii	"\"chEvtBroadcastMaskI\"()\000"
 911      76744272 
 911      6F616463 
 911      6173744D 
 911      61736B49 
 912              	.LC5:
 913 0063 22636845 		.ascii	"\"chEvtDispatch\"()\000"
 913      76744469 
 913      73706174 
 913      63682228 
 913      2900
 914              	.LC6:
 915 0075 63684576 		.ascii	"chEvtDispatch(), #1\000"
 915      74446973 
 915      70617463 
 915      6828292C 
 915      20233100 
 916              		.text
 917              	.Letext0: