ARM GAS  /tmp/ccc9VKF2.s 			page 1


   1              		.syntax unified
   2              		.cpu cortex-m3
   3              		.fpu softvfp
   4              		.eabi_attribute 20, 1
   5              		.eabi_attribute 21, 1
   6              		.eabi_attribute 23, 3
   7              		.eabi_attribute 24, 1
   8              		.eabi_attribute 25, 1
   9              		.eabi_attribute 26, 1
  10              		.eabi_attribute 30, 4
  11              		.eabi_attribute 18, 4
  12              		.thumb
  13              		.file	"chevents.c"
  14              		.section	.debug_abbrev,"",%progbits
  15              	.Ldebug_abbrev0:
  16              		.section	.debug_info,"",%progbits
  17              	.Ldebug_info0:
  18              		.section	.debug_line,"",%progbits
  19              	.Ldebug_line0:
  20 0000 F4020000 		.text
  20      02005101 
  20      00000201 
  20      FB0E0D00 
  20      01010101 
  21              	.Ltext0:
  22              		.cfi_sections	.debug_frame
  23              		.section	.text.chEvtRegisterMask,"ax",%progbits
  24              		.align	1
  25              		.global	chEvtRegisterMask
  26              		.thumb
  27              		.thumb_func
  28              		.type	chEvtRegisterMask, %function
  29              	chEvtRegisterMask:
  30              	.LFB0:
  31              		.file 1 "../chibios/os/kernel/src/chevents.c"
  32              		.loc 1 82 0
  33              		.cfi_startproc
  34              		@ args = 0, pretend = 0, frame = 0
  35              		@ frame_needed = 0, uses_anonymous_args = 0
  36              	.LVL0:
  37 0000 70B5     		push	{r4, r5, r6, lr}
  38              	.LCFI0:
  39              		.cfi_def_cfa_offset 16
  40              		.loc 1 82 0
  41 0002 0C46     		mov	r4, r1
  42              		.cfi_offset 14, -4
  43              		.cfi_offset 6, -8
  44              		.cfi_offset 5, -12
  45              		.cfi_offset 4, -16
  46 0004 1646     		mov	r6, r2
  47              		.loc 1 84 0
  48 0006 0546     		mov	r5, r0
  49 0008 00B1     		cbz	r0, .L2
  50              		.loc 1 84 0 is_stmt 0 discriminator 2
  51 000a 11B9     		cbnz	r1, .L3
  52              	.L2:
  53              		.loc 1 84 0 discriminator 1
ARM GAS  /tmp/ccc9VKF2.s 			page 2


  54 000c 0948     		ldr	r0, .L4
  55              	.LVL1:
  56 000e FFF7FEFF 		bl	chDbgPanic
  57              	.LVL2:
  58              	.L3:
  59              		.loc 1 86 0 is_stmt 1
  60              	@ 86 "../chibios/os/kernel/src/chevents.c" 1
  61 0012 FFF7FEFF 		bl      _port_lock
  62              	@ 0 "" 2
  63              		.thumb
  64 0016 FFF7FEFF 		bl	dbg_check_lock
  65              		.loc 1 87 0
  66 001a 2B68     		ldr	r3, [r5, #0]
  67 001c 2360     		str	r3, [r4, #0]
  68              		.loc 1 89 0
  69 001e 064B     		ldr	r3, .L4+4
  70              		.loc 1 88 0
  71 0020 2C60     		str	r4, [r5, #0]
  72              		.loc 1 89 0
  73 0022 DB69     		ldr	r3, [r3, #28]
  74              		.loc 1 90 0
  75 0024 A660     		str	r6, [r4, #8]
  76              		.loc 1 89 0
  77 0026 6360     		str	r3, [r4, #4]
  78              		.loc 1 91 0
  79 0028 FFF7FEFF 		bl	dbg_check_unlock
  80              	@ 91 "../chibios/os/kernel/src/chevents.c" 1
  81 002c FFF7FEFF 		bl      _port_unlock
  82              	@ 0 "" 2
  83              		.loc 1 92 0
  84              		.thumb
  85 0030 70BD     		pop	{r4, r5, r6, pc}
  86              	.L5:
  87 0032 00BF     		.align	2
  88              	.L4:
  89 0034 00000000 		.word	.LC0
  90 0038 00000000 		.word	rlist
  91              		.cfi_endproc
  92              	.LFE0:
  93              		.size	chEvtRegisterMask, .-chEvtRegisterMask
  94              		.section	.text.chEvtUnregister,"ax",%progbits
  95              		.align	1
  96              		.global	chEvtUnregister
  97              		.thumb
  98              		.thumb_func
  99              		.type	chEvtUnregister, %function
 100              	chEvtUnregister:
 101              	.LFB1:
 102              		.loc 1 107 0
 103              		.cfi_startproc
 104              		@ args = 0, pretend = 0, frame = 0
 105              		@ frame_needed = 0, uses_anonymous_args = 0
 106              	.LVL3:
 107 0000 38B5     		push	{r3, r4, r5, lr}
 108              	.LCFI1:
 109              		.cfi_def_cfa_offset 16
 110              		.loc 1 107 0
ARM GAS  /tmp/ccc9VKF2.s 			page 3


 111 0002 0C46     		mov	r4, r1
 112              		.cfi_offset 14, -4
 113              		.cfi_offset 5, -8
 114              		.cfi_offset 4, -12
 115              		.cfi_offset 3, -16
 116              		.loc 1 110 0
 117 0004 0546     		mov	r5, r0
 118 0006 00B1     		cbz	r0, .L7
 119              		.loc 1 110 0 is_stmt 0 discriminator 2
 120 0008 11B9     		cbnz	r1, .L8
 121              	.L7:
 122              		.loc 1 110 0 discriminator 1
 123 000a 0B48     		ldr	r0, .L13
 124              	.LVL4:
 125 000c FFF7FEFF 		bl	chDbgPanic
 126              	.LVL5:
 127              	.L8:
 128              		.loc 1 113 0 is_stmt 1
 129              	@ 113 "../chibios/os/kernel/src/chevents.c" 1
 130 0010 FFF7FEFF 		bl      _port_lock
 131              	@ 0 "" 2
 132              		.thumb
 133 0014 FFF7FEFF 		bl	dbg_check_lock
 134              		.loc 1 112 0
 135 0018 2B46     		mov	r3, r5
 136              		.loc 1 114 0
 137 001a 05E0     		b	.L9
 138              	.LVL6:
 139              	.L11:
 140              		.loc 1 115 0
 141 001c A242     		cmp	r2, r4
 142 001e 02D1     		bne	.L12
 143              		.loc 1 116 0
 144 0020 2268     		ldr	r2, [r4, #0]
 145 0022 1A60     		str	r2, [r3, #0]
 146              		.loc 1 117 0
 147 0024 03E0     		b	.L10
 148              	.L12:
 149              		.loc 1 115 0
 150 0026 1346     		mov	r3, r2
 151              	.LVL7:
 152              	.L9:
 153              		.loc 1 114 0 discriminator 1
 154 0028 1A68     		ldr	r2, [r3, #0]
 155 002a AA42     		cmp	r2, r5
 156 002c F6D1     		bne	.L11
 157              	.L10:
 158              		.loc 1 121 0
 159 002e FFF7FEFF 		bl	dbg_check_unlock
 160              	.LVL8:
 161              	@ 121 "../chibios/os/kernel/src/chevents.c" 1
 162 0032 FFF7FEFF 		bl      _port_unlock
 163              	@ 0 "" 2
 164              		.loc 1 122 0
 165              		.thumb
 166 0036 38BD     		pop	{r3, r4, r5, pc}
 167              	.L14:
ARM GAS  /tmp/ccc9VKF2.s 			page 4


 168              		.align	2
 169              	.L13:
 170 0038 16000000 		.word	.LC1
 171              		.cfi_endproc
 172              	.LFE1:
 173              		.size	chEvtUnregister, .-chEvtUnregister
 174              		.section	.text.chEvtClearFlags,"ax",%progbits
 175              		.align	1
 176              		.global	chEvtClearFlags
 177              		.thumb
 178              		.thumb_func
 179              		.type	chEvtClearFlags, %function
 180              	chEvtClearFlags:
 181              	.LFB2:
 182              		.loc 1 132 0
 183              		.cfi_startproc
 184              		@ args = 0, pretend = 0, frame = 0
 185              		@ frame_needed = 0, uses_anonymous_args = 0
 186              	.LVL9:
 187 0000 38B5     		push	{r3, r4, r5, lr}
 188              	.LCFI2:
 189              		.cfi_def_cfa_offset 16
 190              		.loc 1 132 0
 191 0002 0546     		mov	r5, r0
 192              		.cfi_offset 14, -4
 193              		.cfi_offset 5, -8
 194              		.cfi_offset 4, -12
 195              		.cfi_offset 3, -16
 196              		.loc 1 135 0
 197              	@ 135 "../chibios/os/kernel/src/chevents.c" 1
 198 0004 FFF7FEFF 		bl      _port_lock
 199              	@ 0 "" 2
 200              		.thumb
 201 0008 FFF7FEFF 		bl	dbg_check_lock
 202              	.LVL10:
 203              		.loc 1 137 0
 204 000c 064B     		ldr	r3, .L16
 205 000e DB69     		ldr	r3, [r3, #28]
 206 0010 DC6B     		ldr	r4, [r3, #60]
 207              	.LVL11:
 208              		.loc 1 138 0
 209 0012 24EA0502 		bic	r2, r4, r5
 210 0016 DA63     		str	r2, [r3, #60]
 211              		.loc 1 140 0
 212 0018 FFF7FEFF 		bl	dbg_check_unlock
 213              	@ 140 "../chibios/os/kernel/src/chevents.c" 1
 214 001c FFF7FEFF 		bl      _port_unlock
 215              	@ 0 "" 2
 216              		.loc 1 142 0
 217              		.thumb
 218 0020 05EA0400 		and	r0, r5, r4
 219 0024 38BD     		pop	{r3, r4, r5, pc}
 220              	.L17:
 221 0026 00BF     		.align	2
 222              	.L16:
 223 0028 00000000 		.word	rlist
 224              		.cfi_endproc
ARM GAS  /tmp/ccc9VKF2.s 			page 5


 225              	.LFE2:
 226              		.size	chEvtClearFlags, .-chEvtClearFlags
 227              		.section	.text.chEvtAddFlags,"ax",%progbits
 228              		.align	1
 229              		.global	chEvtAddFlags
 230              		.thumb
 231              		.thumb_func
 232              		.type	chEvtAddFlags, %function
 233              	chEvtAddFlags:
 234              	.LFB3:
 235              		.loc 1 153 0
 236              		.cfi_startproc
 237              		@ args = 0, pretend = 0, frame = 0
 238              		@ frame_needed = 0, uses_anonymous_args = 0
 239              	.LVL12:
 240 0000 10B5     		push	{r4, lr}
 241              	.LCFI3:
 242              		.cfi_def_cfa_offset 8
 243              		.loc 1 153 0
 244 0002 0446     		mov	r4, r0
 245              		.cfi_offset 14, -4
 246              		.cfi_offset 4, -8
 247              		.loc 1 155 0
 248              	@ 155 "../chibios/os/kernel/src/chevents.c" 1
 249 0004 FFF7FEFF 		bl      _port_lock
 250              	@ 0 "" 2
 251              		.thumb
 252 0008 FFF7FEFF 		bl	dbg_check_lock
 253              	.LVL13:
 254              		.loc 1 157 0
 255 000c 054B     		ldr	r3, .L19
 256 000e DB69     		ldr	r3, [r3, #28]
 257 0010 DA6B     		ldr	r2, [r3, #60]
 258 0012 1443     		orrs	r4, r4, r2
 259              	.LVL14:
 260 0014 DC63     		str	r4, [r3, #60]
 261              	.LVL15:
 262              		.loc 1 159 0
 263 0016 FFF7FEFF 		bl	dbg_check_unlock
 264              	@ 159 "../chibios/os/kernel/src/chevents.c" 1
 265 001a FFF7FEFF 		bl      _port_unlock
 266              	@ 0 "" 2
 267              		.loc 1 161 0
 268              		.thumb
 269 001e 2046     		mov	r0, r4
 270 0020 10BD     		pop	{r4, pc}
 271              	.L20:
 272 0022 00BF     		.align	2
 273              	.L19:
 274 0024 00000000 		.word	rlist
 275              		.cfi_endproc
 276              	.LFE3:
 277              		.size	chEvtAddFlags, .-chEvtAddFlags
 278              		.section	.text.chEvtSignalFlagsI,"ax",%progbits
 279              		.align	1
 280              		.global	chEvtSignalFlagsI
 281              		.thumb
ARM GAS  /tmp/ccc9VKF2.s 			page 6


 282              		.thumb_func
 283              		.type	chEvtSignalFlagsI, %function
 284              	chEvtSignalFlagsI:
 285              	.LFB5:
 286              		.loc 1 193 0
 287              		.cfi_startproc
 288              		@ args = 0, pretend = 0, frame = 0
 289              		@ frame_needed = 0, uses_anonymous_args = 0
 290              	.LVL16:
 291 0000 38B5     		push	{r3, r4, r5, lr}
 292              	.LCFI4:
 293              		.cfi_def_cfa_offset 16
 294              		.loc 1 193 0
 295 0002 0446     		mov	r4, r0
 296              		.cfi_offset 14, -4
 297              		.cfi_offset 5, -8
 298              		.cfi_offset 4, -12
 299              		.cfi_offset 3, -16
 300 0004 0D46     		mov	r5, r1
 301              		.loc 1 195 0
 302 0006 FFF7FEFF 		bl	chDbgCheckClassI
 303              	.LVL17:
 304              		.loc 1 196 0
 305 000a 14B9     		cbnz	r4, .L22
 306              		.loc 1 196 0 is_stmt 0 discriminator 1
 307 000c 0C48     		ldr	r0, .L26
 308 000e FFF7FEFF 		bl	chDbgPanic
 309              	.L22:
 310              		.loc 1 198 0 is_stmt 1
 311 0012 E36B     		ldr	r3, [r4, #60]
 312 0014 1D43     		orrs	r5, r5, r3
 313              	.LVL18:
 314              		.loc 1 200 0
 315 0016 94F82030 		ldrb	r3, [r4, #32]	@ zero_extendqisi2
 316              		.loc 1 198 0
 317 001a E563     		str	r5, [r4, #60]
 318              		.loc 1 200 0
 319 001c 082B     		cmp	r3, #8
 320 001e 03D1     		bne	.L23
 321              		.loc 1 201 0 discriminator 1
 322 0020 A36A     		ldr	r3, [r4, #40]
 323              		.loc 1 200 0 discriminator 1
 324 0022 1D42     		tst	r5, r3
 325 0024 06D1     		bne	.L24
 326 0026 38BD     		pop	{r3, r4, r5, pc}
 327              	.L23:
 328              		.loc 1 201 0
 329 0028 092B     		cmp	r3, #9
 330 002a 08D1     		bne	.L21
 331              		.loc 1 203 0
 332 002c A36A     		ldr	r3, [r4, #40]
 333 002e 1D40     		ands	r5, r5, r3
 334              		.loc 1 202 0
 335 0030 9D42     		cmp	r5, r3
 336 0032 04D1     		bne	.L21
 337              	.L24:
 338              		.loc 1 204 0
ARM GAS  /tmp/ccc9VKF2.s 			page 7


 339 0034 2046     		mov	r0, r4
 340 0036 FFF7FEFF 		bl	chSchReadyI
 341 003a 0023     		movs	r3, #0
 342 003c 8362     		str	r3, [r0, #40]
 343              	.L21:
 344 003e 38BD     		pop	{r3, r4, r5, pc}
 345              	.L27:
 346              		.align	2
 347              	.L26:
 348 0040 2A000000 		.word	.LC2
 349              		.cfi_endproc
 350              	.LFE5:
 351              		.size	chEvtSignalFlagsI, .-chEvtSignalFlagsI
 352              		.section	.text.chEvtSignalFlags,"ax",%progbits
 353              		.align	1
 354              		.global	chEvtSignalFlags
 355              		.thumb
 356              		.thumb_func
 357              		.type	chEvtSignalFlags, %function
 358              	chEvtSignalFlags:
 359              	.LFB4:
 360              		.loc 1 171 0
 361              		.cfi_startproc
 362              		@ args = 0, pretend = 0, frame = 0
 363              		@ frame_needed = 0, uses_anonymous_args = 0
 364              	.LVL19:
 365 0000 38B5     		push	{r3, r4, r5, lr}
 366              	.LCFI5:
 367              		.cfi_def_cfa_offset 16
 368              		.loc 1 171 0
 369 0002 0D46     		mov	r5, r1
 370              		.cfi_offset 14, -4
 371              		.cfi_offset 5, -8
 372              		.cfi_offset 4, -12
 373              		.cfi_offset 3, -16
 374              		.loc 1 173 0
 375 0004 0446     		mov	r4, r0
 376 0006 10B9     		cbnz	r0, .L29
 377              		.loc 1 173 0 is_stmt 0 discriminator 1
 378 0008 0848     		ldr	r0, .L30
 379              	.LVL20:
 380 000a FFF7FEFF 		bl	chDbgPanic
 381              	.LVL21:
 382              	.L29:
 383              		.loc 1 175 0 is_stmt 1
 384              	@ 175 "../chibios/os/kernel/src/chevents.c" 1
 385 000e FFF7FEFF 		bl      _port_lock
 386              	@ 0 "" 2
 387              		.thumb
 388 0012 FFF7FEFF 		bl	dbg_check_lock
 389              		.loc 1 176 0
 390 0016 2046     		mov	r0, r4
 391 0018 2946     		mov	r1, r5
 392 001a FFF7FEFF 		bl	chEvtSignalFlagsI
 393              		.loc 1 177 0
 394 001e FFF7FEFF 		bl	chSchRescheduleS
 395              		.loc 1 178 0
ARM GAS  /tmp/ccc9VKF2.s 			page 8


 396 0022 FFF7FEFF 		bl	dbg_check_unlock
 397              	@ 178 "../chibios/os/kernel/src/chevents.c" 1
 398 0026 FFF7FEFF 		bl      _port_unlock
 399              	@ 0 "" 2
 400              		.loc 1 179 0
 401              		.thumb
 402 002a 38BD     		pop	{r3, r4, r5, pc}
 403              	.L31:
 404              		.align	2
 405              	.L30:
 406 002c 3B000000 		.word	.LC3
 407              		.cfi_endproc
 408              	.LFE4:
 409              		.size	chEvtSignalFlags, .-chEvtSignalFlags
 410              		.section	.text.chEvtBroadcastFlagsI,"ax",%progbits
 411              		.align	1
 412              		.global	chEvtBroadcastFlagsI
 413              		.thumb
 414              		.thumb_func
 415              		.type	chEvtBroadcastFlagsI, %function
 416              	chEvtBroadcastFlagsI:
 417              	.LFB7:
 418              		.loc 1 245 0
 419              		.cfi_startproc
 420              		@ args = 0, pretend = 0, frame = 0
 421              		@ frame_needed = 0, uses_anonymous_args = 0
 422              	.LVL22:
 423 0000 70B5     		push	{r4, r5, r6, lr}
 424              	.LCFI6:
 425              		.cfi_def_cfa_offset 16
 426              		.loc 1 245 0
 427 0002 0546     		mov	r5, r0
 428              		.cfi_offset 14, -4
 429              		.cfi_offset 6, -8
 430              		.cfi_offset 5, -12
 431              		.cfi_offset 4, -16
 432 0004 0E46     		mov	r6, r1
 433              		.loc 1 248 0
 434 0006 FFF7FEFF 		bl	chDbgCheckClassI
 435              	.LVL23:
 436              		.loc 1 249 0
 437 000a 15B9     		cbnz	r5, .L33
 438              		.loc 1 249 0 is_stmt 0 discriminator 1
 439 000c 0748     		ldr	r0, .L36
 440 000e FFF7FEFF 		bl	chDbgPanic
 441              	.L33:
 442              		.loc 1 251 0 is_stmt 1
 443 0012 2C68     		ldr	r4, [r5, #0]
 444              	.LVL24:
 445              		.loc 1 252 0
 446 0014 06E0     		b	.L34
 447              	.LVL25:
 448              	.L35:
 449              		.loc 1 253 0
 450 0016 A168     		ldr	r1, [r4, #8]
 451 0018 6068     		ldr	r0, [r4, #4]
 452 001a 46EA0101 		orr	r1, r6, r1
ARM GAS  /tmp/ccc9VKF2.s 			page 9


 453 001e FFF7FEFF 		bl	chEvtSignalFlagsI
 454              		.loc 1 254 0
 455 0022 2468     		ldr	r4, [r4, #0]
 456              	.LVL26:
 457              	.L34:
 458              		.loc 1 252 0 discriminator 1
 459 0024 AC42     		cmp	r4, r5
 460 0026 F6D1     		bne	.L35
 461              		.loc 1 256 0
 462 0028 70BD     		pop	{r4, r5, r6, pc}
 463              	.L37:
 464 002a 00BF     		.align	2
 465              	.L36:
 466 002c 4B000000 		.word	.LC4
 467              		.cfi_endproc
 468              	.LFE7:
 469              		.size	chEvtBroadcastFlagsI, .-chEvtBroadcastFlagsI
 470              		.section	.text.chEvtBroadcastFlags,"ax",%progbits
 471              		.align	1
 472              		.global	chEvtBroadcastFlags
 473              		.thumb
 474              		.thumb_func
 475              		.type	chEvtBroadcastFlags, %function
 476              	chEvtBroadcastFlags:
 477              	.LFB6:
 478              		.loc 1 220 0
 479              		.cfi_startproc
 480              		@ args = 0, pretend = 0, frame = 0
 481              		@ frame_needed = 0, uses_anonymous_args = 0
 482              	.LVL27:
 483 0000 38B5     		push	{r3, r4, r5, lr}
 484              	.LCFI7:
 485              		.cfi_def_cfa_offset 16
 486              		.loc 1 220 0
 487 0002 0546     		mov	r5, r0
 488              		.cfi_offset 14, -4
 489              		.cfi_offset 5, -8
 490              		.cfi_offset 4, -12
 491              		.cfi_offset 3, -16
 492 0004 0C46     		mov	r4, r1
 493              		.loc 1 222 0
 494              	@ 222 "../chibios/os/kernel/src/chevents.c" 1
 495 0006 FFF7FEFF 		bl      _port_lock
 496              	@ 0 "" 2
 497              		.thumb
 498 000a FFF7FEFF 		bl	dbg_check_lock
 499              	.LVL28:
 500              		.loc 1 223 0
 501 000e 2846     		mov	r0, r5
 502 0010 2146     		mov	r1, r4
 503 0012 FFF7FEFF 		bl	chEvtBroadcastFlagsI
 504              		.loc 1 224 0
 505 0016 FFF7FEFF 		bl	chSchRescheduleS
 506              		.loc 1 225 0
 507 001a FFF7FEFF 		bl	dbg_check_unlock
 508              	@ 225 "../chibios/os/kernel/src/chevents.c" 1
 509 001e FFF7FEFF 		bl      _port_unlock
ARM GAS  /tmp/ccc9VKF2.s 			page 10


 510              	@ 0 "" 2
 511              		.loc 1 226 0
 512              		.thumb
 513 0022 38BD     		pop	{r3, r4, r5, pc}
 514              		.cfi_endproc
 515              	.LFE6:
 516              		.size	chEvtBroadcastFlags, .-chEvtBroadcastFlags
 517              		.section	.text.chEvtDispatch,"ax",%progbits
 518              		.align	1
 519              		.global	chEvtDispatch
 520              		.thumb
 521              		.thumb_func
 522              		.type	chEvtDispatch, %function
 523              	chEvtDispatch:
 524              	.LFB8:
 525              		.loc 1 267 0
 526              		.cfi_startproc
 527              		@ args = 0, pretend = 0, frame = 0
 528              		@ frame_needed = 0, uses_anonymous_args = 0
 529              	.LVL29:
 530 0000 2DE9F041 		push	{r4, r5, r6, r7, r8, lr}
 531              	.LCFI8:
 532              		.cfi_def_cfa_offset 24
 533              		.loc 1 267 0
 534 0004 0E46     		mov	r6, r1
 535              		.cfi_offset 14, -4
 536              		.cfi_offset 8, -8
 537              		.cfi_offset 7, -12
 538              		.cfi_offset 6, -16
 539              		.cfi_offset 5, -20
 540              		.cfi_offset 4, -24
 541              		.loc 1 270 0
 542 0006 0746     		mov	r7, r0
 543 0008 10B9     		cbnz	r0, .L40
 544              		.loc 1 270 0 is_stmt 0 discriminator 1
 545 000a 0E48     		ldr	r0, .L45
 546              	.LVL30:
 547 000c FFF7FEFF 		bl	chDbgPanic
 548              	.LVL31:
 549              	.L40:
 550              		.loc 1 267 0 is_stmt 1 discriminator 1
 551 0010 0024     		movs	r4, #0
 552 0012 2546     		mov	r5, r4
 553 0014 12E0     		b	.L41
 554              	.LVL32:
 555              	.L44:
 556              		.loc 1 274 0
 557 0016 4FF00108 		mov	r8, #1
 558 001a 08FA05F8 		lsl	r8, r8, r5
 559 001e 18EA060F 		tst	r8, r6
 560 0022 09D0     		beq	.L42
 561              		.loc 1 275 0
 562 0024 3B59     		ldr	r3, [r7, r4]
 563 0026 13B9     		cbnz	r3, .L43
 564              		.loc 1 275 0 is_stmt 0 discriminator 1
 565 0028 0748     		ldr	r0, .L45+4
 566 002a FFF7FEFF 		bl	chDbgPanic
ARM GAS  /tmp/ccc9VKF2.s 			page 11


 567              	.L43:
 568              		.loc 1 279 0 is_stmt 1
 569 002e 3B59     		ldr	r3, [r7, r4]
 570 0030 2846     		mov	r0, r5
 571              		.loc 1 278 0
 572 0032 26EA0806 		bic	r6, r6, r8
 573              	.LVL33:
 574              		.loc 1 279 0
 575 0036 9847     		blx	r3
 576              	.L42:
 577              		.loc 1 281 0
 578 0038 0135     		adds	r5, r5, #1
 579              	.LVL34:
 580 003a 0434     		adds	r4, r4, #4
 581              	.LVL35:
 582              	.L41:
 583              		.loc 1 273 0 discriminator 1
 584 003c 002E     		cmp	r6, #0
 585 003e EAD1     		bne	.L44
 586              		.loc 1 283 0
 587 0040 BDE8F081 		pop	{r4, r5, r6, r7, r8, pc}
 588              	.L46:
 589              		.align	2
 590              	.L45:
 591 0044 63000000 		.word	.LC5
 592 0048 75000000 		.word	.LC6
 593              		.cfi_endproc
 594              	.LFE8:
 595              		.size	chEvtDispatch, .-chEvtDispatch
 596              		.section	.text.chEvtWaitOneTimeout,"ax",%progbits
 597              		.align	1
 598              		.global	chEvtWaitOneTimeout
 599              		.thumb
 600              		.thumb_func
 601              		.type	chEvtWaitOneTimeout, %function
 602              	chEvtWaitOneTimeout:
 603              	.LFB9:
 604              		.loc 1 398 0
 605              		.cfi_startproc
 606              		@ args = 0, pretend = 0, frame = 0
 607              		@ frame_needed = 0, uses_anonymous_args = 0
 608              	.LVL36:
 609 0000 F8B5     		push	{r3, r4, r5, r6, r7, lr}
 610              	.LCFI9:
 611              		.cfi_def_cfa_offset 24
 612              		.loc 1 399 0
 613 0002 164B     		ldr	r3, .L52
 614              		.cfi_offset 14, -4
 615              		.cfi_offset 7, -8
 616              		.cfi_offset 6, -12
 617              		.cfi_offset 5, -16
 618              		.cfi_offset 4, -20
 619              		.cfi_offset 3, -24
 620              		.loc 1 398 0
 621 0004 0646     		mov	r6, r0
 622              		.loc 1 399 0
 623 0006 DD69     		ldr	r5, [r3, #28]
ARM GAS  /tmp/ccc9VKF2.s 			page 12


 624              	.LVL37:
 625              		.loc 1 398 0
 626 0008 0F46     		mov	r7, r1
 627              		.loc 1 402 0
 628              	@ 402 "../chibios/os/kernel/src/chevents.c" 1
 629 000a FFF7FEFF 		bl      _port_lock
 630              	@ 0 "" 2
 631              	.LVL38:
 632              		.thumb
 633 000e FFF7FEFF 		bl	dbg_check_lock
 634              	.LVL39:
 635              		.loc 1 404 0
 636 0012 EC6B     		ldr	r4, [r5, #60]
 637              	.LVL40:
 638 0014 3440     		ands	r4, r6, r4
 639 0016 14D1     		bne	.L48
 640              		.loc 1 405 0
 641 0018 27B9     		cbnz	r7, .L49
 642              		.loc 1 406 0
 643 001a FFF7FEFF 		bl	dbg_check_unlock
 644              	.LVL41:
 645              	@ 406 "../chibios/os/kernel/src/chevents.c" 1
 646 001e FFF7FEFF 		bl      _port_unlock
 647              	@ 0 "" 2
 648              		.loc 1 407 0
 649              		.thumb
 650 0022 18E0     		b	.L50
 651              	.L49:
 652              		.loc 1 410 0
 653 0024 0820     		movs	r0, #8
 654              		.loc 1 409 0
 655 0026 AE62     		str	r6, [r5, #40]
 656              		.loc 1 410 0
 657 0028 3946     		mov	r1, r7
 658 002a FFF7FEFF 		bl	chSchGoSleepTimeoutS
 659 002e 0028     		cmp	r0, #0
 660 0030 04DA     		bge	.L51
 661              		.loc 1 411 0
 662 0032 FFF7FEFF 		bl	dbg_check_unlock
 663              	@ 411 "../chibios/os/kernel/src/chevents.c" 1
 664 0036 FFF7FEFF 		bl      _port_unlock
 665              	@ 0 "" 2
 666              		.loc 1 412 0
 667              		.thumb
 668 003a 0CE0     		b	.L50
 669              	.L51:
 670              		.loc 1 414 0
 671 003c EC6B     		ldr	r4, [r5, #60]
 672              	.LVL42:
 673 003e 06EA0404 		and	r4, r6, r4
 674              	.LVL43:
 675              	.L48:
 676              		.loc 1 416 0
 677 0042 6342     		negs	r3, r4
 678 0044 1C40     		ands	r4, r4, r3
 679              	.LVL44:
 680              		.loc 1 417 0
ARM GAS  /tmp/ccc9VKF2.s 			page 13


 681 0046 EB6B     		ldr	r3, [r5, #60]
 682 0048 23EA0403 		bic	r3, r3, r4
 683 004c EB63     		str	r3, [r5, #60]
 684              		.loc 1 419 0
 685 004e FFF7FEFF 		bl	dbg_check_unlock
 686              	@ 419 "../chibios/os/kernel/src/chevents.c" 1
 687 0052 FFF7FEFF 		bl      _port_unlock
 688              	@ 0 "" 2
 689              		.thumb
 690              	.L50:
 691              		.loc 1 421 0
 692 0056 2046     		mov	r0, r4
 693 0058 F8BD     		pop	{r3, r4, r5, r6, r7, pc}
 694              	.L53:
 695 005a 00BF     		.align	2
 696              	.L52:
 697 005c 00000000 		.word	rlist
 698              		.cfi_endproc
 699              	.LFE9:
 700              		.size	chEvtWaitOneTimeout, .-chEvtWaitOneTimeout
 701              		.section	.text.chEvtWaitAnyTimeout,"ax",%progbits
 702              		.align	1
 703              		.global	chEvtWaitAnyTimeout
 704              		.thumb
 705              		.thumb_func
 706              		.type	chEvtWaitAnyTimeout, %function
 707              	chEvtWaitAnyTimeout:
 708              	.LFB10:
 709              		.loc 1 441 0
 710              		.cfi_startproc
 711              		@ args = 0, pretend = 0, frame = 0
 712              		@ frame_needed = 0, uses_anonymous_args = 0
 713              	.LVL45:
 714 0000 F8B5     		push	{r3, r4, r5, r6, r7, lr}
 715              	.LCFI10:
 716              		.cfi_def_cfa_offset 24
 717              		.loc 1 442 0
 718 0002 154B     		ldr	r3, .L59
 719              		.cfi_offset 14, -4
 720              		.cfi_offset 7, -8
 721              		.cfi_offset 6, -12
 722              		.cfi_offset 5, -16
 723              		.cfi_offset 4, -20
 724              		.cfi_offset 3, -24
 725              		.loc 1 441 0
 726 0004 0546     		mov	r5, r0
 727              		.loc 1 442 0
 728 0006 DC69     		ldr	r4, [r3, #28]
 729              	.LVL46:
 730              		.loc 1 441 0
 731 0008 0F46     		mov	r7, r1
 732              		.loc 1 445 0
 733              	@ 445 "../chibios/os/kernel/src/chevents.c" 1
 734 000a FFF7FEFF 		bl      _port_lock
 735              	@ 0 "" 2
 736              	.LVL47:
 737              		.thumb
ARM GAS  /tmp/ccc9VKF2.s 			page 14


 738 000e FFF7FEFF 		bl	dbg_check_lock
 739              	.LVL48:
 740              		.loc 1 447 0
 741 0012 E66B     		ldr	r6, [r4, #60]
 742              	.LVL49:
 743 0014 2E40     		ands	r6, r5, r6
 744 0016 14D1     		bne	.L55
 745              		.loc 1 448 0
 746 0018 27B9     		cbnz	r7, .L56
 747              		.loc 1 449 0
 748 001a FFF7FEFF 		bl	dbg_check_unlock
 749              	.LVL50:
 750              	@ 449 "../chibios/os/kernel/src/chevents.c" 1
 751 001e FFF7FEFF 		bl      _port_unlock
 752              	@ 0 "" 2
 753              		.loc 1 450 0
 754              		.thumb
 755 0022 16E0     		b	.L57
 756              	.L56:
 757              		.loc 1 453 0
 758 0024 0820     		movs	r0, #8
 759              		.loc 1 452 0
 760 0026 A562     		str	r5, [r4, #40]
 761              		.loc 1 453 0
 762 0028 3946     		mov	r1, r7
 763 002a FFF7FEFF 		bl	chSchGoSleepTimeoutS
 764 002e 0028     		cmp	r0, #0
 765 0030 04DA     		bge	.L58
 766              		.loc 1 454 0
 767 0032 FFF7FEFF 		bl	dbg_check_unlock
 768              	@ 454 "../chibios/os/kernel/src/chevents.c" 1
 769 0036 FFF7FEFF 		bl      _port_unlock
 770              	@ 0 "" 2
 771              		.loc 1 455 0
 772              		.thumb
 773 003a 0AE0     		b	.L57
 774              	.L58:
 775              		.loc 1 457 0
 776 003c E66B     		ldr	r6, [r4, #60]
 777              	.LVL51:
 778 003e 05EA0606 		and	r6, r5, r6
 779              	.LVL52:
 780              	.L55:
 781              		.loc 1 459 0
 782 0042 E36B     		ldr	r3, [r4, #60]
 783 0044 23EA0603 		bic	r3, r3, r6
 784 0048 E363     		str	r3, [r4, #60]
 785              		.loc 1 461 0
 786 004a FFF7FEFF 		bl	dbg_check_unlock
 787              	@ 461 "../chibios/os/kernel/src/chevents.c" 1
 788 004e FFF7FEFF 		bl      _port_unlock
 789              	@ 0 "" 2
 790              		.thumb
 791              	.L57:
 792              		.loc 1 463 0
 793 0052 3046     		mov	r0, r6
 794 0054 F8BD     		pop	{r3, r4, r5, r6, r7, pc}
ARM GAS  /tmp/ccc9VKF2.s 			page 15


 795              	.L60:
 796 0056 00BF     		.align	2
 797              	.L59:
 798 0058 00000000 		.word	rlist
 799              		.cfi_endproc
 800              	.LFE10:
 801              		.size	chEvtWaitAnyTimeout, .-chEvtWaitAnyTimeout
 802              		.section	.text.chEvtWaitAllTimeout,"ax",%progbits
 803              		.align	1
 804              		.global	chEvtWaitAllTimeout
 805              		.thumb
 806              		.thumb_func
 807              		.type	chEvtWaitAllTimeout, %function
 808              	chEvtWaitAllTimeout:
 809              	.LFB11:
 810              		.loc 1 482 0
 811              		.cfi_startproc
 812              		@ args = 0, pretend = 0, frame = 0
 813              		@ frame_needed = 0, uses_anonymous_args = 0
 814              	.LVL53:
 815              		.loc 1 483 0
 816 0000 154B     		ldr	r3, .L65
 817              		.loc 1 482 0
 818 0002 70B5     		push	{r4, r5, r6, lr}
 819              	.LCFI11:
 820              		.cfi_def_cfa_offset 16
 821              		.loc 1 483 0
 822 0004 DD69     		ldr	r5, [r3, #28]
 823              		.cfi_offset 14, -4
 824              		.cfi_offset 6, -8
 825              		.cfi_offset 5, -12
 826              		.cfi_offset 4, -16
 827              	.LVL54:
 828              		.loc 1 482 0
 829 0006 0446     		mov	r4, r0
 830 0008 0E46     		mov	r6, r1
 831              		.loc 1 485 0
 832              	@ 485 "../chibios/os/kernel/src/chevents.c" 1
 833 000a FFF7FEFF 		bl      _port_lock
 834              	@ 0 "" 2
 835              	.LVL55:
 836              		.thumb
 837 000e FFF7FEFF 		bl	dbg_check_lock
 838              	.LVL56:
 839              		.loc 1 487 0
 840 0012 EB6B     		ldr	r3, [r5, #60]
 841 0014 04EA0303 		and	r3, r4, r3
 842 0018 A342     		cmp	r3, r4
 843 001a 13D0     		beq	.L62
 844              		.loc 1 488 0
 845 001c 2EB9     		cbnz	r6, .L63
 846              		.loc 1 489 0
 847 001e FFF7FEFF 		bl	dbg_check_unlock
 848              	@ 489 "../chibios/os/kernel/src/chevents.c" 1
 849 0022 FFF7FEFF 		bl      _port_unlock
 850              	@ 0 "" 2
 851              		.loc 1 490 0
ARM GAS  /tmp/ccc9VKF2.s 			page 16


 852              		.thumb
 853 0026 3446     		mov	r4, r6
 854              	.LVL57:
 855 0028 14E0     		b	.L64
 856              	.LVL58:
 857              	.L63:
 858              		.loc 1 493 0
 859 002a 0920     		movs	r0, #9
 860              		.loc 1 492 0
 861 002c AC62     		str	r4, [r5, #40]
 862              		.loc 1 493 0
 863 002e 3146     		mov	r1, r6
 864 0030 FFF7FEFF 		bl	chSchGoSleepTimeoutS
 865 0034 0028     		cmp	r0, #0
 866 0036 05DA     		bge	.L62
 867              		.loc 1 494 0
 868 0038 FFF7FEFF 		bl	dbg_check_unlock
 869              	@ 494 "../chibios/os/kernel/src/chevents.c" 1
 870 003c FFF7FEFF 		bl      _port_unlock
 871              	@ 0 "" 2
 872              		.loc 1 495 0
 873              		.thumb
 874 0040 0024     		movs	r4, #0
 875              	.LVL59:
 876 0042 07E0     		b	.L64
 877              	.LVL60:
 878              	.L62:
 879              		.loc 1 498 0
 880 0044 EB6B     		ldr	r3, [r5, #60]
 881 0046 23EA0403 		bic	r3, r3, r4
 882 004a EB63     		str	r3, [r5, #60]
 883              		.loc 1 500 0
 884 004c FFF7FEFF 		bl	dbg_check_unlock
 885              	@ 500 "../chibios/os/kernel/src/chevents.c" 1
 886 0050 FFF7FEFF 		bl      _port_unlock
 887              	@ 0 "" 2
 888              	.LVL61:
 889              		.thumb
 890              	.L64:
 891              		.loc 1 502 0
 892 0054 2046     		mov	r0, r4
 893 0056 70BD     		pop	{r4, r5, r6, pc}
 894              	.L66:
 895              		.align	2
 896              	.L65:
 897 0058 00000000 		.word	rlist
 898              		.cfi_endproc
 899              	.LFE11:
 900              		.size	chEvtWaitAllTimeout, .-chEvtWaitAllTimeout
 901              		.section	.rodata.str1.1,"aMS",%progbits,1
 902              	.LC0:
 903 0000 22636845 		.ascii	"\"chEvtRegisterMask\"()\000"
 903      76745265 
 903      67697374 
 903      65724D61 
 903      736B2228 
 904              	.LC1:
ARM GAS  /tmp/ccc9VKF2.s 			page 17


 905 0016 22636845 		.ascii	"\"chEvtUnregister\"()\000"
 905      7674556E 
 905      72656769 
 905      73746572 
 905      22282900 
 906              	.LC2:
 907 002a 22636845 		.ascii	"\"chEvtSignalI\"()\000"
 907      76745369 
 907      676E616C 
 907      49222829 
 907      00
 908              	.LC3:
 909 003b 22636845 		.ascii	"\"chEvtSignal\"()\000"
 909      76745369 
 909      676E616C 
 909      22282900 
 910              	.LC4:
 911 004b 22636845 		.ascii	"\"chEvtBroadcastMaskI\"()\000"
 911      76744272 
 911      6F616463 
 911      6173744D 
 911      61736B49 
 912              	.LC5:
 913 0063 22636845 		.ascii	"\"chEvtDispatch\"()\000"
 913      76744469 
 913      73706174 
 913      63682228 
 913      2900
 914              	.LC6:
 915 0075 63684576 		.ascii	"chEvtDispatch(), #1\000"
 915      74446973 
 915      70617463 
 915      6828292C 
 915      20233100 
 916              		.text
 917              	.Letext0:
 918              		.section	.debug_loc,"",%progbits
 919              	.Ldebug_loc0:
 920              	.LLST0:
 921 0000 00000000 		.4byte	.LFB0
 922 0004 02000000 		.4byte	.LCFI0
 923 0008 0200     		.2byte	0x2
 924 000a 7D       		.byte	0x7d
 925 000b 00       		.sleb128 0
 926 000c 02000000 		.4byte	.LCFI0
 927 0010 3C000000 		.4byte	.LFE0
 928 0014 0200     		.2byte	0x2
 929 0016 7D       		.byte	0x7d
 930 0017 10       		.sleb128 16
 931 0018 00000000 		.4byte	0x0
 932 001c 00000000 		.4byte	0x0
 933              	.LLST1:
 934 0020 00000000 		.4byte	.LVL0
 935 0024 0E000000 		.4byte	.LVL1
 936 0028 0100     		.2byte	0x1
 937 002a 50       		.byte	0x50
 938 002b 0E000000 		.4byte	.LVL1
ARM GAS  /tmp/ccc9VKF2.s 			page 18


 939 002f 3C000000 		.4byte	.LFE0
 940 0033 0100     		.2byte	0x1
 941 0035 55       		.byte	0x55
 942 0036 00000000 		.4byte	0x0
 943 003a 00000000 		.4byte	0x0
 944              	.LLST2:
 945 003e 00000000 		.4byte	.LVL0
 946 0042 11000000 		.4byte	.LVL2-1
 947 0046 0100     		.2byte	0x1
 948 0048 51       		.byte	0x51
 949 0049 11000000 		.4byte	.LVL2-1
 950 004d 3C000000 		.4byte	.LFE0
 951 0051 0100     		.2byte	0x1
 952 0053 54       		.byte	0x54
 953 0054 00000000 		.4byte	0x0
 954 0058 00000000 		.4byte	0x0
 955              	.LLST3:
 956 005c 00000000 		.4byte	.LVL0
 957 0060 11000000 		.4byte	.LVL2-1
 958 0064 0100     		.2byte	0x1
 959 0066 52       		.byte	0x52
 960 0067 11000000 		.4byte	.LVL2-1
 961 006b 3C000000 		.4byte	.LFE0
 962 006f 0100     		.2byte	0x1
 963 0071 56       		.byte	0x56
 964 0072 00000000 		.4byte	0x0
 965 0076 00000000 		.4byte	0x0
 966              	.LLST4:
 967 007a 00000000 		.4byte	.LFB1
 968 007e 02000000 		.4byte	.LCFI1
 969 0082 0200     		.2byte	0x2
 970 0084 7D       		.byte	0x7d
 971 0085 00       		.sleb128 0
 972 0086 02000000 		.4byte	.LCFI1
 973 008a 3C000000 		.4byte	.LFE1
 974 008e 0200     		.2byte	0x2
 975 0090 7D       		.byte	0x7d
 976 0091 10       		.sleb128 16
 977 0092 00000000 		.4byte	0x0
 978 0096 00000000 		.4byte	0x0
 979              	.LLST5:
 980 009a 00000000 		.4byte	.LVL3
 981 009e 0C000000 		.4byte	.LVL4
 982 00a2 0100     		.2byte	0x1
 983 00a4 50       		.byte	0x50
 984 00a5 0C000000 		.4byte	.LVL4
 985 00a9 3C000000 		.4byte	.LFE1
 986 00ad 0100     		.2byte	0x1
 987 00af 55       		.byte	0x55
 988 00b0 00000000 		.4byte	0x0
 989 00b4 00000000 		.4byte	0x0
 990              	.LLST6:
 991 00b8 00000000 		.4byte	.LVL3
 992 00bc 0F000000 		.4byte	.LVL5-1
 993 00c0 0100     		.2byte	0x1
 994 00c2 51       		.byte	0x51
 995 00c3 0F000000 		.4byte	.LVL5-1
ARM GAS  /tmp/ccc9VKF2.s 			page 19


 996 00c7 3C000000 		.4byte	.LFE1
 997 00cb 0100     		.2byte	0x1
 998 00cd 54       		.byte	0x54
 999 00ce 00000000 		.4byte	0x0
 1000 00d2 00000000 		.4byte	0x0
 1001              	.LLST7:
 1002 00d6 10000000 		.4byte	.LVL5
 1003 00da 1C000000 		.4byte	.LVL6
 1004 00de 0100     		.2byte	0x1
 1005 00e0 55       		.byte	0x55
 1006 00e1 1C000000 		.4byte	.LVL6
 1007 00e5 28000000 		.4byte	.LVL7
 1008 00e9 0100     		.2byte	0x1
 1009 00eb 53       		.byte	0x53
 1010 00ec 28000000 		.4byte	.LVL7
 1011 00f0 31000000 		.4byte	.LVL8-1
 1012 00f4 0100     		.2byte	0x1
 1013 00f6 53       		.byte	0x53
 1014 00f7 00000000 		.4byte	0x0
 1015 00fb 00000000 		.4byte	0x0
 1016              	.LLST8:
 1017 00ff 00000000 		.4byte	.LFB2
 1018 0103 02000000 		.4byte	.LCFI2
 1019 0107 0200     		.2byte	0x2
 1020 0109 7D       		.byte	0x7d
 1021 010a 00       		.sleb128 0
 1022 010b 02000000 		.4byte	.LCFI2
 1023 010f 2C000000 		.4byte	.LFE2
 1024 0113 0200     		.2byte	0x2
 1025 0115 7D       		.byte	0x7d
 1026 0116 10       		.sleb128 16
 1027 0117 00000000 		.4byte	0x0
 1028 011b 00000000 		.4byte	0x0
 1029              	.LLST9:
 1030 011f 00000000 		.4byte	.LVL9
 1031 0123 0B000000 		.4byte	.LVL10-1
 1032 0127 0100     		.2byte	0x1
 1033 0129 50       		.byte	0x50
 1034 012a 0B000000 		.4byte	.LVL10-1
 1035 012e 2C000000 		.4byte	.LFE2
 1036 0132 0100     		.2byte	0x1
 1037 0134 55       		.byte	0x55
 1038 0135 00000000 		.4byte	0x0
 1039 0139 00000000 		.4byte	0x0
 1040              	.LLST10:
 1041 013d 00000000 		.4byte	.LFB3
 1042 0141 02000000 		.4byte	.LCFI3
 1043 0145 0200     		.2byte	0x2
 1044 0147 7D       		.byte	0x7d
 1045 0148 00       		.sleb128 0
 1046 0149 02000000 		.4byte	.LCFI3
 1047 014d 28000000 		.4byte	.LFE3
 1048 0151 0200     		.2byte	0x2
 1049 0153 7D       		.byte	0x7d
 1050 0154 08       		.sleb128 8
 1051 0155 00000000 		.4byte	0x0
 1052 0159 00000000 		.4byte	0x0
ARM GAS  /tmp/ccc9VKF2.s 			page 20


 1053              	.LLST11:
 1054 015d 00000000 		.4byte	.LVL12
 1055 0161 0B000000 		.4byte	.LVL13-1
 1056 0165 0100     		.2byte	0x1
 1057 0167 50       		.byte	0x50
 1058 0168 0B000000 		.4byte	.LVL13-1
 1059 016c 14000000 		.4byte	.LVL14
 1060 0170 0100     		.2byte	0x1
 1061 0172 54       		.byte	0x54
 1062 0173 16000000 		.4byte	.LVL15
 1063 0177 28000000 		.4byte	.LFE3
 1064 017b 0100     		.2byte	0x1
 1065 017d 54       		.byte	0x54
 1066 017e 00000000 		.4byte	0x0
 1067 0182 00000000 		.4byte	0x0
 1068              	.LLST12:
 1069 0186 00000000 		.4byte	.LFB5
 1070 018a 02000000 		.4byte	.LCFI4
 1071 018e 0200     		.2byte	0x2
 1072 0190 7D       		.byte	0x7d
 1073 0191 00       		.sleb128 0
 1074 0192 02000000 		.4byte	.LCFI4
 1075 0196 44000000 		.4byte	.LFE5
 1076 019a 0200     		.2byte	0x2
 1077 019c 7D       		.byte	0x7d
 1078 019d 10       		.sleb128 16
 1079 019e 00000000 		.4byte	0x0
 1080 01a2 00000000 		.4byte	0x0
 1081              	.LLST13:
 1082 01a6 00000000 		.4byte	.LVL16
 1083 01aa 09000000 		.4byte	.LVL17-1
 1084 01ae 0100     		.2byte	0x1
 1085 01b0 50       		.byte	0x50
 1086 01b1 09000000 		.4byte	.LVL17-1
 1087 01b5 44000000 		.4byte	.LFE5
 1088 01b9 0100     		.2byte	0x1
 1089 01bb 54       		.byte	0x54
 1090 01bc 00000000 		.4byte	0x0
 1091 01c0 00000000 		.4byte	0x0
 1092              	.LLST14:
 1093 01c4 00000000 		.4byte	.LVL16
 1094 01c8 09000000 		.4byte	.LVL17-1
 1095 01cc 0100     		.2byte	0x1
 1096 01ce 51       		.byte	0x51
 1097 01cf 09000000 		.4byte	.LVL17-1
 1098 01d3 16000000 		.4byte	.LVL18
 1099 01d7 0100     		.2byte	0x1
 1100 01d9 55       		.byte	0x55
 1101 01da 00000000 		.4byte	0x0
 1102 01de 00000000 		.4byte	0x0
 1103              	.LLST15:
 1104 01e2 00000000 		.4byte	.LFB4
 1105 01e6 02000000 		.4byte	.LCFI5
 1106 01ea 0200     		.2byte	0x2
 1107 01ec 7D       		.byte	0x7d
 1108 01ed 00       		.sleb128 0
 1109 01ee 02000000 		.4byte	.LCFI5
ARM GAS  /tmp/ccc9VKF2.s 			page 21


 1110 01f2 30000000 		.4byte	.LFE4
 1111 01f6 0200     		.2byte	0x2
 1112 01f8 7D       		.byte	0x7d
 1113 01f9 10       		.sleb128 16
 1114 01fa 00000000 		.4byte	0x0
 1115 01fe 00000000 		.4byte	0x0
 1116              	.LLST16:
 1117 0202 00000000 		.4byte	.LVL19
 1118 0206 0A000000 		.4byte	.LVL20
 1119 020a 0100     		.2byte	0x1
 1120 020c 50       		.byte	0x50
 1121 020d 0A000000 		.4byte	.LVL20
 1122 0211 30000000 		.4byte	.LFE4
 1123 0215 0100     		.2byte	0x1
 1124 0217 54       		.byte	0x54
 1125 0218 00000000 		.4byte	0x0
 1126 021c 00000000 		.4byte	0x0
 1127              	.LLST17:
 1128 0220 00000000 		.4byte	.LVL19
 1129 0224 0D000000 		.4byte	.LVL21-1
 1130 0228 0100     		.2byte	0x1
 1131 022a 51       		.byte	0x51
 1132 022b 0D000000 		.4byte	.LVL21-1
 1133 022f 30000000 		.4byte	.LFE4
 1134 0233 0100     		.2byte	0x1
 1135 0235 55       		.byte	0x55
 1136 0236 00000000 		.4byte	0x0
 1137 023a 00000000 		.4byte	0x0
 1138              	.LLST18:
 1139 023e 00000000 		.4byte	.LFB7
 1140 0242 02000000 		.4byte	.LCFI6
 1141 0246 0200     		.2byte	0x2
 1142 0248 7D       		.byte	0x7d
 1143 0249 00       		.sleb128 0
 1144 024a 02000000 		.4byte	.LCFI6
 1145 024e 30000000 		.4byte	.LFE7
 1146 0252 0200     		.2byte	0x2
 1147 0254 7D       		.byte	0x7d
 1148 0255 10       		.sleb128 16
 1149 0256 00000000 		.4byte	0x0
 1150 025a 00000000 		.4byte	0x0
 1151              	.LLST19:
 1152 025e 00000000 		.4byte	.LVL22
 1153 0262 09000000 		.4byte	.LVL23-1
 1154 0266 0100     		.2byte	0x1
 1155 0268 50       		.byte	0x50
 1156 0269 09000000 		.4byte	.LVL23-1
 1157 026d 30000000 		.4byte	.LFE7
 1158 0271 0100     		.2byte	0x1
 1159 0273 55       		.byte	0x55
 1160 0274 00000000 		.4byte	0x0
 1161 0278 00000000 		.4byte	0x0
 1162              	.LLST20:
 1163 027c 00000000 		.4byte	.LVL22
 1164 0280 09000000 		.4byte	.LVL23-1
 1165 0284 0100     		.2byte	0x1
 1166 0286 51       		.byte	0x51
ARM GAS  /tmp/ccc9VKF2.s 			page 22


 1167 0287 09000000 		.4byte	.LVL23-1
 1168 028b 30000000 		.4byte	.LFE7
 1169 028f 0100     		.2byte	0x1
 1170 0291 56       		.byte	0x56
 1171 0292 00000000 		.4byte	0x0
 1172 0296 00000000 		.4byte	0x0
 1173              	.LLST21:
 1174 029a 14000000 		.4byte	.LVL24
 1175 029e 16000000 		.4byte	.LVL25
 1176 02a2 0200     		.2byte	0x2
 1177 02a4 75       		.byte	0x75
 1178 02a5 00       		.sleb128 0
 1179 02a6 16000000 		.4byte	.LVL25
 1180 02aa 24000000 		.4byte	.LVL26
 1181 02ae 0100     		.2byte	0x1
 1182 02b0 54       		.byte	0x54
 1183 02b1 24000000 		.4byte	.LVL26
 1184 02b5 30000000 		.4byte	.LFE7
 1185 02b9 0100     		.2byte	0x1
 1186 02bb 54       		.byte	0x54
 1187 02bc 00000000 		.4byte	0x0
 1188 02c0 00000000 		.4byte	0x0
 1189              	.LLST22:
 1190 02c4 00000000 		.4byte	.LFB6
 1191 02c8 02000000 		.4byte	.LCFI7
 1192 02cc 0200     		.2byte	0x2
 1193 02ce 7D       		.byte	0x7d
 1194 02cf 00       		.sleb128 0
 1195 02d0 02000000 		.4byte	.LCFI7
 1196 02d4 24000000 		.4byte	.LFE6
 1197 02d8 0200     		.2byte	0x2
 1198 02da 7D       		.byte	0x7d
 1199 02db 10       		.sleb128 16
 1200 02dc 00000000 		.4byte	0x0
 1201 02e0 00000000 		.4byte	0x0
 1202              	.LLST23:
 1203 02e4 00000000 		.4byte	.LVL27
 1204 02e8 0D000000 		.4byte	.LVL28-1
 1205 02ec 0100     		.2byte	0x1
 1206 02ee 50       		.byte	0x50
 1207 02ef 0D000000 		.4byte	.LVL28-1
 1208 02f3 24000000 		.4byte	.LFE6
 1209 02f7 0100     		.2byte	0x1
 1210 02f9 55       		.byte	0x55
 1211 02fa 00000000 		.4byte	0x0
 1212 02fe 00000000 		.4byte	0x0
 1213              	.LLST24:
 1214 0302 00000000 		.4byte	.LVL27
 1215 0306 0D000000 		.4byte	.LVL28-1
 1216 030a 0100     		.2byte	0x1
 1217 030c 51       		.byte	0x51
 1218 030d 0D000000 		.4byte	.LVL28-1
 1219 0311 24000000 		.4byte	.LFE6
 1220 0315 0100     		.2byte	0x1
 1221 0317 54       		.byte	0x54
 1222 0318 00000000 		.4byte	0x0
 1223 031c 00000000 		.4byte	0x0
ARM GAS  /tmp/ccc9VKF2.s 			page 23


 1224              	.LLST25:
 1225 0320 00000000 		.4byte	.LFB8
 1226 0324 04000000 		.4byte	.LCFI8
 1227 0328 0200     		.2byte	0x2
 1228 032a 7D       		.byte	0x7d
 1229 032b 00       		.sleb128 0
 1230 032c 04000000 		.4byte	.LCFI8
 1231 0330 4C000000 		.4byte	.LFE8
 1232 0334 0200     		.2byte	0x2
 1233 0336 7D       		.byte	0x7d
 1234 0337 18       		.sleb128 24
 1235 0338 00000000 		.4byte	0x0
 1236 033c 00000000 		.4byte	0x0
 1237              	.LLST26:
 1238 0340 00000000 		.4byte	.LVL29
 1239 0344 0C000000 		.4byte	.LVL30
 1240 0348 0100     		.2byte	0x1
 1241 034a 50       		.byte	0x50
 1242 034b 0C000000 		.4byte	.LVL30
 1243 034f 4C000000 		.4byte	.LFE8
 1244 0353 0100     		.2byte	0x1
 1245 0355 57       		.byte	0x57
 1246 0356 00000000 		.4byte	0x0
 1247 035a 00000000 		.4byte	0x0
 1248              	.LLST27:
 1249 035e 00000000 		.4byte	.LVL29
 1250 0362 0F000000 		.4byte	.LVL31-1
 1251 0366 0100     		.2byte	0x1
 1252 0368 51       		.byte	0x51
 1253 0369 0F000000 		.4byte	.LVL31-1
 1254 036d 36000000 		.4byte	.LVL33
 1255 0371 0100     		.2byte	0x1
 1256 0373 56       		.byte	0x56
 1257 0374 36000000 		.4byte	.LVL33
 1258 0378 4C000000 		.4byte	.LFE8
 1259 037c 0100     		.2byte	0x1
 1260 037e 56       		.byte	0x56
 1261 037f 00000000 		.4byte	0x0
 1262 0383 00000000 		.4byte	0x0
 1263              	.LLST28:
 1264 0387 16000000 		.4byte	.LVL32
 1265 038b 3A000000 		.4byte	.LVL34
 1266 038f 0100     		.2byte	0x1
 1267 0391 55       		.byte	0x55
 1268 0392 3A000000 		.4byte	.LVL34
 1269 0396 3C000000 		.4byte	.LVL35
 1270 039a 0100     		.2byte	0x1
 1271 039c 55       		.byte	0x55
 1272 039d 3C000000 		.4byte	.LVL35
 1273 03a1 4C000000 		.4byte	.LFE8
 1274 03a5 0100     		.2byte	0x1
 1275 03a7 55       		.byte	0x55
 1276 03a8 00000000 		.4byte	0x0
 1277 03ac 00000000 		.4byte	0x0
 1278              	.LLST29:
 1279 03b0 00000000 		.4byte	.LFB9
 1280 03b4 02000000 		.4byte	.LCFI9
ARM GAS  /tmp/ccc9VKF2.s 			page 24


 1281 03b8 0200     		.2byte	0x2
 1282 03ba 7D       		.byte	0x7d
 1283 03bb 00       		.sleb128 0
 1284 03bc 02000000 		.4byte	.LCFI9
 1285 03c0 60000000 		.4byte	.LFE9
 1286 03c4 0200     		.2byte	0x2
 1287 03c6 7D       		.byte	0x7d
 1288 03c7 18       		.sleb128 24
 1289 03c8 00000000 		.4byte	0x0
 1290 03cc 00000000 		.4byte	0x0
 1291              	.LLST30:
 1292 03d0 00000000 		.4byte	.LVL36
 1293 03d4 11000000 		.4byte	.LVL39-1
 1294 03d8 0100     		.2byte	0x1
 1295 03da 50       		.byte	0x50
 1296 03db 11000000 		.4byte	.LVL39-1
 1297 03df 60000000 		.4byte	.LFE9
 1298 03e3 0100     		.2byte	0x1
 1299 03e5 56       		.byte	0x56
 1300 03e6 00000000 		.4byte	0x0
 1301 03ea 00000000 		.4byte	0x0
 1302              	.LLST31:
 1303 03ee 00000000 		.4byte	.LVL36
 1304 03f2 11000000 		.4byte	.LVL39-1
 1305 03f6 0100     		.2byte	0x1
 1306 03f8 51       		.byte	0x51
 1307 03f9 11000000 		.4byte	.LVL39-1
 1308 03fd 60000000 		.4byte	.LFE9
 1309 0401 0100     		.2byte	0x1
 1310 0403 57       		.byte	0x57
 1311 0404 00000000 		.4byte	0x0
 1312 0408 00000000 		.4byte	0x0
 1313              	.LLST32:
 1314 040c 08000000 		.4byte	.LVL37
 1315 0410 0E000000 		.4byte	.LVL38
 1316 0414 0200     		.2byte	0x2
 1317 0416 73       		.byte	0x73
 1318 0417 1C       		.sleb128 28
 1319 0418 11000000 		.4byte	.LVL39-1
 1320 041c 60000000 		.4byte	.LFE9
 1321 0420 0100     		.2byte	0x1
 1322 0422 55       		.byte	0x55
 1323 0423 00000000 		.4byte	0x0
 1324 0427 00000000 		.4byte	0x0
 1325              	.LLST33:
 1326 042b 14000000 		.4byte	.LVL40
 1327 042f 1D000000 		.4byte	.LVL41-1
 1328 0433 0700     		.2byte	0x7
 1329 0435 76       		.byte	0x76
 1330 0436 00       		.sleb128 0
 1331 0437 75       		.byte	0x75
 1332 0438 3C       		.sleb128 60
 1333 0439 06       		.byte	0x6
 1334 043a 1A       		.byte	0x1a
 1335 043b 9F       		.byte	0x9f
 1336 043c 1D000000 		.4byte	.LVL41-1
 1337 0440 3E000000 		.4byte	.LVL42
ARM GAS  /tmp/ccc9VKF2.s 			page 25


 1338 0444 0100     		.2byte	0x1
 1339 0446 54       		.byte	0x54
 1340 0447 42000000 		.4byte	.LVL43
 1341 044b 46000000 		.4byte	.LVL44
 1342 044f 0100     		.2byte	0x1
 1343 0451 54       		.byte	0x54
 1344 0452 46000000 		.4byte	.LVL44
 1345 0456 60000000 		.4byte	.LFE9
 1346 045a 0100     		.2byte	0x1
 1347 045c 54       		.byte	0x54
 1348 045d 00000000 		.4byte	0x0
 1349 0461 00000000 		.4byte	0x0
 1350              	.LLST34:
 1351 0465 00000000 		.4byte	.LFB10
 1352 0469 02000000 		.4byte	.LCFI10
 1353 046d 0200     		.2byte	0x2
 1354 046f 7D       		.byte	0x7d
 1355 0470 00       		.sleb128 0
 1356 0471 02000000 		.4byte	.LCFI10
 1357 0475 5C000000 		.4byte	.LFE10
 1358 0479 0200     		.2byte	0x2
 1359 047b 7D       		.byte	0x7d
 1360 047c 18       		.sleb128 24
 1361 047d 00000000 		.4byte	0x0
 1362 0481 00000000 		.4byte	0x0
 1363              	.LLST35:
 1364 0485 00000000 		.4byte	.LVL45
 1365 0489 11000000 		.4byte	.LVL48-1
 1366 048d 0100     		.2byte	0x1
 1367 048f 50       		.byte	0x50
 1368 0490 11000000 		.4byte	.LVL48-1
 1369 0494 5C000000 		.4byte	.LFE10
 1370 0498 0100     		.2byte	0x1
 1371 049a 55       		.byte	0x55
 1372 049b 00000000 		.4byte	0x0
 1373 049f 00000000 		.4byte	0x0
 1374              	.LLST36:
 1375 04a3 00000000 		.4byte	.LVL45
 1376 04a7 11000000 		.4byte	.LVL48-1
 1377 04ab 0100     		.2byte	0x1
 1378 04ad 51       		.byte	0x51
 1379 04ae 11000000 		.4byte	.LVL48-1
 1380 04b2 5C000000 		.4byte	.LFE10
 1381 04b6 0100     		.2byte	0x1
 1382 04b8 57       		.byte	0x57
 1383 04b9 00000000 		.4byte	0x0
 1384 04bd 00000000 		.4byte	0x0
 1385              	.LLST37:
 1386 04c1 08000000 		.4byte	.LVL46
 1387 04c5 0E000000 		.4byte	.LVL47
 1388 04c9 0200     		.2byte	0x2
 1389 04cb 73       		.byte	0x73
 1390 04cc 1C       		.sleb128 28
 1391 04cd 11000000 		.4byte	.LVL48-1
 1392 04d1 5C000000 		.4byte	.LFE10
 1393 04d5 0100     		.2byte	0x1
 1394 04d7 54       		.byte	0x54
ARM GAS  /tmp/ccc9VKF2.s 			page 26


 1395 04d8 00000000 		.4byte	0x0
 1396 04dc 00000000 		.4byte	0x0
 1397              	.LLST38:
 1398 04e0 14000000 		.4byte	.LVL49
 1399 04e4 1D000000 		.4byte	.LVL50-1
 1400 04e8 0700     		.2byte	0x7
 1401 04ea 75       		.byte	0x75
 1402 04eb 00       		.sleb128 0
 1403 04ec 74       		.byte	0x74
 1404 04ed 3C       		.sleb128 60
 1405 04ee 06       		.byte	0x6
 1406 04ef 1A       		.byte	0x1a
 1407 04f0 9F       		.byte	0x9f
 1408 04f1 1D000000 		.4byte	.LVL50-1
 1409 04f5 3E000000 		.4byte	.LVL51
 1410 04f9 0100     		.2byte	0x1
 1411 04fb 56       		.byte	0x56
 1412 04fc 42000000 		.4byte	.LVL52
 1413 0500 5C000000 		.4byte	.LFE10
 1414 0504 0100     		.2byte	0x1
 1415 0506 56       		.byte	0x56
 1416 0507 00000000 		.4byte	0x0
 1417 050b 00000000 		.4byte	0x0
 1418              	.LLST39:
 1419 050f 00000000 		.4byte	.LFB11
 1420 0513 04000000 		.4byte	.LCFI11
 1421 0517 0200     		.2byte	0x2
 1422 0519 7D       		.byte	0x7d
 1423 051a 00       		.sleb128 0
 1424 051b 04000000 		.4byte	.LCFI11
 1425 051f 5C000000 		.4byte	.LFE11
 1426 0523 0200     		.2byte	0x2
 1427 0525 7D       		.byte	0x7d
 1428 0526 10       		.sleb128 16
 1429 0527 00000000 		.4byte	0x0
 1430 052b 00000000 		.4byte	0x0
 1431              	.LLST40:
 1432 052f 00000000 		.4byte	.LVL53
 1433 0533 11000000 		.4byte	.LVL56-1
 1434 0537 0100     		.2byte	0x1
 1435 0539 50       		.byte	0x50
 1436 053a 11000000 		.4byte	.LVL56-1
 1437 053e 28000000 		.4byte	.LVL57
 1438 0542 0100     		.2byte	0x1
 1439 0544 54       		.byte	0x54
 1440 0545 2A000000 		.4byte	.LVL58
 1441 0549 42000000 		.4byte	.LVL59
 1442 054d 0100     		.2byte	0x1
 1443 054f 54       		.byte	0x54
 1444 0550 44000000 		.4byte	.LVL60
 1445 0554 54000000 		.4byte	.LVL61
 1446 0558 0100     		.2byte	0x1
 1447 055a 54       		.byte	0x54
 1448 055b 00000000 		.4byte	0x0
 1449 055f 00000000 		.4byte	0x0
 1450              	.LLST41:
 1451 0563 00000000 		.4byte	.LVL53
ARM GAS  /tmp/ccc9VKF2.s 			page 27


 1452 0567 11000000 		.4byte	.LVL56-1
 1453 056b 0100     		.2byte	0x1
 1454 056d 51       		.byte	0x51
 1455 056e 11000000 		.4byte	.LVL56-1
 1456 0572 5C000000 		.4byte	.LFE11
 1457 0576 0100     		.2byte	0x1
 1458 0578 56       		.byte	0x56
 1459 0579 00000000 		.4byte	0x0
 1460 057d 00000000 		.4byte	0x0
 1461              	.LLST42:
 1462 0581 06000000 		.4byte	.LVL54
 1463 0585 0E000000 		.4byte	.LVL55
 1464 0589 0200     		.2byte	0x2
 1465 058b 73       		.byte	0x73
 1466 058c 1C       		.sleb128 28
 1467 058d 11000000 		.4byte	.LVL56-1
 1468 0591 5C000000 		.4byte	.LFE11
 1469 0595 0100     		.2byte	0x1
 1470 0597 55       		.byte	0x55
 1471 0598 00000000 		.4byte	0x0
 1472 059c 00000000 		.4byte	0x0
 1473              		.file 2 "/home/z80/programs/code-sourcery/2011.03-42/bin/../lib/gcc/arm-none-eabi/4.5.2/../../../.
 1474              		.file 3 "../chibios/os/ports/GCC/ARMCMx/chtypes.h"
 1475              		.file 4 "../chibios/os/kernel/include/chlists.h"
 1476              		.file 5 "../chibios/os/kernel/include/chthreads.h"
 1477              		.file 6 "../chibios/os/ports/GCC/ARMCMx/chcore_v7m.h"
 1478              		.file 7 "../chibios/os/kernel/include/chschd.h"
 1479              		.file 8 "../chibios/os/kernel/include/chmtx.h"
 1480              		.file 9 "../chibios/os/kernel/include/chevents.h"
 1481              		.section	.debug_info
 1482 0000 4E080000 		.4byte	0x84e
 1483 0004 0200     		.2byte	0x2
 1484 0006 00000000 		.4byte	.Ldebug_abbrev0
 1485 000a 04       		.byte	0x4
 1486 000b 01       		.uleb128 0x1
 1487 000c B9030000 		.4byte	.LASF88
 1488 0010 01       		.byte	0x1
 1489 0011 6A020000 		.4byte	.LASF89
 1490 0015 69010000 		.4byte	.LASF90
 1491 0019 00000000 		.4byte	0x0
 1492 001d 00000000 		.4byte	0x0
 1493 0021 00000000 		.4byte	.Ldebug_ranges0+0x0
 1494 0025 00000000 		.4byte	.Ldebug_line0
 1495 0029 02       		.uleb128 0x2
 1496 002a 04       		.byte	0x4
 1497 002b 05       		.byte	0x5
 1498 002c 696E7400 		.ascii	"int\000"
 1499 0030 03       		.uleb128 0x3
 1500 0031 04       		.byte	0x4
 1501 0032 07       		.byte	0x7
 1502 0033 42010000 		.4byte	.LASF0
 1503 0037 03       		.uleb128 0x3
 1504 0038 01       		.byte	0x1
 1505 0039 06       		.byte	0x6
 1506 003a 71000000 		.4byte	.LASF1
 1507 003e 04       		.uleb128 0x4
 1508 003f 88030000 		.4byte	.LASF5
ARM GAS  /tmp/ccc9VKF2.s 			page 28


 1509 0043 02       		.byte	0x2
 1510 0044 2A       		.byte	0x2a
 1511 0045 49000000 		.4byte	0x49
 1512 0049 03       		.uleb128 0x3
 1513 004a 01       		.byte	0x1
 1514 004b 08       		.byte	0x8
 1515 004c B5020000 		.4byte	.LASF2
 1516 0050 03       		.uleb128 0x3
 1517 0051 02       		.byte	0x2
 1518 0052 05       		.byte	0x5
 1519 0053 D9020000 		.4byte	.LASF3
 1520 0057 03       		.uleb128 0x3
 1521 0058 02       		.byte	0x2
 1522 0059 07       		.byte	0x7
 1523 005a 4C030000 		.4byte	.LASF4
 1524 005e 04       		.uleb128 0x4
 1525 005f AD020000 		.4byte	.LASF6
 1526 0063 02       		.byte	0x2
 1527 0064 4F       		.byte	0x4f
 1528 0065 69000000 		.4byte	0x69
 1529 0069 03       		.uleb128 0x3
 1530 006a 04       		.byte	0x4
 1531 006b 05       		.byte	0x5
 1532 006c B6000000 		.4byte	.LASF7
 1533 0070 04       		.uleb128 0x4
 1534 0071 1A030000 		.4byte	.LASF8
 1535 0075 02       		.byte	0x2
 1536 0076 50       		.byte	0x50
 1537 0077 7B000000 		.4byte	0x7b
 1538 007b 03       		.uleb128 0x3
 1539 007c 04       		.byte	0x4
 1540 007d 07       		.byte	0x7
 1541 007e 4F010000 		.4byte	.LASF9
 1542 0082 03       		.uleb128 0x3
 1543 0083 08       		.byte	0x8
 1544 0084 05       		.byte	0x5
 1545 0085 63000000 		.4byte	.LASF10
 1546 0089 04       		.uleb128 0x4
 1547 008a 0D000000 		.4byte	.LASF11
 1548 008e 02       		.byte	0x2
 1549 008f 78       		.byte	0x78
 1550 0090 94000000 		.4byte	0x94
 1551 0094 03       		.uleb128 0x3
 1552 0095 08       		.byte	0x8
 1553 0096 07       		.byte	0x7
 1554 0097 16000000 		.4byte	.LASF12
 1555 009b 04       		.uleb128 0x4
 1556 009c CF010000 		.4byte	.LASF13
 1557 00a0 03       		.byte	0x3
 1558 00a1 2F       		.byte	0x2f
 1559 00a2 3E000000 		.4byte	0x3e
 1560 00a6 04       		.uleb128 0x4
 1561 00a7 BF000000 		.4byte	.LASF14
 1562 00ab 03       		.byte	0x3
 1563 00ac 30       		.byte	0x30
 1564 00ad 3E000000 		.4byte	0x3e
 1565 00b1 04       		.uleb128 0x4
ARM GAS  /tmp/ccc9VKF2.s 			page 29


 1566 00b2 62020000 		.4byte	.LASF15
 1567 00b6 03       		.byte	0x3
 1568 00b7 31       		.byte	0x31
 1569 00b8 3E000000 		.4byte	0x3e
 1570 00bc 04       		.uleb128 0x4
 1571 00bd 95020000 		.4byte	.LASF16
 1572 00c1 03       		.byte	0x3
 1573 00c2 32       		.byte	0x32
 1574 00c3 70000000 		.4byte	0x70
 1575 00c7 04       		.uleb128 0x4
 1576 00c8 B1010000 		.4byte	.LASF17
 1577 00cc 03       		.byte	0x3
 1578 00cd 33       		.byte	0x33
 1579 00ce 5E000000 		.4byte	0x5e
 1580 00d2 04       		.uleb128 0x4
 1581 00d3 0F010000 		.4byte	.LASF18
 1582 00d7 03       		.byte	0x3
 1583 00d8 34       		.byte	0x34
 1584 00d9 5E000000 		.4byte	0x5e
 1585 00dd 04       		.uleb128 0x4
 1586 00de E3010000 		.4byte	.LASF19
 1587 00e2 03       		.byte	0x3
 1588 00e3 35       		.byte	0x35
 1589 00e4 70000000 		.4byte	0x70
 1590 00e8 04       		.uleb128 0x4
 1591 00e9 37030000 		.4byte	.LASF20
 1592 00ed 03       		.byte	0x3
 1593 00ee 36       		.byte	0x36
 1594 00ef 70000000 		.4byte	0x70
 1595 00f3 04       		.uleb128 0x4
 1596 00f4 31010000 		.4byte	.LASF21
 1597 00f8 03       		.byte	0x3
 1598 00f9 37       		.byte	0x37
 1599 00fa 5E000000 		.4byte	0x5e
 1600 00fe 04       		.uleb128 0x4
 1601 00ff 08030000 		.4byte	.LASF22
 1602 0103 04       		.byte	0x4
 1603 0104 2A       		.byte	0x2a
 1604 0105 09010000 		.4byte	0x109
 1605 0109 05       		.uleb128 0x5
 1606 010a 08030000 		.4byte	.LASF22
 1607 010e 4C       		.byte	0x4c
 1608 010f 05       		.byte	0x5
 1609 0110 5E       		.byte	0x5e
 1610 0111 2E020000 		.4byte	0x22e
 1611 0115 06       		.uleb128 0x6
 1612 0116 F9020000 		.4byte	.LASF23
 1613 011a 05       		.byte	0x5
 1614 011b 5F       		.byte	0x5f
 1615 011c 53020000 		.4byte	0x253
 1616 0120 02       		.byte	0x2
 1617 0121 23       		.byte	0x23
 1618 0122 00       		.uleb128 0x0
 1619 0123 06       		.uleb128 0x6
 1620 0124 8E020000 		.4byte	.LASF24
 1621 0128 05       		.byte	0x5
 1622 0129 61       		.byte	0x61
ARM GAS  /tmp/ccc9VKF2.s 			page 30


 1623 012a 53020000 		.4byte	0x253
 1624 012e 02       		.byte	0x2
 1625 012f 23       		.byte	0x23
 1626 0130 04       		.uleb128 0x4
 1627 0131 06       		.uleb128 0x6
 1628 0132 5C000000 		.4byte	.LASF25
 1629 0136 05       		.byte	0x5
 1630 0137 63       		.byte	0x63
 1631 0138 BC000000 		.4byte	0xbc
 1632 013c 02       		.byte	0x2
 1633 013d 23       		.byte	0x23
 1634 013e 08       		.uleb128 0x8
 1635 013f 06       		.uleb128 0x6
 1636 0140 E6030000 		.4byte	.LASF26
 1637 0144 05       		.byte	0x5
 1638 0145 64       		.byte	0x64
 1639 0146 2B030000 		.4byte	0x32b
 1640 014a 02       		.byte	0x2
 1641 014b 23       		.byte	0x23
 1642 014c 0C       		.uleb128 0xc
 1643 014d 06       		.uleb128 0x6
 1644 014e DD000000 		.4byte	.LASF27
 1645 0152 05       		.byte	0x5
 1646 0153 66       		.byte	0x66
 1647 0154 53020000 		.4byte	0x253
 1648 0158 02       		.byte	0x2
 1649 0159 23       		.byte	0x23
 1650 015a 10       		.uleb128 0x10
 1651 015b 06       		.uleb128 0x6
 1652 015c 0E020000 		.4byte	.LASF28
 1653 0160 05       		.byte	0x5
 1654 0161 67       		.byte	0x67
 1655 0162 53020000 		.4byte	0x253
 1656 0166 02       		.byte	0x2
 1657 0167 23       		.byte	0x23
 1658 0168 14       		.uleb128 0x14
 1659 0169 06       		.uleb128 0x6
 1660 016a C5030000 		.4byte	.LASF29
 1661 016e 05       		.byte	0x5
 1662 016f 6E       		.byte	0x6e
 1663 0170 D1040000 		.4byte	0x4d1
 1664 0174 02       		.byte	0x2
 1665 0175 23       		.byte	0x23
 1666 0176 18       		.uleb128 0x18
 1667 0177 06       		.uleb128 0x6
 1668 0178 37010000 		.4byte	.LASF30
 1669 017c 05       		.byte	0x5
 1670 017d 74       		.byte	0x74
 1671 017e E3040000 		.4byte	0x4e3
 1672 0182 02       		.byte	0x2
 1673 0183 23       		.byte	0x23
 1674 0184 1C       		.uleb128 0x1c
 1675 0185 06       		.uleb128 0x6
 1676 0186 E3020000 		.4byte	.LASF31
 1677 018a 05       		.byte	0x5
 1678 018b 79       		.byte	0x79
 1679 018c A6000000 		.4byte	0xa6
ARM GAS  /tmp/ccc9VKF2.s 			page 31


 1680 0190 02       		.byte	0x2
 1681 0191 23       		.byte	0x23
 1682 0192 20       		.uleb128 0x20
 1683 0193 06       		.uleb128 0x6
 1684 0194 00030000 		.4byte	.LASF32
 1685 0198 05       		.byte	0x5
 1686 0199 7D       		.byte	0x7d
 1687 019a 9B000000 		.4byte	0x9b
 1688 019e 02       		.byte	0x2
 1689 019f 23       		.byte	0x23
 1690 01a0 21       		.uleb128 0x21
 1691 01a1 06       		.uleb128 0x6
 1692 01a2 71030000 		.4byte	.LASF33
 1693 01a6 05       		.byte	0x5
 1694 01a7 82       		.byte	0x82
 1695 01a8 B1000000 		.4byte	0xb1
 1696 01ac 02       		.byte	0x2
 1697 01ad 23       		.byte	0x23
 1698 01ae 22       		.uleb128 0x22
 1699 01af 06       		.uleb128 0x6
 1700 01b0 B2030000 		.4byte	.LASF34
 1701 01b4 05       		.byte	0x5
 1702 01b5 89       		.byte	0x89
 1703 01b6 4E030000 		.4byte	0x34e
 1704 01ba 02       		.byte	0x2
 1705 01bb 23       		.byte	0x23
 1706 01bc 24       		.uleb128 0x24
 1707 01bd 07       		.uleb128 0x7
 1708 01be 705F7500 		.ascii	"p_u\000"
 1709 01c2 05       		.byte	0x5
 1710 01c3 AE       		.byte	0xae
 1711 01c4 9C040000 		.4byte	0x49c
 1712 01c8 02       		.byte	0x2
 1713 01c9 23       		.byte	0x23
 1714 01ca 28       		.uleb128 0x28
 1715 01cb 06       		.uleb128 0x6
 1716 01cc EC030000 		.4byte	.LASF35
 1717 01d0 05       		.byte	0x5
 1718 01d1 B3       		.byte	0xb3
 1719 01d2 7B020000 		.4byte	0x27b
 1720 01d6 02       		.byte	0x2
 1721 01d7 23       		.byte	0x23
 1722 01d8 2C       		.uleb128 0x2c
 1723 01d9 06       		.uleb128 0x6
 1724 01da 66030000 		.4byte	.LASF36
 1725 01de 05       		.byte	0x5
 1726 01df B9       		.byte	0xb9
 1727 01e0 59020000 		.4byte	0x259
 1728 01e4 02       		.byte	0x2
 1729 01e5 23       		.byte	0x23
 1730 01e6 30       		.uleb128 0x30
 1731 01e7 06       		.uleb128 0x6
 1732 01e8 00000000 		.4byte	.LASF37
 1733 01ec 05       		.byte	0x5
 1734 01ed BD       		.byte	0xbd
 1735 01ee C7000000 		.4byte	0xc7
 1736 01f2 02       		.byte	0x2
ARM GAS  /tmp/ccc9VKF2.s 			page 32


 1737 01f3 23       		.byte	0x23
 1738 01f4 38       		.uleb128 0x38
 1739 01f5 06       		.uleb128 0x6
 1740 01f6 0F030000 		.4byte	.LASF38
 1741 01fa 05       		.byte	0x5
 1742 01fb C3       		.byte	0xc3
 1743 01fc DD000000 		.4byte	0xdd
 1744 0200 02       		.byte	0x2
 1745 0201 23       		.byte	0x23
 1746 0202 3C       		.uleb128 0x3c
 1747 0203 06       		.uleb128 0x6
 1748 0204 CF020000 		.4byte	.LASF39
 1749 0208 05       		.byte	0x5
 1750 0209 CA       		.byte	0xca
 1751 020a E9040000 		.4byte	0x4e9
 1752 020e 02       		.byte	0x2
 1753 020f 23       		.byte	0x23
 1754 0210 40       		.uleb128 0x40
 1755 0211 06       		.uleb128 0x6
 1756 0212 41030000 		.4byte	.LASF40
 1757 0216 05       		.byte	0x5
 1758 0217 CE       		.byte	0xce
 1759 0218 BC000000 		.4byte	0xbc
 1760 021c 02       		.byte	0x2
 1761 021d 23       		.byte	0x23
 1762 021e 44       		.uleb128 0x44
 1763 021f 06       		.uleb128 0x6
 1764 0220 91000000 		.4byte	.LASF41
 1765 0224 05       		.byte	0x5
 1766 0225 D4       		.byte	0xd4
 1767 0226 91020000 		.4byte	0x291
 1768 022a 02       		.byte	0x2
 1769 022b 23       		.byte	0x23
 1770 022c 48       		.uleb128 0x48
 1771 022d 00       		.byte	0x0
 1772 022e 08       		.uleb128 0x8
 1773 022f 08       		.byte	0x8
 1774 0230 04       		.byte	0x4
 1775 0231 61       		.byte	0x61
 1776 0232 53020000 		.4byte	0x253
 1777 0236 06       		.uleb128 0x6
 1778 0237 F9020000 		.4byte	.LASF23
 1779 023b 04       		.byte	0x4
 1780 023c 62       		.byte	0x62
 1781 023d 53020000 		.4byte	0x253
 1782 0241 02       		.byte	0x2
 1783 0242 23       		.byte	0x23
 1784 0243 00       		.uleb128 0x0
 1785 0244 06       		.uleb128 0x6
 1786 0245 8E020000 		.4byte	.LASF24
 1787 0249 04       		.byte	0x4
 1788 024a 64       		.byte	0x64
 1789 024b 53020000 		.4byte	0x253
 1790 024f 02       		.byte	0x2
 1791 0250 23       		.byte	0x23
 1792 0251 04       		.uleb128 0x4
 1793 0252 00       		.byte	0x0
ARM GAS  /tmp/ccc9VKF2.s 			page 33


 1794 0253 09       		.uleb128 0x9
 1795 0254 04       		.byte	0x4
 1796 0255 FE000000 		.4byte	0xfe
 1797 0259 04       		.uleb128 0x4
 1798 025a 1C020000 		.4byte	.LASF42
 1799 025e 04       		.byte	0x4
 1800 025f 66       		.byte	0x66
 1801 0260 2E020000 		.4byte	0x22e
 1802 0264 08       		.uleb128 0x8
 1803 0265 04       		.byte	0x4
 1804 0266 04       		.byte	0x4
 1805 0267 6B       		.byte	0x6b
 1806 0268 7B020000 		.4byte	0x27b
 1807 026c 06       		.uleb128 0x6
 1808 026d F9020000 		.4byte	.LASF23
 1809 0271 04       		.byte	0x4
 1810 0272 6D       		.byte	0x6d
 1811 0273 53020000 		.4byte	0x253
 1812 0277 02       		.byte	0x2
 1813 0278 23       		.byte	0x23
 1814 0279 00       		.uleb128 0x0
 1815 027a 00       		.byte	0x0
 1816 027b 04       		.uleb128 0x4
 1817 027c D7010000 		.4byte	.LASF43
 1818 0280 04       		.byte	0x4
 1819 0281 70       		.byte	0x70
 1820 0282 64020000 		.4byte	0x264
 1821 0286 04       		.uleb128 0x4
 1822 0287 F2000000 		.4byte	.LASF44
 1823 028b 06       		.byte	0x6
 1824 028c D7       		.byte	0xd7
 1825 028d 91020000 		.4byte	0x291
 1826 0291 0A       		.uleb128 0xa
 1827 0292 04       		.byte	0x4
 1828 0293 04       		.uleb128 0x4
 1829 0294 F5010000 		.4byte	.LASF45
 1830 0298 06       		.byte	0x6
 1831 0299 DD       		.byte	0xdd
 1832 029a 89000000 		.4byte	0x89
 1833 029e 05       		.uleb128 0x5
 1834 029f 5F030000 		.4byte	.LASF46
 1835 02a3 24       		.byte	0x24
 1836 02a4 06       		.byte	0x6
 1837 02a5 FE       		.byte	0xfe
 1838 02a6 2B030000 		.4byte	0x32b
 1839 02aa 0B       		.uleb128 0xb
 1840 02ab 723400   		.ascii	"r4\000"
 1841 02ae 06       		.byte	0x6
 1842 02af 1101     		.2byte	0x111
 1843 02b1 86020000 		.4byte	0x286
 1844 02b5 02       		.byte	0x2
 1845 02b6 23       		.byte	0x23
 1846 02b7 00       		.uleb128 0x0
 1847 02b8 0B       		.uleb128 0xb
 1848 02b9 723500   		.ascii	"r5\000"
 1849 02bc 06       		.byte	0x6
 1850 02bd 1201     		.2byte	0x112
ARM GAS  /tmp/ccc9VKF2.s 			page 34


 1851 02bf 86020000 		.4byte	0x286
 1852 02c3 02       		.byte	0x2
 1853 02c4 23       		.byte	0x23
 1854 02c5 04       		.uleb128 0x4
 1855 02c6 0B       		.uleb128 0xb
 1856 02c7 723600   		.ascii	"r6\000"
 1857 02ca 06       		.byte	0x6
 1858 02cb 1301     		.2byte	0x113
 1859 02cd 86020000 		.4byte	0x286
 1860 02d1 02       		.byte	0x2
 1861 02d2 23       		.byte	0x23
 1862 02d3 08       		.uleb128 0x8
 1863 02d4 0B       		.uleb128 0xb
 1864 02d5 723700   		.ascii	"r7\000"
 1865 02d8 06       		.byte	0x6
 1866 02d9 1401     		.2byte	0x114
 1867 02db 86020000 		.4byte	0x286
 1868 02df 02       		.byte	0x2
 1869 02e0 23       		.byte	0x23
 1870 02e1 0C       		.uleb128 0xc
 1871 02e2 0B       		.uleb128 0xb
 1872 02e3 723800   		.ascii	"r8\000"
 1873 02e6 06       		.byte	0x6
 1874 02e7 1501     		.2byte	0x115
 1875 02e9 86020000 		.4byte	0x286
 1876 02ed 02       		.byte	0x2
 1877 02ee 23       		.byte	0x23
 1878 02ef 10       		.uleb128 0x10
 1879 02f0 0B       		.uleb128 0xb
 1880 02f1 723900   		.ascii	"r9\000"
 1881 02f4 06       		.byte	0x6
 1882 02f5 1601     		.2byte	0x116
 1883 02f7 86020000 		.4byte	0x286
 1884 02fb 02       		.byte	0x2
 1885 02fc 23       		.byte	0x23
 1886 02fd 14       		.uleb128 0x14
 1887 02fe 0B       		.uleb128 0xb
 1888 02ff 72313000 		.ascii	"r10\000"
 1889 0303 06       		.byte	0x6
 1890 0304 1701     		.2byte	0x117
 1891 0306 86020000 		.4byte	0x286
 1892 030a 02       		.byte	0x2
 1893 030b 23       		.byte	0x23
 1894 030c 18       		.uleb128 0x18
 1895 030d 0B       		.uleb128 0xb
 1896 030e 72313100 		.ascii	"r11\000"
 1897 0312 06       		.byte	0x6
 1898 0313 1801     		.2byte	0x118
 1899 0315 86020000 		.4byte	0x286
 1900 0319 02       		.byte	0x2
 1901 031a 23       		.byte	0x23
 1902 031b 1C       		.uleb128 0x1c
 1903 031c 0B       		.uleb128 0xb
 1904 031d 6C7200   		.ascii	"lr\000"
 1905 0320 06       		.byte	0x6
 1906 0321 1901     		.2byte	0x119
 1907 0323 86020000 		.4byte	0x286
ARM GAS  /tmp/ccc9VKF2.s 			page 35


 1908 0327 02       		.byte	0x2
 1909 0328 23       		.byte	0x23
 1910 0329 20       		.uleb128 0x20
 1911 032a 00       		.byte	0x0
 1912 032b 0C       		.uleb128 0xc
 1913 032c 61010000 		.4byte	.LASF47
 1914 0330 04       		.byte	0x4
 1915 0331 06       		.byte	0x6
 1916 0332 2301     		.2byte	0x123
 1917 0334 48030000 		.4byte	0x348
 1918 0338 0B       		.uleb128 0xb
 1919 0339 72313300 		.ascii	"r13\000"
 1920 033d 06       		.byte	0x6
 1921 033e 2401     		.2byte	0x124
 1922 0340 48030000 		.4byte	0x348
 1923 0344 02       		.byte	0x2
 1924 0345 23       		.byte	0x23
 1925 0346 00       		.uleb128 0x0
 1926 0347 00       		.byte	0x0
 1927 0348 09       		.uleb128 0x9
 1928 0349 04       		.byte	0x4
 1929 034a 9E020000 		.4byte	0x29e
 1930 034e 0D       		.uleb128 0xd
 1931 034f E8000000 		.4byte	0xe8
 1932 0353 08       		.uleb128 0x8
 1933 0354 20       		.byte	0x20
 1934 0355 07       		.byte	0x7
 1935 0356 5E       		.byte	0x5e
 1936 0357 BE030000 		.4byte	0x3be
 1937 035b 06       		.uleb128 0x6
 1938 035c 23030000 		.4byte	.LASF48
 1939 0360 07       		.byte	0x7
 1940 0361 5F       		.byte	0x5f
 1941 0362 59020000 		.4byte	0x259
 1942 0366 02       		.byte	0x2
 1943 0367 23       		.byte	0x23
 1944 0368 00       		.uleb128 0x0
 1945 0369 06       		.uleb128 0x6
 1946 036a EB020000 		.4byte	.LASF49
 1947 036e 07       		.byte	0x7
 1948 036f 60       		.byte	0x60
 1949 0370 BC000000 		.4byte	0xbc
 1950 0374 02       		.byte	0x2
 1951 0375 23       		.byte	0x23
 1952 0376 08       		.uleb128 0x8
 1953 0377 06       		.uleb128 0x6
 1954 0378 16020000 		.4byte	.LASF50
 1955 037c 07       		.byte	0x7
 1956 037d 62       		.byte	0x62
 1957 037e 2B030000 		.4byte	0x32b
 1958 0382 02       		.byte	0x2
 1959 0383 23       		.byte	0x23
 1960 0384 0C       		.uleb128 0xc
 1961 0385 06       		.uleb128 0x6
 1962 0386 E5000000 		.4byte	.LASF51
 1963 038a 07       		.byte	0x7
 1964 038b 65       		.byte	0x65
ARM GAS  /tmp/ccc9VKF2.s 			page 36


 1965 038c 53020000 		.4byte	0x253
 1966 0390 02       		.byte	0x2
 1967 0391 23       		.byte	0x23
 1968 0392 10       		.uleb128 0x10
 1969 0393 06       		.uleb128 0x6
 1970 0394 49020000 		.4byte	.LASF52
 1971 0398 07       		.byte	0x7
 1972 0399 66       		.byte	0x66
 1973 039a 53020000 		.4byte	0x253
 1974 039e 02       		.byte	0x2
 1975 039f 23       		.byte	0x23
 1976 03a0 14       		.uleb128 0x14
 1977 03a1 06       		.uleb128 0x6
 1978 03a2 D4030000 		.4byte	.LASF53
 1979 03a6 07       		.byte	0x7
 1980 03a7 6A       		.byte	0x6a
 1981 03a8 F3000000 		.4byte	0xf3
 1982 03ac 02       		.byte	0x2
 1983 03ad 23       		.byte	0x23
 1984 03ae 18       		.uleb128 0x18
 1985 03af 06       		.uleb128 0x6
 1986 03b0 3F020000 		.4byte	.LASF54
 1987 03b4 07       		.byte	0x7
 1988 03b5 6C       		.byte	0x6c
 1989 03b6 53020000 		.4byte	0x253
 1990 03ba 02       		.byte	0x2
 1991 03bb 23       		.byte	0x23
 1992 03bc 1C       		.uleb128 0x1c
 1993 03bd 00       		.byte	0x0
 1994 03be 04       		.uleb128 0x4
 1995 03bf 78030000 		.4byte	.LASF55
 1996 03c3 07       		.byte	0x7
 1997 03c4 6E       		.byte	0x6e
 1998 03c5 53030000 		.4byte	0x353
 1999 03c9 05       		.uleb128 0x5
 2000 03ca EF010000 		.4byte	.LASF56
 2001 03ce 10       		.byte	0x10
 2002 03cf 08       		.byte	0x8
 2003 03d0 2C       		.byte	0x2c
 2004 03d1 00040000 		.4byte	0x400
 2005 03d5 06       		.uleb128 0x6
 2006 03d6 99000000 		.4byte	.LASF57
 2007 03da 08       		.byte	0x8
 2008 03db 2D       		.byte	0x2d
 2009 03dc 59020000 		.4byte	0x259
 2010 03e0 02       		.byte	0x2
 2011 03e1 23       		.byte	0x23
 2012 03e2 00       		.uleb128 0x0
 2013 03e3 06       		.uleb128 0x6
 2014 03e4 DE030000 		.4byte	.LASF58
 2015 03e8 08       		.byte	0x8
 2016 03e9 2F       		.byte	0x2f
 2017 03ea 53020000 		.4byte	0x253
 2018 03ee 02       		.byte	0x2
 2019 03ef 23       		.byte	0x23
 2020 03f0 08       		.uleb128 0x8
 2021 03f1 06       		.uleb128 0x6
ARM GAS  /tmp/ccc9VKF2.s 			page 37


 2022 03f2 30030000 		.4byte	.LASF59
 2023 03f6 08       		.byte	0x8
 2024 03f7 31       		.byte	0x31
 2025 03f8 00040000 		.4byte	0x400
 2026 03fc 02       		.byte	0x2
 2027 03fd 23       		.byte	0x23
 2028 03fe 0C       		.uleb128 0xc
 2029 03ff 00       		.byte	0x0
 2030 0400 09       		.uleb128 0x9
 2031 0401 04       		.byte	0x4
 2032 0402 C9030000 		.4byte	0x3c9
 2033 0406 04       		.uleb128 0x4
 2034 0407 EF010000 		.4byte	.LASF56
 2035 040b 08       		.byte	0x8
 2036 040c 33       		.byte	0x33
 2037 040d C9030000 		.4byte	0x3c9
 2038 0411 04       		.uleb128 0x4
 2039 0412 90030000 		.4byte	.LASF60
 2040 0416 09       		.byte	0x9
 2041 0417 29       		.byte	0x29
 2042 0418 1C040000 		.4byte	0x41c
 2043 041c 05       		.uleb128 0x5
 2044 041d 90030000 		.4byte	.LASF60
 2045 0421 0C       		.byte	0xc
 2046 0422 09       		.byte	0x9
 2047 0423 2E       		.byte	0x2e
 2048 0424 53040000 		.4byte	0x453
 2049 0428 06       		.uleb128 0x6
 2050 0429 B7010000 		.4byte	.LASF61
 2051 042d 09       		.byte	0x9
 2052 042e 2F       		.byte	0x2f
 2053 042f 53040000 		.4byte	0x453
 2054 0433 02       		.byte	0x2
 2055 0434 23       		.byte	0x23
 2056 0435 00       		.uleb128 0x0
 2057 0436 06       		.uleb128 0x6
 2058 0437 C3020000 		.4byte	.LASF62
 2059 043b 09       		.byte	0x9
 2060 043c 32       		.byte	0x32
 2061 043d 53020000 		.4byte	0x253
 2062 0441 02       		.byte	0x2
 2063 0442 23       		.byte	0x23
 2064 0443 04       		.uleb128 0x4
 2065 0444 06       		.uleb128 0x6
 2066 0445 51020000 		.4byte	.LASF63
 2067 0449 09       		.byte	0x9
 2068 044a 34       		.byte	0x34
 2069 044b DD000000 		.4byte	0xdd
 2070 044f 02       		.byte	0x2
 2071 0450 23       		.byte	0x23
 2072 0451 08       		.uleb128 0x8
 2073 0452 00       		.byte	0x0
 2074 0453 09       		.uleb128 0x9
 2075 0454 04       		.byte	0x4
 2076 0455 11040000 		.4byte	0x411
 2077 0459 05       		.uleb128 0x5
 2078 045a 19010000 		.4byte	.LASF64
ARM GAS  /tmp/ccc9VKF2.s 			page 38


 2079 045e 04       		.byte	0x4
 2080 045f 09       		.byte	0x9
 2081 0460 3C       		.byte	0x3c
 2082 0461 74040000 		.4byte	0x474
 2083 0465 06       		.uleb128 0x6
 2084 0466 CC030000 		.4byte	.LASF65
 2085 046a 09       		.byte	0x9
 2086 046b 3D       		.byte	0x3d
 2087 046c 53040000 		.4byte	0x453
 2088 0470 02       		.byte	0x2
 2089 0471 23       		.byte	0x23
 2090 0472 00       		.uleb128 0x0
 2091 0473 00       		.byte	0x0
 2092 0474 04       		.uleb128 0x4
 2093 0475 19010000 		.4byte	.LASF64
 2094 0479 09       		.byte	0x9
 2095 047a 40       		.byte	0x40
 2096 047b 59040000 		.4byte	0x459
 2097 047f 04       		.uleb128 0x4
 2098 0480 25010000 		.4byte	.LASF66
 2099 0484 09       		.byte	0x9
 2100 0485 45       		.byte	0x45
 2101 0486 8A040000 		.4byte	0x48a
 2102 048a 09       		.uleb128 0x9
 2103 048b 04       		.byte	0x4
 2104 048c 90040000 		.4byte	0x490
 2105 0490 0E       		.uleb128 0xe
 2106 0491 01       		.byte	0x1
 2107 0492 9C040000 		.4byte	0x49c
 2108 0496 0F       		.uleb128 0xf
 2109 0497 D2000000 		.4byte	0xd2
 2110 049b 00       		.byte	0x0
 2111 049c 10       		.uleb128 0x10
 2112 049d 04       		.byte	0x4
 2113 049e 05       		.byte	0x5
 2114 049f 90       		.byte	0x90
 2115 04a0 D1040000 		.4byte	0x4d1
 2116 04a4 11       		.uleb128 0x11
 2117 04a5 06000000 		.4byte	.LASF67
 2118 04a9 05       		.byte	0x5
 2119 04aa 97       		.byte	0x97
 2120 04ab C7000000 		.4byte	0xc7
 2121 04af 11       		.uleb128 0x11
 2122 04b0 2D000000 		.4byte	.LASF68
 2123 04b4 05       		.byte	0x5
 2124 04b5 9E       		.byte	0x9e
 2125 04b6 C7000000 		.4byte	0xc7
 2126 04ba 11       		.uleb128 0x11
 2127 04bb A1000000 		.4byte	.LASF69
 2128 04bf 05       		.byte	0x5
 2129 04c0 A5       		.byte	0xa5
 2130 04c1 91020000 		.4byte	0x291
 2131 04c5 11       		.uleb128 0x11
 2132 04c6 F2020000 		.4byte	.LASF70
 2133 04ca 05       		.byte	0x5
 2134 04cb AC       		.byte	0xac
 2135 04cc DD000000 		.4byte	0xdd
ARM GAS  /tmp/ccc9VKF2.s 			page 39


 2136 04d0 00       		.byte	0x0
 2137 04d1 09       		.uleb128 0x9
 2138 04d2 04       		.byte	0x4
 2139 04d3 D7040000 		.4byte	0x4d7
 2140 04d7 12       		.uleb128 0x12
 2141 04d8 DC040000 		.4byte	0x4dc
 2142 04dc 03       		.uleb128 0x3
 2143 04dd 01       		.byte	0x1
 2144 04de 08       		.byte	0x8
 2145 04df 2B030000 		.4byte	.LASF71
 2146 04e3 09       		.uleb128 0x9
 2147 04e4 04       		.byte	0x4
 2148 04e5 93020000 		.4byte	0x293
 2149 04e9 09       		.uleb128 0x9
 2150 04ea 04       		.byte	0x4
 2151 04eb 06040000 		.4byte	0x406
 2152 04ef 13       		.uleb128 0x13
 2153 04f0 01       		.byte	0x1
 2154 04f1 9F010000 		.4byte	.LASF73
 2155 04f5 01       		.byte	0x1
 2156 04f6 52       		.byte	0x52
 2157 04f7 01       		.byte	0x1
 2158 04f8 00000000 		.4byte	.LFB0
 2159 04fc 3C000000 		.4byte	.LFE0
 2160 0500 00000000 		.4byte	.LLST0
 2161 0504 36050000 		.4byte	0x536
 2162 0508 14       		.uleb128 0x14
 2163 0509 65737000 		.ascii	"esp\000"
 2164 050d 01       		.byte	0x1
 2165 050e 52       		.byte	0x52
 2166 050f 36050000 		.4byte	0x536
 2167 0513 20000000 		.4byte	.LLST1
 2168 0517 14       		.uleb128 0x14
 2169 0518 656C7000 		.ascii	"elp\000"
 2170 051c 01       		.byte	0x1
 2171 051d 52       		.byte	0x52
 2172 051e 53040000 		.4byte	0x453
 2173 0522 3E000000 		.4byte	.LLST2
 2174 0526 15       		.uleb128 0x15
 2175 0527 ED000000 		.4byte	.LASF72
 2176 052b 01       		.byte	0x1
 2177 052c 52       		.byte	0x52
 2178 052d DD000000 		.4byte	0xdd
 2179 0531 5C000000 		.4byte	.LLST3
 2180 0535 00       		.byte	0x0
 2181 0536 09       		.uleb128 0x9
 2182 0537 04       		.byte	0x4
 2183 0538 74040000 		.4byte	0x474
 2184 053c 13       		.uleb128 0x13
 2185 053d 01       		.byte	0x1
 2186 053e BF010000 		.4byte	.LASF74
 2187 0542 01       		.byte	0x1
 2188 0543 6B       		.byte	0x6b
 2189 0544 01       		.byte	0x1
 2190 0545 00000000 		.4byte	.LFB1
 2191 0549 3C000000 		.4byte	.LFE1
 2192 054d 7A000000 		.4byte	.LLST4
ARM GAS  /tmp/ccc9VKF2.s 			page 40


 2193 0551 81050000 		.4byte	0x581
 2194 0555 14       		.uleb128 0x14
 2195 0556 65737000 		.ascii	"esp\000"
 2196 055a 01       		.byte	0x1
 2197 055b 6B       		.byte	0x6b
 2198 055c 36050000 		.4byte	0x536
 2199 0560 9A000000 		.4byte	.LLST5
 2200 0564 14       		.uleb128 0x14
 2201 0565 656C7000 		.ascii	"elp\000"
 2202 0569 01       		.byte	0x1
 2203 056a 6B       		.byte	0x6b
 2204 056b 53040000 		.4byte	0x453
 2205 056f B8000000 		.4byte	.LLST6
 2206 0573 16       		.uleb128 0x16
 2207 0574 7000     		.ascii	"p\000"
 2208 0576 01       		.byte	0x1
 2209 0577 6C       		.byte	0x6c
 2210 0578 53040000 		.4byte	0x453
 2211 057c D6000000 		.4byte	.LLST7
 2212 0580 00       		.byte	0x0
 2213 0581 17       		.uleb128 0x17
 2214 0582 01       		.byte	0x1
 2215 0583 9D020000 		.4byte	.LASF75
 2216 0587 01       		.byte	0x1
 2217 0588 84       		.byte	0x84
 2218 0589 01       		.byte	0x1
 2219 058a DD000000 		.4byte	0xdd
 2220 058e 00000000 		.4byte	.LFB2
 2221 0592 2C000000 		.4byte	.LFE2
 2222 0596 FF000000 		.4byte	.LLST8
 2223 059a BE050000 		.4byte	0x5be
 2224 059e 15       		.uleb128 0x15
 2225 059f ED000000 		.4byte	.LASF72
 2226 05a3 01       		.byte	0x1
 2227 05a4 84       		.byte	0x84
 2228 05a5 DD000000 		.4byte	0xdd
 2229 05a9 1F010000 		.4byte	.LLST9
 2230 05ad 18       		.uleb128 0x18
 2231 05ae 6D00     		.ascii	"m\000"
 2232 05b0 01       		.byte	0x1
 2233 05b1 85       		.byte	0x85
 2234 05b2 DD000000 		.4byte	0xdd
 2235 05b6 06       		.byte	0x6
 2236 05b7 75       		.byte	0x75
 2237 05b8 00       		.sleb128 0
 2238 05b9 74       		.byte	0x74
 2239 05ba 00       		.sleb128 0
 2240 05bb 1A       		.byte	0x1a
 2241 05bc 9F       		.byte	0x9f
 2242 05bd 00       		.byte	0x0
 2243 05be 17       		.uleb128 0x17
 2244 05bf 01       		.byte	0x1
 2245 05c0 A8000000 		.4byte	.LASF76
 2246 05c4 01       		.byte	0x1
 2247 05c5 99       		.byte	0x99
 2248 05c6 01       		.byte	0x1
 2249 05c7 DD000000 		.4byte	0xdd
ARM GAS  /tmp/ccc9VKF2.s 			page 41


 2250 05cb 00000000 		.4byte	.LFB3
 2251 05cf 28000000 		.4byte	.LFE3
 2252 05d3 3D010000 		.4byte	.LLST10
 2253 05d7 EB050000 		.4byte	0x5eb
 2254 05db 15       		.uleb128 0x15
 2255 05dc ED000000 		.4byte	.LASF72
 2256 05e0 01       		.byte	0x1
 2257 05e1 99       		.byte	0x99
 2258 05e2 DD000000 		.4byte	0xdd
 2259 05e6 5D010000 		.4byte	.LLST11
 2260 05ea 00       		.byte	0x0
 2261 05eb 13       		.uleb128 0x13
 2262 05ec 01       		.byte	0x1
 2263 05ed 36000000 		.4byte	.LASF77
 2264 05f1 01       		.byte	0x1
 2265 05f2 C1       		.byte	0xc1
 2266 05f3 01       		.byte	0x1
 2267 05f4 00000000 		.4byte	.LFB5
 2268 05f8 44000000 		.4byte	.LFE5
 2269 05fc 86010000 		.4byte	.LLST12
 2270 0600 22060000 		.4byte	0x622
 2271 0604 14       		.uleb128 0x14
 2272 0605 747000   		.ascii	"tp\000"
 2273 0608 01       		.byte	0x1
 2274 0609 C1       		.byte	0xc1
 2275 060a 53020000 		.4byte	0x253
 2276 060e A6010000 		.4byte	.LLST13
 2277 0612 15       		.uleb128 0x15
 2278 0613 ED000000 		.4byte	.LASF72
 2279 0617 01       		.byte	0x1
 2280 0618 C1       		.byte	0xc1
 2281 0619 DD000000 		.4byte	0xdd
 2282 061d C4010000 		.4byte	.LLST14
 2283 0621 00       		.byte	0x0
 2284 0622 13       		.uleb128 0x13
 2285 0623 01       		.byte	0x1
 2286 0624 2E020000 		.4byte	.LASF78
 2287 0628 01       		.byte	0x1
 2288 0629 AB       		.byte	0xab
 2289 062a 01       		.byte	0x1
 2290 062b 00000000 		.4byte	.LFB4
 2291 062f 30000000 		.4byte	.LFE4
 2292 0633 E2010000 		.4byte	.LLST15
 2293 0637 59060000 		.4byte	0x659
 2294 063b 14       		.uleb128 0x14
 2295 063c 747000   		.ascii	"tp\000"
 2296 063f 01       		.byte	0x1
 2297 0640 AB       		.byte	0xab
 2298 0641 53020000 		.4byte	0x253
 2299 0645 02020000 		.4byte	.LLST16
 2300 0649 15       		.uleb128 0x15
 2301 064a ED000000 		.4byte	.LASF72
 2302 064e 01       		.byte	0x1
 2303 064f AB       		.byte	0xab
 2304 0650 DD000000 		.4byte	0xdd
 2305 0654 20020000 		.4byte	.LLST17
 2306 0658 00       		.byte	0x0
ARM GAS  /tmp/ccc9VKF2.s 			page 42


 2307 0659 13       		.uleb128 0x13
 2308 065a 01       		.byte	0x1
 2309 065b C8000000 		.4byte	.LASF79
 2310 065f 01       		.byte	0x1
 2311 0660 F5       		.byte	0xf5
 2312 0661 01       		.byte	0x1
 2313 0662 00000000 		.4byte	.LFB7
 2314 0666 30000000 		.4byte	.LFE7
 2315 066a 3E020000 		.4byte	.LLST18
 2316 066e A0060000 		.4byte	0x6a0
 2317 0672 14       		.uleb128 0x14
 2318 0673 65737000 		.ascii	"esp\000"
 2319 0677 01       		.byte	0x1
 2320 0678 F5       		.byte	0xf5
 2321 0679 36050000 		.4byte	0x536
 2322 067d 5E020000 		.4byte	.LLST19
 2323 0681 15       		.uleb128 0x15
 2324 0682 ED000000 		.4byte	.LASF72
 2325 0686 01       		.byte	0x1
 2326 0687 F5       		.byte	0xf5
 2327 0688 DD000000 		.4byte	0xdd
 2328 068c 7C020000 		.4byte	.LLST20
 2329 0690 16       		.uleb128 0x16
 2330 0691 656C7000 		.ascii	"elp\000"
 2331 0695 01       		.byte	0x1
 2332 0696 F6       		.byte	0xf6
 2333 0697 53040000 		.4byte	0x453
 2334 069b 9A020000 		.4byte	.LLST21
 2335 069f 00       		.byte	0x0
 2336 06a0 13       		.uleb128 0x13
 2337 06a1 01       		.byte	0x1
 2338 06a2 FB000000 		.4byte	.LASF80
 2339 06a6 01       		.byte	0x1
 2340 06a7 DC       		.byte	0xdc
 2341 06a8 01       		.byte	0x1
 2342 06a9 00000000 		.4byte	.LFB6
 2343 06ad 24000000 		.4byte	.LFE6
 2344 06b1 C4020000 		.4byte	.LLST22
 2345 06b5 D8060000 		.4byte	0x6d8
 2346 06b9 14       		.uleb128 0x14
 2347 06ba 65737000 		.ascii	"esp\000"
 2348 06be 01       		.byte	0x1
 2349 06bf DC       		.byte	0xdc
 2350 06c0 36050000 		.4byte	0x536
 2351 06c4 E4020000 		.4byte	.LLST23
 2352 06c8 15       		.uleb128 0x15
 2353 06c9 ED000000 		.4byte	.LASF72
 2354 06cd 01       		.byte	0x1
 2355 06ce DC       		.byte	0xdc
 2356 06cf DD000000 		.4byte	0xdd
 2357 06d3 02030000 		.4byte	.LLST24
 2358 06d7 00       		.byte	0x0
 2359 06d8 19       		.uleb128 0x19
 2360 06d9 01       		.byte	0x1
 2361 06da 00020000 		.4byte	.LASF81
 2362 06de 01       		.byte	0x1
 2363 06df 0B01     		.2byte	0x10b
ARM GAS  /tmp/ccc9VKF2.s 			page 43


 2364 06e1 01       		.byte	0x1
 2365 06e2 00000000 		.4byte	.LFB8
 2366 06e6 4C000000 		.4byte	.LFE8
 2367 06ea 20030000 		.4byte	.LLST25
 2368 06ee 23070000 		.4byte	0x723
 2369 06f2 1A       		.uleb128 0x1a
 2370 06f3 59020000 		.4byte	.LASF82
 2371 06f7 01       		.byte	0x1
 2372 06f8 0B01     		.2byte	0x10b
 2373 06fa 23070000 		.4byte	0x723
 2374 06fe 40030000 		.4byte	.LLST26
 2375 0702 1A       		.uleb128 0x1a
 2376 0703 ED000000 		.4byte	.LASF72
 2377 0707 01       		.byte	0x1
 2378 0708 0B01     		.2byte	0x10b
 2379 070a DD000000 		.4byte	0xdd
 2380 070e 5E030000 		.4byte	.LLST27
 2381 0712 1B       		.uleb128 0x1b
 2382 0713 65696400 		.ascii	"eid\000"
 2383 0717 01       		.byte	0x1
 2384 0718 0C01     		.2byte	0x10c
 2385 071a D2000000 		.4byte	0xd2
 2386 071e 87030000 		.4byte	.LLST28
 2387 0722 00       		.byte	0x0
 2388 0723 09       		.uleb128 0x9
 2389 0724 04       		.byte	0x4
 2390 0725 29070000 		.4byte	0x729
 2391 0729 12       		.uleb128 0x12
 2392 072a 7F040000 		.4byte	0x47f
 2393 072e 1C       		.uleb128 0x1c
 2394 072f 01       		.byte	0x1
 2395 0730 9E030000 		.4byte	.LASF83
 2396 0734 01       		.byte	0x1
 2397 0735 8E01     		.2byte	0x18e
 2398 0737 01       		.byte	0x1
 2399 0738 DD000000 		.4byte	0xdd
 2400 073c 00000000 		.4byte	.LFB9
 2401 0740 60000000 		.4byte	.LFE9
 2402 0744 B0030000 		.4byte	.LLST29
 2403 0748 8B070000 		.4byte	0x78b
 2404 074c 1A       		.uleb128 0x1a
 2405 074d ED000000 		.4byte	.LASF72
 2406 0751 01       		.byte	0x1
 2407 0752 8E01     		.2byte	0x18e
 2408 0754 DD000000 		.4byte	0xdd
 2409 0758 D0030000 		.4byte	.LLST30
 2410 075c 1A       		.uleb128 0x1a
 2411 075d 29020000 		.4byte	.LASF84
 2412 0761 01       		.byte	0x1
 2413 0762 8E01     		.2byte	0x18e
 2414 0764 E8000000 		.4byte	0xe8
 2415 0768 EE030000 		.4byte	.LLST31
 2416 076c 1B       		.uleb128 0x1b
 2417 076d 63747000 		.ascii	"ctp\000"
 2418 0771 01       		.byte	0x1
 2419 0772 8F01     		.2byte	0x18f
 2420 0774 53020000 		.4byte	0x253
ARM GAS  /tmp/ccc9VKF2.s 			page 44


 2421 0778 0C040000 		.4byte	.LLST32
 2422 077c 1B       		.uleb128 0x1b
 2423 077d 6D00     		.ascii	"m\000"
 2424 077f 01       		.byte	0x1
 2425 0780 9001     		.2byte	0x190
 2426 0782 DD000000 		.4byte	0xdd
 2427 0786 2B040000 		.4byte	.LLST33
 2428 078a 00       		.byte	0x0
 2429 078b 1C       		.uleb128 0x1c
 2430 078c 01       		.byte	0x1
 2431 078d 48000000 		.4byte	.LASF85
 2432 0791 01       		.byte	0x1
 2433 0792 B901     		.2byte	0x1b9
 2434 0794 01       		.byte	0x1
 2435 0795 DD000000 		.4byte	0xdd
 2436 0799 00000000 		.4byte	.LFB10
 2437 079d 5C000000 		.4byte	.LFE10
 2438 07a1 65040000 		.4byte	.LLST34
 2439 07a5 E8070000 		.4byte	0x7e8
 2440 07a9 1A       		.uleb128 0x1a
 2441 07aa ED000000 		.4byte	.LASF72
 2442 07ae 01       		.byte	0x1
 2443 07af B901     		.2byte	0x1b9
 2444 07b1 DD000000 		.4byte	0xdd
 2445 07b5 85040000 		.4byte	.LLST35
 2446 07b9 1A       		.uleb128 0x1a
 2447 07ba 29020000 		.4byte	.LASF84
 2448 07be 01       		.byte	0x1
 2449 07bf B901     		.2byte	0x1b9
 2450 07c1 E8000000 		.4byte	0xe8
 2451 07c5 A3040000 		.4byte	.LLST36
 2452 07c9 1B       		.uleb128 0x1b
 2453 07ca 63747000 		.ascii	"ctp\000"
 2454 07ce 01       		.byte	0x1
 2455 07cf BA01     		.2byte	0x1ba
 2456 07d1 53020000 		.4byte	0x253
 2457 07d5 C1040000 		.4byte	.LLST37
 2458 07d9 1B       		.uleb128 0x1b
 2459 07da 6D00     		.ascii	"m\000"
 2460 07dc 01       		.byte	0x1
 2461 07dd BB01     		.2byte	0x1bb
 2462 07df DD000000 		.4byte	0xdd
 2463 07e3 E0040000 		.4byte	.LLST38
 2464 07e7 00       		.byte	0x0
 2465 07e8 1C       		.uleb128 0x1c
 2466 07e9 01       		.byte	0x1
 2467 07ea 7D000000 		.4byte	.LASF86
 2468 07ee 01       		.byte	0x1
 2469 07ef E201     		.2byte	0x1e2
 2470 07f1 01       		.byte	0x1
 2471 07f2 DD000000 		.4byte	0xdd
 2472 07f6 00000000 		.4byte	.LFB11
 2473 07fa 5C000000 		.4byte	.LFE11
 2474 07fe 0F050000 		.4byte	.LLST39
 2475 0802 37080000 		.4byte	0x837
 2476 0806 1A       		.uleb128 0x1a
 2477 0807 ED000000 		.4byte	.LASF72
ARM GAS  /tmp/ccc9VKF2.s 			page 45


 2478 080b 01       		.byte	0x1
 2479 080c E201     		.2byte	0x1e2
 2480 080e DD000000 		.4byte	0xdd
 2481 0812 2F050000 		.4byte	.LLST40
 2482 0816 1A       		.uleb128 0x1a
 2483 0817 29020000 		.4byte	.LASF84
 2484 081b 01       		.byte	0x1
 2485 081c E201     		.2byte	0x1e2
 2486 081e E8000000 		.4byte	0xe8
 2487 0822 63050000 		.4byte	.LLST41
 2488 0826 1B       		.uleb128 0x1b
 2489 0827 63747000 		.ascii	"ctp\000"
 2490 082b 01       		.byte	0x1
 2491 082c E301     		.2byte	0x1e3
 2492 082e 53020000 		.4byte	0x253
 2493 0832 81050000 		.4byte	.LLST42
 2494 0836 00       		.byte	0x0
 2495 0837 1D       		.uleb128 0x1d
 2496 0838 82030000 		.4byte	.LASF87
 2497 083c 07       		.byte	0x7
 2498 083d 72       		.byte	0x72
 2499 083e BE030000 		.4byte	0x3be
 2500 0842 01       		.byte	0x1
 2501 0843 01       		.byte	0x1
 2502 0844 1D       		.uleb128 0x1d
 2503 0845 82030000 		.4byte	.LASF87
 2504 0849 07       		.byte	0x7
 2505 084a 72       		.byte	0x72
 2506 084b BE030000 		.4byte	0x3be
 2507 084f 01       		.byte	0x1
 2508 0850 01       		.byte	0x1
 2509 0851 00       		.byte	0x0
 2510              		.section	.debug_abbrev
 2511 0000 01       		.uleb128 0x1
 2512 0001 11       		.uleb128 0x11
 2513 0002 01       		.byte	0x1
 2514 0003 25       		.uleb128 0x25
 2515 0004 0E       		.uleb128 0xe
 2516 0005 13       		.uleb128 0x13
 2517 0006 0B       		.uleb128 0xb
 2518 0007 03       		.uleb128 0x3
 2519 0008 0E       		.uleb128 0xe
 2520 0009 1B       		.uleb128 0x1b
 2521 000a 0E       		.uleb128 0xe
 2522 000b 11       		.uleb128 0x11
 2523 000c 01       		.uleb128 0x1
 2524 000d 52       		.uleb128 0x52
 2525 000e 01       		.uleb128 0x1
 2526 000f 55       		.uleb128 0x55
 2527 0010 06       		.uleb128 0x6
 2528 0011 10       		.uleb128 0x10
 2529 0012 06       		.uleb128 0x6
 2530 0013 00       		.byte	0x0
 2531 0014 00       		.byte	0x0
 2532 0015 02       		.uleb128 0x2
 2533 0016 24       		.uleb128 0x24
 2534 0017 00       		.byte	0x0
ARM GAS  /tmp/ccc9VKF2.s 			page 46


 2535 0018 0B       		.uleb128 0xb
 2536 0019 0B       		.uleb128 0xb
 2537 001a 3E       		.uleb128 0x3e
 2538 001b 0B       		.uleb128 0xb
 2539 001c 03       		.uleb128 0x3
 2540 001d 08       		.uleb128 0x8
 2541 001e 00       		.byte	0x0
 2542 001f 00       		.byte	0x0
 2543 0020 03       		.uleb128 0x3
 2544 0021 24       		.uleb128 0x24
 2545 0022 00       		.byte	0x0
 2546 0023 0B       		.uleb128 0xb
 2547 0024 0B       		.uleb128 0xb
 2548 0025 3E       		.uleb128 0x3e
 2549 0026 0B       		.uleb128 0xb
 2550 0027 03       		.uleb128 0x3
 2551 0028 0E       		.uleb128 0xe
 2552 0029 00       		.byte	0x0
 2553 002a 00       		.byte	0x0
 2554 002b 04       		.uleb128 0x4
 2555 002c 16       		.uleb128 0x16
 2556 002d 00       		.byte	0x0
 2557 002e 03       		.uleb128 0x3
 2558 002f 0E       		.uleb128 0xe
 2559 0030 3A       		.uleb128 0x3a
 2560 0031 0B       		.uleb128 0xb
 2561 0032 3B       		.uleb128 0x3b
 2562 0033 0B       		.uleb128 0xb
 2563 0034 49       		.uleb128 0x49
 2564 0035 13       		.uleb128 0x13
 2565 0036 00       		.byte	0x0
 2566 0037 00       		.byte	0x0
 2567 0038 05       		.uleb128 0x5
 2568 0039 13       		.uleb128 0x13
 2569 003a 01       		.byte	0x1
 2570 003b 03       		.uleb128 0x3
 2571 003c 0E       		.uleb128 0xe
 2572 003d 0B       		.uleb128 0xb
 2573 003e 0B       		.uleb128 0xb
 2574 003f 3A       		.uleb128 0x3a
 2575 0040 0B       		.uleb128 0xb
 2576 0041 3B       		.uleb128 0x3b
 2577 0042 0B       		.uleb128 0xb
 2578 0043 01       		.uleb128 0x1
 2579 0044 13       		.uleb128 0x13
 2580 0045 00       		.byte	0x0
 2581 0046 00       		.byte	0x0
 2582 0047 06       		.uleb128 0x6
 2583 0048 0D       		.uleb128 0xd
 2584 0049 00       		.byte	0x0
 2585 004a 03       		.uleb128 0x3
 2586 004b 0E       		.uleb128 0xe
 2587 004c 3A       		.uleb128 0x3a
 2588 004d 0B       		.uleb128 0xb
 2589 004e 3B       		.uleb128 0x3b
 2590 004f 0B       		.uleb128 0xb
 2591 0050 49       		.uleb128 0x49
ARM GAS  /tmp/ccc9VKF2.s 			page 47


 2592 0051 13       		.uleb128 0x13
 2593 0052 38       		.uleb128 0x38
 2594 0053 0A       		.uleb128 0xa
 2595 0054 00       		.byte	0x0
 2596 0055 00       		.byte	0x0
 2597 0056 07       		.uleb128 0x7
 2598 0057 0D       		.uleb128 0xd
 2599 0058 00       		.byte	0x0
 2600 0059 03       		.uleb128 0x3
 2601 005a 08       		.uleb128 0x8
 2602 005b 3A       		.uleb128 0x3a
 2603 005c 0B       		.uleb128 0xb
 2604 005d 3B       		.uleb128 0x3b
 2605 005e 0B       		.uleb128 0xb
 2606 005f 49       		.uleb128 0x49
 2607 0060 13       		.uleb128 0x13
 2608 0061 38       		.uleb128 0x38
 2609 0062 0A       		.uleb128 0xa
 2610 0063 00       		.byte	0x0
 2611 0064 00       		.byte	0x0
 2612 0065 08       		.uleb128 0x8
 2613 0066 13       		.uleb128 0x13
 2614 0067 01       		.byte	0x1
 2615 0068 0B       		.uleb128 0xb
 2616 0069 0B       		.uleb128 0xb
 2617 006a 3A       		.uleb128 0x3a
 2618 006b 0B       		.uleb128 0xb
 2619 006c 3B       		.uleb128 0x3b
 2620 006d 0B       		.uleb128 0xb
 2621 006e 01       		.uleb128 0x1
 2622 006f 13       		.uleb128 0x13
 2623 0070 00       		.byte	0x0
 2624 0071 00       		.byte	0x0
 2625 0072 09       		.uleb128 0x9
 2626 0073 0F       		.uleb128 0xf
 2627 0074 00       		.byte	0x0
 2628 0075 0B       		.uleb128 0xb
 2629 0076 0B       		.uleb128 0xb
 2630 0077 49       		.uleb128 0x49
 2631 0078 13       		.uleb128 0x13
 2632 0079 00       		.byte	0x0
 2633 007a 00       		.byte	0x0
 2634 007b 0A       		.uleb128 0xa
 2635 007c 0F       		.uleb128 0xf
 2636 007d 00       		.byte	0x0
 2637 007e 0B       		.uleb128 0xb
 2638 007f 0B       		.uleb128 0xb
 2639 0080 00       		.byte	0x0
 2640 0081 00       		.byte	0x0
 2641 0082 0B       		.uleb128 0xb
 2642 0083 0D       		.uleb128 0xd
 2643 0084 00       		.byte	0x0
 2644 0085 03       		.uleb128 0x3
 2645 0086 08       		.uleb128 0x8
 2646 0087 3A       		.uleb128 0x3a
 2647 0088 0B       		.uleb128 0xb
 2648 0089 3B       		.uleb128 0x3b
ARM GAS  /tmp/ccc9VKF2.s 			page 48


 2649 008a 05       		.uleb128 0x5
 2650 008b 49       		.uleb128 0x49
 2651 008c 13       		.uleb128 0x13
 2652 008d 38       		.uleb128 0x38
 2653 008e 0A       		.uleb128 0xa
 2654 008f 00       		.byte	0x0
 2655 0090 00       		.byte	0x0
 2656 0091 0C       		.uleb128 0xc
 2657 0092 13       		.uleb128 0x13
 2658 0093 01       		.byte	0x1
 2659 0094 03       		.uleb128 0x3
 2660 0095 0E       		.uleb128 0xe
 2661 0096 0B       		.uleb128 0xb
 2662 0097 0B       		.uleb128 0xb
 2663 0098 3A       		.uleb128 0x3a
 2664 0099 0B       		.uleb128 0xb
 2665 009a 3B       		.uleb128 0x3b
 2666 009b 05       		.uleb128 0x5
 2667 009c 01       		.uleb128 0x1
 2668 009d 13       		.uleb128 0x13
 2669 009e 00       		.byte	0x0
 2670 009f 00       		.byte	0x0
 2671 00a0 0D       		.uleb128 0xd
 2672 00a1 35       		.uleb128 0x35
 2673 00a2 00       		.byte	0x0
 2674 00a3 49       		.uleb128 0x49
 2675 00a4 13       		.uleb128 0x13
 2676 00a5 00       		.byte	0x0
 2677 00a6 00       		.byte	0x0
 2678 00a7 0E       		.uleb128 0xe
 2679 00a8 15       		.uleb128 0x15
 2680 00a9 01       		.byte	0x1
 2681 00aa 27       		.uleb128 0x27
 2682 00ab 0C       		.uleb128 0xc
 2683 00ac 01       		.uleb128 0x1
 2684 00ad 13       		.uleb128 0x13
 2685 00ae 00       		.byte	0x0
 2686 00af 00       		.byte	0x0
 2687 00b0 0F       		.uleb128 0xf
 2688 00b1 05       		.uleb128 0x5
 2689 00b2 00       		.byte	0x0
 2690 00b3 49       		.uleb128 0x49
 2691 00b4 13       		.uleb128 0x13
 2692 00b5 00       		.byte	0x0
 2693 00b6 00       		.byte	0x0
 2694 00b7 10       		.uleb128 0x10
 2695 00b8 17       		.uleb128 0x17
 2696 00b9 01       		.byte	0x1
 2697 00ba 0B       		.uleb128 0xb
 2698 00bb 0B       		.uleb128 0xb
 2699 00bc 3A       		.uleb128 0x3a
 2700 00bd 0B       		.uleb128 0xb
 2701 00be 3B       		.uleb128 0x3b
 2702 00bf 0B       		.uleb128 0xb
 2703 00c0 01       		.uleb128 0x1
 2704 00c1 13       		.uleb128 0x13
 2705 00c2 00       		.byte	0x0
ARM GAS  /tmp/ccc9VKF2.s 			page 49


 2706 00c3 00       		.byte	0x0
 2707 00c4 11       		.uleb128 0x11
 2708 00c5 0D       		.uleb128 0xd
 2709 00c6 00       		.byte	0x0
 2710 00c7 03       		.uleb128 0x3
 2711 00c8 0E       		.uleb128 0xe
 2712 00c9 3A       		.uleb128 0x3a
 2713 00ca 0B       		.uleb128 0xb
 2714 00cb 3B       		.uleb128 0x3b
 2715 00cc 0B       		.uleb128 0xb
 2716 00cd 49       		.uleb128 0x49
 2717 00ce 13       		.uleb128 0x13
 2718 00cf 00       		.byte	0x0
 2719 00d0 00       		.byte	0x0
 2720 00d1 12       		.uleb128 0x12
 2721 00d2 26       		.uleb128 0x26
 2722 00d3 00       		.byte	0x0
 2723 00d4 49       		.uleb128 0x49
 2724 00d5 13       		.uleb128 0x13
 2725 00d6 00       		.byte	0x0
 2726 00d7 00       		.byte	0x0
 2727 00d8 13       		.uleb128 0x13
 2728 00d9 2E       		.uleb128 0x2e
 2729 00da 01       		.byte	0x1
 2730 00db 3F       		.uleb128 0x3f
 2731 00dc 0C       		.uleb128 0xc
 2732 00dd 03       		.uleb128 0x3
 2733 00de 0E       		.uleb128 0xe
 2734 00df 3A       		.uleb128 0x3a
 2735 00e0 0B       		.uleb128 0xb
 2736 00e1 3B       		.uleb128 0x3b
 2737 00e2 0B       		.uleb128 0xb
 2738 00e3 27       		.uleb128 0x27
 2739 00e4 0C       		.uleb128 0xc
 2740 00e5 11       		.uleb128 0x11
 2741 00e6 01       		.uleb128 0x1
 2742 00e7 12       		.uleb128 0x12
 2743 00e8 01       		.uleb128 0x1
 2744 00e9 40       		.uleb128 0x40
 2745 00ea 06       		.uleb128 0x6
 2746 00eb 01       		.uleb128 0x1
 2747 00ec 13       		.uleb128 0x13
 2748 00ed 00       		.byte	0x0
 2749 00ee 00       		.byte	0x0
 2750 00ef 14       		.uleb128 0x14
 2751 00f0 05       		.uleb128 0x5
 2752 00f1 00       		.byte	0x0
 2753 00f2 03       		.uleb128 0x3
 2754 00f3 08       		.uleb128 0x8
 2755 00f4 3A       		.uleb128 0x3a
 2756 00f5 0B       		.uleb128 0xb
 2757 00f6 3B       		.uleb128 0x3b
 2758 00f7 0B       		.uleb128 0xb
 2759 00f8 49       		.uleb128 0x49
 2760 00f9 13       		.uleb128 0x13
 2761 00fa 02       		.uleb128 0x2
 2762 00fb 06       		.uleb128 0x6
ARM GAS  /tmp/ccc9VKF2.s 			page 50


 2763 00fc 00       		.byte	0x0
 2764 00fd 00       		.byte	0x0
 2765 00fe 15       		.uleb128 0x15
 2766 00ff 05       		.uleb128 0x5
 2767 0100 00       		.byte	0x0
 2768 0101 03       		.uleb128 0x3
 2769 0102 0E       		.uleb128 0xe
 2770 0103 3A       		.uleb128 0x3a
 2771 0104 0B       		.uleb128 0xb
 2772 0105 3B       		.uleb128 0x3b
 2773 0106 0B       		.uleb128 0xb
 2774 0107 49       		.uleb128 0x49
 2775 0108 13       		.uleb128 0x13
 2776 0109 02       		.uleb128 0x2
 2777 010a 06       		.uleb128 0x6
 2778 010b 00       		.byte	0x0
 2779 010c 00       		.byte	0x0
 2780 010d 16       		.uleb128 0x16
 2781 010e 34       		.uleb128 0x34
 2782 010f 00       		.byte	0x0
 2783 0110 03       		.uleb128 0x3
 2784 0111 08       		.uleb128 0x8
 2785 0112 3A       		.uleb128 0x3a
 2786 0113 0B       		.uleb128 0xb
 2787 0114 3B       		.uleb128 0x3b
 2788 0115 0B       		.uleb128 0xb
 2789 0116 49       		.uleb128 0x49
 2790 0117 13       		.uleb128 0x13
 2791 0118 02       		.uleb128 0x2
 2792 0119 06       		.uleb128 0x6
 2793 011a 00       		.byte	0x0
 2794 011b 00       		.byte	0x0
 2795 011c 17       		.uleb128 0x17
 2796 011d 2E       		.uleb128 0x2e
 2797 011e 01       		.byte	0x1
 2798 011f 3F       		.uleb128 0x3f
 2799 0120 0C       		.uleb128 0xc
 2800 0121 03       		.uleb128 0x3
 2801 0122 0E       		.uleb128 0xe
 2802 0123 3A       		.uleb128 0x3a
 2803 0124 0B       		.uleb128 0xb
 2804 0125 3B       		.uleb128 0x3b
 2805 0126 0B       		.uleb128 0xb
 2806 0127 27       		.uleb128 0x27
 2807 0128 0C       		.uleb128 0xc
 2808 0129 49       		.uleb128 0x49
 2809 012a 13       		.uleb128 0x13
 2810 012b 11       		.uleb128 0x11
 2811 012c 01       		.uleb128 0x1
 2812 012d 12       		.uleb128 0x12
 2813 012e 01       		.uleb128 0x1
 2814 012f 40       		.uleb128 0x40
 2815 0130 06       		.uleb128 0x6
 2816 0131 01       		.uleb128 0x1
 2817 0132 13       		.uleb128 0x13
 2818 0133 00       		.byte	0x0
 2819 0134 00       		.byte	0x0
ARM GAS  /tmp/ccc9VKF2.s 			page 51


 2820 0135 18       		.uleb128 0x18
 2821 0136 34       		.uleb128 0x34
 2822 0137 00       		.byte	0x0
 2823 0138 03       		.uleb128 0x3
 2824 0139 08       		.uleb128 0x8
 2825 013a 3A       		.uleb128 0x3a
 2826 013b 0B       		.uleb128 0xb
 2827 013c 3B       		.uleb128 0x3b
 2828 013d 0B       		.uleb128 0xb
 2829 013e 49       		.uleb128 0x49
 2830 013f 13       		.uleb128 0x13
 2831 0140 02       		.uleb128 0x2
 2832 0141 0A       		.uleb128 0xa
 2833 0142 00       		.byte	0x0
 2834 0143 00       		.byte	0x0
 2835 0144 19       		.uleb128 0x19
 2836 0145 2E       		.uleb128 0x2e
 2837 0146 01       		.byte	0x1
 2838 0147 3F       		.uleb128 0x3f
 2839 0148 0C       		.uleb128 0xc
 2840 0149 03       		.uleb128 0x3
 2841 014a 0E       		.uleb128 0xe
 2842 014b 3A       		.uleb128 0x3a
 2843 014c 0B       		.uleb128 0xb
 2844 014d 3B       		.uleb128 0x3b
 2845 014e 05       		.uleb128 0x5
 2846 014f 27       		.uleb128 0x27
 2847 0150 0C       		.uleb128 0xc
 2848 0151 11       		.uleb128 0x11
 2849 0152 01       		.uleb128 0x1
 2850 0153 12       		.uleb128 0x12
 2851 0154 01       		.uleb128 0x1
 2852 0155 40       		.uleb128 0x40
 2853 0156 06       		.uleb128 0x6
 2854 0157 01       		.uleb128 0x1
 2855 0158 13       		.uleb128 0x13
 2856 0159 00       		.byte	0x0
 2857 015a 00       		.byte	0x0
 2858 015b 1A       		.uleb128 0x1a
 2859 015c 05       		.uleb128 0x5
 2860 015d 00       		.byte	0x0
 2861 015e 03       		.uleb128 0x3
 2862 015f 0E       		.uleb128 0xe
 2863 0160 3A       		.uleb128 0x3a
 2864 0161 0B       		.uleb128 0xb
 2865 0162 3B       		.uleb128 0x3b
 2866 0163 05       		.uleb128 0x5
 2867 0164 49       		.uleb128 0x49
 2868 0165 13       		.uleb128 0x13
 2869 0166 02       		.uleb128 0x2
 2870 0167 06       		.uleb128 0x6
 2871 0168 00       		.byte	0x0
 2872 0169 00       		.byte	0x0
 2873 016a 1B       		.uleb128 0x1b
 2874 016b 34       		.uleb128 0x34
 2875 016c 00       		.byte	0x0
 2876 016d 03       		.uleb128 0x3
ARM GAS  /tmp/ccc9VKF2.s 			page 52


 2877 016e 08       		.uleb128 0x8
 2878 016f 3A       		.uleb128 0x3a
 2879 0170 0B       		.uleb128 0xb
 2880 0171 3B       		.uleb128 0x3b
 2881 0172 05       		.uleb128 0x5
 2882 0173 49       		.uleb128 0x49
 2883 0174 13       		.uleb128 0x13
 2884 0175 02       		.uleb128 0x2
 2885 0176 06       		.uleb128 0x6
 2886 0177 00       		.byte	0x0
 2887 0178 00       		.byte	0x0
 2888 0179 1C       		.uleb128 0x1c
 2889 017a 2E       		.uleb128 0x2e
 2890 017b 01       		.byte	0x1
 2891 017c 3F       		.uleb128 0x3f
 2892 017d 0C       		.uleb128 0xc
 2893 017e 03       		.uleb128 0x3
 2894 017f 0E       		.uleb128 0xe
 2895 0180 3A       		.uleb128 0x3a
 2896 0181 0B       		.uleb128 0xb
 2897 0182 3B       		.uleb128 0x3b
 2898 0183 05       		.uleb128 0x5
 2899 0184 27       		.uleb128 0x27
 2900 0185 0C       		.uleb128 0xc
 2901 0186 49       		.uleb128 0x49
 2902 0187 13       		.uleb128 0x13
 2903 0188 11       		.uleb128 0x11
 2904 0189 01       		.uleb128 0x1
 2905 018a 12       		.uleb128 0x12
 2906 018b 01       		.uleb128 0x1
 2907 018c 40       		.uleb128 0x40
 2908 018d 06       		.uleb128 0x6
 2909 018e 01       		.uleb128 0x1
 2910 018f 13       		.uleb128 0x13
 2911 0190 00       		.byte	0x0
 2912 0191 00       		.byte	0x0
 2913 0192 1D       		.uleb128 0x1d
 2914 0193 34       		.uleb128 0x34
 2915 0194 00       		.byte	0x0
 2916 0195 03       		.uleb128 0x3
 2917 0196 0E       		.uleb128 0xe
 2918 0197 3A       		.uleb128 0x3a
 2919 0198 0B       		.uleb128 0xb
 2920 0199 3B       		.uleb128 0x3b
 2921 019a 0B       		.uleb128 0xb
 2922 019b 49       		.uleb128 0x49
 2923 019c 13       		.uleb128 0x13
 2924 019d 3F       		.uleb128 0x3f
 2925 019e 0C       		.uleb128 0xc
 2926 019f 3C       		.uleb128 0x3c
 2927 01a0 0C       		.uleb128 0xc
 2928 01a1 00       		.byte	0x0
 2929 01a2 00       		.byte	0x0
 2930 01a3 00       		.byte	0x0
 2931              		.section	.debug_pubnames,"",%progbits
 2932 0000 14010000 		.4byte	0x114
 2933 0004 0200     		.2byte	0x2
ARM GAS  /tmp/ccc9VKF2.s 			page 53


 2934 0006 00000000 		.4byte	.Ldebug_info0
 2935 000a 52080000 		.4byte	0x852
 2936 000e EF040000 		.4byte	0x4ef
 2937 0012 63684576 		.ascii	"chEvtRegisterMask\000"
 2937      74526567 
 2937      69737465 
 2937      724D6173 
 2937      6B00
 2938 0024 3C050000 		.4byte	0x53c
 2939 0028 63684576 		.ascii	"chEvtUnregister\000"
 2939      74556E72 
 2939      65676973 
 2939      74657200 
 2940 0038 81050000 		.4byte	0x581
 2941 003c 63684576 		.ascii	"chEvtClearFlags\000"
 2941      74436C65 
 2941      6172466C 
 2941      61677300 
 2942 004c BE050000 		.4byte	0x5be
 2943 0050 63684576 		.ascii	"chEvtAddFlags\000"
 2943      74416464 
 2943      466C6167 
 2943      7300
 2944 005e EB050000 		.4byte	0x5eb
 2945 0062 63684576 		.ascii	"chEvtSignalFlagsI\000"
 2945      74536967 
 2945      6E616C46 
 2945      6C616773 
 2945      4900
 2946 0074 22060000 		.4byte	0x622
 2947 0078 63684576 		.ascii	"chEvtSignalFlags\000"
 2947      74536967 
 2947      6E616C46 
 2947      6C616773 
 2947      00
 2948 0089 59060000 		.4byte	0x659
 2949 008d 63684576 		.ascii	"chEvtBroadcastFlagsI\000"
 2949      7442726F 
 2949      61646361 
 2949      7374466C 
 2949      61677349 
 2950 00a2 A0060000 		.4byte	0x6a0
 2951 00a6 63684576 		.ascii	"chEvtBroadcastFlags\000"
 2951      7442726F 
 2951      61646361 
 2951      7374466C 
 2951      61677300 
 2952 00ba D8060000 		.4byte	0x6d8
 2953 00be 63684576 		.ascii	"chEvtDispatch\000"
 2953      74446973 
 2953      70617463 
 2953      6800
 2954 00cc 2E070000 		.4byte	0x72e
 2955 00d0 63684576 		.ascii	"chEvtWaitOneTimeout\000"
 2955      74576169 
 2955      744F6E65 
 2955      54696D65 
ARM GAS  /tmp/ccc9VKF2.s 			page 54


 2955      6F757400 
 2956 00e4 8B070000 		.4byte	0x78b
 2957 00e8 63684576 		.ascii	"chEvtWaitAnyTimeout\000"
 2957      74576169 
 2957      74416E79 
 2957      54696D65 
 2957      6F757400 
 2958 00fc E8070000 		.4byte	0x7e8
 2959 0100 63684576 		.ascii	"chEvtWaitAllTimeout\000"
 2959      74576169 
 2959      74416C6C 
 2959      54696D65 
 2959      6F757400 
 2960 0114 00000000 		.4byte	0x0
 2961              		.section	.debug_pubtypes,"",%progbits
 2962 0000 91010000 		.4byte	0x191
 2963 0004 0200     		.2byte	0x2
 2964 0006 00000000 		.4byte	.Ldebug_info0
 2965 000a 52080000 		.4byte	0x852
 2966 000e 3E000000 		.4byte	0x3e
 2967 0012 75696E74 		.ascii	"uint8_t\000"
 2967      385F7400 
 2968 001a 5E000000 		.4byte	0x5e
 2969 001e 696E7433 		.ascii	"int32_t\000"
 2969      325F7400 
 2970 0026 70000000 		.4byte	0x70
 2971 002a 75696E74 		.ascii	"uint32_t\000"
 2971      33325F74 
 2971      00
 2972 0033 89000000 		.4byte	0x89
 2973 0037 75696E74 		.ascii	"uint64_t\000"
 2973      36345F74 
 2973      00
 2974 0040 9B000000 		.4byte	0x9b
 2975 0044 746D6F64 		.ascii	"tmode_t\000"
 2975      655F7400 
 2976 004c A6000000 		.4byte	0xa6
 2977 0050 74737461 		.ascii	"tstate_t\000"
 2977      74655F74 
 2977      00
 2978 0059 B1000000 		.4byte	0xb1
 2979 005d 74726566 		.ascii	"trefs_t\000"
 2979      735F7400 
 2980 0065 BC000000 		.4byte	0xbc
 2981 0069 74707269 		.ascii	"tprio_t\000"
 2981      6F5F7400 
 2982 0071 C7000000 		.4byte	0xc7
 2983 0075 6D73675F 		.ascii	"msg_t\000"
 2983      7400
 2984 007b D2000000 		.4byte	0xd2
 2985 007f 6576656E 		.ascii	"eventid_t\000"
 2985      7469645F 
 2985      7400
 2986 0089 DD000000 		.4byte	0xdd
 2987 008d 6576656E 		.ascii	"eventmask_t\000"
 2987      746D6173 
 2987      6B5F7400 
ARM GAS  /tmp/ccc9VKF2.s 			page 55


 2988 0099 E8000000 		.4byte	0xe8
 2989 009d 73797374 		.ascii	"systime_t\000"
 2989      696D655F 
 2989      7400
 2990 00a7 F3000000 		.4byte	0xf3
 2991 00ab 636E745F 		.ascii	"cnt_t\000"
 2991      7400
 2992 00b1 FE000000 		.4byte	0xfe
 2993 00b5 54687265 		.ascii	"Thread\000"
 2993      616400
 2994 00bc 59020000 		.4byte	0x259
 2995 00c0 54687265 		.ascii	"ThreadsQueue\000"
 2995      61647351 
 2995      75657565 
 2995      00
 2996 00cd 7B020000 		.4byte	0x27b
 2997 00d1 54687265 		.ascii	"ThreadsList\000"
 2997      6164734C 
 2997      69737400 
 2998 00dd 86020000 		.4byte	0x286
 2999 00e1 72656761 		.ascii	"regarm_t\000"
 2999      726D5F74 
 2999      00
 3000 00ea 93020000 		.4byte	0x293
 3001 00ee 73746B61 		.ascii	"stkalign_t\000"
 3001      6C69676E 
 3001      5F7400
 3002 00f9 9E020000 		.4byte	0x29e
 3003 00fd 696E7463 		.ascii	"intctx\000"
 3003      747800
 3004 0104 2B030000 		.4byte	0x32b
 3005 0108 636F6E74 		.ascii	"context\000"
 3005      65787400 
 3006 0110 BE030000 		.4byte	0x3be
 3007 0114 52656164 		.ascii	"ReadyList\000"
 3007      794C6973 
 3007      7400
 3008 011e C9030000 		.4byte	0x3c9
 3009 0122 4D757465 		.ascii	"Mutex\000"
 3009      7800
 3010 0128 06040000 		.4byte	0x406
 3011 012c 4D757465 		.ascii	"Mutex\000"
 3011      7800
 3012 0132 11040000 		.4byte	0x411
 3013 0136 4576656E 		.ascii	"EventListener\000"
 3013      744C6973 
 3013      74656E65 
 3013      7200
 3014 0144 1C040000 		.4byte	0x41c
 3015 0148 4576656E 		.ascii	"EventListener\000"
 3015      744C6973 
 3015      74656E65 
 3015      7200
 3016 0156 59040000 		.4byte	0x459
 3017 015a 4576656E 		.ascii	"EventSource\000"
 3017      74536F75 
 3017      72636500 
ARM GAS  /tmp/ccc9VKF2.s 			page 56


 3018 0166 74040000 		.4byte	0x474
 3019 016a 4576656E 		.ascii	"EventSource\000"
 3019      74536F75 
 3019      72636500 
 3020 0176 7F040000 		.4byte	0x47f
 3021 017a 65766861 		.ascii	"evhandler_t\000"
 3021      6E646C65 
 3021      725F7400 
 3022 0186 09010000 		.4byte	0x109
 3023 018a 54687265 		.ascii	"Thread\000"
 3023      616400
 3024 0191 00000000 		.4byte	0x0
 3025              		.section	.debug_aranges,"",%progbits
 3026 0000 74000000 		.4byte	0x74
 3027 0004 0200     		.2byte	0x2
 3028 0006 00000000 		.4byte	.Ldebug_info0
 3029 000a 04       		.byte	0x4
 3030 000b 00       		.byte	0x0
 3031 000c 0000     		.2byte	0x0
 3032 000e 0000     		.2byte	0x0
 3033 0010 00000000 		.4byte	.LFB0
 3034 0014 3C000000 		.4byte	.LFE0-.LFB0
 3035 0018 00000000 		.4byte	.LFB1
 3036 001c 3C000000 		.4byte	.LFE1-.LFB1
 3037 0020 00000000 		.4byte	.LFB2
 3038 0024 2C000000 		.4byte	.LFE2-.LFB2
 3039 0028 00000000 		.4byte	.LFB3
 3040 002c 28000000 		.4byte	.LFE3-.LFB3
 3041 0030 00000000 		.4byte	.LFB5
 3042 0034 44000000 		.4byte	.LFE5-.LFB5
 3043 0038 00000000 		.4byte	.LFB4
 3044 003c 30000000 		.4byte	.LFE4-.LFB4
 3045 0040 00000000 		.4byte	.LFB7
 3046 0044 30000000 		.4byte	.LFE7-.LFB7
 3047 0048 00000000 		.4byte	.LFB6
 3048 004c 24000000 		.4byte	.LFE6-.LFB6
 3049 0050 00000000 		.4byte	.LFB8
 3050 0054 4C000000 		.4byte	.LFE8-.LFB8
 3051 0058 00000000 		.4byte	.LFB9
 3052 005c 60000000 		.4byte	.LFE9-.LFB9
 3053 0060 00000000 		.4byte	.LFB10
 3054 0064 5C000000 		.4byte	.LFE10-.LFB10
 3055 0068 00000000 		.4byte	.LFB11
 3056 006c 5C000000 		.4byte	.LFE11-.LFB11
 3057 0070 00000000 		.4byte	0x0
 3058 0074 00000000 		.4byte	0x0
 3059              		.section	.debug_ranges,"",%progbits
 3060              	.Ldebug_ranges0:
 3061 0000 00000000 		.4byte	.LFB0
 3062 0004 3C000000 		.4byte	.LFE0
 3063 0008 00000000 		.4byte	.LFB1
 3064 000c 3C000000 		.4byte	.LFE1
 3065 0010 00000000 		.4byte	.LFB2
 3066 0014 2C000000 		.4byte	.LFE2
 3067 0018 00000000 		.4byte	.LFB3
 3068 001c 28000000 		.4byte	.LFE3
 3069 0020 00000000 		.4byte	.LFB5
ARM GAS  /tmp/ccc9VKF2.s 			page 57


 3070 0024 44000000 		.4byte	.LFE5
 3071 0028 00000000 		.4byte	.LFB4
 3072 002c 30000000 		.4byte	.LFE4
 3073 0030 00000000 		.4byte	.LFB7
 3074 0034 30000000 		.4byte	.LFE7
 3075 0038 00000000 		.4byte	.LFB6
 3076 003c 24000000 		.4byte	.LFE6
 3077 0040 00000000 		.4byte	.LFB8
 3078 0044 4C000000 		.4byte	.LFE8
 3079 0048 00000000 		.4byte	.LFB9
 3080 004c 60000000 		.4byte	.LFE9
 3081 0050 00000000 		.4byte	.LFB10
 3082 0054 5C000000 		.4byte	.LFE10
 3083 0058 00000000 		.4byte	.LFB11
 3084 005c 5C000000 		.4byte	.LFE11
 3085 0060 00000000 		.4byte	0x0
 3086 0064 00000000 		.4byte	0x0
 3087              		.section	.debug_str,"MS",%progbits,1
 3088              	.LASF37:
 3089 0000 705F6D73 		.ascii	"p_msg\000"
 3089      6700
 3090              	.LASF67:
 3091 0006 7264796D 		.ascii	"rdymsg\000"
 3091      736700
 3092              	.LASF11:
 3093 000d 75696E74 		.ascii	"uint64_t\000"
 3093      36345F74 
 3093      00
 3094              	.LASF12:
 3095 0016 6C6F6E67 		.ascii	"long long unsigned int\000"
 3095      206C6F6E 
 3095      6720756E 
 3095      7369676E 
 3095      65642069 
 3096              	.LASF68:
 3097 002d 65786974 		.ascii	"exitcode\000"
 3097      636F6465 
 3097      00
 3098              	.LASF77:
 3099 0036 63684576 		.ascii	"chEvtSignalFlagsI\000"
 3099      74536967 
 3099      6E616C46 
 3099      6C616773 
 3099      4900
 3100              	.LASF85:
 3101 0048 63684576 		.ascii	"chEvtWaitAnyTimeout\000"
 3101      74576169 
 3101      74416E79 
 3101      54696D65 
 3101      6F757400 
 3102              	.LASF25:
 3103 005c 705F7072 		.ascii	"p_prio\000"
 3103      696F00
 3104              	.LASF10:
 3105 0063 6C6F6E67 		.ascii	"long long int\000"
 3105      206C6F6E 
 3105      6720696E 
ARM GAS  /tmp/ccc9VKF2.s 			page 58


 3105      7400
 3106              	.LASF1:
 3107 0071 7369676E 		.ascii	"signed char\000"
 3107      65642063 
 3107      68617200 
 3108              	.LASF86:
 3109 007d 63684576 		.ascii	"chEvtWaitAllTimeout\000"
 3109      74576169 
 3109      74416C6C 
 3109      54696D65 
 3109      6F757400 
 3110              	.LASF41:
 3111 0091 705F6D70 		.ascii	"p_mpool\000"
 3111      6F6F6C00 
 3112              	.LASF57:
 3113 0099 6D5F7175 		.ascii	"m_queue\000"
 3113      65756500 
 3114              	.LASF69:
 3115 00a1 77746F62 		.ascii	"wtobjp\000"
 3115      6A7000
 3116              	.LASF76:
 3117 00a8 63684576 		.ascii	"chEvtAddFlags\000"
 3117      74416464 
 3117      466C6167 
 3117      7300
 3118              	.LASF7:
 3119 00b6 6C6F6E67 		.ascii	"long int\000"
 3119      20696E74 
 3119      00
 3120              	.LASF14:
 3121 00bf 74737461 		.ascii	"tstate_t\000"
 3121      74655F74 
 3121      00
 3122              	.LASF79:
 3123 00c8 63684576 		.ascii	"chEvtBroadcastFlagsI\000"
 3123      7442726F 
 3123      61646361 
 3123      7374466C 
 3123      61677349 
 3124              	.LASF27:
 3125 00dd 705F6E65 		.ascii	"p_newer\000"
 3125      77657200 
 3126              	.LASF51:
 3127 00e5 725F6E65 		.ascii	"r_newer\000"
 3127      77657200 
 3128              	.LASF72:
 3129 00ed 6D61736B 		.ascii	"mask\000"
 3129      00
 3130              	.LASF44:
 3131 00f2 72656761 		.ascii	"regarm_t\000"
 3131      726D5F74 
 3131      00
 3132              	.LASF80:
 3133 00fb 63684576 		.ascii	"chEvtBroadcastFlags\000"
 3133      7442726F 
 3133      61646361 
 3133      7374466C 
ARM GAS  /tmp/ccc9VKF2.s 			page 59


 3133      61677300 
 3134              	.LASF18:
 3135 010f 6576656E 		.ascii	"eventid_t\000"
 3135      7469645F 
 3135      7400
 3136              	.LASF64:
 3137 0119 4576656E 		.ascii	"EventSource\000"
 3137      74536F75 
 3137      72636500 
 3138              	.LASF66:
 3139 0125 65766861 		.ascii	"evhandler_t\000"
 3139      6E646C65 
 3139      725F7400 
 3140              	.LASF21:
 3141 0131 636E745F 		.ascii	"cnt_t\000"
 3141      7400
 3142              	.LASF30:
 3143 0137 705F7374 		.ascii	"p_stklimit\000"
 3143      6B6C696D 
 3143      697400
 3144              	.LASF0:
 3145 0142 756E7369 		.ascii	"unsigned int\000"
 3145      676E6564 
 3145      20696E74 
 3145      00
 3146              	.LASF9:
 3147 014f 6C6F6E67 		.ascii	"long unsigned int\000"
 3147      20756E73 
 3147      69676E65 
 3147      6420696E 
 3147      7400
 3148              	.LASF47:
 3149 0161 636F6E74 		.ascii	"context\000"
 3149      65787400 
 3150              	.LASF90:
 3151 0169 2F686F6D 		.ascii	"/home/z80/projects/dfu.git/firmware-pawn-dev/firmwa"
 3151      652F7A38 
 3151      302F7072 
 3151      6F6A6563 
 3151      74732F64 
 3152 019c 726500   		.ascii	"re\000"
 3153              	.LASF73:
 3154 019f 63684576 		.ascii	"chEvtRegisterMask\000"
 3154      74526567 
 3154      69737465 
 3154      724D6173 
 3154      6B00
 3155              	.LASF17:
 3156 01b1 6D73675F 		.ascii	"msg_t\000"
 3156      7400
 3157              	.LASF61:
 3158 01b7 656C5F6E 		.ascii	"el_next\000"
 3158      65787400 
 3159              	.LASF74:
 3160 01bf 63684576 		.ascii	"chEvtUnregister\000"
 3160      74556E72 
 3160      65676973 
ARM GAS  /tmp/ccc9VKF2.s 			page 60


 3160      74657200 
 3161              	.LASF13:
 3162 01cf 746D6F64 		.ascii	"tmode_t\000"
 3162      655F7400 
 3163              	.LASF43:
 3164 01d7 54687265 		.ascii	"ThreadsList\000"
 3164      6164734C 
 3164      69737400 
 3165              	.LASF19:
 3166 01e3 6576656E 		.ascii	"eventmask_t\000"
 3166      746D6173 
 3166      6B5F7400 
 3167              	.LASF56:
 3168 01ef 4D757465 		.ascii	"Mutex\000"
 3168      7800
 3169              	.LASF45:
 3170 01f5 73746B61 		.ascii	"stkalign_t\000"
 3170      6C69676E 
 3170      5F7400
 3171              	.LASF81:
 3172 0200 63684576 		.ascii	"chEvtDispatch\000"
 3172      74446973 
 3172      70617463 
 3172      6800
 3173              	.LASF28:
 3174 020e 705F6F6C 		.ascii	"p_older\000"
 3174      64657200 
 3175              	.LASF50:
 3176 0216 725F6374 		.ascii	"r_ctx\000"
 3176      7800
 3177              	.LASF42:
 3178 021c 54687265 		.ascii	"ThreadsQueue\000"
 3178      61647351 
 3178      75657565 
 3178      00
 3179              	.LASF84:
 3180 0229 74696D65 		.ascii	"time\000"
 3180      00
 3181              	.LASF78:
 3182 022e 63684576 		.ascii	"chEvtSignalFlags\000"
 3182      74536967 
 3182      6E616C46 
 3182      6C616773 
 3182      00
 3183              	.LASF54:
 3184 023f 725F6375 		.ascii	"r_current\000"
 3184      7272656E 
 3184      7400
 3185              	.LASF52:
 3186 0249 725F6F6C 		.ascii	"r_older\000"
 3186      64657200 
 3187              	.LASF63:
 3188 0251 656C5F6D 		.ascii	"el_mask\000"
 3188      61736B00 
 3189              	.LASF82:
 3190 0259 68616E64 		.ascii	"handlers\000"
 3190      6C657273 
ARM GAS  /tmp/ccc9VKF2.s 			page 61


 3190      00
 3191              	.LASF15:
 3192 0262 74726566 		.ascii	"trefs_t\000"
 3192      735F7400 
 3193              	.LASF89:
 3194 026a 2E2E2F63 		.ascii	"../chibios/os/kernel/src/chevents.c\000"
 3194      68696269 
 3194      6F732F6F 
 3194      732F6B65 
 3194      726E656C 
 3195              	.LASF24:
 3196 028e 705F7072 		.ascii	"p_prev\000"
 3196      657600
 3197              	.LASF16:
 3198 0295 74707269 		.ascii	"tprio_t\000"
 3198      6F5F7400 
 3199              	.LASF75:
 3200 029d 63684576 		.ascii	"chEvtClearFlags\000"
 3200      74436C65 
 3200      6172466C 
 3200      61677300 
 3201              	.LASF6:
 3202 02ad 696E7433 		.ascii	"int32_t\000"
 3202      325F7400 
 3203              	.LASF2:
 3204 02b5 756E7369 		.ascii	"unsigned char\000"
 3204      676E6564 
 3204      20636861 
 3204      7200
 3205              	.LASF62:
 3206 02c3 656C5F6C 		.ascii	"el_listener\000"
 3206      69737465 
 3206      6E657200 
 3207              	.LASF39:
 3208 02cf 705F6D74 		.ascii	"p_mtxlist\000"
 3208      786C6973 
 3208      7400
 3209              	.LASF3:
 3210 02d9 73686F72 		.ascii	"short int\000"
 3210      7420696E 
 3210      7400
 3211              	.LASF31:
 3212 02e3 705F7374 		.ascii	"p_state\000"
 3212      61746500 
 3213              	.LASF49:
 3214 02eb 725F7072 		.ascii	"r_prio\000"
 3214      696F00
 3215              	.LASF70:
 3216 02f2 65776D61 		.ascii	"ewmask\000"
 3216      736B00
 3217              	.LASF23:
 3218 02f9 705F6E65 		.ascii	"p_next\000"
 3218      787400
 3219              	.LASF32:
 3220 0300 705F666C 		.ascii	"p_flags\000"
 3220      61677300 
 3221              	.LASF22:
ARM GAS  /tmp/ccc9VKF2.s 			page 62


 3222 0308 54687265 		.ascii	"Thread\000"
 3222      616400
 3223              	.LASF38:
 3224 030f 705F6570 		.ascii	"p_epending\000"
 3224      656E6469 
 3224      6E6700
 3225              	.LASF8:
 3226 031a 75696E74 		.ascii	"uint32_t\000"
 3226      33325F74 
 3226      00
 3227              	.LASF48:
 3228 0323 725F7175 		.ascii	"r_queue\000"
 3228      65756500 
 3229              	.LASF71:
 3230 032b 63686172 		.ascii	"char\000"
 3230      00
 3231              	.LASF59:
 3232 0330 6D5F6E65 		.ascii	"m_next\000"
 3232      787400
 3233              	.LASF20:
 3234 0337 73797374 		.ascii	"systime_t\000"
 3234      696D655F 
 3234      7400
 3235              	.LASF40:
 3236 0341 705F7265 		.ascii	"p_realprio\000"
 3236      616C7072 
 3236      696F00
 3237              	.LASF4:
 3238 034c 73686F72 		.ascii	"short unsigned int\000"
 3238      7420756E 
 3238      7369676E 
 3238      65642069 
 3238      6E7400
 3239              	.LASF46:
 3240 035f 696E7463 		.ascii	"intctx\000"
 3240      747800
 3241              	.LASF36:
 3242 0366 705F6D73 		.ascii	"p_msgqueue\000"
 3242      67717565 
 3242      756500
 3243              	.LASF33:
 3244 0371 705F7265 		.ascii	"p_refs\000"
 3244      667300
 3245              	.LASF55:
 3246 0378 52656164 		.ascii	"ReadyList\000"
 3246      794C6973 
 3246      7400
 3247              	.LASF87:
 3248 0382 726C6973 		.ascii	"rlist\000"
 3248      7400
 3249              	.LASF5:
 3250 0388 75696E74 		.ascii	"uint8_t\000"
 3250      385F7400 
 3251              	.LASF60:
 3252 0390 4576656E 		.ascii	"EventListener\000"
 3252      744C6973 
 3252      74656E65 
ARM GAS  /tmp/ccc9VKF2.s 			page 63


 3252      7200
 3253              	.LASF83:
 3254 039e 63684576 		.ascii	"chEvtWaitOneTimeout\000"
 3254      74576169 
 3254      744F6E65 
 3254      54696D65 
 3254      6F757400 
 3255              	.LASF34:
 3256 03b2 705F7469 		.ascii	"p_time\000"
 3256      6D6500
 3257              	.LASF88:
 3258 03b9 474E5520 		.ascii	"GNU C 4.5.2\000"
 3258      4320342E 
 3258      352E3200 
 3259              	.LASF29:
 3260 03c5 705F6E61 		.ascii	"p_name\000"
 3260      6D6500
 3261              	.LASF65:
 3262 03cc 65735F6E 		.ascii	"es_next\000"
 3262      65787400 
 3263              	.LASF53:
 3264 03d4 725F7072 		.ascii	"r_preempt\000"
 3264      65656D70 
 3264      7400
 3265              	.LASF58:
 3266 03de 6D5F6F77 		.ascii	"m_owner\000"
 3266      6E657200 
 3267              	.LASF26:
 3268 03e6 705F6374 		.ascii	"p_ctx\000"
 3268      7800
 3269              	.LASF35:
 3270 03ec 705F7761 		.ascii	"p_waiting\000"
 3270      6974696E 
 3270      6700
 3271              		.ident	"GCC: (Sourcery G++ Lite 2011.03-42) 4.5.2"
ARM GAS  /tmp/ccc9VKF2.s 			page 64


DEFINED SYMBOLS
                            *ABS*:00000000 chevents.c
     /tmp/ccc9VKF2.s:24     .text.chEvtRegisterMask:00000000 $t
     /tmp/ccc9VKF2.s:29     .text.chEvtRegisterMask:00000000 chEvtRegisterMask
     /tmp/ccc9VKF2.s:89     .text.chEvtRegisterMask:00000034 $d
     /tmp/ccc9VKF2.s:95     .text.chEvtUnregister:00000000 $t
     /tmp/ccc9VKF2.s:100    .text.chEvtUnregister:00000000 chEvtUnregister
     /tmp/ccc9VKF2.s:170    .text.chEvtUnregister:00000038 $d
     /tmp/ccc9VKF2.s:175    .text.chEvtClearFlags:00000000 $t
     /tmp/ccc9VKF2.s:180    .text.chEvtClearFlags:00000000 chEvtClearFlags
     /tmp/ccc9VKF2.s:223    .text.chEvtClearFlags:00000028 $d
     /tmp/ccc9VKF2.s:228    .text.chEvtAddFlags:00000000 $t
     /tmp/ccc9VKF2.s:233    .text.chEvtAddFlags:00000000 chEvtAddFlags
     /tmp/ccc9VKF2.s:274    .text.chEvtAddFlags:00000024 $d
     /tmp/ccc9VKF2.s:279    .text.chEvtSignalFlagsI:00000000 $t
     /tmp/ccc9VKF2.s:284    .text.chEvtSignalFlagsI:00000000 chEvtSignalFlagsI
     /tmp/ccc9VKF2.s:348    .text.chEvtSignalFlagsI:00000040 $d
     /tmp/ccc9VKF2.s:353    .text.chEvtSignalFlags:00000000 $t
     /tmp/ccc9VKF2.s:358    .text.chEvtSignalFlags:00000000 chEvtSignalFlags
     /tmp/ccc9VKF2.s:406    .text.chEvtSignalFlags:0000002c $d
     /tmp/ccc9VKF2.s:411    .text.chEvtBroadcastFlagsI:00000000 $t
     /tmp/ccc9VKF2.s:416    .text.chEvtBroadcastFlagsI:00000000 chEvtBroadcastFlagsI
     /tmp/ccc9VKF2.s:466    .text.chEvtBroadcastFlagsI:0000002c $d
     /tmp/ccc9VKF2.s:471    .text.chEvtBroadcastFlags:00000000 $t
     /tmp/ccc9VKF2.s:476    .text.chEvtBroadcastFlags:00000000 chEvtBroadcastFlags
     /tmp/ccc9VKF2.s:518    .text.chEvtDispatch:00000000 $t
     /tmp/ccc9VKF2.s:523    .text.chEvtDispatch:00000000 chEvtDispatch
     /tmp/ccc9VKF2.s:591    .text.chEvtDispatch:00000044 $d
     /tmp/ccc9VKF2.s:597    .text.chEvtWaitOneTimeout:00000000 $t
     /tmp/ccc9VKF2.s:602    .text.chEvtWaitOneTimeout:00000000 chEvtWaitOneTimeout
     /tmp/ccc9VKF2.s:697    .text.chEvtWaitOneTimeout:0000005c $d
     /tmp/ccc9VKF2.s:702    .text.chEvtWaitAnyTimeout:00000000 $t
     /tmp/ccc9VKF2.s:707    .text.chEvtWaitAnyTimeout:00000000 chEvtWaitAnyTimeout
     /tmp/ccc9VKF2.s:798    .text.chEvtWaitAnyTimeout:00000058 $d
     /tmp/ccc9VKF2.s:803    .text.chEvtWaitAllTimeout:00000000 $t
     /tmp/ccc9VKF2.s:808    .text.chEvtWaitAllTimeout:00000000 chEvtWaitAllTimeout
     /tmp/ccc9VKF2.s:897    .text.chEvtWaitAllTimeout:00000058 $d
                     .debug_frame:00000010 $d

UNDEFINED SYMBOLS
chDbgPanic
_port_lock
dbg_check_lock
dbg_check_unlock
_port_unlock
rlist
chDbgCheckClassI
chSchReadyI
chSchRescheduleS
chSchGoSleepTimeoutS
