ARM GAS  /tmp/ccDhpzpi.s 			page 1


   1              		.syntax unified
   2              		.cpu cortex-m3
   3              		.fpu softvfp
   4              		.eabi_attribute 20, 1
   5              		.eabi_attribute 21, 1
   6              		.eabi_attribute 23, 3
   7              		.eabi_attribute 24, 1
   8              		.eabi_attribute 25, 1
   9              		.eabi_attribute 26, 1
  10              		.eabi_attribute 30, 4
  11              		.eabi_attribute 18, 4
  12              		.thumb
  13              		.file	"chlists.c"
  20 0000 D1010000 		.text
  20      02003601 
  20      00000201 
  20      FB0E0D00 
  20      01010101 
  21              	.Ltext0:
  22              		.cfi_sections	.debug_frame
  23              		.section	.text.prio_insert,"ax",%progbits
  24              		.align	1
  25              		.global	prio_insert
  26              		.thumb
  27              		.thumb_func
  28              		.type	prio_insert, %function
  29              	prio_insert:
  30              	.LFB0:
  31              		.file 1 "../chibios/os/kernel/src/chlists.c"
  32              		.loc 1 51 0
  33              		.cfi_startproc
  34              		@ args = 0, pretend = 0, frame = 0
  35              		@ frame_needed = 0, uses_anonymous_args = 0
  36              	.LVL0:
  37 0000 10B5     		push	{r4, lr}
  38              	.LCFI0:
  39              		.cfi_def_cfa_offset 8
  40              		.loc 1 54 0
  41 0002 0B46     		mov	r3, r1
  42              	.LVL1:
  43              	.L3:
  44              		.loc 1 57 0 discriminator 1
  45 0004 1B68     		ldr	r3, [r3, #0]
  46              	.LVL2:
  47              		.loc 1 59 0 discriminator 1
  48 0006 8B42     		cmp	r3, r1
  49 0008 03D0     		beq	.L2
  50              		.cfi_offset 14, -4
  51              		.cfi_offset 4, -8
  52 000a 9C68     		ldr	r4, [r3, #8]
  53 000c 8268     		ldr	r2, [r0, #8]
ARM GAS  /tmp/ccDhpzpi.s 			page 2


  54 000e 9442     		cmp	r4, r2
  55 0010 F8D2     		bcs	.L3
  56              	.L2:
  57              		.loc 1 62 0
  58 0012 5A68     		ldr	r2, [r3, #4]
  59              		.loc 1 61 0
  60 0014 0360     		str	r3, [r0, #0]
  61              		.loc 1 62 0
  62 0016 4260     		str	r2, [r0, #4]
  63              		.loc 1 63 0
  64 0018 1060     		str	r0, [r2, #0]
  65 001a 5860     		str	r0, [r3, #4]
  66              		.loc 1 64 0
  67 001c 10BD     		pop	{r4, pc}
  68              		.cfi_endproc
  69              	.LFE0:
  70              		.size	prio_insert, .-prio_insert
  71              		.section	.text.queue_insert,"ax",%progbits
  72              		.align	1
  73              		.global	queue_insert
  74              		.thumb
  75              		.thumb_func
  76              		.type	queue_insert, %function
  77              	queue_insert:
  78              	.LFB1:
  79              		.loc 1 74 0
  80              		.cfi_startproc
  81              		@ args = 0, pretend = 0, frame = 0
  82              		@ frame_needed = 0, uses_anonymous_args = 0
  83              		@ link register save eliminated.
  84              	.LVL3:
  85              		.loc 1 77 0
  86 0000 4B68     		ldr	r3, [r1, #4]
  87              		.loc 1 76 0
  88 0002 0160     		str	r1, [r0, #0]
  89              		.loc 1 77 0
  90 0004 4360     		str	r3, [r0, #4]
  91              		.loc 1 78 0
  92 0006 4860     		str	r0, [r1, #4]
  93 0008 1860     		str	r0, [r3, #0]
  94              		.loc 1 79 0
  95 000a 7047     		bx	lr
  96              		.cfi_endproc
  97              	.LFE1:
  98              		.size	queue_insert, .-queue_insert
  99              		.section	.text.fifo_remove,"ax",%progbits
 100              		.align	1
 101              		.global	fifo_remove
 102              		.thumb
 103              		.thumb_func
 104              		.type	fifo_remove, %function
 105              	fifo_remove:
 106              	.LFB2:
 107              		.loc 1 91 0
 108              		.cfi_startproc
 109              		@ args = 0, pretend = 0, frame = 0
 110              		@ frame_needed = 0, uses_anonymous_args = 0
ARM GAS  /tmp/ccDhpzpi.s 			page 3


 111              		@ link register save eliminated.
 112              	.LVL4:
 113              		.loc 1 91 0
 114 0000 0346     		mov	r3, r0
 115              		.loc 1 92 0
 116 0002 0068     		ldr	r0, [r0, #0]
 117              	.LVL5:
 118              		.loc 1 94 0
 119 0004 0268     		ldr	r2, [r0, #0]
 120 0006 1A60     		str	r2, [r3, #0]
 121 0008 5360     		str	r3, [r2, #4]
 122              		.loc 1 96 0
 123 000a 7047     		bx	lr
 124              		.cfi_endproc
 125              	.LFE2:
 126              		.size	fifo_remove, .-fifo_remove
 127              		.section	.text.lifo_remove,"ax",%progbits
 128              		.align	1
 129              		.global	lifo_remove
 130              		.thumb
 131              		.thumb_func
 132              		.type	lifo_remove, %function
 133              	lifo_remove:
 134              	.LFB3:
 135              		.loc 1 108 0
 136              		.cfi_startproc
 137              		@ args = 0, pretend = 0, frame = 0
 138              		@ frame_needed = 0, uses_anonymous_args = 0
 139              		@ link register save eliminated.
 140              	.LVL6:
 141              		.loc 1 108 0
 142 0000 0346     		mov	r3, r0
 143              		.loc 1 109 0
 144 0002 4068     		ldr	r0, [r0, #4]
 145              	.LVL7:
 146              		.loc 1 111 0
 147 0004 4268     		ldr	r2, [r0, #4]
 148 0006 5A60     		str	r2, [r3, #4]
 149 0008 1360     		str	r3, [r2, #0]
 150              		.loc 1 113 0
 151 000a 7047     		bx	lr
 152              		.cfi_endproc
 153              	.LFE3:
 154              		.size	lifo_remove, .-lifo_remove
 155              		.section	.text.dequeue,"ax",%progbits
 156              		.align	1
 157              		.global	dequeue
 158              		.thumb
 159              		.thumb_func
 160              		.type	dequeue, %function
 161              	dequeue:
 162              	.LFB4:
 163              		.loc 1 125 0
 164              		.cfi_startproc
 165              		@ args = 0, pretend = 0, frame = 0
 166              		@ frame_needed = 0, uses_anonymous_args = 0
 167              		@ link register save eliminated.
ARM GAS  /tmp/ccDhpzpi.s 			page 4


 168              	.LVL8:
 169              		.loc 1 127 0
 170 0000 4268     		ldr	r2, [r0, #4]
 171 0002 0168     		ldr	r1, [r0, #0]
 172 0004 1160     		str	r1, [r2, #0]
 173              		.loc 1 128 0
 174 0006 0368     		ldr	r3, [r0, #0]
 175 0008 5A60     		str	r2, [r3, #4]
 176              		.loc 1 130 0
 177 000a 7047     		bx	lr
 178              		.cfi_endproc
 179              	.LFE4:
 180              		.size	dequeue, .-dequeue
 181              		.section	.text.list_insert,"ax",%progbits
 182              		.align	1
 183              		.global	list_insert
 184              		.thumb
 185              		.thumb_func
 186              		.type	list_insert, %function
 187              	list_insert:
 188              	.LFB5:
 189              		.loc 1 140 0
 190              		.cfi_startproc
 191              		@ args = 0, pretend = 0, frame = 0
 192              		@ frame_needed = 0, uses_anonymous_args = 0
 193              		@ link register save eliminated.
 194              	.LVL9:
 195              		.loc 1 142 0
 196 0000 0B68     		ldr	r3, [r1, #0]
 197 0002 0360     		str	r3, [r0, #0]
 198              		.loc 1 143 0
 199 0004 0860     		str	r0, [r1, #0]
 200              		.loc 1 144 0
 201 0006 7047     		bx	lr
 202              		.cfi_endproc
 203              	.LFE5:
 204              		.size	list_insert, .-list_insert
 205              		.section	.text.list_remove,"ax",%progbits
 206              		.align	1
 207              		.global	list_remove
 208              		.thumb
 209              		.thumb_func
 210              		.type	list_remove, %function
 211              	list_remove:
 212              	.LFB6:
 213              		.loc 1 155 0
 214              		.cfi_startproc
 215              		@ args = 0, pretend = 0, frame = 0
 216              		@ frame_needed = 0, uses_anonymous_args = 0
 217              		@ link register save eliminated.
 218              	.LVL10:
 219              		.loc 1 157 0
 220 0000 0368     		ldr	r3, [r0, #0]
 221              	.LVL11:
 222              		.loc 1 158 0
 223 0002 1A68     		ldr	r2, [r3, #0]
 224 0004 0260     		str	r2, [r0, #0]
ARM GAS  /tmp/ccDhpzpi.s 			page 5


 225              		.loc 1 160 0
 226 0006 1846     		mov	r0, r3
 227              	.LVL12:
 228 0008 7047     		bx	lr
 229              		.cfi_endproc
 230              	.LFE6:
 231              		.size	list_remove, .-list_remove
 232              		.text
 233              	.Letext0: