ARM GAS  /tmp/ccYhxF2d.s 			page 1


   1              		.syntax unified
   2              		.cpu cortex-m3
   3              		.fpu softvfp
   4              		.eabi_attribute 20, 1
   5              		.eabi_attribute 21, 1
   6              		.eabi_attribute 23, 3
   7              		.eabi_attribute 24, 1
   8              		.eabi_attribute 25, 1
   9              		.eabi_attribute 26, 1
  10              		.eabi_attribute 30, 4
  11              		.eabi_attribute 18, 4
  12              		.thumb
  13              		.file	"chmboxes.c"
  14              		.section	.debug_abbrev,"",%progbits
  15              	.Ldebug_abbrev0:
  16              		.section	.debug_info,"",%progbits
  17              	.Ldebug_info0:
  18              		.section	.debug_line,"",%progbits
  19              	.Ldebug_line0:
  20 0000 D8020000 		.text
  20      02005001 
  20      00000201 
  20      FB0E0D00 
  20      01010101 
  21              	.Ltext0:
  22              		.cfi_sections	.debug_frame
  23              		.section	.text.chMBInit,"ax",%progbits
  24              		.align	1
  25              		.global	chMBInit
  26              		.thumb
  27              		.thumb_func
  28              		.type	chMBInit, %function
  29              	chMBInit:
  30              	.LFB0:
  31              		.file 1 "../chibios/os/kernel/src/chmboxes.c"
  32              		.loc 1 72 0
  33              		.cfi_startproc
  34              		@ args = 0, pretend = 0, frame = 0
  35              		@ frame_needed = 0, uses_anonymous_args = 0
  36              	.LVL0:
  37 0000 70B5     		push	{r4, r5, r6, lr}
  38              	.LCFI0:
  39              		.cfi_def_cfa_offset 16
  40              		.loc 1 72 0
  41 0002 0D46     		mov	r5, r1
  42              		.cfi_offset 14, -4
  43              		.cfi_offset 6, -8
  44              		.cfi_offset 5, -12
  45              		.cfi_offset 4, -16
  46 0004 1646     		mov	r6, r2
  47              		.loc 1 74 0
  48 0006 0446     		mov	r4, r0
  49 0008 10B1     		cbz	r0, .L2
  50              		.loc 1 74 0 is_stmt 0 discriminator 2
  51 000a 09B1     		cbz	r1, .L2
  52              		.loc 1 74 0 discriminator 3
  53 000c 002A     		cmp	r2, #0
ARM GAS  /tmp/ccYhxF2d.s 			page 2


  54 000e 02DC     		bgt	.L3
  55              	.L2:
  56              		.loc 1 74 0 discriminator 1
  57 0010 0A48     		ldr	r0, .L4
  58              	.LVL1:
  59 0012 FFF7FEFF 		bl	chDbgPanic
  60              	.LVL2:
  61              	.L3:
  62              		.loc 1 76 0 is_stmt 1
  63 0016 E560     		str	r5, [r4, #12]
  64 0018 A560     		str	r5, [r4, #8]
  65 001a 2560     		str	r5, [r4, #0]
  66              		.loc 1 77 0
  67 001c 05EB8605 		add	r5, r5, r6, lsl #2
  68              	.LVL3:
  69              		.loc 1 78 0
  70 0020 04F11C00 		add	r0, r4, #28
  71 0024 3146     		mov	r1, r6
  72              		.loc 1 77 0
  73 0026 6560     		str	r5, [r4, #4]
  74              		.loc 1 78 0
  75 0028 FFF7FEFF 		bl	chSemInit
  76              	.LVL4:
  77              		.loc 1 79 0
  78 002c 04F11000 		add	r0, r4, #16
  79 0030 0021     		movs	r1, #0
  80              		.loc 1 80 0
  81 0032 BDE87040 		pop	{r4, r5, r6, lr}
  82              		.loc 1 79 0
  83 0036 FFF7FEBF 		b	chSemInit
  84              	.L5:
  85 003a 00BF     		.align	2
  86              	.L4:
  87 003c 00000000 		.word	.LC0
  88              		.cfi_endproc
  89              	.LFE0:
  90              		.size	chMBInit, .-chMBInit
  91              		.section	.text.chMBReset,"ax",%progbits
  92              		.align	1
  93              		.global	chMBReset
  94              		.thumb
  95              		.thumb_func
  96              		.type	chMBReset, %function
  97              	chMBReset:
  98              	.LFB1:
  99              		.loc 1 91 0
 100              		.cfi_startproc
 101              		@ args = 0, pretend = 0, frame = 0
 102              		@ frame_needed = 0, uses_anonymous_args = 0
 103              	.LVL5:
 104 0000 10B5     		push	{r4, lr}
 105              	.LCFI1:
 106              		.cfi_def_cfa_offset 8
 107              		.loc 1 93 0
 108 0002 0446     		mov	r4, r0
 109              		.cfi_offset 14, -4
 110              		.cfi_offset 4, -8
ARM GAS  /tmp/ccYhxF2d.s 			page 3


 111 0004 10B9     		cbnz	r0, .L7
 112              		.loc 1 93 0 is_stmt 0 discriminator 1
 113 0006 0E48     		ldr	r0, .L8
 114              	.LVL6:
 115 0008 FFF7FEFF 		bl	chDbgPanic
 116              	.L7:
 117              		.loc 1 95 0 is_stmt 1
 118              	@ 95 "../chibios/os/kernel/src/chmboxes.c" 1
 119 000c FFF7FEFF 		bl      _port_lock
 120              	@ 0 "" 2
 121              		.thumb
 122 0010 FFF7FEFF 		bl	dbg_check_lock
 123              		.loc 1 96 0
 124 0014 2368     		ldr	r3, [r4, #0]
 125              		.loc 1 97 0
 126 0016 6168     		ldr	r1, [r4, #4]
 127              		.loc 1 96 0
 128 0018 E360     		str	r3, [r4, #12]
 129              		.loc 1 97 0
 130 001a C91A     		subs	r1, r1, r3
 131              		.loc 1 96 0
 132 001c A360     		str	r3, [r4, #8]
 133              		.loc 1 97 0
 134 001e 04F11C00 		add	r0, r4, #28
 135 0022 8910     		asrs	r1, r1, #2
 136 0024 FFF7FEFF 		bl	chSemResetI
 137              		.loc 1 98 0
 138 0028 04F11000 		add	r0, r4, #16
 139 002c 0021     		movs	r1, #0
 140 002e FFF7FEFF 		bl	chSemResetI
 141              		.loc 1 99 0
 142 0032 FFF7FEFF 		bl	chSchRescheduleS
 143              		.loc 1 100 0
 144 0036 FFF7FEFF 		bl	dbg_check_unlock
 145              	@ 100 "../chibios/os/kernel/src/chmboxes.c" 1
 146 003a FFF7FEFF 		bl      _port_unlock
 147              	@ 0 "" 2
 148              		.loc 1 101 0
 149              		.thumb
 150 003e 10BD     		pop	{r4, pc}
 151              	.L9:
 152              		.align	2
 153              	.L8:
 154 0040 0D000000 		.word	.LC1
 155              		.cfi_endproc
 156              	.LFE1:
 157              		.size	chMBReset, .-chMBReset
 158              		.section	.text.chMBPostS,"ax",%progbits
 159              		.align	1
 160              		.global	chMBPostS
 161              		.thumb
 162              		.thumb_func
 163              		.type	chMBPostS, %function
 164              	chMBPostS:
 165              	.LFB3:
 166              		.loc 1 150 0
 167              		.cfi_startproc
ARM GAS  /tmp/ccYhxF2d.s 			page 4


 168              		@ args = 0, pretend = 0, frame = 0
 169              		@ frame_needed = 0, uses_anonymous_args = 0
 170              	.LVL7:
 171 0000 70B5     		push	{r4, r5, r6, lr}
 172              	.LCFI2:
 173              		.cfi_def_cfa_offset 16
 174              		.loc 1 150 0
 175 0002 0446     		mov	r4, r0
 176              		.cfi_offset 14, -4
 177              		.cfi_offset 6, -8
 178              		.cfi_offset 5, -12
 179              		.cfi_offset 4, -16
 180 0004 0D46     		mov	r5, r1
 181 0006 1646     		mov	r6, r2
 182              		.loc 1 153 0
 183 0008 FFF7FEFF 		bl	chDbgCheckClassS
 184              	.LVL8:
 185              		.loc 1 154 0
 186 000c 14B9     		cbnz	r4, .L11
 187              		.loc 1 154 0 is_stmt 0 discriminator 1
 188 000e 0E48     		ldr	r0, .L14
 189 0010 FFF7FEFF 		bl	chDbgPanic
 190              	.L11:
 191              		.loc 1 156 0 is_stmt 1
 192 0014 3146     		mov	r1, r6
 193 0016 04F11C00 		add	r0, r4, #28
 194 001a FFF7FEFF 		bl	chSemWaitTimeoutS
 195              	.LVL9:
 196              		.loc 1 157 0
 197 001e 0646     		mov	r6, r0
 198              	.LVL10:
 199 0020 78B9     		cbnz	r0, .L12
 200              		.loc 1 158 0
 201 0022 A368     		ldr	r3, [r4, #8]
 202              		.loc 1 159 0
 203 0024 6268     		ldr	r2, [r4, #4]
 204              		.loc 1 158 0
 205 0026 43F8045B 		str	r5, [r3], #4
 206              		.loc 1 159 0
 207 002a 9342     		cmp	r3, r2
 208              		.loc 1 158 0
 209 002c A360     		str	r3, [r4, #8]
 210              		.loc 1 160 0
 211 002e 28BF     		it	cs
 212 0030 2368     		ldrcs	r3, [r4, #0]
 213              		.loc 1 161 0
 214 0032 04F11000 		add	r0, r4, #16
 215              	.LVL11:
 216              		.loc 1 160 0
 217 0036 28BF     		it	cs
 218 0038 A360     		strcs	r3, [r4, #8]
 219              		.loc 1 161 0
 220 003a FFF7FEFF 		bl	chSemSignalI
 221              		.loc 1 162 0
 222 003e FFF7FEFF 		bl	chSchRescheduleS
 223              	.L12:
 224              		.loc 1 165 0
ARM GAS  /tmp/ccYhxF2d.s 			page 5


 225 0042 3046     		mov	r0, r6
 226 0044 70BD     		pop	{r4, r5, r6, pc}
 227              	.L15:
 228 0046 00BF     		.align	2
 229              	.L14:
 230 0048 1B000000 		.word	.LC2
 231              		.cfi_endproc
 232              	.LFE3:
 233              		.size	chMBPostS, .-chMBPostS
 234              		.section	.text.chMBPost,"ax",%progbits
 235              		.align	1
 236              		.global	chMBPost
 237              		.thumb
 238              		.thumb_func
 239              		.type	chMBPost, %function
 240              	chMBPost:
 241              	.LFB2:
 242              		.loc 1 122 0
 243              		.cfi_startproc
 244              		@ args = 0, pretend = 0, frame = 0
 245              		@ frame_needed = 0, uses_anonymous_args = 0
 246              	.LVL12:
 247 0000 70B5     		push	{r4, r5, r6, lr}
 248              	.LCFI3:
 249              		.cfi_def_cfa_offset 16
 250              		.loc 1 122 0
 251 0002 0646     		mov	r6, r0
 252              		.cfi_offset 14, -4
 253              		.cfi_offset 6, -8
 254              		.cfi_offset 5, -12
 255              		.cfi_offset 4, -16
 256 0004 0D46     		mov	r5, r1
 257 0006 1446     		mov	r4, r2
 258              		.loc 1 125 0
 259              	@ 125 "../chibios/os/kernel/src/chmboxes.c" 1
 260 0008 FFF7FEFF 		bl      _port_lock
 261              	@ 0 "" 2
 262              		.thumb
 263 000c FFF7FEFF 		bl	dbg_check_lock
 264              	.LVL13:
 265              		.loc 1 126 0
 266 0010 2246     		mov	r2, r4
 267 0012 2946     		mov	r1, r5
 268 0014 3046     		mov	r0, r6
 269 0016 FFF7FEFF 		bl	chMBPostS
 270 001a 0446     		mov	r4, r0
 271              	.LVL14:
 272              		.loc 1 127 0
 273 001c FFF7FEFF 		bl	dbg_check_unlock
 274              	.LVL15:
 275              	@ 127 "../chibios/os/kernel/src/chmboxes.c" 1
 276 0020 FFF7FEFF 		bl      _port_unlock
 277              	@ 0 "" 2
 278              		.loc 1 129 0
 279              		.thumb
 280 0024 2046     		mov	r0, r4
 281 0026 70BD     		pop	{r4, r5, r6, pc}
ARM GAS  /tmp/ccYhxF2d.s 			page 6


 282              		.cfi_endproc
 283              	.LFE2:
 284              		.size	chMBPost, .-chMBPost
 285              		.section	.text.chMBPostI,"ax",%progbits
 286              		.align	1
 287              		.global	chMBPostI
 288              		.thumb
 289              		.thumb_func
 290              		.type	chMBPostI, %function
 291              	chMBPostI:
 292              	.LFB4:
 293              		.loc 1 181 0
 294              		.cfi_startproc
 295              		@ args = 0, pretend = 0, frame = 0
 296              		@ frame_needed = 0, uses_anonymous_args = 0
 297              	.LVL16:
 298 0000 38B5     		push	{r3, r4, r5, lr}
 299              	.LCFI4:
 300              		.cfi_def_cfa_offset 16
 301              		.loc 1 181 0
 302 0002 0446     		mov	r4, r0
 303              		.cfi_offset 14, -4
 304              		.cfi_offset 5, -8
 305              		.cfi_offset 4, -12
 306              		.cfi_offset 3, -16
 307 0004 0D46     		mov	r5, r1
 308              		.loc 1 183 0
 309 0006 FFF7FEFF 		bl	chDbgCheckClassI
 310              	.LVL17:
 311              		.loc 1 184 0
 312 000a 14B9     		cbnz	r4, .L18
 313              		.loc 1 184 0 is_stmt 0 discriminator 1
 314 000c 0D48     		ldr	r0, .L22
 315 000e FFF7FEFF 		bl	chDbgPanic
 316              	.L18:
 317              		.loc 1 186 0 is_stmt 1
 318 0012 636A     		ldr	r3, [r4, #36]
 319 0014 002B     		cmp	r3, #0
 320 0016 11DD     		ble	.L21
 321              		.loc 1 188 0
 322 0018 013B     		subs	r3, r3, #1
 323 001a 6362     		str	r3, [r4, #36]
 324              		.loc 1 189 0
 325 001c A368     		ldr	r3, [r4, #8]
 326              		.loc 1 190 0
 327 001e 6268     		ldr	r2, [r4, #4]
 328              		.loc 1 189 0
 329 0020 43F8045B 		str	r5, [r3], #4
 330              		.loc 1 190 0
 331 0024 9342     		cmp	r3, r2
 332              		.loc 1 189 0
 333 0026 A360     		str	r3, [r4, #8]
 334              		.loc 1 191 0
 335 0028 28BF     		it	cs
 336 002a 2368     		ldrcs	r3, [r4, #0]
 337              		.loc 1 192 0
 338 002c 04F11000 		add	r0, r4, #16
ARM GAS  /tmp/ccYhxF2d.s 			page 7


 339              		.loc 1 191 0
 340 0030 28BF     		it	cs
 341 0032 A360     		strcs	r3, [r4, #8]
 342              		.loc 1 192 0
 343 0034 FFF7FEFF 		bl	chSemSignalI
 344              		.loc 1 193 0
 345 0038 0020     		movs	r0, #0
 346 003a 38BD     		pop	{r3, r4, r5, pc}
 347              	.L21:
 348              		.loc 1 187 0
 349 003c 4FF0FF30 		mov	r0, #-1
 350              		.loc 1 194 0
 351 0040 38BD     		pop	{r3, r4, r5, pc}
 352              	.L23:
 353 0042 00BF     		.align	2
 354              	.L22:
 355 0044 29000000 		.word	.LC3
 356              		.cfi_endproc
 357              	.LFE4:
 358              		.size	chMBPostI, .-chMBPostI
 359              		.section	.text.chMBPostAheadS,"ax",%progbits
 360              		.align	1
 361              		.global	chMBPostAheadS
 362              		.thumb
 363              		.thumb_func
 364              		.type	chMBPostAheadS, %function
 365              	chMBPostAheadS:
 366              	.LFB6:
 367              		.loc 1 243 0
 368              		.cfi_startproc
 369              		@ args = 0, pretend = 0, frame = 0
 370              		@ frame_needed = 0, uses_anonymous_args = 0
 371              	.LVL18:
 372 0000 70B5     		push	{r4, r5, r6, lr}
 373              	.LCFI5:
 374              		.cfi_def_cfa_offset 16
 375              		.loc 1 243 0
 376 0002 0446     		mov	r4, r0
 377              		.cfi_offset 14, -4
 378              		.cfi_offset 6, -8
 379              		.cfi_offset 5, -12
 380              		.cfi_offset 4, -16
 381 0004 0D46     		mov	r5, r1
 382 0006 1646     		mov	r6, r2
 383              		.loc 1 246 0
 384 0008 FFF7FEFF 		bl	chDbgCheckClassS
 385              	.LVL19:
 386              		.loc 1 247 0
 387 000c 14B9     		cbnz	r4, .L25
 388              		.loc 1 247 0 is_stmt 0 discriminator 1
 389 000e 0E48     		ldr	r0, .L28
 390 0010 FFF7FEFF 		bl	chDbgPanic
 391              	.L25:
 392              		.loc 1 249 0 is_stmt 1
 393 0014 3146     		mov	r1, r6
 394 0016 04F11C00 		add	r0, r4, #28
 395 001a FFF7FEFF 		bl	chSemWaitTimeoutS
ARM GAS  /tmp/ccYhxF2d.s 			page 8


 396              	.LVL20:
 397              		.loc 1 250 0
 398 001e 0646     		mov	r6, r0
 399              	.LVL21:
 400 0020 80B9     		cbnz	r0, .L26
 401              		.loc 1 251 0
 402 0022 E368     		ldr	r3, [r4, #12]
 403 0024 2268     		ldr	r2, [r4, #0]
 404 0026 043B     		subs	r3, r3, #4
 405 0028 9342     		cmp	r3, r2
 406 002a E360     		str	r3, [r4, #12]
 407 002c 02D2     		bcs	.L27
 408              		.loc 1 252 0
 409 002e 6368     		ldr	r3, [r4, #4]
 410 0030 043B     		subs	r3, r3, #4
 411 0032 E360     		str	r3, [r4, #12]
 412              	.L27:
 413              		.loc 1 253 0
 414 0034 E368     		ldr	r3, [r4, #12]
 415              		.loc 1 254 0
 416 0036 04F11000 		add	r0, r4, #16
 417              	.LVL22:
 418              		.loc 1 253 0
 419 003a 1D60     		str	r5, [r3, #0]
 420              		.loc 1 254 0
 421 003c FFF7FEFF 		bl	chSemSignalI
 422              		.loc 1 255 0
 423 0040 FFF7FEFF 		bl	chSchRescheduleS
 424              	.L26:
 425              		.loc 1 258 0
 426 0044 3046     		mov	r0, r6
 427 0046 70BD     		pop	{r4, r5, r6, pc}
 428              	.L29:
 429              		.align	2
 430              	.L28:
 431 0048 37000000 		.word	.LC4
 432              		.cfi_endproc
 433              	.LFE6:
 434              		.size	chMBPostAheadS, .-chMBPostAheadS
 435              		.section	.text.chMBPostAhead,"ax",%progbits
 436              		.align	1
 437              		.global	chMBPostAhead
 438              		.thumb
 439              		.thumb_func
 440              		.type	chMBPostAhead, %function
 441              	chMBPostAhead:
 442              	.LFB5:
 443              		.loc 1 215 0
 444              		.cfi_startproc
 445              		@ args = 0, pretend = 0, frame = 0
 446              		@ frame_needed = 0, uses_anonymous_args = 0
 447              	.LVL23:
 448 0000 70B5     		push	{r4, r5, r6, lr}
 449              	.LCFI6:
 450              		.cfi_def_cfa_offset 16
 451              		.loc 1 215 0
 452 0002 0646     		mov	r6, r0
ARM GAS  /tmp/ccYhxF2d.s 			page 9


 453              		.cfi_offset 14, -4
 454              		.cfi_offset 6, -8
 455              		.cfi_offset 5, -12
 456              		.cfi_offset 4, -16
 457 0004 0D46     		mov	r5, r1
 458 0006 1446     		mov	r4, r2
 459              		.loc 1 218 0
 460              	@ 218 "../chibios/os/kernel/src/chmboxes.c" 1
 461 0008 FFF7FEFF 		bl      _port_lock
 462              	@ 0 "" 2
 463              		.thumb
 464 000c FFF7FEFF 		bl	dbg_check_lock
 465              	.LVL24:
 466              		.loc 1 219 0
 467 0010 2246     		mov	r2, r4
 468 0012 2946     		mov	r1, r5
 469 0014 3046     		mov	r0, r6
 470 0016 FFF7FEFF 		bl	chMBPostAheadS
 471 001a 0446     		mov	r4, r0
 472              	.LVL25:
 473              		.loc 1 220 0
 474 001c FFF7FEFF 		bl	dbg_check_unlock
 475              	.LVL26:
 476              	@ 220 "../chibios/os/kernel/src/chmboxes.c" 1
 477 0020 FFF7FEFF 		bl      _port_unlock
 478              	@ 0 "" 2
 479              		.loc 1 222 0
 480              		.thumb
 481 0024 2046     		mov	r0, r4
 482 0026 70BD     		pop	{r4, r5, r6, pc}
 483              		.cfi_endproc
 484              	.LFE5:
 485              		.size	chMBPostAhead, .-chMBPostAhead
 486              		.section	.text.chMBPostAheadI,"ax",%progbits
 487              		.align	1
 488              		.global	chMBPostAheadI
 489              		.thumb
 490              		.thumb_func
 491              		.type	chMBPostAheadI, %function
 492              	chMBPostAheadI:
 493              	.LFB7:
 494              		.loc 1 274 0
 495              		.cfi_startproc
 496              		@ args = 0, pretend = 0, frame = 0
 497              		@ frame_needed = 0, uses_anonymous_args = 0
 498              	.LVL27:
 499 0000 38B5     		push	{r3, r4, r5, lr}
 500              	.LCFI7:
 501              		.cfi_def_cfa_offset 16
 502              		.loc 1 274 0
 503 0002 0446     		mov	r4, r0
 504              		.cfi_offset 14, -4
 505              		.cfi_offset 5, -8
 506              		.cfi_offset 4, -12
 507              		.cfi_offset 3, -16
 508 0004 0D46     		mov	r5, r1
 509              		.loc 1 276 0
ARM GAS  /tmp/ccYhxF2d.s 			page 10


 510 0006 FFF7FEFF 		bl	chDbgCheckClassI
 511              	.LVL28:
 512              		.loc 1 277 0
 513 000a 14B9     		cbnz	r4, .L32
 514              		.loc 1 277 0 is_stmt 0 discriminator 1
 515 000c 0D48     		ldr	r0, .L36
 516 000e FFF7FEFF 		bl	chDbgPanic
 517              	.L32:
 518              		.loc 1 279 0 is_stmt 1
 519 0012 636A     		ldr	r3, [r4, #36]
 520 0014 002B     		cmp	r3, #0
 521 0016 12DD     		ble	.L35
 522              		.loc 1 281 0
 523 0018 013B     		subs	r3, r3, #1
 524 001a 6362     		str	r3, [r4, #36]
 525              		.loc 1 282 0
 526 001c E368     		ldr	r3, [r4, #12]
 527 001e 2268     		ldr	r2, [r4, #0]
 528 0020 043B     		subs	r3, r3, #4
 529 0022 9342     		cmp	r3, r2
 530 0024 E360     		str	r3, [r4, #12]
 531 0026 02D2     		bcs	.L34
 532              		.loc 1 283 0
 533 0028 6368     		ldr	r3, [r4, #4]
 534 002a 043B     		subs	r3, r3, #4
 535 002c E360     		str	r3, [r4, #12]
 536              	.L34:
 537              		.loc 1 284 0
 538 002e E368     		ldr	r3, [r4, #12]
 539              		.loc 1 285 0
 540 0030 04F11000 		add	r0, r4, #16
 541              		.loc 1 284 0
 542 0034 1D60     		str	r5, [r3, #0]
 543              		.loc 1 285 0
 544 0036 FFF7FEFF 		bl	chSemSignalI
 545              		.loc 1 286 0
 546 003a 0020     		movs	r0, #0
 547 003c 38BD     		pop	{r3, r4, r5, pc}
 548              	.L35:
 549              		.loc 1 280 0
 550 003e 4FF0FF30 		mov	r0, #-1
 551              		.loc 1 287 0
 552 0042 38BD     		pop	{r3, r4, r5, pc}
 553              	.L37:
 554              		.align	2
 555              	.L36:
 556 0044 4A000000 		.word	.LC5
 557              		.cfi_endproc
 558              	.LFE7:
 559              		.size	chMBPostAheadI, .-chMBPostAheadI
 560              		.section	.text.chMBFetchS,"ax",%progbits
 561              		.align	1
 562              		.global	chMBFetchS
 563              		.thumb
 564              		.thumb_func
 565              		.type	chMBFetchS, %function
 566              	chMBFetchS:
ARM GAS  /tmp/ccYhxF2d.s 			page 11


 567              	.LFB9:
 568              		.loc 1 336 0
 569              		.cfi_startproc
 570              		@ args = 0, pretend = 0, frame = 0
 571              		@ frame_needed = 0, uses_anonymous_args = 0
 572              	.LVL29:
 573 0000 70B5     		push	{r4, r5, r6, lr}
 574              	.LCFI8:
 575              		.cfi_def_cfa_offset 16
 576              		.loc 1 336 0
 577 0002 0446     		mov	r4, r0
 578              		.cfi_offset 14, -4
 579              		.cfi_offset 6, -8
 580              		.cfi_offset 5, -12
 581              		.cfi_offset 4, -16
 582 0004 0D46     		mov	r5, r1
 583 0006 1646     		mov	r6, r2
 584              		.loc 1 339 0
 585 0008 FFF7FEFF 		bl	chDbgCheckClassS
 586              	.LVL30:
 587              		.loc 1 340 0
 588 000c 04B1     		cbz	r4, .L39
 589              		.loc 1 340 0 is_stmt 0 discriminator 2
 590 000e 15B9     		cbnz	r5, .L40
 591              	.L39:
 592              		.loc 1 340 0 discriminator 1
 593 0010 0D48     		ldr	r0, .L43
 594 0012 FFF7FEFF 		bl	chDbgPanic
 595              	.L40:
 596              		.loc 1 342 0 is_stmt 1
 597 0016 3146     		mov	r1, r6
 598 0018 04F11000 		add	r0, r4, #16
 599 001c FFF7FEFF 		bl	chSemWaitTimeoutS
 600              	.LVL31:
 601              		.loc 1 343 0
 602 0020 0646     		mov	r6, r0
 603              	.LVL32:
 604 0022 78B9     		cbnz	r0, .L41
 605              		.loc 1 344 0
 606 0024 E368     		ldr	r3, [r4, #12]
 607              		.loc 1 347 0
 608 0026 04F11C00 		add	r0, r4, #28
 609              	.LVL33:
 610              		.loc 1 344 0
 611 002a 53F8042B 		ldr	r2, [r3], #4
 612 002e 2A60     		str	r2, [r5, #0]
 613              		.loc 1 345 0
 614 0030 6268     		ldr	r2, [r4, #4]
 615              		.loc 1 344 0
 616 0032 E360     		str	r3, [r4, #12]
 617              		.loc 1 345 0
 618 0034 9342     		cmp	r3, r2
 619              		.loc 1 346 0
 620 0036 24BF     		itt	cs
 621 0038 2368     		ldrcs	r3, [r4, #0]
 622 003a E360     		strcs	r3, [r4, #12]
 623              		.loc 1 347 0
ARM GAS  /tmp/ccYhxF2d.s 			page 12


 624 003c FFF7FEFF 		bl	chSemSignalI
 625              		.loc 1 348 0
 626 0040 FFF7FEFF 		bl	chSchRescheduleS
 627              	.L41:
 628              		.loc 1 351 0
 629 0044 3046     		mov	r0, r6
 630 0046 70BD     		pop	{r4, r5, r6, pc}
 631              	.L44:
 632              		.align	2
 633              	.L43:
 634 0048 5D000000 		.word	.LC6
 635              		.cfi_endproc
 636              	.LFE9:
 637              		.size	chMBFetchS, .-chMBFetchS
 638              		.section	.text.chMBFetch,"ax",%progbits
 639              		.align	1
 640              		.global	chMBFetch
 641              		.thumb
 642              		.thumb_func
 643              		.type	chMBFetch, %function
 644              	chMBFetch:
 645              	.LFB8:
 646              		.loc 1 308 0
 647              		.cfi_startproc
 648              		@ args = 0, pretend = 0, frame = 0
 649              		@ frame_needed = 0, uses_anonymous_args = 0
 650              	.LVL34:
 651 0000 70B5     		push	{r4, r5, r6, lr}
 652              	.LCFI9:
 653              		.cfi_def_cfa_offset 16
 654              		.loc 1 308 0
 655 0002 0646     		mov	r6, r0
 656              		.cfi_offset 14, -4
 657              		.cfi_offset 6, -8
 658              		.cfi_offset 5, -12
 659              		.cfi_offset 4, -16
 660 0004 0D46     		mov	r5, r1
 661 0006 1446     		mov	r4, r2
 662              		.loc 1 311 0
 663              	@ 311 "../chibios/os/kernel/src/chmboxes.c" 1
 664 0008 FFF7FEFF 		bl      _port_lock
 665              	@ 0 "" 2
 666              		.thumb
 667 000c FFF7FEFF 		bl	dbg_check_lock
 668              	.LVL35:
 669              		.loc 1 312 0
 670 0010 2246     		mov	r2, r4
 671 0012 2946     		mov	r1, r5
 672 0014 3046     		mov	r0, r6
 673 0016 FFF7FEFF 		bl	chMBFetchS
 674 001a 0446     		mov	r4, r0
 675              	.LVL36:
 676              		.loc 1 313 0
 677 001c FFF7FEFF 		bl	dbg_check_unlock
 678              	.LVL37:
 679              	@ 313 "../chibios/os/kernel/src/chmboxes.c" 1
 680 0020 FFF7FEFF 		bl      _port_unlock
ARM GAS  /tmp/ccYhxF2d.s 			page 13


 681              	@ 0 "" 2
 682              		.loc 1 315 0
 683              		.thumb
 684 0024 2046     		mov	r0, r4
 685 0026 70BD     		pop	{r4, r5, r6, pc}
 686              		.cfi_endproc
 687              	.LFE8:
 688              		.size	chMBFetch, .-chMBFetch
 689              		.section	.text.chMBFetchI,"ax",%progbits
 690              		.align	1
 691              		.global	chMBFetchI
 692              		.thumb
 693              		.thumb_func
 694              		.type	chMBFetchI, %function
 695              	chMBFetchI:
 696              	.LFB10:
 697              		.loc 1 367 0
 698              		.cfi_startproc
 699              		@ args = 0, pretend = 0, frame = 0
 700              		@ frame_needed = 0, uses_anonymous_args = 0
 701              	.LVL38:
 702 0000 38B5     		push	{r3, r4, r5, lr}
 703              	.LCFI10:
 704              		.cfi_def_cfa_offset 16
 705              		.loc 1 367 0
 706 0002 0446     		mov	r4, r0
 707              		.cfi_offset 14, -4
 708              		.cfi_offset 5, -8
 709              		.cfi_offset 4, -12
 710              		.cfi_offset 3, -16
 711 0004 0D46     		mov	r5, r1
 712              		.loc 1 369 0
 713 0006 FFF7FEFF 		bl	chDbgCheckClassI
 714              	.LVL39:
 715              		.loc 1 370 0
 716 000a 04B1     		cbz	r4, .L47
 717              		.loc 1 370 0 is_stmt 0 discriminator 2
 718 000c 15B9     		cbnz	r5, .L48
 719              	.L47:
 720              		.loc 1 370 0 discriminator 1
 721 000e 0D48     		ldr	r0, .L52
 722 0010 FFF7FEFF 		bl	chDbgPanic
 723              	.L48:
 724              		.loc 1 372 0 is_stmt 1
 725 0014 A369     		ldr	r3, [r4, #24]
 726 0016 002B     		cmp	r3, #0
 727 0018 11DD     		ble	.L51
 728              		.loc 1 374 0
 729 001a 013B     		subs	r3, r3, #1
 730 001c A361     		str	r3, [r4, #24]
 731              		.loc 1 375 0
 732 001e E368     		ldr	r3, [r4, #12]
 733              		.loc 1 378 0
 734 0020 04F11C00 		add	r0, r4, #28
 735              		.loc 1 375 0
 736 0024 53F8042B 		ldr	r2, [r3], #4
 737 0028 2A60     		str	r2, [r5, #0]
ARM GAS  /tmp/ccYhxF2d.s 			page 14


 738              		.loc 1 376 0
 739 002a 6268     		ldr	r2, [r4, #4]
 740              		.loc 1 375 0
 741 002c E360     		str	r3, [r4, #12]
 742              		.loc 1 376 0
 743 002e 9342     		cmp	r3, r2
 744              		.loc 1 377 0
 745 0030 24BF     		itt	cs
 746 0032 2368     		ldrcs	r3, [r4, #0]
 747 0034 E360     		strcs	r3, [r4, #12]
 748              		.loc 1 378 0
 749 0036 FFF7FEFF 		bl	chSemSignalI
 750              		.loc 1 379 0
 751 003a 0020     		movs	r0, #0
 752 003c 38BD     		pop	{r3, r4, r5, pc}
 753              	.L51:
 754              		.loc 1 373 0
 755 003e 4FF0FF30 		mov	r0, #-1
 756              		.loc 1 380 0
 757 0042 38BD     		pop	{r3, r4, r5, pc}
 758              	.L53:
 759              		.align	2
 760              	.L52:
 761 0044 6C000000 		.word	.LC7
 762              		.cfi_endproc
 763              	.LFE10:
 764              		.size	chMBFetchI, .-chMBFetchI
 765              		.section	.rodata.str1.1,"aMS",%progbits,1
 766              	.LC0:
 767 0000 2263684D 		.ascii	"\"chMBInit\"()\000"
 767      42496E69 
 767      74222829 
 767      00
 768              	.LC1:
 769 000d 2263684D 		.ascii	"\"chMBReset\"()\000"
 769      42526573 
 769      65742228 
 769      2900
 770              	.LC2:
 771 001b 2263684D 		.ascii	"\"chMBPostS\"()\000"
 771      42506F73 
 771      74532228 
 771      2900
 772              	.LC3:
 773 0029 2263684D 		.ascii	"\"chMBPostI\"()\000"
 773      42506F73 
 773      74492228 
 773      2900
 774              	.LC4:
 775 0037 2263684D 		.ascii	"\"chMBPostAheadS\"()\000"
 775      42506F73 
 775      74416865 
 775      61645322 
 775      282900
 776              	.LC5:
 777 004a 2263684D 		.ascii	"\"chMBPostAheadI\"()\000"
 777      42506F73 
ARM GAS  /tmp/ccYhxF2d.s 			page 15


 777      74416865 
 777      61644922 
 777      282900
 778              	.LC6:
 779 005d 2263684D 		.ascii	"\"chMBFetchS\"()\000"
 779      42466574 
 779      63685322 
 779      282900
 780              	.LC7:
 781 006c 2263684D 		.ascii	"\"chMBFetchI\"()\000"
 781      42466574 
 781      63684922 
 781      282900
 782              		.text
 783              	.Letext0:
 784              		.section	.debug_loc,"",%progbits
 785              	.Ldebug_loc0:
 786              	.LLST0:
 787 0000 00000000 		.4byte	.LFB0
 788 0004 02000000 		.4byte	.LCFI0
 789 0008 0200     		.2byte	0x2
 790 000a 7D       		.byte	0x7d
 791 000b 00       		.sleb128 0
 792 000c 02000000 		.4byte	.LCFI0
 793 0010 40000000 		.4byte	.LFE0
 794 0014 0200     		.2byte	0x2
 795 0016 7D       		.byte	0x7d
 796 0017 10       		.sleb128 16
 797 0018 00000000 		.4byte	0x0
 798 001c 00000000 		.4byte	0x0
 799              	.LLST1:
 800 0020 00000000 		.4byte	.LVL0
 801 0024 12000000 		.4byte	.LVL1
 802 0028 0100     		.2byte	0x1
 803 002a 50       		.byte	0x50
 804 002b 12000000 		.4byte	.LVL1
 805 002f 40000000 		.4byte	.LFE0
 806 0033 0100     		.2byte	0x1
 807 0035 54       		.byte	0x54
 808 0036 00000000 		.4byte	0x0
 809 003a 00000000 		.4byte	0x0
 810              	.LLST2:
 811 003e 00000000 		.4byte	.LVL0
 812 0042 15000000 		.4byte	.LVL2-1
 813 0046 0100     		.2byte	0x1
 814 0048 51       		.byte	0x51
 815 0049 15000000 		.4byte	.LVL2-1
 816 004d 20000000 		.4byte	.LVL3
 817 0051 0100     		.2byte	0x1
 818 0053 55       		.byte	0x55
 819 0054 20000000 		.4byte	.LVL3
 820 0058 2B000000 		.4byte	.LVL4-1
 821 005c 0200     		.2byte	0x2
 822 005e 74       		.byte	0x74
 823 005f 00       		.sleb128 0
 824 0060 00000000 		.4byte	0x0
 825 0064 00000000 		.4byte	0x0
ARM GAS  /tmp/ccYhxF2d.s 			page 16


 826              	.LLST3:
 827 0068 00000000 		.4byte	.LVL0
 828 006c 15000000 		.4byte	.LVL2-1
 829 0070 0100     		.2byte	0x1
 830 0072 52       		.byte	0x52
 831 0073 15000000 		.4byte	.LVL2-1
 832 0077 40000000 		.4byte	.LFE0
 833 007b 0100     		.2byte	0x1
 834 007d 56       		.byte	0x56
 835 007e 00000000 		.4byte	0x0
 836 0082 00000000 		.4byte	0x0
 837              	.LLST4:
 838 0086 00000000 		.4byte	.LFB1
 839 008a 02000000 		.4byte	.LCFI1
 840 008e 0200     		.2byte	0x2
 841 0090 7D       		.byte	0x7d
 842 0091 00       		.sleb128 0
 843 0092 02000000 		.4byte	.LCFI1
 844 0096 44000000 		.4byte	.LFE1
 845 009a 0200     		.2byte	0x2
 846 009c 7D       		.byte	0x7d
 847 009d 08       		.sleb128 8
 848 009e 00000000 		.4byte	0x0
 849 00a2 00000000 		.4byte	0x0
 850              	.LLST5:
 851 00a6 00000000 		.4byte	.LVL5
 852 00aa 08000000 		.4byte	.LVL6
 853 00ae 0100     		.2byte	0x1
 854 00b0 50       		.byte	0x50
 855 00b1 08000000 		.4byte	.LVL6
 856 00b5 44000000 		.4byte	.LFE1
 857 00b9 0100     		.2byte	0x1
 858 00bb 54       		.byte	0x54
 859 00bc 00000000 		.4byte	0x0
 860 00c0 00000000 		.4byte	0x0
 861              	.LLST6:
 862 00c4 00000000 		.4byte	.LFB3
 863 00c8 02000000 		.4byte	.LCFI2
 864 00cc 0200     		.2byte	0x2
 865 00ce 7D       		.byte	0x7d
 866 00cf 00       		.sleb128 0
 867 00d0 02000000 		.4byte	.LCFI2
 868 00d4 4C000000 		.4byte	.LFE3
 869 00d8 0200     		.2byte	0x2
 870 00da 7D       		.byte	0x7d
 871 00db 10       		.sleb128 16
 872 00dc 00000000 		.4byte	0x0
 873 00e0 00000000 		.4byte	0x0
 874              	.LLST7:
 875 00e4 00000000 		.4byte	.LVL7
 876 00e8 0B000000 		.4byte	.LVL8-1
 877 00ec 0100     		.2byte	0x1
 878 00ee 50       		.byte	0x50
 879 00ef 0B000000 		.4byte	.LVL8-1
 880 00f3 4C000000 		.4byte	.LFE3
 881 00f7 0100     		.2byte	0x1
 882 00f9 54       		.byte	0x54
ARM GAS  /tmp/ccYhxF2d.s 			page 17


 883 00fa 00000000 		.4byte	0x0
 884 00fe 00000000 		.4byte	0x0
 885              	.LLST8:
 886 0102 00000000 		.4byte	.LVL7
 887 0106 0B000000 		.4byte	.LVL8-1
 888 010a 0100     		.2byte	0x1
 889 010c 51       		.byte	0x51
 890 010d 0B000000 		.4byte	.LVL8-1
 891 0111 4C000000 		.4byte	.LFE3
 892 0115 0100     		.2byte	0x1
 893 0117 55       		.byte	0x55
 894 0118 00000000 		.4byte	0x0
 895 011c 00000000 		.4byte	0x0
 896              	.LLST9:
 897 0120 00000000 		.4byte	.LVL7
 898 0124 0B000000 		.4byte	.LVL8-1
 899 0128 0100     		.2byte	0x1
 900 012a 52       		.byte	0x52
 901 012b 0B000000 		.4byte	.LVL8-1
 902 012f 20000000 		.4byte	.LVL10
 903 0133 0100     		.2byte	0x1
 904 0135 56       		.byte	0x56
 905 0136 00000000 		.4byte	0x0
 906 013a 00000000 		.4byte	0x0
 907              	.LLST10:
 908 013e 1E000000 		.4byte	.LVL9
 909 0142 36000000 		.4byte	.LVL11
 910 0146 0100     		.2byte	0x1
 911 0148 50       		.byte	0x50
 912 0149 36000000 		.4byte	.LVL11
 913 014d 4C000000 		.4byte	.LFE3
 914 0151 0100     		.2byte	0x1
 915 0153 56       		.byte	0x56
 916 0154 00000000 		.4byte	0x0
 917 0158 00000000 		.4byte	0x0
 918              	.LLST11:
 919 015c 00000000 		.4byte	.LFB2
 920 0160 02000000 		.4byte	.LCFI3
 921 0164 0200     		.2byte	0x2
 922 0166 7D       		.byte	0x7d
 923 0167 00       		.sleb128 0
 924 0168 02000000 		.4byte	.LCFI3
 925 016c 28000000 		.4byte	.LFE2
 926 0170 0200     		.2byte	0x2
 927 0172 7D       		.byte	0x7d
 928 0173 10       		.sleb128 16
 929 0174 00000000 		.4byte	0x0
 930 0178 00000000 		.4byte	0x0
 931              	.LLST12:
 932 017c 00000000 		.4byte	.LVL12
 933 0180 0F000000 		.4byte	.LVL13-1
 934 0184 0100     		.2byte	0x1
 935 0186 50       		.byte	0x50
 936 0187 0F000000 		.4byte	.LVL13-1
 937 018b 28000000 		.4byte	.LFE2
 938 018f 0100     		.2byte	0x1
 939 0191 56       		.byte	0x56
ARM GAS  /tmp/ccYhxF2d.s 			page 18


 940 0192 00000000 		.4byte	0x0
 941 0196 00000000 		.4byte	0x0
 942              	.LLST13:
 943 019a 00000000 		.4byte	.LVL12
 944 019e 0F000000 		.4byte	.LVL13-1
 945 01a2 0100     		.2byte	0x1
 946 01a4 51       		.byte	0x51
 947 01a5 0F000000 		.4byte	.LVL13-1
 948 01a9 28000000 		.4byte	.LFE2
 949 01ad 0100     		.2byte	0x1
 950 01af 55       		.byte	0x55
 951 01b0 00000000 		.4byte	0x0
 952 01b4 00000000 		.4byte	0x0
 953              	.LLST14:
 954 01b8 00000000 		.4byte	.LVL12
 955 01bc 0F000000 		.4byte	.LVL13-1
 956 01c0 0100     		.2byte	0x1
 957 01c2 52       		.byte	0x52
 958 01c3 0F000000 		.4byte	.LVL13-1
 959 01c7 1C000000 		.4byte	.LVL14
 960 01cb 0100     		.2byte	0x1
 961 01cd 54       		.byte	0x54
 962 01ce 00000000 		.4byte	0x0
 963 01d2 00000000 		.4byte	0x0
 964              	.LLST15:
 965 01d6 1C000000 		.4byte	.LVL14
 966 01da 1F000000 		.4byte	.LVL15-1
 967 01de 0100     		.2byte	0x1
 968 01e0 50       		.byte	0x50
 969 01e1 1F000000 		.4byte	.LVL15-1
 970 01e5 28000000 		.4byte	.LFE2
 971 01e9 0100     		.2byte	0x1
 972 01eb 54       		.byte	0x54
 973 01ec 00000000 		.4byte	0x0
 974 01f0 00000000 		.4byte	0x0
 975              	.LLST16:
 976 01f4 00000000 		.4byte	.LFB4
 977 01f8 02000000 		.4byte	.LCFI4
 978 01fc 0200     		.2byte	0x2
 979 01fe 7D       		.byte	0x7d
 980 01ff 00       		.sleb128 0
 981 0200 02000000 		.4byte	.LCFI4
 982 0204 48000000 		.4byte	.LFE4
 983 0208 0200     		.2byte	0x2
 984 020a 7D       		.byte	0x7d
 985 020b 10       		.sleb128 16
 986 020c 00000000 		.4byte	0x0
 987 0210 00000000 		.4byte	0x0
 988              	.LLST17:
 989 0214 00000000 		.4byte	.LVL16
 990 0218 09000000 		.4byte	.LVL17-1
 991 021c 0100     		.2byte	0x1
 992 021e 50       		.byte	0x50
 993 021f 09000000 		.4byte	.LVL17-1
 994 0223 48000000 		.4byte	.LFE4
 995 0227 0100     		.2byte	0x1
 996 0229 54       		.byte	0x54
ARM GAS  /tmp/ccYhxF2d.s 			page 19


 997 022a 00000000 		.4byte	0x0
 998 022e 00000000 		.4byte	0x0
 999              	.LLST18:
 1000 0232 00000000 		.4byte	.LVL16
 1001 0236 09000000 		.4byte	.LVL17-1
 1002 023a 0100     		.2byte	0x1
 1003 023c 51       		.byte	0x51
 1004 023d 09000000 		.4byte	.LVL17-1
 1005 0241 48000000 		.4byte	.LFE4
 1006 0245 0100     		.2byte	0x1
 1007 0247 55       		.byte	0x55
 1008 0248 00000000 		.4byte	0x0
 1009 024c 00000000 		.4byte	0x0
 1010              	.LLST19:
 1011 0250 00000000 		.4byte	.LFB6
 1012 0254 02000000 		.4byte	.LCFI5
 1013 0258 0200     		.2byte	0x2
 1014 025a 7D       		.byte	0x7d
 1015 025b 00       		.sleb128 0
 1016 025c 02000000 		.4byte	.LCFI5
 1017 0260 4C000000 		.4byte	.LFE6
 1018 0264 0200     		.2byte	0x2
 1019 0266 7D       		.byte	0x7d
 1020 0267 10       		.sleb128 16
 1021 0268 00000000 		.4byte	0x0
 1022 026c 00000000 		.4byte	0x0
 1023              	.LLST20:
 1024 0270 00000000 		.4byte	.LVL18
 1025 0274 0B000000 		.4byte	.LVL19-1
 1026 0278 0100     		.2byte	0x1
 1027 027a 50       		.byte	0x50
 1028 027b 0B000000 		.4byte	.LVL19-1
 1029 027f 4C000000 		.4byte	.LFE6
 1030 0283 0100     		.2byte	0x1
 1031 0285 54       		.byte	0x54
 1032 0286 00000000 		.4byte	0x0
 1033 028a 00000000 		.4byte	0x0
 1034              	.LLST21:
 1035 028e 00000000 		.4byte	.LVL18
 1036 0292 0B000000 		.4byte	.LVL19-1
 1037 0296 0100     		.2byte	0x1
 1038 0298 51       		.byte	0x51
 1039 0299 0B000000 		.4byte	.LVL19-1
 1040 029d 4C000000 		.4byte	.LFE6
 1041 02a1 0100     		.2byte	0x1
 1042 02a3 55       		.byte	0x55
 1043 02a4 00000000 		.4byte	0x0
 1044 02a8 00000000 		.4byte	0x0
 1045              	.LLST22:
 1046 02ac 00000000 		.4byte	.LVL18
 1047 02b0 0B000000 		.4byte	.LVL19-1
 1048 02b4 0100     		.2byte	0x1
 1049 02b6 52       		.byte	0x52
 1050 02b7 0B000000 		.4byte	.LVL19-1
 1051 02bb 20000000 		.4byte	.LVL21
 1052 02bf 0100     		.2byte	0x1
 1053 02c1 56       		.byte	0x56
ARM GAS  /tmp/ccYhxF2d.s 			page 20


 1054 02c2 00000000 		.4byte	0x0
 1055 02c6 00000000 		.4byte	0x0
 1056              	.LLST23:
 1057 02ca 1E000000 		.4byte	.LVL20
 1058 02ce 3A000000 		.4byte	.LVL22
 1059 02d2 0100     		.2byte	0x1
 1060 02d4 50       		.byte	0x50
 1061 02d5 3A000000 		.4byte	.LVL22
 1062 02d9 4C000000 		.4byte	.LFE6
 1063 02dd 0100     		.2byte	0x1
 1064 02df 56       		.byte	0x56
 1065 02e0 00000000 		.4byte	0x0
 1066 02e4 00000000 		.4byte	0x0
 1067              	.LLST24:
 1068 02e8 00000000 		.4byte	.LFB5
 1069 02ec 02000000 		.4byte	.LCFI6
 1070 02f0 0200     		.2byte	0x2
 1071 02f2 7D       		.byte	0x7d
 1072 02f3 00       		.sleb128 0
 1073 02f4 02000000 		.4byte	.LCFI6
 1074 02f8 28000000 		.4byte	.LFE5
 1075 02fc 0200     		.2byte	0x2
 1076 02fe 7D       		.byte	0x7d
 1077 02ff 10       		.sleb128 16
 1078 0300 00000000 		.4byte	0x0
 1079 0304 00000000 		.4byte	0x0
 1080              	.LLST25:
 1081 0308 00000000 		.4byte	.LVL23
 1082 030c 0F000000 		.4byte	.LVL24-1
 1083 0310 0100     		.2byte	0x1
 1084 0312 50       		.byte	0x50
 1085 0313 0F000000 		.4byte	.LVL24-1
 1086 0317 28000000 		.4byte	.LFE5
 1087 031b 0100     		.2byte	0x1
 1088 031d 56       		.byte	0x56
 1089 031e 00000000 		.4byte	0x0
 1090 0322 00000000 		.4byte	0x0
 1091              	.LLST26:
 1092 0326 00000000 		.4byte	.LVL23
 1093 032a 0F000000 		.4byte	.LVL24-1
 1094 032e 0100     		.2byte	0x1
 1095 0330 51       		.byte	0x51
 1096 0331 0F000000 		.4byte	.LVL24-1
 1097 0335 28000000 		.4byte	.LFE5
 1098 0339 0100     		.2byte	0x1
 1099 033b 55       		.byte	0x55
 1100 033c 00000000 		.4byte	0x0
 1101 0340 00000000 		.4byte	0x0
 1102              	.LLST27:
 1103 0344 00000000 		.4byte	.LVL23
 1104 0348 0F000000 		.4byte	.LVL24-1
 1105 034c 0100     		.2byte	0x1
 1106 034e 52       		.byte	0x52
 1107 034f 0F000000 		.4byte	.LVL24-1
 1108 0353 1C000000 		.4byte	.LVL25
 1109 0357 0100     		.2byte	0x1
 1110 0359 54       		.byte	0x54
ARM GAS  /tmp/ccYhxF2d.s 			page 21


 1111 035a 00000000 		.4byte	0x0
 1112 035e 00000000 		.4byte	0x0
 1113              	.LLST28:
 1114 0362 1C000000 		.4byte	.LVL25
 1115 0366 1F000000 		.4byte	.LVL26-1
 1116 036a 0100     		.2byte	0x1
 1117 036c 50       		.byte	0x50
 1118 036d 1F000000 		.4byte	.LVL26-1
 1119 0371 28000000 		.4byte	.LFE5
 1120 0375 0100     		.2byte	0x1
 1121 0377 54       		.byte	0x54
 1122 0378 00000000 		.4byte	0x0
 1123 037c 00000000 		.4byte	0x0
 1124              	.LLST29:
 1125 0380 00000000 		.4byte	.LFB7
 1126 0384 02000000 		.4byte	.LCFI7
 1127 0388 0200     		.2byte	0x2
 1128 038a 7D       		.byte	0x7d
 1129 038b 00       		.sleb128 0
 1130 038c 02000000 		.4byte	.LCFI7
 1131 0390 48000000 		.4byte	.LFE7
 1132 0394 0200     		.2byte	0x2
 1133 0396 7D       		.byte	0x7d
 1134 0397 10       		.sleb128 16
 1135 0398 00000000 		.4byte	0x0
 1136 039c 00000000 		.4byte	0x0
 1137              	.LLST30:
 1138 03a0 00000000 		.4byte	.LVL27
 1139 03a4 09000000 		.4byte	.LVL28-1
 1140 03a8 0100     		.2byte	0x1
 1141 03aa 50       		.byte	0x50
 1142 03ab 09000000 		.4byte	.LVL28-1
 1143 03af 48000000 		.4byte	.LFE7
 1144 03b3 0100     		.2byte	0x1
 1145 03b5 54       		.byte	0x54
 1146 03b6 00000000 		.4byte	0x0
 1147 03ba 00000000 		.4byte	0x0
 1148              	.LLST31:
 1149 03be 00000000 		.4byte	.LVL27
 1150 03c2 09000000 		.4byte	.LVL28-1
 1151 03c6 0100     		.2byte	0x1
 1152 03c8 51       		.byte	0x51
 1153 03c9 09000000 		.4byte	.LVL28-1
 1154 03cd 48000000 		.4byte	.LFE7
 1155 03d1 0100     		.2byte	0x1
 1156 03d3 55       		.byte	0x55
 1157 03d4 00000000 		.4byte	0x0
 1158 03d8 00000000 		.4byte	0x0
 1159              	.LLST32:
 1160 03dc 00000000 		.4byte	.LFB9
 1161 03e0 02000000 		.4byte	.LCFI8
 1162 03e4 0200     		.2byte	0x2
 1163 03e6 7D       		.byte	0x7d
 1164 03e7 00       		.sleb128 0
 1165 03e8 02000000 		.4byte	.LCFI8
 1166 03ec 4C000000 		.4byte	.LFE9
 1167 03f0 0200     		.2byte	0x2
ARM GAS  /tmp/ccYhxF2d.s 			page 22


 1168 03f2 7D       		.byte	0x7d
 1169 03f3 10       		.sleb128 16
 1170 03f4 00000000 		.4byte	0x0
 1171 03f8 00000000 		.4byte	0x0
 1172              	.LLST33:
 1173 03fc 00000000 		.4byte	.LVL29
 1174 0400 0B000000 		.4byte	.LVL30-1
 1175 0404 0100     		.2byte	0x1
 1176 0406 50       		.byte	0x50
 1177 0407 0B000000 		.4byte	.LVL30-1
 1178 040b 4C000000 		.4byte	.LFE9
 1179 040f 0100     		.2byte	0x1
 1180 0411 54       		.byte	0x54
 1181 0412 00000000 		.4byte	0x0
 1182 0416 00000000 		.4byte	0x0
 1183              	.LLST34:
 1184 041a 00000000 		.4byte	.LVL29
 1185 041e 0B000000 		.4byte	.LVL30-1
 1186 0422 0100     		.2byte	0x1
 1187 0424 51       		.byte	0x51
 1188 0425 0B000000 		.4byte	.LVL30-1
 1189 0429 4C000000 		.4byte	.LFE9
 1190 042d 0100     		.2byte	0x1
 1191 042f 55       		.byte	0x55
 1192 0430 00000000 		.4byte	0x0
 1193 0434 00000000 		.4byte	0x0
 1194              	.LLST35:
 1195 0438 00000000 		.4byte	.LVL29
 1196 043c 0B000000 		.4byte	.LVL30-1
 1197 0440 0100     		.2byte	0x1
 1198 0442 52       		.byte	0x52
 1199 0443 0B000000 		.4byte	.LVL30-1
 1200 0447 22000000 		.4byte	.LVL32
 1201 044b 0100     		.2byte	0x1
 1202 044d 56       		.byte	0x56
 1203 044e 00000000 		.4byte	0x0
 1204 0452 00000000 		.4byte	0x0
 1205              	.LLST36:
 1206 0456 20000000 		.4byte	.LVL31
 1207 045a 2A000000 		.4byte	.LVL33
 1208 045e 0100     		.2byte	0x1
 1209 0460 50       		.byte	0x50
 1210 0461 2A000000 		.4byte	.LVL33
 1211 0465 4C000000 		.4byte	.LFE9
 1212 0469 0100     		.2byte	0x1
 1213 046b 56       		.byte	0x56
 1214 046c 00000000 		.4byte	0x0
 1215 0470 00000000 		.4byte	0x0
 1216              	.LLST37:
 1217 0474 00000000 		.4byte	.LFB8
 1218 0478 02000000 		.4byte	.LCFI9
 1219 047c 0200     		.2byte	0x2
 1220 047e 7D       		.byte	0x7d
 1221 047f 00       		.sleb128 0
 1222 0480 02000000 		.4byte	.LCFI9
 1223 0484 28000000 		.4byte	.LFE8
 1224 0488 0200     		.2byte	0x2
ARM GAS  /tmp/ccYhxF2d.s 			page 23


 1225 048a 7D       		.byte	0x7d
 1226 048b 10       		.sleb128 16
 1227 048c 00000000 		.4byte	0x0
 1228 0490 00000000 		.4byte	0x0
 1229              	.LLST38:
 1230 0494 00000000 		.4byte	.LVL34
 1231 0498 0F000000 		.4byte	.LVL35-1
 1232 049c 0100     		.2byte	0x1
 1233 049e 50       		.byte	0x50
 1234 049f 0F000000 		.4byte	.LVL35-1
 1235 04a3 28000000 		.4byte	.LFE8
 1236 04a7 0100     		.2byte	0x1
 1237 04a9 56       		.byte	0x56
 1238 04aa 00000000 		.4byte	0x0
 1239 04ae 00000000 		.4byte	0x0
 1240              	.LLST39:
 1241 04b2 00000000 		.4byte	.LVL34
 1242 04b6 0F000000 		.4byte	.LVL35-1
 1243 04ba 0100     		.2byte	0x1
 1244 04bc 51       		.byte	0x51
 1245 04bd 0F000000 		.4byte	.LVL35-1
 1246 04c1 28000000 		.4byte	.LFE8
 1247 04c5 0100     		.2byte	0x1
 1248 04c7 55       		.byte	0x55
 1249 04c8 00000000 		.4byte	0x0
 1250 04cc 00000000 		.4byte	0x0
 1251              	.LLST40:
 1252 04d0 00000000 		.4byte	.LVL34
 1253 04d4 0F000000 		.4byte	.LVL35-1
 1254 04d8 0100     		.2byte	0x1
 1255 04da 52       		.byte	0x52
 1256 04db 0F000000 		.4byte	.LVL35-1
 1257 04df 1C000000 		.4byte	.LVL36
 1258 04e3 0100     		.2byte	0x1
 1259 04e5 54       		.byte	0x54
 1260 04e6 00000000 		.4byte	0x0
 1261 04ea 00000000 		.4byte	0x0
 1262              	.LLST41:
 1263 04ee 1C000000 		.4byte	.LVL36
 1264 04f2 1F000000 		.4byte	.LVL37-1
 1265 04f6 0100     		.2byte	0x1
 1266 04f8 50       		.byte	0x50
 1267 04f9 1F000000 		.4byte	.LVL37-1
 1268 04fd 28000000 		.4byte	.LFE8
 1269 0501 0100     		.2byte	0x1
 1270 0503 54       		.byte	0x54
 1271 0504 00000000 		.4byte	0x0
 1272 0508 00000000 		.4byte	0x0
 1273              	.LLST42:
 1274 050c 00000000 		.4byte	.LFB10
 1275 0510 02000000 		.4byte	.LCFI10
 1276 0514 0200     		.2byte	0x2
 1277 0516 7D       		.byte	0x7d
 1278 0517 00       		.sleb128 0
 1279 0518 02000000 		.4byte	.LCFI10
 1280 051c 48000000 		.4byte	.LFE10
 1281 0520 0200     		.2byte	0x2
ARM GAS  /tmp/ccYhxF2d.s 			page 24


 1282 0522 7D       		.byte	0x7d
 1283 0523 10       		.sleb128 16
 1284 0524 00000000 		.4byte	0x0
 1285 0528 00000000 		.4byte	0x0
 1286              	.LLST43:
 1287 052c 00000000 		.4byte	.LVL38
 1288 0530 09000000 		.4byte	.LVL39-1
 1289 0534 0100     		.2byte	0x1
 1290 0536 50       		.byte	0x50
 1291 0537 09000000 		.4byte	.LVL39-1
 1292 053b 48000000 		.4byte	.LFE10
 1293 053f 0100     		.2byte	0x1
 1294 0541 54       		.byte	0x54
 1295 0542 00000000 		.4byte	0x0
 1296 0546 00000000 		.4byte	0x0
 1297              	.LLST44:
 1298 054a 00000000 		.4byte	.LVL38
 1299 054e 09000000 		.4byte	.LVL39-1
 1300 0552 0100     		.2byte	0x1
 1301 0554 51       		.byte	0x51
 1302 0555 09000000 		.4byte	.LVL39-1
 1303 0559 48000000 		.4byte	.LFE10
 1304 055d 0100     		.2byte	0x1
 1305 055f 55       		.byte	0x55
 1306 0560 00000000 		.4byte	0x0
 1307 0564 00000000 		.4byte	0x0
 1308              		.file 2 "/home/z80/programs/code-sourcery/2011.03-42/bin/../lib/gcc/arm-none-eabi/4.5.2/../../../.
 1309              		.file 3 "../chibios/os/ports/GCC/ARMCMx/chtypes.h"
 1310              		.file 4 "../chibios/os/kernel/include/chlists.h"
 1311              		.file 5 "../chibios/os/kernel/include/chthreads.h"
 1312              		.file 6 "../chibios/os/ports/GCC/ARMCMx/chcore_v7m.h"
 1313              		.file 7 "../chibios/os/kernel/include/chsem.h"
 1314              		.file 8 "../chibios/os/kernel/include/chmtx.h"
 1315              		.file 9 "../chibios/os/kernel/include/chmboxes.h"
 1316              		.section	.debug_info
 1317 0000 D2070000 		.4byte	0x7d2
 1318 0004 0200     		.2byte	0x2
 1319 0006 00000000 		.4byte	.Ldebug_abbrev0
 1320 000a 04       		.byte	0x4
 1321 000b 01       		.uleb128 0x1
 1322 000c 01030000 		.4byte	.LASF79
 1323 0010 01       		.byte	0x1
 1324 0011 14030000 		.4byte	.LASF80
 1325 0015 2F010000 		.4byte	.LASF81
 1326 0019 00000000 		.4byte	0x0
 1327 001d 00000000 		.4byte	0x0
 1328 0021 00000000 		.4byte	.Ldebug_ranges0+0x0
 1329 0025 00000000 		.4byte	.Ldebug_line0
 1330 0029 02       		.uleb128 0x2
 1331 002a 04       		.byte	0x4
 1332 002b 05       		.byte	0x5
 1333 002c 696E7400 		.ascii	"int\000"
 1334 0030 03       		.uleb128 0x3
 1335 0031 04       		.byte	0x4
 1336 0032 07       		.byte	0x7
 1337 0033 ED000000 		.4byte	.LASF0
 1338 0037 03       		.uleb128 0x3
ARM GAS  /tmp/ccYhxF2d.s 			page 25


 1339 0038 01       		.byte	0x1
 1340 0039 06       		.byte	0x6
 1341 003a 8E000000 		.4byte	.LASF1
 1342 003e 04       		.uleb128 0x4
 1343 003f F2020000 		.4byte	.LASF5
 1344 0043 02       		.byte	0x2
 1345 0044 2A       		.byte	0x2a
 1346 0045 49000000 		.4byte	0x49
 1347 0049 03       		.uleb128 0x3
 1348 004a 01       		.byte	0x1
 1349 004b 08       		.byte	0x8
 1350 004c 0D020000 		.4byte	.LASF2
 1351 0050 03       		.uleb128 0x3
 1352 0051 02       		.byte	0x2
 1353 0052 05       		.byte	0x5
 1354 0053 2C020000 		.4byte	.LASF3
 1355 0057 03       		.uleb128 0x3
 1356 0058 02       		.byte	0x2
 1357 0059 07       		.byte	0x7
 1358 005a 99020000 		.4byte	.LASF4
 1359 005e 04       		.uleb128 0x4
 1360 005f 05020000 		.4byte	.LASF6
 1361 0063 02       		.byte	0x2
 1362 0064 4F       		.byte	0x4f
 1363 0065 69000000 		.4byte	0x69
 1364 0069 03       		.uleb128 0x3
 1365 006a 04       		.byte	0x4
 1366 006b 05       		.byte	0x5
 1367 006c B1000000 		.4byte	.LASF7
 1368 0070 04       		.uleb128 0x4
 1369 0071 6F020000 		.4byte	.LASF8
 1370 0075 02       		.byte	0x2
 1371 0076 50       		.byte	0x50
 1372 0077 7B000000 		.4byte	0x7b
 1373 007b 03       		.uleb128 0x3
 1374 007c 04       		.byte	0x4
 1375 007d 07       		.byte	0x7
 1376 007e 03010000 		.4byte	.LASF9
 1377 0082 03       		.uleb128 0x3
 1378 0083 08       		.byte	0x8
 1379 0084 05       		.byte	0x5
 1380 0085 80000000 		.4byte	.LASF10
 1381 0089 04       		.uleb128 0x4
 1382 008a 0D000000 		.4byte	.LASF11
 1383 008e 02       		.byte	0x2
 1384 008f 78       		.byte	0x78
 1385 0090 94000000 		.4byte	0x94
 1386 0094 03       		.uleb128 0x3
 1387 0095 08       		.byte	0x8
 1388 0096 07       		.byte	0x7
 1389 0097 41000000 		.4byte	.LASF12
 1390 009b 04       		.uleb128 0x4
 1391 009c 81010000 		.4byte	.LASF13
 1392 00a0 03       		.byte	0x3
 1393 00a1 2F       		.byte	0x2f
 1394 00a2 3E000000 		.4byte	0x3e
 1395 00a6 04       		.uleb128 0x4
ARM GAS  /tmp/ccYhxF2d.s 			page 26


 1396 00a7 BA000000 		.4byte	.LASF14
 1397 00ab 03       		.byte	0x3
 1398 00ac 30       		.byte	0x30
 1399 00ad 3E000000 		.4byte	0x3e
 1400 00b1 04       		.uleb128 0x4
 1401 00b2 EE010000 		.4byte	.LASF15
 1402 00b6 03       		.byte	0x3
 1403 00b7 31       		.byte	0x31
 1404 00b8 3E000000 		.4byte	0x3e
 1405 00bc 04       		.uleb128 0x4
 1406 00bd FD010000 		.4byte	.LASF16
 1407 00c1 03       		.byte	0x3
 1408 00c2 32       		.byte	0x32
 1409 00c3 70000000 		.4byte	0x70
 1410 00c7 04       		.uleb128 0x4
 1411 00c8 70010000 		.4byte	.LASF17
 1412 00cc 03       		.byte	0x3
 1413 00cd 33       		.byte	0x33
 1414 00ce 5E000000 		.4byte	0x5e
 1415 00d2 04       		.uleb128 0x4
 1416 00d3 95010000 		.4byte	.LASF18
 1417 00d7 03       		.byte	0x3
 1418 00d8 35       		.byte	0x35
 1419 00d9 70000000 		.4byte	0x70
 1420 00dd 04       		.uleb128 0x4
 1421 00de 84020000 		.4byte	.LASF19
 1422 00e2 03       		.byte	0x3
 1423 00e3 36       		.byte	0x36
 1424 00e4 70000000 		.4byte	0x70
 1425 00e8 04       		.uleb128 0x4
 1426 00e9 DC000000 		.4byte	.LASF20
 1427 00ed 03       		.byte	0x3
 1428 00ee 37       		.byte	0x37
 1429 00ef 5E000000 		.4byte	0x5e
 1430 00f3 04       		.uleb128 0x4
 1431 00f4 5D020000 		.4byte	.LASF21
 1432 00f8 04       		.byte	0x4
 1433 00f9 2A       		.byte	0x2a
 1434 00fa FE000000 		.4byte	0xfe
 1435 00fe 05       		.uleb128 0x5
 1436 00ff 5D020000 		.4byte	.LASF21
 1437 0103 4C       		.byte	0x4c
 1438 0104 05       		.byte	0x5
 1439 0105 5E       		.byte	0x5e
 1440 0106 23020000 		.4byte	0x223
 1441 010a 06       		.uleb128 0x6
 1442 010b 45020000 		.4byte	.LASF22
 1443 010f 05       		.byte	0x5
 1444 0110 5F       		.byte	0x5f
 1445 0111 48020000 		.4byte	0x248
 1446 0115 02       		.byte	0x2
 1447 0116 23       		.byte	0x23
 1448 0117 00       		.uleb128 0x0
 1449 0118 06       		.uleb128 0x6
 1450 0119 F6010000 		.4byte	.LASF23
 1451 011d 05       		.byte	0x5
 1452 011e 61       		.byte	0x61
ARM GAS  /tmp/ccYhxF2d.s 			page 27


 1453 011f 48020000 		.4byte	0x248
 1454 0123 02       		.byte	0x2
 1455 0124 23       		.byte	0x23
 1456 0125 04       		.uleb128 0x4
 1457 0126 06       		.uleb128 0x6
 1458 0127 79000000 		.4byte	.LASF24
 1459 012b 05       		.byte	0x5
 1460 012c 63       		.byte	0x63
 1461 012d BC000000 		.4byte	0xbc
 1462 0131 02       		.byte	0x2
 1463 0132 23       		.byte	0x23
 1464 0133 08       		.uleb128 0x8
 1465 0134 06       		.uleb128 0x6
 1466 0135 40030000 		.4byte	.LASF25
 1467 0139 05       		.byte	0x5
 1468 013a 64       		.byte	0x64
 1469 013b 20030000 		.4byte	0x320
 1470 013f 02       		.byte	0x2
 1471 0140 23       		.byte	0x23
 1472 0141 0C       		.uleb128 0xc
 1473 0142 06       		.uleb128 0x6
 1474 0143 C3000000 		.4byte	.LASF26
 1475 0147 05       		.byte	0x5
 1476 0148 66       		.byte	0x66
 1477 0149 48020000 		.4byte	0x248
 1478 014d 02       		.byte	0x2
 1479 014e 23       		.byte	0x23
 1480 014f 10       		.uleb128 0x10
 1481 0150 06       		.uleb128 0x6
 1482 0151 CA010000 		.4byte	.LASF27
 1483 0155 05       		.byte	0x5
 1484 0156 67       		.byte	0x67
 1485 0157 48020000 		.4byte	0x248
 1486 015b 02       		.byte	0x2
 1487 015c 23       		.byte	0x23
 1488 015d 14       		.uleb128 0x14
 1489 015e 06       		.uleb128 0x6
 1490 015f 0D030000 		.4byte	.LASF28
 1491 0163 05       		.byte	0x5
 1492 0164 6E       		.byte	0x6e
 1493 0165 67040000 		.4byte	0x467
 1494 0169 02       		.byte	0x2
 1495 016a 23       		.byte	0x23
 1496 016b 18       		.uleb128 0x18
 1497 016c 06       		.uleb128 0x6
 1498 016d E2000000 		.4byte	.LASF29
 1499 0171 05       		.byte	0x5
 1500 0172 74       		.byte	0x74
 1501 0173 79040000 		.4byte	0x479
 1502 0177 02       		.byte	0x2
 1503 0178 23       		.byte	0x23
 1504 0179 1C       		.uleb128 0x1c
 1505 017a 06       		.uleb128 0x6
 1506 017b 36020000 		.4byte	.LASF30
 1507 017f 05       		.byte	0x5
 1508 0180 79       		.byte	0x79
 1509 0181 A6000000 		.4byte	0xa6
ARM GAS  /tmp/ccYhxF2d.s 			page 28


 1510 0185 02       		.byte	0x2
 1511 0186 23       		.byte	0x23
 1512 0187 20       		.uleb128 0x20
 1513 0188 06       		.uleb128 0x6
 1514 0189 4C020000 		.4byte	.LASF31
 1515 018d 05       		.byte	0x5
 1516 018e 7D       		.byte	0x7d
 1517 018f 9B000000 		.4byte	0x9b
 1518 0193 02       		.byte	0x2
 1519 0194 23       		.byte	0x23
 1520 0195 21       		.uleb128 0x21
 1521 0196 06       		.uleb128 0x6
 1522 0197 EB020000 		.4byte	.LASF32
 1523 019b 05       		.byte	0x5
 1524 019c 82       		.byte	0x82
 1525 019d B1000000 		.4byte	0xb1
 1526 01a1 02       		.byte	0x2
 1527 01a2 23       		.byte	0x23
 1528 01a3 22       		.uleb128 0x22
 1529 01a4 06       		.uleb128 0x6
 1530 01a5 FA020000 		.4byte	.LASF33
 1531 01a9 05       		.byte	0x5
 1532 01aa 89       		.byte	0x89
 1533 01ab 43030000 		.4byte	0x343
 1534 01af 02       		.byte	0x2
 1535 01b0 23       		.byte	0x23
 1536 01b1 24       		.uleb128 0x24
 1537 01b2 07       		.uleb128 0x7
 1538 01b3 705F7500 		.ascii	"p_u\000"
 1539 01b7 05       		.byte	0x5
 1540 01b8 AE       		.byte	0xae
 1541 01b9 32040000 		.4byte	0x432
 1542 01bd 02       		.byte	0x2
 1543 01be 23       		.byte	0x23
 1544 01bf 28       		.uleb128 0x28
 1545 01c0 06       		.uleb128 0x6
 1546 01c1 46030000 		.4byte	.LASF34
 1547 01c5 05       		.byte	0x5
 1548 01c6 B3       		.byte	0xb3
 1549 01c7 70020000 		.4byte	0x270
 1550 01cb 02       		.byte	0x2
 1551 01cc 23       		.byte	0x23
 1552 01cd 2C       		.uleb128 0x2c
 1553 01ce 06       		.uleb128 0x6
 1554 01cf C1020000 		.4byte	.LASF35
 1555 01d3 05       		.byte	0x5
 1556 01d4 B9       		.byte	0xb9
 1557 01d5 4E020000 		.4byte	0x24e
 1558 01d9 02       		.byte	0x2
 1559 01da 23       		.byte	0x23
 1560 01db 30       		.uleb128 0x30
 1561 01dc 06       		.uleb128 0x6
 1562 01dd 00000000 		.4byte	.LASF36
 1563 01e1 05       		.byte	0x5
 1564 01e2 BD       		.byte	0xbd
 1565 01e3 C7000000 		.4byte	0xc7
 1566 01e7 02       		.byte	0x2
ARM GAS  /tmp/ccYhxF2d.s 			page 29


 1567 01e8 23       		.byte	0x23
 1568 01e9 38       		.uleb128 0x38
 1569 01ea 06       		.uleb128 0x6
 1570 01eb 64020000 		.4byte	.LASF37
 1571 01ef 05       		.byte	0x5
 1572 01f0 C3       		.byte	0xc3
 1573 01f1 D2000000 		.4byte	0xd2
 1574 01f5 02       		.byte	0x2
 1575 01f6 23       		.byte	0x23
 1576 01f7 3C       		.uleb128 0x3c
 1577 01f8 06       		.uleb128 0x6
 1578 01f9 22020000 		.4byte	.LASF38
 1579 01fd 05       		.byte	0x5
 1580 01fe CA       		.byte	0xca
 1581 01ff 7F040000 		.4byte	0x47f
 1582 0203 02       		.byte	0x2
 1583 0204 23       		.byte	0x23
 1584 0205 40       		.uleb128 0x40
 1585 0206 06       		.uleb128 0x6
 1586 0207 8E020000 		.4byte	.LASF39
 1587 020b 05       		.byte	0x5
 1588 020c CE       		.byte	0xce
 1589 020d BC000000 		.4byte	0xbc
 1590 0211 02       		.byte	0x2
 1591 0212 23       		.byte	0x23
 1592 0213 44       		.uleb128 0x44
 1593 0214 06       		.uleb128 0x6
 1594 0215 9A000000 		.4byte	.LASF40
 1595 0219 05       		.byte	0x5
 1596 021a D4       		.byte	0xd4
 1597 021b 86020000 		.4byte	0x286
 1598 021f 02       		.byte	0x2
 1599 0220 23       		.byte	0x23
 1600 0221 48       		.uleb128 0x48
 1601 0222 00       		.byte	0x0
 1602 0223 08       		.uleb128 0x8
 1603 0224 08       		.byte	0x8
 1604 0225 04       		.byte	0x4
 1605 0226 61       		.byte	0x61
 1606 0227 48020000 		.4byte	0x248
 1607 022b 06       		.uleb128 0x6
 1608 022c 45020000 		.4byte	.LASF22
 1609 0230 04       		.byte	0x4
 1610 0231 62       		.byte	0x62
 1611 0232 48020000 		.4byte	0x248
 1612 0236 02       		.byte	0x2
 1613 0237 23       		.byte	0x23
 1614 0238 00       		.uleb128 0x0
 1615 0239 06       		.uleb128 0x6
 1616 023a F6010000 		.4byte	.LASF23
 1617 023e 04       		.byte	0x4
 1618 023f 64       		.byte	0x64
 1619 0240 48020000 		.4byte	0x248
 1620 0244 02       		.byte	0x2
 1621 0245 23       		.byte	0x23
 1622 0246 04       		.uleb128 0x4
 1623 0247 00       		.byte	0x0
ARM GAS  /tmp/ccYhxF2d.s 			page 30


 1624 0248 09       		.uleb128 0x9
 1625 0249 04       		.byte	0x4
 1626 024a F3000000 		.4byte	0xf3
 1627 024e 04       		.uleb128 0x4
 1628 024f D2010000 		.4byte	.LASF41
 1629 0253 04       		.byte	0x4
 1630 0254 66       		.byte	0x66
 1631 0255 23020000 		.4byte	0x223
 1632 0259 08       		.uleb128 0x8
 1633 025a 04       		.byte	0x4
 1634 025b 04       		.byte	0x4
 1635 025c 6B       		.byte	0x6b
 1636 025d 70020000 		.4byte	0x270
 1637 0261 06       		.uleb128 0x6
 1638 0262 45020000 		.4byte	.LASF22
 1639 0266 04       		.byte	0x4
 1640 0267 6D       		.byte	0x6d
 1641 0268 48020000 		.4byte	0x248
 1642 026c 02       		.byte	0x2
 1643 026d 23       		.byte	0x23
 1644 026e 00       		.uleb128 0x0
 1645 026f 00       		.byte	0x0
 1646 0270 04       		.uleb128 0x4
 1647 0271 89010000 		.4byte	.LASF42
 1648 0275 04       		.byte	0x4
 1649 0276 70       		.byte	0x70
 1650 0277 59020000 		.4byte	0x259
 1651 027b 04       		.uleb128 0x4
 1652 027c D3000000 		.4byte	.LASF43
 1653 0280 06       		.byte	0x6
 1654 0281 D7       		.byte	0xd7
 1655 0282 86020000 		.4byte	0x286
 1656 0286 0A       		.uleb128 0xa
 1657 0287 04       		.byte	0x4
 1658 0288 04       		.uleb128 0x4
 1659 0289 AC010000 		.4byte	.LASF44
 1660 028d 06       		.byte	0x6
 1661 028e DD       		.byte	0xdd
 1662 028f 89000000 		.4byte	0x89
 1663 0293 05       		.uleb128 0x5
 1664 0294 BA020000 		.4byte	.LASF45
 1665 0298 24       		.byte	0x24
 1666 0299 06       		.byte	0x6
 1667 029a FE       		.byte	0xfe
 1668 029b 20030000 		.4byte	0x320
 1669 029f 0B       		.uleb128 0xb
 1670 02a0 723400   		.ascii	"r4\000"
 1671 02a3 06       		.byte	0x6
 1672 02a4 1101     		.2byte	0x111
 1673 02a6 7B020000 		.4byte	0x27b
 1674 02aa 02       		.byte	0x2
 1675 02ab 23       		.byte	0x23
 1676 02ac 00       		.uleb128 0x0
 1677 02ad 0B       		.uleb128 0xb
 1678 02ae 723500   		.ascii	"r5\000"
 1679 02b1 06       		.byte	0x6
 1680 02b2 1201     		.2byte	0x112
ARM GAS  /tmp/ccYhxF2d.s 			page 31


 1681 02b4 7B020000 		.4byte	0x27b
 1682 02b8 02       		.byte	0x2
 1683 02b9 23       		.byte	0x23
 1684 02ba 04       		.uleb128 0x4
 1685 02bb 0B       		.uleb128 0xb
 1686 02bc 723600   		.ascii	"r6\000"
 1687 02bf 06       		.byte	0x6
 1688 02c0 1301     		.2byte	0x113
 1689 02c2 7B020000 		.4byte	0x27b
 1690 02c6 02       		.byte	0x2
 1691 02c7 23       		.byte	0x23
 1692 02c8 08       		.uleb128 0x8
 1693 02c9 0B       		.uleb128 0xb
 1694 02ca 723700   		.ascii	"r7\000"
 1695 02cd 06       		.byte	0x6
 1696 02ce 1401     		.2byte	0x114
 1697 02d0 7B020000 		.4byte	0x27b
 1698 02d4 02       		.byte	0x2
 1699 02d5 23       		.byte	0x23
 1700 02d6 0C       		.uleb128 0xc
 1701 02d7 0B       		.uleb128 0xb
 1702 02d8 723800   		.ascii	"r8\000"
 1703 02db 06       		.byte	0x6
 1704 02dc 1501     		.2byte	0x115
 1705 02de 7B020000 		.4byte	0x27b
 1706 02e2 02       		.byte	0x2
 1707 02e3 23       		.byte	0x23
 1708 02e4 10       		.uleb128 0x10
 1709 02e5 0B       		.uleb128 0xb
 1710 02e6 723900   		.ascii	"r9\000"
 1711 02e9 06       		.byte	0x6
 1712 02ea 1601     		.2byte	0x116
 1713 02ec 7B020000 		.4byte	0x27b
 1714 02f0 02       		.byte	0x2
 1715 02f1 23       		.byte	0x23
 1716 02f2 14       		.uleb128 0x14
 1717 02f3 0B       		.uleb128 0xb
 1718 02f4 72313000 		.ascii	"r10\000"
 1719 02f8 06       		.byte	0x6
 1720 02f9 1701     		.2byte	0x117
 1721 02fb 7B020000 		.4byte	0x27b
 1722 02ff 02       		.byte	0x2
 1723 0300 23       		.byte	0x23
 1724 0301 18       		.uleb128 0x18
 1725 0302 0B       		.uleb128 0xb
 1726 0303 72313100 		.ascii	"r11\000"
 1727 0307 06       		.byte	0x6
 1728 0308 1801     		.2byte	0x118
 1729 030a 7B020000 		.4byte	0x27b
 1730 030e 02       		.byte	0x2
 1731 030f 23       		.byte	0x23
 1732 0310 1C       		.uleb128 0x1c
 1733 0311 0B       		.uleb128 0xb
 1734 0312 6C7200   		.ascii	"lr\000"
 1735 0315 06       		.byte	0x6
 1736 0316 1901     		.2byte	0x119
 1737 0318 7B020000 		.4byte	0x27b
ARM GAS  /tmp/ccYhxF2d.s 			page 32


 1738 031c 02       		.byte	0x2
 1739 031d 23       		.byte	0x23
 1740 031e 20       		.uleb128 0x20
 1741 031f 00       		.byte	0x0
 1742 0320 0C       		.uleb128 0xc
 1743 0321 27010000 		.4byte	.LASF46
 1744 0325 04       		.byte	0x4
 1745 0326 06       		.byte	0x6
 1746 0327 2301     		.2byte	0x123
 1747 0329 3D030000 		.4byte	0x33d
 1748 032d 0B       		.uleb128 0xb
 1749 032e 72313300 		.ascii	"r13\000"
 1750 0332 06       		.byte	0x6
 1751 0333 2401     		.2byte	0x124
 1752 0335 3D030000 		.4byte	0x33d
 1753 0339 02       		.byte	0x2
 1754 033a 23       		.byte	0x23
 1755 033b 00       		.uleb128 0x0
 1756 033c 00       		.byte	0x0
 1757 033d 09       		.uleb128 0x9
 1758 033e 04       		.byte	0x4
 1759 033f 93020000 		.4byte	0x293
 1760 0343 0D       		.uleb128 0xd
 1761 0344 DD000000 		.4byte	0xdd
 1762 0348 05       		.uleb128 0x5
 1763 0349 D6020000 		.4byte	.LASF47
 1764 034d 0C       		.byte	0xc
 1765 034e 07       		.byte	0x7
 1766 034f 2C       		.byte	0x2c
 1767 0350 71030000 		.4byte	0x371
 1768 0354 06       		.uleb128 0x6
 1769 0355 CB000000 		.4byte	.LASF48
 1770 0359 07       		.byte	0x7
 1771 035a 2D       		.byte	0x2d
 1772 035b 4E020000 		.4byte	0x24e
 1773 035f 02       		.byte	0x2
 1774 0360 23       		.byte	0x23
 1775 0361 00       		.uleb128 0x0
 1776 0362 06       		.uleb128 0x6
 1777 0363 21010000 		.4byte	.LASF49
 1778 0367 07       		.byte	0x7
 1779 0368 2F       		.byte	0x2f
 1780 0369 E8000000 		.4byte	0xe8
 1781 036d 02       		.byte	0x2
 1782 036e 23       		.byte	0x23
 1783 036f 08       		.uleb128 0x8
 1784 0370 00       		.byte	0x0
 1785 0371 04       		.uleb128 0x4
 1786 0372 D6020000 		.4byte	.LASF47
 1787 0376 07       		.byte	0x7
 1788 0377 30       		.byte	0x30
 1789 0378 48030000 		.4byte	0x348
 1790 037c 05       		.uleb128 0x5
 1791 037d A1010000 		.4byte	.LASF50
 1792 0381 10       		.byte	0x10
 1793 0382 08       		.byte	0x8
 1794 0383 2C       		.byte	0x2c
ARM GAS  /tmp/ccYhxF2d.s 			page 33


 1795 0384 B3030000 		.4byte	0x3b3
 1796 0388 06       		.uleb128 0x6
 1797 0389 A2000000 		.4byte	.LASF51
 1798 038d 08       		.byte	0x8
 1799 038e 2D       		.byte	0x2d
 1800 038f 4E020000 		.4byte	0x24e
 1801 0393 02       		.byte	0x2
 1802 0394 23       		.byte	0x23
 1803 0395 00       		.uleb128 0x0
 1804 0396 06       		.uleb128 0x6
 1805 0397 38030000 		.4byte	.LASF52
 1806 039b 08       		.byte	0x8
 1807 039c 2F       		.byte	0x2f
 1808 039d 48020000 		.4byte	0x248
 1809 03a1 02       		.byte	0x2
 1810 03a2 23       		.byte	0x23
 1811 03a3 08       		.uleb128 0x8
 1812 03a4 06       		.uleb128 0x6
 1813 03a5 7D020000 		.4byte	.LASF53
 1814 03a9 08       		.byte	0x8
 1815 03aa 31       		.byte	0x31
 1816 03ab B3030000 		.4byte	0x3b3
 1817 03af 02       		.byte	0x2
 1818 03b0 23       		.byte	0x23
 1819 03b1 0C       		.uleb128 0xc
 1820 03b2 00       		.byte	0x0
 1821 03b3 09       		.uleb128 0x9
 1822 03b4 04       		.byte	0x4
 1823 03b5 7C030000 		.4byte	0x37c
 1824 03b9 04       		.uleb128 0x4
 1825 03ba A1010000 		.4byte	.LASF50
 1826 03be 08       		.byte	0x8
 1827 03bf 33       		.byte	0x33
 1828 03c0 7C030000 		.4byte	0x37c
 1829 03c4 08       		.uleb128 0x8
 1830 03c5 28       		.byte	0x28
 1831 03c6 09       		.byte	0x9
 1832 03c7 33       		.byte	0x33
 1833 03c8 21040000 		.4byte	0x421
 1834 03cc 06       		.uleb128 0x6
 1835 03cd DF010000 		.4byte	.LASF54
 1836 03d1 09       		.byte	0x9
 1837 03d2 34       		.byte	0x34
 1838 03d3 21040000 		.4byte	0x421
 1839 03d7 02       		.byte	0x2
 1840 03d8 23       		.byte	0x23
 1841 03d9 00       		.uleb128 0x0
 1842 03da 06       		.uleb128 0x6
 1843 03db 1B020000 		.4byte	.LASF55
 1844 03df 09       		.byte	0x9
 1845 03e0 36       		.byte	0x36
 1846 03e1 21040000 		.4byte	0x421
 1847 03e5 02       		.byte	0x2
 1848 03e6 23       		.byte	0x23
 1849 03e7 04       		.uleb128 0x4
 1850 03e8 06       		.uleb128 0x6
 1851 03e9 70000000 		.4byte	.LASF56
ARM GAS  /tmp/ccYhxF2d.s 			page 34


 1852 03ed 09       		.byte	0x9
 1853 03ee 38       		.byte	0x38
 1854 03ef 21040000 		.4byte	0x421
 1855 03f3 02       		.byte	0x2
 1856 03f4 23       		.byte	0x23
 1857 03f5 08       		.uleb128 0x8
 1858 03f6 06       		.uleb128 0x6
 1859 03f7 B7010000 		.4byte	.LASF57
 1860 03fb 09       		.byte	0x9
 1861 03fc 39       		.byte	0x39
 1862 03fd 21040000 		.4byte	0x421
 1863 0401 02       		.byte	0x2
 1864 0402 23       		.byte	0x23
 1865 0403 0C       		.uleb128 0xc
 1866 0404 06       		.uleb128 0x6
 1867 0405 E0020000 		.4byte	.LASF58
 1868 0409 09       		.byte	0x9
 1869 040a 3A       		.byte	0x3a
 1870 040b 71030000 		.4byte	0x371
 1871 040f 02       		.byte	0x2
 1872 0410 23       		.byte	0x23
 1873 0411 10       		.uleb128 0x10
 1874 0412 06       		.uleb128 0x6
 1875 0413 15010000 		.4byte	.LASF59
 1876 0417 09       		.byte	0x9
 1877 0418 3C       		.byte	0x3c
 1878 0419 71030000 		.4byte	0x371
 1879 041d 02       		.byte	0x2
 1880 041e 23       		.byte	0x23
 1881 041f 1C       		.uleb128 0x1c
 1882 0420 00       		.byte	0x0
 1883 0421 09       		.uleb128 0x9
 1884 0422 04       		.byte	0x4
 1885 0423 C7000000 		.4byte	0xc7
 1886 0427 04       		.uleb128 0x4
 1887 0428 2A000000 		.4byte	.LASF60
 1888 042c 09       		.byte	0x9
 1889 042d 3E       		.byte	0x3e
 1890 042e C4030000 		.4byte	0x3c4
 1891 0432 0E       		.uleb128 0xe
 1892 0433 04       		.byte	0x4
 1893 0434 05       		.byte	0x5
 1894 0435 90       		.byte	0x90
 1895 0436 67040000 		.4byte	0x467
 1896 043a 0F       		.uleb128 0xf
 1897 043b 06000000 		.4byte	.LASF61
 1898 043f 05       		.byte	0x5
 1899 0440 97       		.byte	0x97
 1900 0441 C7000000 		.4byte	0xc7
 1901 0445 0F       		.uleb128 0xf
 1902 0446 58000000 		.4byte	.LASF62
 1903 044a 05       		.byte	0x5
 1904 044b 9E       		.byte	0x9e
 1905 044c C7000000 		.4byte	0xc7
 1906 0450 0F       		.uleb128 0xf
 1907 0451 AA000000 		.4byte	.LASF63
 1908 0455 05       		.byte	0x5
ARM GAS  /tmp/ccYhxF2d.s 			page 35


 1909 0456 A5       		.byte	0xa5
 1910 0457 86020000 		.4byte	0x286
 1911 045b 0F       		.uleb128 0xf
 1912 045c 3E020000 		.4byte	.LASF64
 1913 0460 05       		.byte	0x5
 1914 0461 AC       		.byte	0xac
 1915 0462 D2000000 		.4byte	0xd2
 1916 0466 00       		.byte	0x0
 1917 0467 09       		.uleb128 0x9
 1918 0468 04       		.byte	0x4
 1919 0469 6D040000 		.4byte	0x46d
 1920 046d 10       		.uleb128 0x10
 1921 046e 72040000 		.4byte	0x472
 1922 0472 03       		.uleb128 0x3
 1923 0473 01       		.byte	0x1
 1924 0474 08       		.byte	0x8
 1925 0475 78020000 		.4byte	.LASF65
 1926 0479 09       		.uleb128 0x9
 1927 047a 04       		.byte	0x4
 1928 047b 88020000 		.4byte	0x288
 1929 047f 09       		.uleb128 0x9
 1930 0480 04       		.byte	0x4
 1931 0481 B9030000 		.4byte	0x3b9
 1932 0485 11       		.uleb128 0x11
 1933 0486 01       		.byte	0x1
 1934 0487 FA000000 		.4byte	.LASF66
 1935 048b 01       		.byte	0x1
 1936 048c 48       		.byte	0x48
 1937 048d 01       		.byte	0x1
 1938 048e 00000000 		.4byte	.LFB0
 1939 0492 40000000 		.4byte	.LFE0
 1940 0496 00000000 		.4byte	.LLST0
 1941 049a CA040000 		.4byte	0x4ca
 1942 049e 12       		.uleb128 0x12
 1943 049f 6D627000 		.ascii	"mbp\000"
 1944 04a3 01       		.byte	0x1
 1945 04a4 48       		.byte	0x48
 1946 04a5 CA040000 		.4byte	0x4ca
 1947 04a9 20000000 		.4byte	.LLST1
 1948 04ad 12       		.uleb128 0x12
 1949 04ae 62756600 		.ascii	"buf\000"
 1950 04b2 01       		.byte	0x1
 1951 04b3 48       		.byte	0x48
 1952 04b4 21040000 		.4byte	0x421
 1953 04b8 3E000000 		.4byte	.LLST2
 1954 04bc 12       		.uleb128 0x12
 1955 04bd 6E00     		.ascii	"n\000"
 1956 04bf 01       		.byte	0x1
 1957 04c0 48       		.byte	0x48
 1958 04c1 E8000000 		.4byte	0xe8
 1959 04c5 68000000 		.4byte	.LLST3
 1960 04c9 00       		.byte	0x0
 1961 04ca 09       		.uleb128 0x9
 1962 04cb 04       		.byte	0x4
 1963 04cc 27040000 		.4byte	0x427
 1964 04d0 11       		.uleb128 0x11
 1965 04d1 01       		.byte	0x1
ARM GAS  /tmp/ccYhxF2d.s 			page 36


 1966 04d2 C0010000 		.4byte	.LASF67
 1967 04d6 01       		.byte	0x1
 1968 04d7 5B       		.byte	0x5b
 1969 04d8 01       		.byte	0x1
 1970 04d9 00000000 		.4byte	.LFB1
 1971 04dd 44000000 		.4byte	.LFE1
 1972 04e1 86000000 		.4byte	.LLST4
 1973 04e5 F9040000 		.4byte	0x4f9
 1974 04e9 12       		.uleb128 0x12
 1975 04ea 6D627000 		.ascii	"mbp\000"
 1976 04ee 01       		.byte	0x1
 1977 04ef 5B       		.byte	0x5b
 1978 04f0 CA040000 		.4byte	0x4ca
 1979 04f4 A6000000 		.4byte	.LLST5
 1980 04f8 00       		.byte	0x0
 1981 04f9 13       		.uleb128 0x13
 1982 04fa 01       		.byte	0x1
 1983 04fb 20000000 		.4byte	.LASF69
 1984 04ff 01       		.byte	0x1
 1985 0500 96       		.byte	0x96
 1986 0501 01       		.byte	0x1
 1987 0502 C7000000 		.4byte	0xc7
 1988 0506 00000000 		.4byte	.LFB3
 1989 050a 4C000000 		.4byte	.LFE3
 1990 050e C4000000 		.4byte	.LLST6
 1991 0512 53050000 		.4byte	0x553
 1992 0516 12       		.uleb128 0x12
 1993 0517 6D627000 		.ascii	"mbp\000"
 1994 051b 01       		.byte	0x1
 1995 051c 96       		.byte	0x96
 1996 051d CA040000 		.4byte	0x4ca
 1997 0521 E4000000 		.4byte	.LLST7
 1998 0525 12       		.uleb128 0x12
 1999 0526 6D736700 		.ascii	"msg\000"
 2000 052a 01       		.byte	0x1
 2001 052b 96       		.byte	0x96
 2002 052c C7000000 		.4byte	0xc7
 2003 0530 02010000 		.4byte	.LLST8
 2004 0534 14       		.uleb128 0x14
 2005 0535 E9010000 		.4byte	.LASF68
 2006 0539 01       		.byte	0x1
 2007 053a 96       		.byte	0x96
 2008 053b DD000000 		.4byte	0xdd
 2009 053f 20010000 		.4byte	.LLST9
 2010 0543 15       		.uleb128 0x15
 2011 0544 06000000 		.4byte	.LASF61
 2012 0548 01       		.byte	0x1
 2013 0549 97       		.byte	0x97
 2014 054a C7000000 		.4byte	0xc7
 2015 054e 3E010000 		.4byte	.LLST10
 2016 0552 00       		.byte	0x0
 2017 0553 13       		.uleb128 0x13
 2018 0554 01       		.byte	0x1
 2019 0555 54020000 		.4byte	.LASF70
 2020 0559 01       		.byte	0x1
 2021 055a 7A       		.byte	0x7a
 2022 055b 01       		.byte	0x1
ARM GAS  /tmp/ccYhxF2d.s 			page 37


 2023 055c C7000000 		.4byte	0xc7
 2024 0560 00000000 		.4byte	.LFB2
 2025 0564 28000000 		.4byte	.LFE2
 2026 0568 5C010000 		.4byte	.LLST11
 2027 056c AD050000 		.4byte	0x5ad
 2028 0570 12       		.uleb128 0x12
 2029 0571 6D627000 		.ascii	"mbp\000"
 2030 0575 01       		.byte	0x1
 2031 0576 7A       		.byte	0x7a
 2032 0577 CA040000 		.4byte	0x4ca
 2033 057b 7C010000 		.4byte	.LLST12
 2034 057f 12       		.uleb128 0x12
 2035 0580 6D736700 		.ascii	"msg\000"
 2036 0584 01       		.byte	0x1
 2037 0585 7A       		.byte	0x7a
 2038 0586 C7000000 		.4byte	0xc7
 2039 058a 9A010000 		.4byte	.LLST13
 2040 058e 14       		.uleb128 0x14
 2041 058f E9010000 		.4byte	.LASF68
 2042 0593 01       		.byte	0x1
 2043 0594 7A       		.byte	0x7a
 2044 0595 DD000000 		.4byte	0xdd
 2045 0599 B8010000 		.4byte	.LLST14
 2046 059d 15       		.uleb128 0x15
 2047 059e 06000000 		.4byte	.LASF61
 2048 05a2 01       		.byte	0x1
 2049 05a3 7B       		.byte	0x7b
 2050 05a4 C7000000 		.4byte	0xc7
 2051 05a8 D6010000 		.4byte	.LLST15
 2052 05ac 00       		.byte	0x0
 2053 05ad 13       		.uleb128 0x13
 2054 05ae 01       		.byte	0x1
 2055 05af 16000000 		.4byte	.LASF71
 2056 05b3 01       		.byte	0x1
 2057 05b4 B5       		.byte	0xb5
 2058 05b5 01       		.byte	0x1
 2059 05b6 C7000000 		.4byte	0xc7
 2060 05ba 00000000 		.4byte	.LFB4
 2061 05be 48000000 		.4byte	.LFE4
 2062 05c2 F4010000 		.4byte	.LLST16
 2063 05c6 E9050000 		.4byte	0x5e9
 2064 05ca 12       		.uleb128 0x12
 2065 05cb 6D627000 		.ascii	"mbp\000"
 2066 05cf 01       		.byte	0x1
 2067 05d0 B5       		.byte	0xb5
 2068 05d1 CA040000 		.4byte	0x4ca
 2069 05d5 14020000 		.4byte	.LLST17
 2070 05d9 12       		.uleb128 0x12
 2071 05da 6D736700 		.ascii	"msg\000"
 2072 05de 01       		.byte	0x1
 2073 05df B5       		.byte	0xb5
 2074 05e0 C7000000 		.4byte	0xc7
 2075 05e4 32020000 		.4byte	.LLST18
 2076 05e8 00       		.byte	0x0
 2077 05e9 13       		.uleb128 0x13
 2078 05ea 01       		.byte	0x1
 2079 05eb 61000000 		.4byte	.LASF72
ARM GAS  /tmp/ccYhxF2d.s 			page 38


 2080 05ef 01       		.byte	0x1
 2081 05f0 F3       		.byte	0xf3
 2082 05f1 01       		.byte	0x1
 2083 05f2 C7000000 		.4byte	0xc7
 2084 05f6 00000000 		.4byte	.LFB6
 2085 05fa 4C000000 		.4byte	.LFE6
 2086 05fe 50020000 		.4byte	.LLST19
 2087 0602 43060000 		.4byte	0x643
 2088 0606 12       		.uleb128 0x12
 2089 0607 6D627000 		.ascii	"mbp\000"
 2090 060b 01       		.byte	0x1
 2091 060c F3       		.byte	0xf3
 2092 060d CA040000 		.4byte	0x4ca
 2093 0611 70020000 		.4byte	.LLST20
 2094 0615 12       		.uleb128 0x12
 2095 0616 6D736700 		.ascii	"msg\000"
 2096 061a 01       		.byte	0x1
 2097 061b F3       		.byte	0xf3
 2098 061c C7000000 		.4byte	0xc7
 2099 0620 8E020000 		.4byte	.LLST21
 2100 0624 14       		.uleb128 0x14
 2101 0625 E9010000 		.4byte	.LASF68
 2102 0629 01       		.byte	0x1
 2103 062a F3       		.byte	0xf3
 2104 062b DD000000 		.4byte	0xdd
 2105 062f AC020000 		.4byte	.LLST22
 2106 0633 15       		.uleb128 0x15
 2107 0634 06000000 		.4byte	.LASF61
 2108 0638 01       		.byte	0x1
 2109 0639 F4       		.byte	0xf4
 2110 063a C7000000 		.4byte	0xc7
 2111 063e CA020000 		.4byte	.LLST23
 2112 0642 00       		.byte	0x0
 2113 0643 13       		.uleb128 0x13
 2114 0644 01       		.byte	0x1
 2115 0645 AC020000 		.4byte	.LASF73
 2116 0649 01       		.byte	0x1
 2117 064a D7       		.byte	0xd7
 2118 064b 01       		.byte	0x1
 2119 064c C7000000 		.4byte	0xc7
 2120 0650 00000000 		.4byte	.LFB5
 2121 0654 28000000 		.4byte	.LFE5
 2122 0658 E8020000 		.4byte	.LLST24
 2123 065c 9D060000 		.4byte	0x69d
 2124 0660 12       		.uleb128 0x12
 2125 0661 6D627000 		.ascii	"mbp\000"
 2126 0665 01       		.byte	0x1
 2127 0666 D7       		.byte	0xd7
 2128 0667 CA040000 		.4byte	0x4ca
 2129 066b 08030000 		.4byte	.LLST25
 2130 066f 12       		.uleb128 0x12
 2131 0670 6D736700 		.ascii	"msg\000"
 2132 0674 01       		.byte	0x1
 2133 0675 D7       		.byte	0xd7
 2134 0676 C7000000 		.4byte	0xc7
 2135 067a 26030000 		.4byte	.LLST26
 2136 067e 14       		.uleb128 0x14
ARM GAS  /tmp/ccYhxF2d.s 			page 39


 2137 067f E9010000 		.4byte	.LASF68
 2138 0683 01       		.byte	0x1
 2139 0684 D7       		.byte	0xd7
 2140 0685 DD000000 		.4byte	0xdd
 2141 0689 44030000 		.4byte	.LLST27
 2142 068d 15       		.uleb128 0x15
 2143 068e 06000000 		.4byte	.LASF61
 2144 0692 01       		.byte	0x1
 2145 0693 D8       		.byte	0xd8
 2146 0694 C7000000 		.4byte	0xc7
 2147 0698 62030000 		.4byte	.LLST28
 2148 069c 00       		.byte	0x0
 2149 069d 16       		.uleb128 0x16
 2150 069e 01       		.byte	0x1
 2151 069f 32000000 		.4byte	.LASF74
 2152 06a3 01       		.byte	0x1
 2153 06a4 1201     		.2byte	0x112
 2154 06a6 01       		.byte	0x1
 2155 06a7 C7000000 		.4byte	0xc7
 2156 06ab 00000000 		.4byte	.LFB7
 2157 06af 48000000 		.4byte	.LFE7
 2158 06b3 80030000 		.4byte	.LLST29
 2159 06b7 DC060000 		.4byte	0x6dc
 2160 06bb 17       		.uleb128 0x17
 2161 06bc 6D627000 		.ascii	"mbp\000"
 2162 06c0 01       		.byte	0x1
 2163 06c1 1201     		.2byte	0x112
 2164 06c3 CA040000 		.4byte	0x4ca
 2165 06c7 A0030000 		.4byte	.LLST30
 2166 06cb 17       		.uleb128 0x17
 2167 06cc 6D736700 		.ascii	"msg\000"
 2168 06d0 01       		.byte	0x1
 2169 06d1 1201     		.2byte	0x112
 2170 06d3 C7000000 		.4byte	0xc7
 2171 06d7 BE030000 		.4byte	.LLST31
 2172 06db 00       		.byte	0x0
 2173 06dc 16       		.uleb128 0x16
 2174 06dd 01       		.byte	0x1
 2175 06de 76010000 		.4byte	.LASF75
 2176 06e2 01       		.byte	0x1
 2177 06e3 5001     		.2byte	0x150
 2178 06e5 01       		.byte	0x1
 2179 06e6 C7000000 		.4byte	0xc7
 2180 06ea 00000000 		.4byte	.LFB9
 2181 06ee 4C000000 		.4byte	.LFE9
 2182 06f2 DC030000 		.4byte	.LLST32
 2183 06f6 3B070000 		.4byte	0x73b
 2184 06fa 17       		.uleb128 0x17
 2185 06fb 6D627000 		.ascii	"mbp\000"
 2186 06ff 01       		.byte	0x1
 2187 0700 5001     		.2byte	0x150
 2188 0702 CA040000 		.4byte	0x4ca
 2189 0706 FC030000 		.4byte	.LLST33
 2190 070a 18       		.uleb128 0x18
 2191 070b A7010000 		.4byte	.LASF76
 2192 070f 01       		.byte	0x1
 2193 0710 5001     		.2byte	0x150
ARM GAS  /tmp/ccYhxF2d.s 			page 40


 2194 0712 21040000 		.4byte	0x421
 2195 0716 1A040000 		.4byte	.LLST34
 2196 071a 18       		.uleb128 0x18
 2197 071b E9010000 		.4byte	.LASF68
 2198 071f 01       		.byte	0x1
 2199 0720 5001     		.2byte	0x150
 2200 0722 DD000000 		.4byte	0xdd
 2201 0726 38040000 		.4byte	.LLST35
 2202 072a 19       		.uleb128 0x19
 2203 072b 06000000 		.4byte	.LASF61
 2204 072f 01       		.byte	0x1
 2205 0730 5101     		.2byte	0x151
 2206 0732 C7000000 		.4byte	0xc7
 2207 0736 56040000 		.4byte	.LLST36
 2208 073a 00       		.byte	0x0
 2209 073b 16       		.uleb128 0x16
 2210 073c 01       		.byte	0x1
 2211 073d CC020000 		.4byte	.LASF77
 2212 0741 01       		.byte	0x1
 2213 0742 3401     		.2byte	0x134
 2214 0744 01       		.byte	0x1
 2215 0745 C7000000 		.4byte	0xc7
 2216 0749 00000000 		.4byte	.LFB8
 2217 074d 28000000 		.4byte	.LFE8
 2218 0751 74040000 		.4byte	.LLST37
 2219 0755 9A070000 		.4byte	0x79a
 2220 0759 17       		.uleb128 0x17
 2221 075a 6D627000 		.ascii	"mbp\000"
 2222 075e 01       		.byte	0x1
 2223 075f 3401     		.2byte	0x134
 2224 0761 CA040000 		.4byte	0x4ca
 2225 0765 94040000 		.4byte	.LLST38
 2226 0769 18       		.uleb128 0x18
 2227 076a A7010000 		.4byte	.LASF76
 2228 076e 01       		.byte	0x1
 2229 076f 3401     		.2byte	0x134
 2230 0771 21040000 		.4byte	0x421
 2231 0775 B2040000 		.4byte	.LLST39
 2232 0779 18       		.uleb128 0x18
 2233 077a E9010000 		.4byte	.LASF68
 2234 077e 01       		.byte	0x1
 2235 077f 3401     		.2byte	0x134
 2236 0781 DD000000 		.4byte	0xdd
 2237 0785 D0040000 		.4byte	.LLST40
 2238 0789 19       		.uleb128 0x19
 2239 078a 06000000 		.4byte	.LASF61
 2240 078e 01       		.byte	0x1
 2241 078f 3501     		.2byte	0x135
 2242 0791 C7000000 		.4byte	0xc7
 2243 0795 EE040000 		.4byte	.LLST41
 2244 0799 00       		.byte	0x0
 2245 079a 1A       		.uleb128 0x1a
 2246 079b 01       		.byte	0x1
 2247 079c 65010000 		.4byte	.LASF78
 2248 07a0 01       		.byte	0x1
 2249 07a1 6F01     		.2byte	0x16f
 2250 07a3 01       		.byte	0x1
ARM GAS  /tmp/ccYhxF2d.s 			page 41


 2251 07a4 C7000000 		.4byte	0xc7
 2252 07a8 00000000 		.4byte	.LFB10
 2253 07ac 48000000 		.4byte	.LFE10
 2254 07b0 0C050000 		.4byte	.LLST42
 2255 07b4 17       		.uleb128 0x17
 2256 07b5 6D627000 		.ascii	"mbp\000"
 2257 07b9 01       		.byte	0x1
 2258 07ba 6F01     		.2byte	0x16f
 2259 07bc CA040000 		.4byte	0x4ca
 2260 07c0 2C050000 		.4byte	.LLST43
 2261 07c4 18       		.uleb128 0x18
 2262 07c5 A7010000 		.4byte	.LASF76
 2263 07c9 01       		.byte	0x1
 2264 07ca 6F01     		.2byte	0x16f
 2265 07cc 21040000 		.4byte	0x421
 2266 07d0 4A050000 		.4byte	.LLST44
 2267 07d4 00       		.byte	0x0
 2268 07d5 00       		.byte	0x0
 2269              		.section	.debug_abbrev
 2270 0000 01       		.uleb128 0x1
 2271 0001 11       		.uleb128 0x11
 2272 0002 01       		.byte	0x1
 2273 0003 25       		.uleb128 0x25
 2274 0004 0E       		.uleb128 0xe
 2275 0005 13       		.uleb128 0x13
 2276 0006 0B       		.uleb128 0xb
 2277 0007 03       		.uleb128 0x3
 2278 0008 0E       		.uleb128 0xe
 2279 0009 1B       		.uleb128 0x1b
 2280 000a 0E       		.uleb128 0xe
 2281 000b 11       		.uleb128 0x11
 2282 000c 01       		.uleb128 0x1
 2283 000d 52       		.uleb128 0x52
 2284 000e 01       		.uleb128 0x1
 2285 000f 55       		.uleb128 0x55
 2286 0010 06       		.uleb128 0x6
 2287 0011 10       		.uleb128 0x10
 2288 0012 06       		.uleb128 0x6
 2289 0013 00       		.byte	0x0
 2290 0014 00       		.byte	0x0
 2291 0015 02       		.uleb128 0x2
 2292 0016 24       		.uleb128 0x24
 2293 0017 00       		.byte	0x0
 2294 0018 0B       		.uleb128 0xb
 2295 0019 0B       		.uleb128 0xb
 2296 001a 3E       		.uleb128 0x3e
 2297 001b 0B       		.uleb128 0xb
 2298 001c 03       		.uleb128 0x3
 2299 001d 08       		.uleb128 0x8
 2300 001e 00       		.byte	0x0
 2301 001f 00       		.byte	0x0
 2302 0020 03       		.uleb128 0x3
 2303 0021 24       		.uleb128 0x24
 2304 0022 00       		.byte	0x0
 2305 0023 0B       		.uleb128 0xb
 2306 0024 0B       		.uleb128 0xb
 2307 0025 3E       		.uleb128 0x3e
ARM GAS  /tmp/ccYhxF2d.s 			page 42


 2308 0026 0B       		.uleb128 0xb
 2309 0027 03       		.uleb128 0x3
 2310 0028 0E       		.uleb128 0xe
 2311 0029 00       		.byte	0x0
 2312 002a 00       		.byte	0x0
 2313 002b 04       		.uleb128 0x4
 2314 002c 16       		.uleb128 0x16
 2315 002d 00       		.byte	0x0
 2316 002e 03       		.uleb128 0x3
 2317 002f 0E       		.uleb128 0xe
 2318 0030 3A       		.uleb128 0x3a
 2319 0031 0B       		.uleb128 0xb
 2320 0032 3B       		.uleb128 0x3b
 2321 0033 0B       		.uleb128 0xb
 2322 0034 49       		.uleb128 0x49
 2323 0035 13       		.uleb128 0x13
 2324 0036 00       		.byte	0x0
 2325 0037 00       		.byte	0x0
 2326 0038 05       		.uleb128 0x5
 2327 0039 13       		.uleb128 0x13
 2328 003a 01       		.byte	0x1
 2329 003b 03       		.uleb128 0x3
 2330 003c 0E       		.uleb128 0xe
 2331 003d 0B       		.uleb128 0xb
 2332 003e 0B       		.uleb128 0xb
 2333 003f 3A       		.uleb128 0x3a
 2334 0040 0B       		.uleb128 0xb
 2335 0041 3B       		.uleb128 0x3b
 2336 0042 0B       		.uleb128 0xb
 2337 0043 01       		.uleb128 0x1
 2338 0044 13       		.uleb128 0x13
 2339 0045 00       		.byte	0x0
 2340 0046 00       		.byte	0x0
 2341 0047 06       		.uleb128 0x6
 2342 0048 0D       		.uleb128 0xd
 2343 0049 00       		.byte	0x0
 2344 004a 03       		.uleb128 0x3
 2345 004b 0E       		.uleb128 0xe
 2346 004c 3A       		.uleb128 0x3a
 2347 004d 0B       		.uleb128 0xb
 2348 004e 3B       		.uleb128 0x3b
 2349 004f 0B       		.uleb128 0xb
 2350 0050 49       		.uleb128 0x49
 2351 0051 13       		.uleb128 0x13
 2352 0052 38       		.uleb128 0x38
 2353 0053 0A       		.uleb128 0xa
 2354 0054 00       		.byte	0x0
 2355 0055 00       		.byte	0x0
 2356 0056 07       		.uleb128 0x7
 2357 0057 0D       		.uleb128 0xd
 2358 0058 00       		.byte	0x0
 2359 0059 03       		.uleb128 0x3
 2360 005a 08       		.uleb128 0x8
 2361 005b 3A       		.uleb128 0x3a
 2362 005c 0B       		.uleb128 0xb
 2363 005d 3B       		.uleb128 0x3b
 2364 005e 0B       		.uleb128 0xb
ARM GAS  /tmp/ccYhxF2d.s 			page 43


 2365 005f 49       		.uleb128 0x49
 2366 0060 13       		.uleb128 0x13
 2367 0061 38       		.uleb128 0x38
 2368 0062 0A       		.uleb128 0xa
 2369 0063 00       		.byte	0x0
 2370 0064 00       		.byte	0x0
 2371 0065 08       		.uleb128 0x8
 2372 0066 13       		.uleb128 0x13
 2373 0067 01       		.byte	0x1
 2374 0068 0B       		.uleb128 0xb
 2375 0069 0B       		.uleb128 0xb
 2376 006a 3A       		.uleb128 0x3a
 2377 006b 0B       		.uleb128 0xb
 2378 006c 3B       		.uleb128 0x3b
 2379 006d 0B       		.uleb128 0xb
 2380 006e 01       		.uleb128 0x1
 2381 006f 13       		.uleb128 0x13
 2382 0070 00       		.byte	0x0
 2383 0071 00       		.byte	0x0
 2384 0072 09       		.uleb128 0x9
 2385 0073 0F       		.uleb128 0xf
 2386 0074 00       		.byte	0x0
 2387 0075 0B       		.uleb128 0xb
 2388 0076 0B       		.uleb128 0xb
 2389 0077 49       		.uleb128 0x49
 2390 0078 13       		.uleb128 0x13
 2391 0079 00       		.byte	0x0
 2392 007a 00       		.byte	0x0
 2393 007b 0A       		.uleb128 0xa
 2394 007c 0F       		.uleb128 0xf
 2395 007d 00       		.byte	0x0
 2396 007e 0B       		.uleb128 0xb
 2397 007f 0B       		.uleb128 0xb
 2398 0080 00       		.byte	0x0
 2399 0081 00       		.byte	0x0
 2400 0082 0B       		.uleb128 0xb
 2401 0083 0D       		.uleb128 0xd
 2402 0084 00       		.byte	0x0
 2403 0085 03       		.uleb128 0x3
 2404 0086 08       		.uleb128 0x8
 2405 0087 3A       		.uleb128 0x3a
 2406 0088 0B       		.uleb128 0xb
 2407 0089 3B       		.uleb128 0x3b
 2408 008a 05       		.uleb128 0x5
 2409 008b 49       		.uleb128 0x49
 2410 008c 13       		.uleb128 0x13
 2411 008d 38       		.uleb128 0x38
 2412 008e 0A       		.uleb128 0xa
 2413 008f 00       		.byte	0x0
 2414 0090 00       		.byte	0x0
 2415 0091 0C       		.uleb128 0xc
 2416 0092 13       		.uleb128 0x13
 2417 0093 01       		.byte	0x1
 2418 0094 03       		.uleb128 0x3
 2419 0095 0E       		.uleb128 0xe
 2420 0096 0B       		.uleb128 0xb
 2421 0097 0B       		.uleb128 0xb
ARM GAS  /tmp/ccYhxF2d.s 			page 44


 2422 0098 3A       		.uleb128 0x3a
 2423 0099 0B       		.uleb128 0xb
 2424 009a 3B       		.uleb128 0x3b
 2425 009b 05       		.uleb128 0x5
 2426 009c 01       		.uleb128 0x1
 2427 009d 13       		.uleb128 0x13
 2428 009e 00       		.byte	0x0
 2429 009f 00       		.byte	0x0
 2430 00a0 0D       		.uleb128 0xd
 2431 00a1 35       		.uleb128 0x35
 2432 00a2 00       		.byte	0x0
 2433 00a3 49       		.uleb128 0x49
 2434 00a4 13       		.uleb128 0x13
 2435 00a5 00       		.byte	0x0
 2436 00a6 00       		.byte	0x0
 2437 00a7 0E       		.uleb128 0xe
 2438 00a8 17       		.uleb128 0x17
 2439 00a9 01       		.byte	0x1
 2440 00aa 0B       		.uleb128 0xb
 2441 00ab 0B       		.uleb128 0xb
 2442 00ac 3A       		.uleb128 0x3a
 2443 00ad 0B       		.uleb128 0xb
 2444 00ae 3B       		.uleb128 0x3b
 2445 00af 0B       		.uleb128 0xb
 2446 00b0 01       		.uleb128 0x1
 2447 00b1 13       		.uleb128 0x13
 2448 00b2 00       		.byte	0x0
 2449 00b3 00       		.byte	0x0
 2450 00b4 0F       		.uleb128 0xf
 2451 00b5 0D       		.uleb128 0xd
 2452 00b6 00       		.byte	0x0
 2453 00b7 03       		.uleb128 0x3
 2454 00b8 0E       		.uleb128 0xe
 2455 00b9 3A       		.uleb128 0x3a
 2456 00ba 0B       		.uleb128 0xb
 2457 00bb 3B       		.uleb128 0x3b
 2458 00bc 0B       		.uleb128 0xb
 2459 00bd 49       		.uleb128 0x49
 2460 00be 13       		.uleb128 0x13
 2461 00bf 00       		.byte	0x0
 2462 00c0 00       		.byte	0x0
 2463 00c1 10       		.uleb128 0x10
 2464 00c2 26       		.uleb128 0x26
 2465 00c3 00       		.byte	0x0
 2466 00c4 49       		.uleb128 0x49
 2467 00c5 13       		.uleb128 0x13
 2468 00c6 00       		.byte	0x0
 2469 00c7 00       		.byte	0x0
 2470 00c8 11       		.uleb128 0x11
 2471 00c9 2E       		.uleb128 0x2e
 2472 00ca 01       		.byte	0x1
 2473 00cb 3F       		.uleb128 0x3f
 2474 00cc 0C       		.uleb128 0xc
 2475 00cd 03       		.uleb128 0x3
 2476 00ce 0E       		.uleb128 0xe
 2477 00cf 3A       		.uleb128 0x3a
 2478 00d0 0B       		.uleb128 0xb
ARM GAS  /tmp/ccYhxF2d.s 			page 45


 2479 00d1 3B       		.uleb128 0x3b
 2480 00d2 0B       		.uleb128 0xb
 2481 00d3 27       		.uleb128 0x27
 2482 00d4 0C       		.uleb128 0xc
 2483 00d5 11       		.uleb128 0x11
 2484 00d6 01       		.uleb128 0x1
 2485 00d7 12       		.uleb128 0x12
 2486 00d8 01       		.uleb128 0x1
 2487 00d9 40       		.uleb128 0x40
 2488 00da 06       		.uleb128 0x6
 2489 00db 01       		.uleb128 0x1
 2490 00dc 13       		.uleb128 0x13
 2491 00dd 00       		.byte	0x0
 2492 00de 00       		.byte	0x0
 2493 00df 12       		.uleb128 0x12
 2494 00e0 05       		.uleb128 0x5
 2495 00e1 00       		.byte	0x0
 2496 00e2 03       		.uleb128 0x3
 2497 00e3 08       		.uleb128 0x8
 2498 00e4 3A       		.uleb128 0x3a
 2499 00e5 0B       		.uleb128 0xb
 2500 00e6 3B       		.uleb128 0x3b
 2501 00e7 0B       		.uleb128 0xb
 2502 00e8 49       		.uleb128 0x49
 2503 00e9 13       		.uleb128 0x13
 2504 00ea 02       		.uleb128 0x2
 2505 00eb 06       		.uleb128 0x6
 2506 00ec 00       		.byte	0x0
 2507 00ed 00       		.byte	0x0
 2508 00ee 13       		.uleb128 0x13
 2509 00ef 2E       		.uleb128 0x2e
 2510 00f0 01       		.byte	0x1
 2511 00f1 3F       		.uleb128 0x3f
 2512 00f2 0C       		.uleb128 0xc
 2513 00f3 03       		.uleb128 0x3
 2514 00f4 0E       		.uleb128 0xe
 2515 00f5 3A       		.uleb128 0x3a
 2516 00f6 0B       		.uleb128 0xb
 2517 00f7 3B       		.uleb128 0x3b
 2518 00f8 0B       		.uleb128 0xb
 2519 00f9 27       		.uleb128 0x27
 2520 00fa 0C       		.uleb128 0xc
 2521 00fb 49       		.uleb128 0x49
 2522 00fc 13       		.uleb128 0x13
 2523 00fd 11       		.uleb128 0x11
 2524 00fe 01       		.uleb128 0x1
 2525 00ff 12       		.uleb128 0x12
 2526 0100 01       		.uleb128 0x1
 2527 0101 40       		.uleb128 0x40
 2528 0102 06       		.uleb128 0x6
 2529 0103 01       		.uleb128 0x1
 2530 0104 13       		.uleb128 0x13
 2531 0105 00       		.byte	0x0
 2532 0106 00       		.byte	0x0
 2533 0107 14       		.uleb128 0x14
 2534 0108 05       		.uleb128 0x5
 2535 0109 00       		.byte	0x0
ARM GAS  /tmp/ccYhxF2d.s 			page 46


 2536 010a 03       		.uleb128 0x3
 2537 010b 0E       		.uleb128 0xe
 2538 010c 3A       		.uleb128 0x3a
 2539 010d 0B       		.uleb128 0xb
 2540 010e 3B       		.uleb128 0x3b
 2541 010f 0B       		.uleb128 0xb
 2542 0110 49       		.uleb128 0x49
 2543 0111 13       		.uleb128 0x13
 2544 0112 02       		.uleb128 0x2
 2545 0113 06       		.uleb128 0x6
 2546 0114 00       		.byte	0x0
 2547 0115 00       		.byte	0x0
 2548 0116 15       		.uleb128 0x15
 2549 0117 34       		.uleb128 0x34
 2550 0118 00       		.byte	0x0
 2551 0119 03       		.uleb128 0x3
 2552 011a 0E       		.uleb128 0xe
 2553 011b 3A       		.uleb128 0x3a
 2554 011c 0B       		.uleb128 0xb
 2555 011d 3B       		.uleb128 0x3b
 2556 011e 0B       		.uleb128 0xb
 2557 011f 49       		.uleb128 0x49
 2558 0120 13       		.uleb128 0x13
 2559 0121 02       		.uleb128 0x2
 2560 0122 06       		.uleb128 0x6
 2561 0123 00       		.byte	0x0
 2562 0124 00       		.byte	0x0
 2563 0125 16       		.uleb128 0x16
 2564 0126 2E       		.uleb128 0x2e
 2565 0127 01       		.byte	0x1
 2566 0128 3F       		.uleb128 0x3f
 2567 0129 0C       		.uleb128 0xc
 2568 012a 03       		.uleb128 0x3
 2569 012b 0E       		.uleb128 0xe
 2570 012c 3A       		.uleb128 0x3a
 2571 012d 0B       		.uleb128 0xb
 2572 012e 3B       		.uleb128 0x3b
 2573 012f 05       		.uleb128 0x5
 2574 0130 27       		.uleb128 0x27
 2575 0131 0C       		.uleb128 0xc
 2576 0132 49       		.uleb128 0x49
 2577 0133 13       		.uleb128 0x13
 2578 0134 11       		.uleb128 0x11
 2579 0135 01       		.uleb128 0x1
 2580 0136 12       		.uleb128 0x12
 2581 0137 01       		.uleb128 0x1
 2582 0138 40       		.uleb128 0x40
 2583 0139 06       		.uleb128 0x6
 2584 013a 01       		.uleb128 0x1
 2585 013b 13       		.uleb128 0x13
 2586 013c 00       		.byte	0x0
 2587 013d 00       		.byte	0x0
 2588 013e 17       		.uleb128 0x17
 2589 013f 05       		.uleb128 0x5
 2590 0140 00       		.byte	0x0
 2591 0141 03       		.uleb128 0x3
 2592 0142 08       		.uleb128 0x8
ARM GAS  /tmp/ccYhxF2d.s 			page 47


 2593 0143 3A       		.uleb128 0x3a
 2594 0144 0B       		.uleb128 0xb
 2595 0145 3B       		.uleb128 0x3b
 2596 0146 05       		.uleb128 0x5
 2597 0147 49       		.uleb128 0x49
 2598 0148 13       		.uleb128 0x13
 2599 0149 02       		.uleb128 0x2
 2600 014a 06       		.uleb128 0x6
 2601 014b 00       		.byte	0x0
 2602 014c 00       		.byte	0x0
 2603 014d 18       		.uleb128 0x18
 2604 014e 05       		.uleb128 0x5
 2605 014f 00       		.byte	0x0
 2606 0150 03       		.uleb128 0x3
 2607 0151 0E       		.uleb128 0xe
 2608 0152 3A       		.uleb128 0x3a
 2609 0153 0B       		.uleb128 0xb
 2610 0154 3B       		.uleb128 0x3b
 2611 0155 05       		.uleb128 0x5
 2612 0156 49       		.uleb128 0x49
 2613 0157 13       		.uleb128 0x13
 2614 0158 02       		.uleb128 0x2
 2615 0159 06       		.uleb128 0x6
 2616 015a 00       		.byte	0x0
 2617 015b 00       		.byte	0x0
 2618 015c 19       		.uleb128 0x19
 2619 015d 34       		.uleb128 0x34
 2620 015e 00       		.byte	0x0
 2621 015f 03       		.uleb128 0x3
 2622 0160 0E       		.uleb128 0xe
 2623 0161 3A       		.uleb128 0x3a
 2624 0162 0B       		.uleb128 0xb
 2625 0163 3B       		.uleb128 0x3b
 2626 0164 05       		.uleb128 0x5
 2627 0165 49       		.uleb128 0x49
 2628 0166 13       		.uleb128 0x13
 2629 0167 02       		.uleb128 0x2
 2630 0168 06       		.uleb128 0x6
 2631 0169 00       		.byte	0x0
 2632 016a 00       		.byte	0x0
 2633 016b 1A       		.uleb128 0x1a
 2634 016c 2E       		.uleb128 0x2e
 2635 016d 01       		.byte	0x1
 2636 016e 3F       		.uleb128 0x3f
 2637 016f 0C       		.uleb128 0xc
 2638 0170 03       		.uleb128 0x3
 2639 0171 0E       		.uleb128 0xe
 2640 0172 3A       		.uleb128 0x3a
 2641 0173 0B       		.uleb128 0xb
 2642 0174 3B       		.uleb128 0x3b
 2643 0175 05       		.uleb128 0x5
 2644 0176 27       		.uleb128 0x27
 2645 0177 0C       		.uleb128 0xc
 2646 0178 49       		.uleb128 0x49
 2647 0179 13       		.uleb128 0x13
 2648 017a 11       		.uleb128 0x11
 2649 017b 01       		.uleb128 0x1
ARM GAS  /tmp/ccYhxF2d.s 			page 48


 2650 017c 12       		.uleb128 0x12
 2651 017d 01       		.uleb128 0x1
 2652 017e 40       		.uleb128 0x40
 2653 017f 06       		.uleb128 0x6
 2654 0180 00       		.byte	0x0
 2655 0181 00       		.byte	0x0
 2656 0182 00       		.byte	0x0
 2657              		.section	.debug_pubnames,"",%progbits
 2658 0000 B6000000 		.4byte	0xb6
 2659 0004 0200     		.2byte	0x2
 2660 0006 00000000 		.4byte	.Ldebug_info0
 2661 000a D6070000 		.4byte	0x7d6
 2662 000e 85040000 		.4byte	0x485
 2663 0012 63684D42 		.ascii	"chMBInit\000"
 2663      496E6974 
 2663      00
 2664 001b D0040000 		.4byte	0x4d0
 2665 001f 63684D42 		.ascii	"chMBReset\000"
 2665      52657365 
 2665      7400
 2666 0029 F9040000 		.4byte	0x4f9
 2667 002d 63684D42 		.ascii	"chMBPostS\000"
 2667      506F7374 
 2667      5300
 2668 0037 53050000 		.4byte	0x553
 2669 003b 63684D42 		.ascii	"chMBPost\000"
 2669      506F7374 
 2669      00
 2670 0044 AD050000 		.4byte	0x5ad
 2671 0048 63684D42 		.ascii	"chMBPostI\000"
 2671      506F7374 
 2671      4900
 2672 0052 E9050000 		.4byte	0x5e9
 2673 0056 63684D42 		.ascii	"chMBPostAheadS\000"
 2673      506F7374 
 2673      41686561 
 2673      645300
 2674 0065 43060000 		.4byte	0x643
 2675 0069 63684D42 		.ascii	"chMBPostAhead\000"
 2675      506F7374 
 2675      41686561 
 2675      6400
 2676 0077 9D060000 		.4byte	0x69d
 2677 007b 63684D42 		.ascii	"chMBPostAheadI\000"
 2677      506F7374 
 2677      41686561 
 2677      644900
 2678 008a DC060000 		.4byte	0x6dc
 2679 008e 63684D42 		.ascii	"chMBFetchS\000"
 2679      46657463 
 2679      685300
 2680 0099 3B070000 		.4byte	0x73b
 2681 009d 63684D42 		.ascii	"chMBFetch\000"
 2681      46657463 
 2681      6800
 2682 00a7 9A070000 		.4byte	0x79a
 2683 00ab 63684D42 		.ascii	"chMBFetchI\000"
ARM GAS  /tmp/ccYhxF2d.s 			page 49


 2683      46657463 
 2683      684900
 2684 00b6 00000000 		.4byte	0x0
 2685              		.section	.debug_pubtypes,"",%progbits
 2686 0000 49010000 		.4byte	0x149
 2687 0004 0200     		.2byte	0x2
 2688 0006 00000000 		.4byte	.Ldebug_info0
 2689 000a D6070000 		.4byte	0x7d6
 2690 000e 3E000000 		.4byte	0x3e
 2691 0012 75696E74 		.ascii	"uint8_t\000"
 2691      385F7400 
 2692 001a 5E000000 		.4byte	0x5e
 2693 001e 696E7433 		.ascii	"int32_t\000"
 2693      325F7400 
 2694 0026 70000000 		.4byte	0x70
 2695 002a 75696E74 		.ascii	"uint32_t\000"
 2695      33325F74 
 2695      00
 2696 0033 89000000 		.4byte	0x89
 2697 0037 75696E74 		.ascii	"uint64_t\000"
 2697      36345F74 
 2697      00
 2698 0040 9B000000 		.4byte	0x9b
 2699 0044 746D6F64 		.ascii	"tmode_t\000"
 2699      655F7400 
 2700 004c A6000000 		.4byte	0xa6
 2701 0050 74737461 		.ascii	"tstate_t\000"
 2701      74655F74 
 2701      00
 2702 0059 B1000000 		.4byte	0xb1
 2703 005d 74726566 		.ascii	"trefs_t\000"
 2703      735F7400 
 2704 0065 BC000000 		.4byte	0xbc
 2705 0069 74707269 		.ascii	"tprio_t\000"
 2705      6F5F7400 
 2706 0071 C7000000 		.4byte	0xc7
 2707 0075 6D73675F 		.ascii	"msg_t\000"
 2707      7400
 2708 007b D2000000 		.4byte	0xd2
 2709 007f 6576656E 		.ascii	"eventmask_t\000"
 2709      746D6173 
 2709      6B5F7400 
 2710 008b DD000000 		.4byte	0xdd
 2711 008f 73797374 		.ascii	"systime_t\000"
 2711      696D655F 
 2711      7400
 2712 0099 E8000000 		.4byte	0xe8
 2713 009d 636E745F 		.ascii	"cnt_t\000"
 2713      7400
 2714 00a3 F3000000 		.4byte	0xf3
 2715 00a7 54687265 		.ascii	"Thread\000"
 2715      616400
 2716 00ae 4E020000 		.4byte	0x24e
 2717 00b2 54687265 		.ascii	"ThreadsQueue\000"
 2717      61647351 
 2717      75657565 
 2717      00
ARM GAS  /tmp/ccYhxF2d.s 			page 50


 2718 00bf 70020000 		.4byte	0x270
 2719 00c3 54687265 		.ascii	"ThreadsList\000"
 2719      6164734C 
 2719      69737400 
 2720 00cf 7B020000 		.4byte	0x27b
 2721 00d3 72656761 		.ascii	"regarm_t\000"
 2721      726D5F74 
 2721      00
 2722 00dc 88020000 		.4byte	0x288
 2723 00e0 73746B61 		.ascii	"stkalign_t\000"
 2723      6C69676E 
 2723      5F7400
 2724 00eb 93020000 		.4byte	0x293
 2725 00ef 696E7463 		.ascii	"intctx\000"
 2725      747800
 2726 00f6 20030000 		.4byte	0x320
 2727 00fa 636F6E74 		.ascii	"context\000"
 2727      65787400 
 2728 0102 48030000 		.4byte	0x348
 2729 0106 53656D61 		.ascii	"Semaphore\000"
 2729      70686F72 
 2729      6500
 2730 0110 71030000 		.4byte	0x371
 2731 0114 53656D61 		.ascii	"Semaphore\000"
 2731      70686F72 
 2731      6500
 2732 011e 7C030000 		.4byte	0x37c
 2733 0122 4D757465 		.ascii	"Mutex\000"
 2733      7800
 2734 0128 B9030000 		.4byte	0x3b9
 2735 012c 4D757465 		.ascii	"Mutex\000"
 2735      7800
 2736 0132 27040000 		.4byte	0x427
 2737 0136 4D61696C 		.ascii	"Mailbox\000"
 2737      626F7800 
 2738 013e FE000000 		.4byte	0xfe
 2739 0142 54687265 		.ascii	"Thread\000"
 2739      616400
 2740 0149 00000000 		.4byte	0x0
 2741              		.section	.debug_aranges,"",%progbits
 2742 0000 6C000000 		.4byte	0x6c
 2743 0004 0200     		.2byte	0x2
 2744 0006 00000000 		.4byte	.Ldebug_info0
 2745 000a 04       		.byte	0x4
 2746 000b 00       		.byte	0x0
 2747 000c 0000     		.2byte	0x0
 2748 000e 0000     		.2byte	0x0
 2749 0010 00000000 		.4byte	.LFB0
 2750 0014 40000000 		.4byte	.LFE0-.LFB0
 2751 0018 00000000 		.4byte	.LFB1
 2752 001c 44000000 		.4byte	.LFE1-.LFB1
 2753 0020 00000000 		.4byte	.LFB3
 2754 0024 4C000000 		.4byte	.LFE3-.LFB3
 2755 0028 00000000 		.4byte	.LFB2
 2756 002c 28000000 		.4byte	.LFE2-.LFB2
 2757 0030 00000000 		.4byte	.LFB4
 2758 0034 48000000 		.4byte	.LFE4-.LFB4
ARM GAS  /tmp/ccYhxF2d.s 			page 51


 2759 0038 00000000 		.4byte	.LFB6
 2760 003c 4C000000 		.4byte	.LFE6-.LFB6
 2761 0040 00000000 		.4byte	.LFB5
 2762 0044 28000000 		.4byte	.LFE5-.LFB5
 2763 0048 00000000 		.4byte	.LFB7
 2764 004c 48000000 		.4byte	.LFE7-.LFB7
 2765 0050 00000000 		.4byte	.LFB9
 2766 0054 4C000000 		.4byte	.LFE9-.LFB9
 2767 0058 00000000 		.4byte	.LFB8
 2768 005c 28000000 		.4byte	.LFE8-.LFB8
 2769 0060 00000000 		.4byte	.LFB10
 2770 0064 48000000 		.4byte	.LFE10-.LFB10
 2771 0068 00000000 		.4byte	0x0
 2772 006c 00000000 		.4byte	0x0
 2773              		.section	.debug_ranges,"",%progbits
 2774              	.Ldebug_ranges0:
 2775 0000 00000000 		.4byte	.LFB0
 2776 0004 40000000 		.4byte	.LFE0
 2777 0008 00000000 		.4byte	.LFB1
 2778 000c 44000000 		.4byte	.LFE1
 2779 0010 00000000 		.4byte	.LFB3
 2780 0014 4C000000 		.4byte	.LFE3
 2781 0018 00000000 		.4byte	.LFB2
 2782 001c 28000000 		.4byte	.LFE2
 2783 0020 00000000 		.4byte	.LFB4
 2784 0024 48000000 		.4byte	.LFE4
 2785 0028 00000000 		.4byte	.LFB6
 2786 002c 4C000000 		.4byte	.LFE6
 2787 0030 00000000 		.4byte	.LFB5
 2788 0034 28000000 		.4byte	.LFE5
 2789 0038 00000000 		.4byte	.LFB7
 2790 003c 48000000 		.4byte	.LFE7
 2791 0040 00000000 		.4byte	.LFB9
 2792 0044 4C000000 		.4byte	.LFE9
 2793 0048 00000000 		.4byte	.LFB8
 2794 004c 28000000 		.4byte	.LFE8
 2795 0050 00000000 		.4byte	.LFB10
 2796 0054 48000000 		.4byte	.LFE10
 2797 0058 00000000 		.4byte	0x0
 2798 005c 00000000 		.4byte	0x0
 2799              		.section	.debug_str,"MS",%progbits,1
 2800              	.LASF36:
 2801 0000 705F6D73 		.ascii	"p_msg\000"
 2801      6700
 2802              	.LASF61:
 2803 0006 7264796D 		.ascii	"rdymsg\000"
 2803      736700
 2804              	.LASF11:
 2805 000d 75696E74 		.ascii	"uint64_t\000"
 2805      36345F74 
 2805      00
 2806              	.LASF71:
 2807 0016 63684D42 		.ascii	"chMBPostI\000"
 2807      506F7374 
 2807      4900
 2808              	.LASF69:
 2809 0020 63684D42 		.ascii	"chMBPostS\000"
ARM GAS  /tmp/ccYhxF2d.s 			page 52


 2809      506F7374 
 2809      5300
 2810              	.LASF60:
 2811 002a 4D61696C 		.ascii	"Mailbox\000"
 2811      626F7800 
 2812              	.LASF74:
 2813 0032 63684D42 		.ascii	"chMBPostAheadI\000"
 2813      506F7374 
 2813      41686561 
 2813      644900
 2814              	.LASF12:
 2815 0041 6C6F6E67 		.ascii	"long long unsigned int\000"
 2815      206C6F6E 
 2815      6720756E 
 2815      7369676E 
 2815      65642069 
 2816              	.LASF62:
 2817 0058 65786974 		.ascii	"exitcode\000"
 2817      636F6465 
 2817      00
 2818              	.LASF72:
 2819 0061 63684D42 		.ascii	"chMBPostAheadS\000"
 2819      506F7374 
 2819      41686561 
 2819      645300
 2820              	.LASF56:
 2821 0070 6D625F77 		.ascii	"mb_wrptr\000"
 2821      72707472 
 2821      00
 2822              	.LASF24:
 2823 0079 705F7072 		.ascii	"p_prio\000"
 2823      696F00
 2824              	.LASF10:
 2825 0080 6C6F6E67 		.ascii	"long long int\000"
 2825      206C6F6E 
 2825      6720696E 
 2825      7400
 2826              	.LASF1:
 2827 008e 7369676E 		.ascii	"signed char\000"
 2827      65642063 
 2827      68617200 
 2828              	.LASF40:
 2829 009a 705F6D70 		.ascii	"p_mpool\000"
 2829      6F6F6C00 
 2830              	.LASF51:
 2831 00a2 6D5F7175 		.ascii	"m_queue\000"
 2831      65756500 
 2832              	.LASF63:
 2833 00aa 77746F62 		.ascii	"wtobjp\000"
 2833      6A7000
 2834              	.LASF7:
 2835 00b1 6C6F6E67 		.ascii	"long int\000"
 2835      20696E74 
 2835      00
 2836              	.LASF14:
 2837 00ba 74737461 		.ascii	"tstate_t\000"
 2837      74655F74 
ARM GAS  /tmp/ccYhxF2d.s 			page 53


 2837      00
 2838              	.LASF26:
 2839 00c3 705F6E65 		.ascii	"p_newer\000"
 2839      77657200 
 2840              	.LASF48:
 2841 00cb 735F7175 		.ascii	"s_queue\000"
 2841      65756500 
 2842              	.LASF43:
 2843 00d3 72656761 		.ascii	"regarm_t\000"
 2843      726D5F74 
 2843      00
 2844              	.LASF20:
 2845 00dc 636E745F 		.ascii	"cnt_t\000"
 2845      7400
 2846              	.LASF29:
 2847 00e2 705F7374 		.ascii	"p_stklimit\000"
 2847      6B6C696D 
 2847      697400
 2848              	.LASF0:
 2849 00ed 756E7369 		.ascii	"unsigned int\000"
 2849      676E6564 
 2849      20696E74 
 2849      00
 2850              	.LASF66:
 2851 00fa 63684D42 		.ascii	"chMBInit\000"
 2851      496E6974 
 2851      00
 2852              	.LASF9:
 2853 0103 6C6F6E67 		.ascii	"long unsigned int\000"
 2853      20756E73 
 2853      69676E65 
 2853      6420696E 
 2853      7400
 2854              	.LASF59:
 2855 0115 6D625F65 		.ascii	"mb_emptysem\000"
 2855      6D707479 
 2855      73656D00 
 2856              	.LASF49:
 2857 0121 735F636E 		.ascii	"s_cnt\000"
 2857      7400
 2858              	.LASF46:
 2859 0127 636F6E74 		.ascii	"context\000"
 2859      65787400 
 2860              	.LASF81:
 2861 012f 2F686F6D 		.ascii	"/home/z80/projects/dfu.git/firmware-pawn-dev/firmwa"
 2861      652F7A38 
 2861      302F7072 
 2861      6F6A6563 
 2861      74732F64 
 2862 0162 726500   		.ascii	"re\000"
 2863              	.LASF78:
 2864 0165 63684D42 		.ascii	"chMBFetchI\000"
 2864      46657463 
 2864      684900
 2865              	.LASF17:
 2866 0170 6D73675F 		.ascii	"msg_t\000"
 2866      7400
ARM GAS  /tmp/ccYhxF2d.s 			page 54


 2867              	.LASF75:
 2868 0176 63684D42 		.ascii	"chMBFetchS\000"
 2868      46657463 
 2868      685300
 2869              	.LASF13:
 2870 0181 746D6F64 		.ascii	"tmode_t\000"
 2870      655F7400 
 2871              	.LASF42:
 2872 0189 54687265 		.ascii	"ThreadsList\000"
 2872      6164734C 
 2872      69737400 
 2873              	.LASF18:
 2874 0195 6576656E 		.ascii	"eventmask_t\000"
 2874      746D6173 
 2874      6B5F7400 
 2875              	.LASF50:
 2876 01a1 4D757465 		.ascii	"Mutex\000"
 2876      7800
 2877              	.LASF76:
 2878 01a7 6D736770 		.ascii	"msgp\000"
 2878      00
 2879              	.LASF44:
 2880 01ac 73746B61 		.ascii	"stkalign_t\000"
 2880      6C69676E 
 2880      5F7400
 2881              	.LASF57:
 2882 01b7 6D625F72 		.ascii	"mb_rdptr\000"
 2882      64707472 
 2882      00
 2883              	.LASF67:
 2884 01c0 63684D42 		.ascii	"chMBReset\000"
 2884      52657365 
 2884      7400
 2885              	.LASF27:
 2886 01ca 705F6F6C 		.ascii	"p_older\000"
 2886      64657200 
 2887              	.LASF41:
 2888 01d2 54687265 		.ascii	"ThreadsQueue\000"
 2888      61647351 
 2888      75657565 
 2888      00
 2889              	.LASF54:
 2890 01df 6D625F62 		.ascii	"mb_buffer\000"
 2890      75666665 
 2890      7200
 2891              	.LASF68:
 2892 01e9 74696D65 		.ascii	"time\000"
 2892      00
 2893              	.LASF15:
 2894 01ee 74726566 		.ascii	"trefs_t\000"
 2894      735F7400 
 2895              	.LASF23:
 2896 01f6 705F7072 		.ascii	"p_prev\000"
 2896      657600
 2897              	.LASF16:
 2898 01fd 74707269 		.ascii	"tprio_t\000"
 2898      6F5F7400 
ARM GAS  /tmp/ccYhxF2d.s 			page 55


 2899              	.LASF6:
 2900 0205 696E7433 		.ascii	"int32_t\000"
 2900      325F7400 
 2901              	.LASF2:
 2902 020d 756E7369 		.ascii	"unsigned char\000"
 2902      676E6564 
 2902      20636861 
 2902      7200
 2903              	.LASF55:
 2904 021b 6D625F74 		.ascii	"mb_top\000"
 2904      6F7000
 2905              	.LASF38:
 2906 0222 705F6D74 		.ascii	"p_mtxlist\000"
 2906      786C6973 
 2906      7400
 2907              	.LASF3:
 2908 022c 73686F72 		.ascii	"short int\000"
 2908      7420696E 
 2908      7400
 2909              	.LASF30:
 2910 0236 705F7374 		.ascii	"p_state\000"
 2910      61746500 
 2911              	.LASF64:
 2912 023e 65776D61 		.ascii	"ewmask\000"
 2912      736B00
 2913              	.LASF22:
 2914 0245 705F6E65 		.ascii	"p_next\000"
 2914      787400
 2915              	.LASF31:
 2916 024c 705F666C 		.ascii	"p_flags\000"
 2916      61677300 
 2917              	.LASF70:
 2918 0254 63684D42 		.ascii	"chMBPost\000"
 2918      506F7374 
 2918      00
 2919              	.LASF21:
 2920 025d 54687265 		.ascii	"Thread\000"
 2920      616400
 2921              	.LASF37:
 2922 0264 705F6570 		.ascii	"p_epending\000"
 2922      656E6469 
 2922      6E6700
 2923              	.LASF8:
 2924 026f 75696E74 		.ascii	"uint32_t\000"
 2924      33325F74 
 2924      00
 2925              	.LASF65:
 2926 0278 63686172 		.ascii	"char\000"
 2926      00
 2927              	.LASF53:
 2928 027d 6D5F6E65 		.ascii	"m_next\000"
 2928      787400
 2929              	.LASF19:
 2930 0284 73797374 		.ascii	"systime_t\000"
 2930      696D655F 
 2930      7400
 2931              	.LASF39:
ARM GAS  /tmp/ccYhxF2d.s 			page 56


 2932 028e 705F7265 		.ascii	"p_realprio\000"
 2932      616C7072 
 2932      696F00
 2933              	.LASF4:
 2934 0299 73686F72 		.ascii	"short unsigned int\000"
 2934      7420756E 
 2934      7369676E 
 2934      65642069 
 2934      6E7400
 2935              	.LASF73:
 2936 02ac 63684D42 		.ascii	"chMBPostAhead\000"
 2936      506F7374 
 2936      41686561 
 2936      6400
 2937              	.LASF45:
 2938 02ba 696E7463 		.ascii	"intctx\000"
 2938      747800
 2939              	.LASF35:
 2940 02c1 705F6D73 		.ascii	"p_msgqueue\000"
 2940      67717565 
 2940      756500
 2941              	.LASF77:
 2942 02cc 63684D42 		.ascii	"chMBFetch\000"
 2942      46657463 
 2942      6800
 2943              	.LASF47:
 2944 02d6 53656D61 		.ascii	"Semaphore\000"
 2944      70686F72 
 2944      6500
 2945              	.LASF58:
 2946 02e0 6D625F66 		.ascii	"mb_fullsem\000"
 2946      756C6C73 
 2946      656D00
 2947              	.LASF32:
 2948 02eb 705F7265 		.ascii	"p_refs\000"
 2948      667300
 2949              	.LASF5:
 2950 02f2 75696E74 		.ascii	"uint8_t\000"
 2950      385F7400 
 2951              	.LASF33:
 2952 02fa 705F7469 		.ascii	"p_time\000"
 2952      6D6500
 2953              	.LASF79:
 2954 0301 474E5520 		.ascii	"GNU C 4.5.2\000"
 2954      4320342E 
 2954      352E3200 
 2955              	.LASF28:
 2956 030d 705F6E61 		.ascii	"p_name\000"
 2956      6D6500
 2957              	.LASF80:
 2958 0314 2E2E2F63 		.ascii	"../chibios/os/kernel/src/chmboxes.c\000"
 2958      68696269 
 2958      6F732F6F 
 2958      732F6B65 
 2958      726E656C 
 2959              	.LASF52:
 2960 0338 6D5F6F77 		.ascii	"m_owner\000"
ARM GAS  /tmp/ccYhxF2d.s 			page 57


 2960      6E657200 
 2961              	.LASF25:
 2962 0340 705F6374 		.ascii	"p_ctx\000"
 2962      7800
 2963              	.LASF34:
 2964 0346 705F7761 		.ascii	"p_waiting\000"
 2964      6974696E 
 2964      6700
 2965              		.ident	"GCC: (Sourcery G++ Lite 2011.03-42) 4.5.2"
ARM GAS  /tmp/ccYhxF2d.s 			page 58


DEFINED SYMBOLS
                            *ABS*:00000000 chmboxes.c
     /tmp/ccYhxF2d.s:24     .text.chMBInit:00000000 $t
     /tmp/ccYhxF2d.s:29     .text.chMBInit:00000000 chMBInit
     /tmp/ccYhxF2d.s:87     .text.chMBInit:0000003c $d
     /tmp/ccYhxF2d.s:92     .text.chMBReset:00000000 $t
     /tmp/ccYhxF2d.s:97     .text.chMBReset:00000000 chMBReset
     /tmp/ccYhxF2d.s:154    .text.chMBReset:00000040 $d
     /tmp/ccYhxF2d.s:159    .text.chMBPostS:00000000 $t
     /tmp/ccYhxF2d.s:164    .text.chMBPostS:00000000 chMBPostS
     /tmp/ccYhxF2d.s:230    .text.chMBPostS:00000048 $d
     /tmp/ccYhxF2d.s:235    .text.chMBPost:00000000 $t
     /tmp/ccYhxF2d.s:240    .text.chMBPost:00000000 chMBPost
     /tmp/ccYhxF2d.s:286    .text.chMBPostI:00000000 $t
     /tmp/ccYhxF2d.s:291    .text.chMBPostI:00000000 chMBPostI
     /tmp/ccYhxF2d.s:355    .text.chMBPostI:00000044 $d
     /tmp/ccYhxF2d.s:360    .text.chMBPostAheadS:00000000 $t
     /tmp/ccYhxF2d.s:365    .text.chMBPostAheadS:00000000 chMBPostAheadS
     /tmp/ccYhxF2d.s:431    .text.chMBPostAheadS:00000048 $d
     /tmp/ccYhxF2d.s:436    .text.chMBPostAhead:00000000 $t
     /tmp/ccYhxF2d.s:441    .text.chMBPostAhead:00000000 chMBPostAhead
     /tmp/ccYhxF2d.s:487    .text.chMBPostAheadI:00000000 $t
     /tmp/ccYhxF2d.s:492    .text.chMBPostAheadI:00000000 chMBPostAheadI
     /tmp/ccYhxF2d.s:556    .text.chMBPostAheadI:00000044 $d
     /tmp/ccYhxF2d.s:561    .text.chMBFetchS:00000000 $t
     /tmp/ccYhxF2d.s:566    .text.chMBFetchS:00000000 chMBFetchS
     /tmp/ccYhxF2d.s:634    .text.chMBFetchS:00000048 $d
     /tmp/ccYhxF2d.s:639    .text.chMBFetch:00000000 $t
     /tmp/ccYhxF2d.s:644    .text.chMBFetch:00000000 chMBFetch
     /tmp/ccYhxF2d.s:690    .text.chMBFetchI:00000000 $t
     /tmp/ccYhxF2d.s:695    .text.chMBFetchI:00000000 chMBFetchI
     /tmp/ccYhxF2d.s:761    .text.chMBFetchI:00000044 $d
                     .debug_frame:00000010 $d

UNDEFINED SYMBOLS
chDbgPanic
chSemInit
_port_lock
dbg_check_lock
chSemResetI
chSchRescheduleS
dbg_check_unlock
_port_unlock
chDbgCheckClassS
chSemWaitTimeoutS
chSemSignalI
chDbgCheckClassI
