ARM GAS  /tmp/ccYhxF2d.s 			page 1


   1              		.syntax unified
   2              		.cpu cortex-m3
   3              		.fpu softvfp
   4              		.eabi_attribute 20, 1
   5              		.eabi_attribute 21, 1
   6              		.eabi_attribute 23, 3
   7              		.eabi_attribute 24, 1
   8              		.eabi_attribute 25, 1
   9              		.eabi_attribute 26, 1
  10              		.eabi_attribute 30, 4
  11              		.eabi_attribute 18, 4
  12              		.thumb
  13              		.file	"chmboxes.c"
  20 0000 D8020000 		.text
  20      02005001 
  20      00000201 
  20      FB0E0D00 
  20      01010101 
  21              	.Ltext0:
  22              		.cfi_sections	.debug_frame
  23              		.section	.text.chMBInit,"ax",%progbits
  24              		.align	1
  25              		.global	chMBInit
  26              		.thumb
  27              		.thumb_func
  28              		.type	chMBInit, %function
  29              	chMBInit:
  30              	.LFB0:
  31              		.file 1 "../chibios/os/kernel/src/chmboxes.c"
  32              		.loc 1 72 0
  33              		.cfi_startproc
  34              		@ args = 0, pretend = 0, frame = 0
  35              		@ frame_needed = 0, uses_anonymous_args = 0
  36              	.LVL0:
  37 0000 70B5     		push	{r4, r5, r6, lr}
  38              	.LCFI0:
  39              		.cfi_def_cfa_offset 16
  40              		.loc 1 72 0
  41 0002 0D46     		mov	r5, r1
  42              		.cfi_offset 14, -4
  43              		.cfi_offset 6, -8
  44              		.cfi_offset 5, -12
  45              		.cfi_offset 4, -16
  46 0004 1646     		mov	r6, r2
  47              		.loc 1 74 0
  48 0006 0446     		mov	r4, r0
  49 0008 10B1     		cbz	r0, .L2
  50              		.loc 1 74 0 is_stmt 0 discriminator 2
  51 000a 09B1     		cbz	r1, .L2
  52              		.loc 1 74 0 discriminator 3
  53 000c 002A     		cmp	r2, #0
ARM GAS  /tmp/ccYhxF2d.s 			page 2


  54 000e 02DC     		bgt	.L3
  55              	.L2:
  56              		.loc 1 74 0 discriminator 1
  57 0010 0A48     		ldr	r0, .L4
  58              	.LVL1:
  59 0012 FFF7FEFF 		bl	chDbgPanic
  60              	.LVL2:
  61              	.L3:
  62              		.loc 1 76 0 is_stmt 1
  63 0016 E560     		str	r5, [r4, #12]
  64 0018 A560     		str	r5, [r4, #8]
  65 001a 2560     		str	r5, [r4, #0]
  66              		.loc 1 77 0
  67 001c 05EB8605 		add	r5, r5, r6, lsl #2
  68              	.LVL3:
  69              		.loc 1 78 0
  70 0020 04F11C00 		add	r0, r4, #28
  71 0024 3146     		mov	r1, r6
  72              		.loc 1 77 0
  73 0026 6560     		str	r5, [r4, #4]
  74              		.loc 1 78 0
  75 0028 FFF7FEFF 		bl	chSemInit
  76              	.LVL4:
  77              		.loc 1 79 0
  78 002c 04F11000 		add	r0, r4, #16
  79 0030 0021     		movs	r1, #0
  80              		.loc 1 80 0
  81 0032 BDE87040 		pop	{r4, r5, r6, lr}
  82              		.loc 1 79 0
  83 0036 FFF7FEBF 		b	chSemInit
  84              	.L5:
  85 003a 00BF     		.align	2
  86              	.L4:
  87 003c 00000000 		.word	.LC0
  88              		.cfi_endproc
  89              	.LFE0:
  90              		.size	chMBInit, .-chMBInit
  91              		.section	.text.chMBReset,"ax",%progbits
  92              		.align	1
  93              		.global	chMBReset
  94              		.thumb
  95              		.thumb_func
  96              		.type	chMBReset, %function
  97              	chMBReset:
  98              	.LFB1:
  99              		.loc 1 91 0
 100              		.cfi_startproc
 101              		@ args = 0, pretend = 0, frame = 0
 102              		@ frame_needed = 0, uses_anonymous_args = 0
 103              	.LVL5:
 104 0000 10B5     		push	{r4, lr}
 105              	.LCFI1:
 106              		.cfi_def_cfa_offset 8
 107              		.loc 1 93 0
 108 0002 0446     		mov	r4, r0
 109              		.cfi_offset 14, -4
 110              		.cfi_offset 4, -8
ARM GAS  /tmp/ccYhxF2d.s 			page 3


 111 0004 10B9     		cbnz	r0, .L7
 112              		.loc 1 93 0 is_stmt 0 discriminator 1
 113 0006 0E48     		ldr	r0, .L8
 114              	.LVL6:
 115 0008 FFF7FEFF 		bl	chDbgPanic
 116              	.L7:
 117              		.loc 1 95 0 is_stmt 1
 118              	@ 95 "../chibios/os/kernel/src/chmboxes.c" 1
 119 000c FFF7FEFF 		bl      _port_lock
 120              	@ 0 "" 2
 121              		.thumb
 122 0010 FFF7FEFF 		bl	dbg_check_lock
 123              		.loc 1 96 0
 124 0014 2368     		ldr	r3, [r4, #0]
 125              		.loc 1 97 0
 126 0016 6168     		ldr	r1, [r4, #4]
 127              		.loc 1 96 0
 128 0018 E360     		str	r3, [r4, #12]
 129              		.loc 1 97 0
 130 001a C91A     		subs	r1, r1, r3
 131              		.loc 1 96 0
 132 001c A360     		str	r3, [r4, #8]
 133              		.loc 1 97 0
 134 001e 04F11C00 		add	r0, r4, #28
 135 0022 8910     		asrs	r1, r1, #2
 136 0024 FFF7FEFF 		bl	chSemResetI
 137              		.loc 1 98 0
 138 0028 04F11000 		add	r0, r4, #16
 139 002c 0021     		movs	r1, #0
 140 002e FFF7FEFF 		bl	chSemResetI
 141              		.loc 1 99 0
 142 0032 FFF7FEFF 		bl	chSchRescheduleS
 143              		.loc 1 100 0
 144 0036 FFF7FEFF 		bl	dbg_check_unlock
 145              	@ 100 "../chibios/os/kernel/src/chmboxes.c" 1
 146 003a FFF7FEFF 		bl      _port_unlock
 147              	@ 0 "" 2
 148              		.loc 1 101 0
 149              		.thumb
 150 003e 10BD     		pop	{r4, pc}
 151              	.L9:
 152              		.align	2
 153              	.L8:
 154 0040 0D000000 		.word	.LC1
 155              		.cfi_endproc
 156              	.LFE1:
 157              		.size	chMBReset, .-chMBReset
 158              		.section	.text.chMBPostS,"ax",%progbits
 159              		.align	1
 160              		.global	chMBPostS
 161              		.thumb
 162              		.thumb_func
 163              		.type	chMBPostS, %function
 164              	chMBPostS:
 165              	.LFB3:
 166              		.loc 1 150 0
 167              		.cfi_startproc
ARM GAS  /tmp/ccYhxF2d.s 			page 4


 168              		@ args = 0, pretend = 0, frame = 0
 169              		@ frame_needed = 0, uses_anonymous_args = 0
 170              	.LVL7:
 171 0000 70B5     		push	{r4, r5, r6, lr}
 172              	.LCFI2:
 173              		.cfi_def_cfa_offset 16
 174              		.loc 1 150 0
 175 0002 0446     		mov	r4, r0
 176              		.cfi_offset 14, -4
 177              		.cfi_offset 6, -8
 178              		.cfi_offset 5, -12
 179              		.cfi_offset 4, -16
 180 0004 0D46     		mov	r5, r1
 181 0006 1646     		mov	r6, r2
 182              		.loc 1 153 0
 183 0008 FFF7FEFF 		bl	chDbgCheckClassS
 184              	.LVL8:
 185              		.loc 1 154 0
 186 000c 14B9     		cbnz	r4, .L11
 187              		.loc 1 154 0 is_stmt 0 discriminator 1
 188 000e 0E48     		ldr	r0, .L14
 189 0010 FFF7FEFF 		bl	chDbgPanic
 190              	.L11:
 191              		.loc 1 156 0 is_stmt 1
 192 0014 3146     		mov	r1, r6
 193 0016 04F11C00 		add	r0, r4, #28
 194 001a FFF7FEFF 		bl	chSemWaitTimeoutS
 195              	.LVL9:
 196              		.loc 1 157 0
 197 001e 0646     		mov	r6, r0
 198              	.LVL10:
 199 0020 78B9     		cbnz	r0, .L12
 200              		.loc 1 158 0
 201 0022 A368     		ldr	r3, [r4, #8]
 202              		.loc 1 159 0
 203 0024 6268     		ldr	r2, [r4, #4]
 204              		.loc 1 158 0
 205 0026 43F8045B 		str	r5, [r3], #4
 206              		.loc 1 159 0
 207 002a 9342     		cmp	r3, r2
 208              		.loc 1 158 0
 209 002c A360     		str	r3, [r4, #8]
 210              		.loc 1 160 0
 211 002e 28BF     		it	cs
 212 0030 2368     		ldrcs	r3, [r4, #0]
 213              		.loc 1 161 0
 214 0032 04F11000 		add	r0, r4, #16
 215              	.LVL11:
 216              		.loc 1 160 0
 217 0036 28BF     		it	cs
 218 0038 A360     		strcs	r3, [r4, #8]
 219              		.loc 1 161 0
 220 003a FFF7FEFF 		bl	chSemSignalI
 221              		.loc 1 162 0
 222 003e FFF7FEFF 		bl	chSchRescheduleS
 223              	.L12:
 224              		.loc 1 165 0
ARM GAS  /tmp/ccYhxF2d.s 			page 5


 225 0042 3046     		mov	r0, r6
 226 0044 70BD     		pop	{r4, r5, r6, pc}
 227              	.L15:
 228 0046 00BF     		.align	2
 229              	.L14:
 230 0048 1B000000 		.word	.LC2
 231              		.cfi_endproc
 232              	.LFE3:
 233              		.size	chMBPostS, .-chMBPostS
 234              		.section	.text.chMBPost,"ax",%progbits
 235              		.align	1
 236              		.global	chMBPost
 237              		.thumb
 238              		.thumb_func
 239              		.type	chMBPost, %function
 240              	chMBPost:
 241              	.LFB2:
 242              		.loc 1 122 0
 243              		.cfi_startproc
 244              		@ args = 0, pretend = 0, frame = 0
 245              		@ frame_needed = 0, uses_anonymous_args = 0
 246              	.LVL12:
 247 0000 70B5     		push	{r4, r5, r6, lr}
 248              	.LCFI3:
 249              		.cfi_def_cfa_offset 16
 250              		.loc 1 122 0
 251 0002 0646     		mov	r6, r0
 252              		.cfi_offset 14, -4
 253              		.cfi_offset 6, -8
 254              		.cfi_offset 5, -12
 255              		.cfi_offset 4, -16
 256 0004 0D46     		mov	r5, r1
 257 0006 1446     		mov	r4, r2
 258              		.loc 1 125 0
 259              	@ 125 "../chibios/os/kernel/src/chmboxes.c" 1
 260 0008 FFF7FEFF 		bl      _port_lock
 261              	@ 0 "" 2
 262              		.thumb
 263 000c FFF7FEFF 		bl	dbg_check_lock
 264              	.LVL13:
 265              		.loc 1 126 0
 266 0010 2246     		mov	r2, r4
 267 0012 2946     		mov	r1, r5
 268 0014 3046     		mov	r0, r6
 269 0016 FFF7FEFF 		bl	chMBPostS
 270 001a 0446     		mov	r4, r0
 271              	.LVL14:
 272              		.loc 1 127 0
 273 001c FFF7FEFF 		bl	dbg_check_unlock
 274              	.LVL15:
 275              	@ 127 "../chibios/os/kernel/src/chmboxes.c" 1
 276 0020 FFF7FEFF 		bl      _port_unlock
 277              	@ 0 "" 2
 278              		.loc 1 129 0
 279              		.thumb
 280 0024 2046     		mov	r0, r4
 281 0026 70BD     		pop	{r4, r5, r6, pc}
ARM GAS  /tmp/ccYhxF2d.s 			page 6


 282              		.cfi_endproc
 283              	.LFE2:
 284              		.size	chMBPost, .-chMBPost
 285              		.section	.text.chMBPostI,"ax",%progbits
 286              		.align	1
 287              		.global	chMBPostI
 288              		.thumb
 289              		.thumb_func
 290              		.type	chMBPostI, %function
 291              	chMBPostI:
 292              	.LFB4:
 293              		.loc 1 181 0
 294              		.cfi_startproc
 295              		@ args = 0, pretend = 0, frame = 0
 296              		@ frame_needed = 0, uses_anonymous_args = 0
 297              	.LVL16:
 298 0000 38B5     		push	{r3, r4, r5, lr}
 299              	.LCFI4:
 300              		.cfi_def_cfa_offset 16
 301              		.loc 1 181 0
 302 0002 0446     		mov	r4, r0
 303              		.cfi_offset 14, -4
 304              		.cfi_offset 5, -8
 305              		.cfi_offset 4, -12
 306              		.cfi_offset 3, -16
 307 0004 0D46     		mov	r5, r1
 308              		.loc 1 183 0
 309 0006 FFF7FEFF 		bl	chDbgCheckClassI
 310              	.LVL17:
 311              		.loc 1 184 0
 312 000a 14B9     		cbnz	r4, .L18
 313              		.loc 1 184 0 is_stmt 0 discriminator 1
 314 000c 0D48     		ldr	r0, .L22
 315 000e FFF7FEFF 		bl	chDbgPanic
 316              	.L18:
 317              		.loc 1 186 0 is_stmt 1
 318 0012 636A     		ldr	r3, [r4, #36]
 319 0014 002B     		cmp	r3, #0
 320 0016 11DD     		ble	.L21
 321              		.loc 1 188 0
 322 0018 013B     		subs	r3, r3, #1
 323 001a 6362     		str	r3, [r4, #36]
 324              		.loc 1 189 0
 325 001c A368     		ldr	r3, [r4, #8]
 326              		.loc 1 190 0
 327 001e 6268     		ldr	r2, [r4, #4]
 328              		.loc 1 189 0
 329 0020 43F8045B 		str	r5, [r3], #4
 330              		.loc 1 190 0
 331 0024 9342     		cmp	r3, r2
 332              		.loc 1 189 0
 333 0026 A360     		str	r3, [r4, #8]
 334              		.loc 1 191 0
 335 0028 28BF     		it	cs
 336 002a 2368     		ldrcs	r3, [r4, #0]
 337              		.loc 1 192 0
 338 002c 04F11000 		add	r0, r4, #16
ARM GAS  /tmp/ccYhxF2d.s 			page 7


 339              		.loc 1 191 0
 340 0030 28BF     		it	cs
 341 0032 A360     		strcs	r3, [r4, #8]
 342              		.loc 1 192 0
 343 0034 FFF7FEFF 		bl	chSemSignalI
 344              		.loc 1 193 0
 345 0038 0020     		movs	r0, #0
 346 003a 38BD     		pop	{r3, r4, r5, pc}
 347              	.L21:
 348              		.loc 1 187 0
 349 003c 4FF0FF30 		mov	r0, #-1
 350              		.loc 1 194 0
 351 0040 38BD     		pop	{r3, r4, r5, pc}
 352              	.L23:
 353 0042 00BF     		.align	2
 354              	.L22:
 355 0044 29000000 		.word	.LC3
 356              		.cfi_endproc
 357              	.LFE4:
 358              		.size	chMBPostI, .-chMBPostI
 359              		.section	.text.chMBPostAheadS,"ax",%progbits
 360              		.align	1
 361              		.global	chMBPostAheadS
 362              		.thumb
 363              		.thumb_func
 364              		.type	chMBPostAheadS, %function
 365              	chMBPostAheadS:
 366              	.LFB6:
 367              		.loc 1 243 0
 368              		.cfi_startproc
 369              		@ args = 0, pretend = 0, frame = 0
 370              		@ frame_needed = 0, uses_anonymous_args = 0
 371              	.LVL18:
 372 0000 70B5     		push	{r4, r5, r6, lr}
 373              	.LCFI5:
 374              		.cfi_def_cfa_offset 16
 375              		.loc 1 243 0
 376 0002 0446     		mov	r4, r0
 377              		.cfi_offset 14, -4
 378              		.cfi_offset 6, -8
 379              		.cfi_offset 5, -12
 380              		.cfi_offset 4, -16
 381 0004 0D46     		mov	r5, r1
 382 0006 1646     		mov	r6, r2
 383              		.loc 1 246 0
 384 0008 FFF7FEFF 		bl	chDbgCheckClassS
 385              	.LVL19:
 386              		.loc 1 247 0
 387 000c 14B9     		cbnz	r4, .L25
 388              		.loc 1 247 0 is_stmt 0 discriminator 1
 389 000e 0E48     		ldr	r0, .L28
 390 0010 FFF7FEFF 		bl	chDbgPanic
 391              	.L25:
 392              		.loc 1 249 0 is_stmt 1
 393 0014 3146     		mov	r1, r6
 394 0016 04F11C00 		add	r0, r4, #28
 395 001a FFF7FEFF 		bl	chSemWaitTimeoutS
ARM GAS  /tmp/ccYhxF2d.s 			page 8


 396              	.LVL20:
 397              		.loc 1 250 0
 398 001e 0646     		mov	r6, r0
 399              	.LVL21:
 400 0020 80B9     		cbnz	r0, .L26
 401              		.loc 1 251 0
 402 0022 E368     		ldr	r3, [r4, #12]
 403 0024 2268     		ldr	r2, [r4, #0]
 404 0026 043B     		subs	r3, r3, #4
 405 0028 9342     		cmp	r3, r2
 406 002a E360     		str	r3, [r4, #12]
 407 002c 02D2     		bcs	.L27
 408              		.loc 1 252 0
 409 002e 6368     		ldr	r3, [r4, #4]
 410 0030 043B     		subs	r3, r3, #4
 411 0032 E360     		str	r3, [r4, #12]
 412              	.L27:
 413              		.loc 1 253 0
 414 0034 E368     		ldr	r3, [r4, #12]
 415              		.loc 1 254 0
 416 0036 04F11000 		add	r0, r4, #16
 417              	.LVL22:
 418              		.loc 1 253 0
 419 003a 1D60     		str	r5, [r3, #0]
 420              		.loc 1 254 0
 421 003c FFF7FEFF 		bl	chSemSignalI
 422              		.loc 1 255 0
 423 0040 FFF7FEFF 		bl	chSchRescheduleS
 424              	.L26:
 425              		.loc 1 258 0
 426 0044 3046     		mov	r0, r6
 427 0046 70BD     		pop	{r4, r5, r6, pc}
 428              	.L29:
 429              		.align	2
 430              	.L28:
 431 0048 37000000 		.word	.LC4
 432              		.cfi_endproc
 433              	.LFE6:
 434              		.size	chMBPostAheadS, .-chMBPostAheadS
 435              		.section	.text.chMBPostAhead,"ax",%progbits
 436              		.align	1
 437              		.global	chMBPostAhead
 438              		.thumb
 439              		.thumb_func
 440              		.type	chMBPostAhead, %function
 441              	chMBPostAhead:
 442              	.LFB5:
 443              		.loc 1 215 0
 444              		.cfi_startproc
 445              		@ args = 0, pretend = 0, frame = 0
 446              		@ frame_needed = 0, uses_anonymous_args = 0
 447              	.LVL23:
 448 0000 70B5     		push	{r4, r5, r6, lr}
 449              	.LCFI6:
 450              		.cfi_def_cfa_offset 16
 451              		.loc 1 215 0
 452 0002 0646     		mov	r6, r0
ARM GAS  /tmp/ccYhxF2d.s 			page 9


 453              		.cfi_offset 14, -4
 454              		.cfi_offset 6, -8
 455              		.cfi_offset 5, -12
 456              		.cfi_offset 4, -16
 457 0004 0D46     		mov	r5, r1
 458 0006 1446     		mov	r4, r2
 459              		.loc 1 218 0
 460              	@ 218 "../chibios/os/kernel/src/chmboxes.c" 1
 461 0008 FFF7FEFF 		bl      _port_lock
 462              	@ 0 "" 2
 463              		.thumb
 464 000c FFF7FEFF 		bl	dbg_check_lock
 465              	.LVL24:
 466              		.loc 1 219 0
 467 0010 2246     		mov	r2, r4
 468 0012 2946     		mov	r1, r5
 469 0014 3046     		mov	r0, r6
 470 0016 FFF7FEFF 		bl	chMBPostAheadS
 471 001a 0446     		mov	r4, r0
 472              	.LVL25:
 473              		.loc 1 220 0
 474 001c FFF7FEFF 		bl	dbg_check_unlock
 475              	.LVL26:
 476              	@ 220 "../chibios/os/kernel/src/chmboxes.c" 1
 477 0020 FFF7FEFF 		bl      _port_unlock
 478              	@ 0 "" 2
 479              		.loc 1 222 0
 480              		.thumb
 481 0024 2046     		mov	r0, r4
 482 0026 70BD     		pop	{r4, r5, r6, pc}
 483              		.cfi_endproc
 484              	.LFE5:
 485              		.size	chMBPostAhead, .-chMBPostAhead
 486              		.section	.text.chMBPostAheadI,"ax",%progbits
 487              		.align	1
 488              		.global	chMBPostAheadI
 489              		.thumb
 490              		.thumb_func
 491              		.type	chMBPostAheadI, %function
 492              	chMBPostAheadI:
 493              	.LFB7:
 494              		.loc 1 274 0
 495              		.cfi_startproc
 496              		@ args = 0, pretend = 0, frame = 0
 497              		@ frame_needed = 0, uses_anonymous_args = 0
 498              	.LVL27:
 499 0000 38B5     		push	{r3, r4, r5, lr}
 500              	.LCFI7:
 501              		.cfi_def_cfa_offset 16
 502              		.loc 1 274 0
 503 0002 0446     		mov	r4, r0
 504              		.cfi_offset 14, -4
 505              		.cfi_offset 5, -8
 506              		.cfi_offset 4, -12
 507              		.cfi_offset 3, -16
 508 0004 0D46     		mov	r5, r1
 509              		.loc 1 276 0
ARM GAS  /tmp/ccYhxF2d.s 			page 10


 510 0006 FFF7FEFF 		bl	chDbgCheckClassI
 511              	.LVL28:
 512              		.loc 1 277 0
 513 000a 14B9     		cbnz	r4, .L32
 514              		.loc 1 277 0 is_stmt 0 discriminator 1
 515 000c 0D48     		ldr	r0, .L36
 516 000e FFF7FEFF 		bl	chDbgPanic
 517              	.L32:
 518              		.loc 1 279 0 is_stmt 1
 519 0012 636A     		ldr	r3, [r4, #36]
 520 0014 002B     		cmp	r3, #0
 521 0016 12DD     		ble	.L35
 522              		.loc 1 281 0
 523 0018 013B     		subs	r3, r3, #1
 524 001a 6362     		str	r3, [r4, #36]
 525              		.loc 1 282 0
 526 001c E368     		ldr	r3, [r4, #12]
 527 001e 2268     		ldr	r2, [r4, #0]
 528 0020 043B     		subs	r3, r3, #4
 529 0022 9342     		cmp	r3, r2
 530 0024 E360     		str	r3, [r4, #12]
 531 0026 02D2     		bcs	.L34
 532              		.loc 1 283 0
 533 0028 6368     		ldr	r3, [r4, #4]
 534 002a 043B     		subs	r3, r3, #4
 535 002c E360     		str	r3, [r4, #12]
 536              	.L34:
 537              		.loc 1 284 0
 538 002e E368     		ldr	r3, [r4, #12]
 539              		.loc 1 285 0
 540 0030 04F11000 		add	r0, r4, #16
 541              		.loc 1 284 0
 542 0034 1D60     		str	r5, [r3, #0]
 543              		.loc 1 285 0
 544 0036 FFF7FEFF 		bl	chSemSignalI
 545              		.loc 1 286 0
 546 003a 0020     		movs	r0, #0
 547 003c 38BD     		pop	{r3, r4, r5, pc}
 548              	.L35:
 549              		.loc 1 280 0
 550 003e 4FF0FF30 		mov	r0, #-1
 551              		.loc 1 287 0
 552 0042 38BD     		pop	{r3, r4, r5, pc}
 553              	.L37:
 554              		.align	2
 555              	.L36:
 556 0044 4A000000 		.word	.LC5
 557              		.cfi_endproc
 558              	.LFE7:
 559              		.size	chMBPostAheadI, .-chMBPostAheadI
 560              		.section	.text.chMBFetchS,"ax",%progbits
 561              		.align	1
 562              		.global	chMBFetchS
 563              		.thumb
 564              		.thumb_func
 565              		.type	chMBFetchS, %function
 566              	chMBFetchS:
ARM GAS  /tmp/ccYhxF2d.s 			page 11


 567              	.LFB9:
 568              		.loc 1 336 0
 569              		.cfi_startproc
 570              		@ args = 0, pretend = 0, frame = 0
 571              		@ frame_needed = 0, uses_anonymous_args = 0
 572              	.LVL29:
 573 0000 70B5     		push	{r4, r5, r6, lr}
 574              	.LCFI8:
 575              		.cfi_def_cfa_offset 16
 576              		.loc 1 336 0
 577 0002 0446     		mov	r4, r0
 578              		.cfi_offset 14, -4
 579              		.cfi_offset 6, -8
 580              		.cfi_offset 5, -12
 581              		.cfi_offset 4, -16
 582 0004 0D46     		mov	r5, r1
 583 0006 1646     		mov	r6, r2
 584              		.loc 1 339 0
 585 0008 FFF7FEFF 		bl	chDbgCheckClassS
 586              	.LVL30:
 587              		.loc 1 340 0
 588 000c 04B1     		cbz	r4, .L39
 589              		.loc 1 340 0 is_stmt 0 discriminator 2
 590 000e 15B9     		cbnz	r5, .L40
 591              	.L39:
 592              		.loc 1 340 0 discriminator 1
 593 0010 0D48     		ldr	r0, .L43
 594 0012 FFF7FEFF 		bl	chDbgPanic
 595              	.L40:
 596              		.loc 1 342 0 is_stmt 1
 597 0016 3146     		mov	r1, r6
 598 0018 04F11000 		add	r0, r4, #16
 599 001c FFF7FEFF 		bl	chSemWaitTimeoutS
 600              	.LVL31:
 601              		.loc 1 343 0
 602 0020 0646     		mov	r6, r0
 603              	.LVL32:
 604 0022 78B9     		cbnz	r0, .L41
 605              		.loc 1 344 0
 606 0024 E368     		ldr	r3, [r4, #12]
 607              		.loc 1 347 0
 608 0026 04F11C00 		add	r0, r4, #28
 609              	.LVL33:
 610              		.loc 1 344 0
 611 002a 53F8042B 		ldr	r2, [r3], #4
 612 002e 2A60     		str	r2, [r5, #0]
 613              		.loc 1 345 0
 614 0030 6268     		ldr	r2, [r4, #4]
 615              		.loc 1 344 0
 616 0032 E360     		str	r3, [r4, #12]
 617              		.loc 1 345 0
 618 0034 9342     		cmp	r3, r2
 619              		.loc 1 346 0
 620 0036 24BF     		itt	cs
 621 0038 2368     		ldrcs	r3, [r4, #0]
 622 003a E360     		strcs	r3, [r4, #12]
 623              		.loc 1 347 0
ARM GAS  /tmp/ccYhxF2d.s 			page 12


 624 003c FFF7FEFF 		bl	chSemSignalI
 625              		.loc 1 348 0
 626 0040 FFF7FEFF 		bl	chSchRescheduleS
 627              	.L41:
 628              		.loc 1 351 0
 629 0044 3046     		mov	r0, r6
 630 0046 70BD     		pop	{r4, r5, r6, pc}
 631              	.L44:
 632              		.align	2
 633              	.L43:
 634 0048 5D000000 		.word	.LC6
 635              		.cfi_endproc
 636              	.LFE9:
 637              		.size	chMBFetchS, .-chMBFetchS
 638              		.section	.text.chMBFetch,"ax",%progbits
 639              		.align	1
 640              		.global	chMBFetch
 641              		.thumb
 642              		.thumb_func
 643              		.type	chMBFetch, %function
 644              	chMBFetch:
 645              	.LFB8:
 646              		.loc 1 308 0
 647              		.cfi_startproc
 648              		@ args = 0, pretend = 0, frame = 0
 649              		@ frame_needed = 0, uses_anonymous_args = 0
 650              	.LVL34:
 651 0000 70B5     		push	{r4, r5, r6, lr}
 652              	.LCFI9:
 653              		.cfi_def_cfa_offset 16
 654              		.loc 1 308 0
 655 0002 0646     		mov	r6, r0
 656              		.cfi_offset 14, -4
 657              		.cfi_offset 6, -8
 658              		.cfi_offset 5, -12
 659              		.cfi_offset 4, -16
 660 0004 0D46     		mov	r5, r1
 661 0006 1446     		mov	r4, r2
 662              		.loc 1 311 0
 663              	@ 311 "../chibios/os/kernel/src/chmboxes.c" 1
 664 0008 FFF7FEFF 		bl      _port_lock
 665              	@ 0 "" 2
 666              		.thumb
 667 000c FFF7FEFF 		bl	dbg_check_lock
 668              	.LVL35:
 669              		.loc 1 312 0
 670 0010 2246     		mov	r2, r4
 671 0012 2946     		mov	r1, r5
 672 0014 3046     		mov	r0, r6
 673 0016 FFF7FEFF 		bl	chMBFetchS
 674 001a 0446     		mov	r4, r0
 675              	.LVL36:
 676              		.loc 1 313 0
 677 001c FFF7FEFF 		bl	dbg_check_unlock
 678              	.LVL37:
 679              	@ 313 "../chibios/os/kernel/src/chmboxes.c" 1
 680 0020 FFF7FEFF 		bl      _port_unlock
ARM GAS  /tmp/ccYhxF2d.s 			page 13


 681              	@ 0 "" 2
 682              		.loc 1 315 0
 683              		.thumb
 684 0024 2046     		mov	r0, r4
 685 0026 70BD     		pop	{r4, r5, r6, pc}
 686              		.cfi_endproc
 687              	.LFE8:
 688              		.size	chMBFetch, .-chMBFetch
 689              		.section	.text.chMBFetchI,"ax",%progbits
 690              		.align	1
 691              		.global	chMBFetchI
 692              		.thumb
 693              		.thumb_func
 694              		.type	chMBFetchI, %function
 695              	chMBFetchI:
 696              	.LFB10:
 697              		.loc 1 367 0
 698              		.cfi_startproc
 699              		@ args = 0, pretend = 0, frame = 0
 700              		@ frame_needed = 0, uses_anonymous_args = 0
 701              	.LVL38:
 702 0000 38B5     		push	{r3, r4, r5, lr}
 703              	.LCFI10:
 704              		.cfi_def_cfa_offset 16
 705              		.loc 1 367 0
 706 0002 0446     		mov	r4, r0
 707              		.cfi_offset 14, -4
 708              		.cfi_offset 5, -8
 709              		.cfi_offset 4, -12
 710              		.cfi_offset 3, -16
 711 0004 0D46     		mov	r5, r1
 712              		.loc 1 369 0
 713 0006 FFF7FEFF 		bl	chDbgCheckClassI
 714              	.LVL39:
 715              		.loc 1 370 0
 716 000a 04B1     		cbz	r4, .L47
 717              		.loc 1 370 0 is_stmt 0 discriminator 2
 718 000c 15B9     		cbnz	r5, .L48
 719              	.L47:
 720              		.loc 1 370 0 discriminator 1
 721 000e 0D48     		ldr	r0, .L52
 722 0010 FFF7FEFF 		bl	chDbgPanic
 723              	.L48:
 724              		.loc 1 372 0 is_stmt 1
 725 0014 A369     		ldr	r3, [r4, #24]
 726 0016 002B     		cmp	r3, #0
 727 0018 11DD     		ble	.L51
 728              		.loc 1 374 0
 729 001a 013B     		subs	r3, r3, #1
 730 001c A361     		str	r3, [r4, #24]
 731              		.loc 1 375 0
 732 001e E368     		ldr	r3, [r4, #12]
 733              		.loc 1 378 0
 734 0020 04F11C00 		add	r0, r4, #28
 735              		.loc 1 375 0
 736 0024 53F8042B 		ldr	r2, [r3], #4
 737 0028 2A60     		str	r2, [r5, #0]
ARM GAS  /tmp/ccYhxF2d.s 			page 14


 738              		.loc 1 376 0
 739 002a 6268     		ldr	r2, [r4, #4]
 740              		.loc 1 375 0
 741 002c E360     		str	r3, [r4, #12]
 742              		.loc 1 376 0
 743 002e 9342     		cmp	r3, r2
 744              		.loc 1 377 0
 745 0030 24BF     		itt	cs
 746 0032 2368     		ldrcs	r3, [r4, #0]
 747 0034 E360     		strcs	r3, [r4, #12]
 748              		.loc 1 378 0
 749 0036 FFF7FEFF 		bl	chSemSignalI
 750              		.loc 1 379 0
 751 003a 0020     		movs	r0, #0
 752 003c 38BD     		pop	{r3, r4, r5, pc}
 753              	.L51:
 754              		.loc 1 373 0
 755 003e 4FF0FF30 		mov	r0, #-1
 756              		.loc 1 380 0
 757 0042 38BD     		pop	{r3, r4, r5, pc}
 758              	.L53:
 759              		.align	2
 760              	.L52:
 761 0044 6C000000 		.word	.LC7
 762              		.cfi_endproc
 763              	.LFE10:
 764              		.size	chMBFetchI, .-chMBFetchI
 765              		.section	.rodata.str1.1,"aMS",%progbits,1
 766              	.LC0:
 767 0000 2263684D 		.ascii	"\"chMBInit\"()\000"
 767      42496E69 
 767      74222829 
 767      00
 768              	.LC1:
 769 000d 2263684D 		.ascii	"\"chMBReset\"()\000"
 769      42526573 
 769      65742228 
 769      2900
 770              	.LC2:
 771 001b 2263684D 		.ascii	"\"chMBPostS\"()\000"
 771      42506F73 
 771      74532228 
 771      2900
 772              	.LC3:
 773 0029 2263684D 		.ascii	"\"chMBPostI\"()\000"
 773      42506F73 
 773      74492228 
 773      2900
 774              	.LC4:
 775 0037 2263684D 		.ascii	"\"chMBPostAheadS\"()\000"
 775      42506F73 
 775      74416865 
 775      61645322 
 775      282900
 776              	.LC5:
 777 004a 2263684D 		.ascii	"\"chMBPostAheadI\"()\000"
 777      42506F73 
ARM GAS  /tmp/ccYhxF2d.s 			page 15


 777      74416865 
 777      61644922 
 777      282900
 778              	.LC6:
 779 005d 2263684D 		.ascii	"\"chMBFetchS\"()\000"
 779      42466574 
 779      63685322 
 779      282900
 780              	.LC7:
 781 006c 2263684D 		.ascii	"\"chMBFetchI\"()\000"
 781      42466574 
 781      63684922 
 781      282900
 782              		.text
 783              	.Letext0: