ARM GAS  /tmp/ccSTBfIw.s 			page 1


   1              		.syntax unified
   2              		.cpu cortex-m3
   3              		.fpu softvfp
   4              		.eabi_attribute 20, 1
   5              		.eabi_attribute 21, 1
   6              		.eabi_attribute 23, 3
   7              		.eabi_attribute 24, 1
   8              		.eabi_attribute 25, 1
   9              		.eabi_attribute 26, 1
  10              		.eabi_attribute 30, 4
  11              		.eabi_attribute 18, 4
  12              		.thumb
  13              		.file	"chmempools.c"
  20 0000 75010000 		.text
  20      0200DB00 
  20      00000201 
  20      FB0E0D00 
  20      01010101 
  21              	.Ltext0:
  22              		.cfi_sections	.debug_frame
  23              		.section	.text.chPoolInit,"ax",%progbits
  24              		.align	1
  25              		.global	chPoolInit
  26              		.thumb
  27              		.thumb_func
  28              		.type	chPoolInit, %function
  29              	chPoolInit:
  30              	.LFB0:
  31              		.file 1 "../chibios/os/kernel/src/chmempools.c"
  32              		.loc 1 61 0
  33              		.cfi_startproc
  34              		@ args = 0, pretend = 0, frame = 0
  35              		@ frame_needed = 0, uses_anonymous_args = 0
  36              	.LVL0:
  37 0000 70B5     		push	{r4, r5, r6, lr}
  38              	.LCFI0:
  39              		.cfi_def_cfa_offset 16
  40              		.loc 1 61 0
  41 0002 0C46     		mov	r4, r1
  42              		.cfi_offset 14, -4
  43              		.cfi_offset 6, -8
  44              		.cfi_offset 5, -12
  45              		.cfi_offset 4, -16
  46 0004 1646     		mov	r6, r2
  47              		.loc 1 63 0
  48 0006 0546     		mov	r5, r0
  49 0008 08B1     		cbz	r0, .L2
  50              		.loc 1 63 0 is_stmt 0 discriminator 2
  51 000a 0329     		cmp	r1, #3
  52 000c 02D8     		bhi	.L3
  53              	.L2:
ARM GAS  /tmp/ccSTBfIw.s 			page 2


  54              		.loc 1 63 0 discriminator 1
  55 000e 0548     		ldr	r0, .L4
  56              	.LVL1:
  57 0010 FFF7FEFF 		bl	chDbgPanic
  58              	.LVL2:
  59              	.L3:
  60              		.loc 1 66 0 is_stmt 1
  61 0014 0734     		adds	r4, r4, #7
  62              	.LVL3:
  63              		.loc 1 65 0
  64 0016 0023     		movs	r3, #0
  65              		.loc 1 66 0
  66 0018 24F00704 		bic	r4, r4, #7
  67              	.LVL4:
  68              		.loc 1 65 0
  69 001c 2B60     		str	r3, [r5, #0]
  70              		.loc 1 66 0
  71 001e 6C60     		str	r4, [r5, #4]
  72              		.loc 1 67 0
  73 0020 AE60     		str	r6, [r5, #8]
  74              		.loc 1 68 0
  75 0022 70BD     		pop	{r4, r5, r6, pc}
  76              	.L5:
  77              		.align	2
  78              	.L4:
  79 0024 00000000 		.word	.LC0
  80              		.cfi_endproc
  81              	.LFE0:
  82              		.size	chPoolInit, .-chPoolInit
  83              		.section	.text.chPoolAllocI,"ax",%progbits
  84              		.align	1
  85              		.global	chPoolAllocI
  86              		.thumb
  87              		.thumb_func
  88              		.type	chPoolAllocI, %function
  89              	chPoolAllocI:
  90              	.LFB1:
  91              		.loc 1 79 0
  92              		.cfi_startproc
  93              		@ args = 0, pretend = 0, frame = 0
  94              		@ frame_needed = 0, uses_anonymous_args = 0
  95              	.LVL5:
  96 0000 10B5     		push	{r4, lr}
  97              	.LCFI1:
  98              		.cfi_def_cfa_offset 8
  99              		.loc 1 79 0
 100 0002 0446     		mov	r4, r0
 101              		.cfi_offset 14, -4
 102              		.cfi_offset 4, -8
 103              		.loc 1 82 0
 104 0004 FFF7FEFF 		bl	chDbgCheckClassI
 105              	.LVL6:
 106              		.loc 1 83 0
 107 0008 14B9     		cbnz	r4, .L7
 108              		.loc 1 83 0 is_stmt 0 discriminator 1
 109 000a 0648     		ldr	r0, .L10
 110 000c FFF7FEFF 		bl	chDbgPanic
ARM GAS  /tmp/ccSTBfIw.s 			page 3


 111              	.L7:
 112              		.loc 1 85 0 is_stmt 1
 113 0010 2068     		ldr	r0, [r4, #0]
 114              	.LVL7:
 115 0012 10B1     		cbz	r0, .L8
 116              		.loc 1 86 0
 117 0014 0368     		ldr	r3, [r0, #0]
 118 0016 2360     		str	r3, [r4, #0]
 119 0018 10BD     		pop	{r4, pc}
 120              	.L8:
 121              		.loc 1 87 0
 122 001a A368     		ldr	r3, [r4, #8]
 123 001c 0BB1     		cbz	r3, .L9
 124              		.loc 1 88 0
 125 001e 6068     		ldr	r0, [r4, #4]
 126 0020 9847     		blx	r3
 127              	.LVL8:
 128              	.L9:
 129              		.loc 1 90 0
 130 0022 10BD     		pop	{r4, pc}
 131              	.L11:
 132              		.align	2
 133              	.L10:
 134 0024 0F000000 		.word	.LC1
 135              		.cfi_endproc
 136              	.LFE1:
 137              		.size	chPoolAllocI, .-chPoolAllocI
 138              		.section	.text.chPoolAlloc,"ax",%progbits
 139              		.align	1
 140              		.global	chPoolAlloc
 141              		.thumb
 142              		.thumb_func
 143              		.type	chPoolAlloc, %function
 144              	chPoolAlloc:
 145              	.LFB2:
 146              		.loc 1 101 0
 147              		.cfi_startproc
 148              		@ args = 0, pretend = 0, frame = 0
 149              		@ frame_needed = 0, uses_anonymous_args = 0
 150              	.LVL9:
 151 0000 10B5     		push	{r4, lr}
 152              	.LCFI2:
 153              		.cfi_def_cfa_offset 8
 154              		.loc 1 101 0
 155 0002 0446     		mov	r4, r0
 156              		.cfi_offset 14, -4
 157              		.cfi_offset 4, -8
 158              		.loc 1 104 0
 159              	@ 104 "../chibios/os/kernel/src/chmempools.c" 1
 160 0004 FFF7FEFF 		bl      _port_lock
 161              	@ 0 "" 2
 162              		.thumb
 163 0008 FFF7FEFF 		bl	dbg_check_lock
 164              	.LVL10:
 165              		.loc 1 105 0
 166 000c 2046     		mov	r0, r4
 167 000e FFF7FEFF 		bl	chPoolAllocI
ARM GAS  /tmp/ccSTBfIw.s 			page 4


 168 0012 0446     		mov	r4, r0
 169              	.LVL11:
 170              		.loc 1 106 0
 171 0014 FFF7FEFF 		bl	dbg_check_unlock
 172              	.LVL12:
 173              	@ 106 "../chibios/os/kernel/src/chmempools.c" 1
 174 0018 FFF7FEFF 		bl      _port_unlock
 175              	@ 0 "" 2
 176              		.loc 1 108 0
 177              		.thumb
 178 001c 2046     		mov	r0, r4
 179 001e 10BD     		pop	{r4, pc}
 180              		.cfi_endproc
 181              	.LFE2:
 182              		.size	chPoolAlloc, .-chPoolAlloc
 183              		.section	.text.chPoolFreeI,"ax",%progbits
 184              		.align	1
 185              		.global	chPoolFreeI
 186              		.thumb
 187              		.thumb_func
 188              		.type	chPoolFreeI, %function
 189              	chPoolFreeI:
 190              	.LFB3:
 191              		.loc 1 122 0
 192              		.cfi_startproc
 193              		@ args = 0, pretend = 0, frame = 0
 194              		@ frame_needed = 0, uses_anonymous_args = 0
 195              	.LVL13:
 196 0000 38B5     		push	{r3, r4, r5, lr}
 197              	.LCFI3:
 198              		.cfi_def_cfa_offset 16
 199              		.loc 1 122 0
 200 0002 0446     		mov	r4, r0
 201              		.cfi_offset 14, -4
 202              		.cfi_offset 5, -8
 203              		.cfi_offset 4, -12
 204              		.cfi_offset 3, -16
 205 0004 0D46     		mov	r5, r1
 206              	.LVL14:
 207              		.loc 1 125 0
 208 0006 FFF7FEFF 		bl	chDbgCheckClassI
 209              	.LVL15:
 210              		.loc 1 126 0
 211 000a 1CB1     		cbz	r4, .L14
 212              		.loc 1 126 0 is_stmt 0 discriminator 2
 213 000c 15B1     		cbz	r5, .L14
 214              		.loc 1 126 0 discriminator 3
 215 000e 15F0070F 		tst	r5, #7
 216 0012 02D0     		beq	.L15
 217              	.LVL16:
 218              	.L14:
 219              		.loc 1 126 0 discriminator 1
 220 0014 0348     		ldr	r0, .L16
 221 0016 FFF7FEFF 		bl	chDbgPanic
 222              	.L15:
 223              		.loc 1 129 0 is_stmt 1
 224 001a 2368     		ldr	r3, [r4, #0]
ARM GAS  /tmp/ccSTBfIw.s 			page 5


 225 001c 2B60     		str	r3, [r5, #0]
 226              		.loc 1 130 0
 227 001e 2560     		str	r5, [r4, #0]
 228              		.loc 1 131 0
 229 0020 38BD     		pop	{r3, r4, r5, pc}
 230              	.L17:
 231 0022 00BF     		.align	2
 232              	.L16:
 233 0024 20000000 		.word	.LC2
 234              		.cfi_endproc
 235              	.LFE3:
 236              		.size	chPoolFreeI, .-chPoolFreeI
 237              		.section	.text.chPoolFree,"ax",%progbits
 238              		.align	1
 239              		.global	chPoolFree
 240              		.thumb
 241              		.thumb_func
 242              		.type	chPoolFree, %function
 243              	chPoolFree:
 244              	.LFB4:
 245              		.loc 1 145 0
 246              		.cfi_startproc
 247              		@ args = 0, pretend = 0, frame = 0
 248              		@ frame_needed = 0, uses_anonymous_args = 0
 249              	.LVL17:
 250 0000 38B5     		push	{r3, r4, r5, lr}
 251              	.LCFI4:
 252              		.cfi_def_cfa_offset 16
 253              		.loc 1 145 0
 254 0002 0546     		mov	r5, r0
 255              		.cfi_offset 14, -4
 256              		.cfi_offset 5, -8
 257              		.cfi_offset 4, -12
 258              		.cfi_offset 3, -16
 259 0004 0C46     		mov	r4, r1
 260              		.loc 1 147 0
 261              	@ 147 "../chibios/os/kernel/src/chmempools.c" 1
 262 0006 FFF7FEFF 		bl      _port_lock
 263              	@ 0 "" 2
 264              		.thumb
 265 000a FFF7FEFF 		bl	dbg_check_lock
 266              	.LVL18:
 267              		.loc 1 148 0
 268 000e 2846     		mov	r0, r5
 269 0010 2146     		mov	r1, r4
 270 0012 FFF7FEFF 		bl	chPoolFreeI
 271              		.loc 1 149 0
 272 0016 FFF7FEFF 		bl	dbg_check_unlock
 273              	@ 149 "../chibios/os/kernel/src/chmempools.c" 1
 274 001a FFF7FEFF 		bl      _port_unlock
 275              	@ 0 "" 2
 276              		.loc 1 150 0
 277              		.thumb
 278 001e 38BD     		pop	{r3, r4, r5, pc}
 279              		.cfi_endproc
 280              	.LFE4:
 281              		.size	chPoolFree, .-chPoolFree
ARM GAS  /tmp/ccSTBfIw.s 			page 6


 282              		.section	.rodata.str1.1,"aMS",%progbits,1
 283              	.LC0:
 284 0000 22636850 		.ascii	"\"chPoolInit\"()\000"
 284      6F6F6C49 
 284      6E697422 
 284      282900
 285              	.LC1:
 286 000f 22636850 		.ascii	"\"chPoolAllocI\"()\000"
 286      6F6F6C41 
 286      6C6C6F63 
 286      49222829 
 286      00
 287              	.LC2:
 288 0020 22636850 		.ascii	"\"chPoolFreeI\"()\000"
 288      6F6F6C46 
 288      72656549 
 288      22282900 
 289              		.text
 290              	.Letext0: