ARM GAS  /tmp/ccjo2pzn.s 			page 1


   1              		.syntax unified
   2              		.cpu cortex-m3
   3              		.fpu softvfp
   4              		.eabi_attribute 20, 1
   5              		.eabi_attribute 21, 1
   6              		.eabi_attribute 23, 3
   7              		.eabi_attribute 24, 1
   8              		.eabi_attribute 25, 1
   9              		.eabi_attribute 26, 1
  10              		.eabi_attribute 30, 4
  11              		.eabi_attribute 18, 4
  12              		.thumb
  13              		.file	"chmemcore.c"
  20 0000 73010000 		.text
  20      02001B01 
  20      00000201 
  20      FB0E0D00 
  20      01010101 
  21              	.Ltext0:
  22              		.cfi_sections	.debug_frame
  23              		.section	.text._core_init,"ax",%progbits
  24              		.align	1
  25              		.global	_core_init
  26              		.thumb
  27              		.thumb_func
  28              		.type	_core_init, %function
  29              	_core_init:
  30              	.LFB0:
  31              		.file 1 "../chibios/os/kernel/src/chmemcore.c"
  32              		.loc 1 66 0
  33              		.cfi_startproc
  34              		@ args = 0, pretend = 0, frame = 0
  35              		@ frame_needed = 0, uses_anonymous_args = 0
  36              		@ link register save eliminated.
  37              		.loc 1 70 0
  38 0000 054A     		ldr	r2, .L2
  39 0002 064B     		ldr	r3, .L2+4
  40 0004 22F00702 		bic	r2, r2, #7
  41 0008 1A60     		str	r2, [r3, #0]
  42              		.loc 1 71 0
  43 000a 054A     		ldr	r2, .L2+8
  44 000c 054B     		ldr	r3, .L2+12
  45 000e 22F00702 		bic	r2, r2, #7
  46 0012 1A60     		str	r2, [r3, #0]
  47              		.loc 1 77 0
  48 0014 7047     		bx	lr
  49              	.L3:
  50 0016 00BF     		.align	2
  51              	.L2:
  52 0018 07000000 		.word	__heap_base__+7
  53 001c 00000000 		.word	.LANCHOR0
ARM GAS  /tmp/ccjo2pzn.s 			page 2


  54 0020 00000000 		.word	__heap_end__
  55 0024 00000000 		.word	.LANCHOR1
  56              		.cfi_endproc
  57              	.LFE0:
  58              		.size	_core_init, .-_core_init
  59              		.section	.text.chCoreAllocI,"ax",%progbits
  60              		.align	1
  61              		.global	chCoreAllocI
  62              		.thumb
  63              		.thumb_func
  64              		.type	chCoreAllocI, %function
  65              	chCoreAllocI:
  66              	.LFB2:
  67              		.loc 1 112 0
  68              		.cfi_startproc
  69              		@ args = 0, pretend = 0, frame = 0
  70              		@ frame_needed = 0, uses_anonymous_args = 0
  71              	.LVL0:
  72 0000 10B5     		push	{r4, lr}
  73              	.LCFI0:
  74              		.cfi_def_cfa_offset 8
  75              		.loc 1 112 0
  76 0002 0446     		mov	r4, r0
  77              		.cfi_offset 14, -4
  78              		.cfi_offset 4, -8
  79              		.loc 1 115 0
  80 0004 FFF7FEFF 		bl	chDbgCheckClassI
  81              	.LVL1:
  82              		.loc 1 118 0
  83 0008 064B     		ldr	r3, .L7
  84 000a 0749     		ldr	r1, .L7+4
  85 000c 1868     		ldr	r0, [r3, #0]
  86 000e 0968     		ldr	r1, [r1, #0]
  87              		.loc 1 117 0
  88 0010 E21D     		adds	r2, r4, #7
  89 0012 22F00702 		bic	r2, r2, #7
  90              	.LVL2:
  91              		.loc 1 118 0
  92 0016 091A     		subs	r1, r1, r0
  93 0018 9142     		cmp	r1, r2
  94              	.LVL3:
  95              		.loc 1 121 0
  96 001a 26BF     		itte	cs
  97 001c 8218     		addcs	r2, r0, r2
  98              	.LVL4:
  99 001e 1A60     		strcs	r2, [r3, #0]
 100              		.loc 1 119 0
 101 0020 0020     		movcc	r0, #0
 102              		.loc 1 123 0
 103 0022 10BD     		pop	{r4, pc}
 104              	.L8:
 105              		.align	2
 106              	.L7:
 107 0024 00000000 		.word	.LANCHOR0
 108 0028 00000000 		.word	.LANCHOR1
 109              		.cfi_endproc
 110              	.LFE2:
ARM GAS  /tmp/ccjo2pzn.s 			page 3


 111              		.size	chCoreAllocI, .-chCoreAllocI
 112              		.section	.text.chCoreAlloc,"ax",%progbits
 113              		.align	1
 114              		.global	chCoreAlloc
 115              		.thumb
 116              		.thumb_func
 117              		.type	chCoreAlloc, %function
 118              	chCoreAlloc:
 119              	.LFB1:
 120              		.loc 1 91 0
 121              		.cfi_startproc
 122              		@ args = 0, pretend = 0, frame = 0
 123              		@ frame_needed = 0, uses_anonymous_args = 0
 124              	.LVL5:
 125 0000 10B5     		push	{r4, lr}
 126              	.LCFI1:
 127              		.cfi_def_cfa_offset 8
 128              		.loc 1 91 0
 129 0002 0446     		mov	r4, r0
 130              		.cfi_offset 14, -4
 131              		.cfi_offset 4, -8
 132              		.loc 1 94 0
 133              	@ 94 "../chibios/os/kernel/src/chmemcore.c" 1
 134 0004 FFF7FEFF 		bl      _port_lock
 135              	@ 0 "" 2
 136              		.thumb
 137 0008 FFF7FEFF 		bl	dbg_check_lock
 138              	.LVL6:
 139              		.loc 1 95 0
 140 000c 2046     		mov	r0, r4
 141 000e FFF7FEFF 		bl	chCoreAllocI
 142 0012 0446     		mov	r4, r0
 143              	.LVL7:
 144              		.loc 1 96 0
 145 0014 FFF7FEFF 		bl	dbg_check_unlock
 146              	.LVL8:
 147              	@ 96 "../chibios/os/kernel/src/chmemcore.c" 1
 148 0018 FFF7FEFF 		bl      _port_unlock
 149              	@ 0 "" 2
 150              		.loc 1 98 0
 151              		.thumb
 152 001c 2046     		mov	r0, r4
 153 001e 10BD     		pop	{r4, pc}
 154              		.cfi_endproc
 155              	.LFE1:
 156              		.size	chCoreAlloc, .-chCoreAlloc
 157              		.section	.text.chCoreStatus,"ax",%progbits
 158              		.align	1
 159              		.global	chCoreStatus
 160              		.thumb
 161              		.thumb_func
 162              		.type	chCoreStatus, %function
 163              	chCoreStatus:
 164              	.LFB3:
 165              		.loc 1 132 0
 166              		.cfi_startproc
 167              		@ args = 0, pretend = 0, frame = 0
ARM GAS  /tmp/ccjo2pzn.s 			page 4


 168              		@ frame_needed = 0, uses_anonymous_args = 0
 169              		@ link register save eliminated.
 170              		.loc 1 134 0
 171 0000 024B     		ldr	r3, .L11
 172 0002 1868     		ldr	r0, [r3, #0]
 173 0004 024B     		ldr	r3, .L11+4
 174 0006 1B68     		ldr	r3, [r3, #0]
 175              		.loc 1 135 0
 176 0008 C01A     		subs	r0, r0, r3
 177 000a 7047     		bx	lr
 178              	.L12:
 179              		.align	2
 180              	.L11:
 181 000c 00000000 		.word	.LANCHOR1
 182 0010 00000000 		.word	.LANCHOR0
 183              		.cfi_endproc
 184              	.LFE3:
 185              		.size	chCoreStatus, .-chCoreStatus
 186              		.section	.bss.endmem,"aw",%nobits
 187              		.align	2
 188              		.set	.LANCHOR1,. + 0
 189              		.type	endmem, %object
 190              		.size	endmem, 4
 191              	endmem:
 192 0000 00000000 		.space	4
 193              		.section	.bss.nextmem,"aw",%nobits
 194              		.align	2
 195              		.set	.LANCHOR0,. + 0
 196              		.type	nextmem, %object
 197              		.size	nextmem, 4
 198              	nextmem:
 199 0000 00000000 		.space	4
 200              		.text
 201              	.Letext0: