ARM GAS  /tmp/ccjo2pzn.s 			page 1


   1              		.syntax unified
   2              		.cpu cortex-m3
   3              		.fpu softvfp
   4              		.eabi_attribute 20, 1
   5              		.eabi_attribute 21, 1
   6              		.eabi_attribute 23, 3
   7              		.eabi_attribute 24, 1
   8              		.eabi_attribute 25, 1
   9              		.eabi_attribute 26, 1
  10              		.eabi_attribute 30, 4
  11              		.eabi_attribute 18, 4
  12              		.thumb
  13              		.file	"chmemcore.c"
  14              		.section	.debug_abbrev,"",%progbits
  15              	.Ldebug_abbrev0:
  16              		.section	.debug_info,"",%progbits
  17              	.Ldebug_info0:
  18              		.section	.debug_line,"",%progbits
  19              	.Ldebug_line0:
  20 0000 73010000 		.text
  20      02001B01 
  20      00000201 
  20      FB0E0D00 
  20      01010101 
  21              	.Ltext0:
  22              		.cfi_sections	.debug_frame
  23              		.section	.text._core_init,"ax",%progbits
  24              		.align	1
  25              		.global	_core_init
  26              		.thumb
  27              		.thumb_func
  28              		.type	_core_init, %function
  29              	_core_init:
  30              	.LFB0:
  31              		.file 1 "../chibios/os/kernel/src/chmemcore.c"
  32              		.loc 1 66 0
  33              		.cfi_startproc
  34              		@ args = 0, pretend = 0, frame = 0
  35              		@ frame_needed = 0, uses_anonymous_args = 0
  36              		@ link register save eliminated.
  37              		.loc 1 70 0
  38 0000 054A     		ldr	r2, .L2
  39 0002 064B     		ldr	r3, .L2+4
  40 0004 22F00702 		bic	r2, r2, #7
  41 0008 1A60     		str	r2, [r3, #0]
  42              		.loc 1 71 0
  43 000a 054A     		ldr	r2, .L2+8
  44 000c 054B     		ldr	r3, .L2+12
  45 000e 22F00702 		bic	r2, r2, #7
  46 0012 1A60     		str	r2, [r3, #0]
  47              		.loc 1 77 0
  48 0014 7047     		bx	lr
  49              	.L3:
  50 0016 00BF     		.align	2
  51              	.L2:
  52 0018 07000000 		.word	__heap_base__+7
  53 001c 00000000 		.word	.LANCHOR0
ARM GAS  /tmp/ccjo2pzn.s 			page 2


  54 0020 00000000 		.word	__heap_end__
  55 0024 00000000 		.word	.LANCHOR1
  56              		.cfi_endproc
  57              	.LFE0:
  58              		.size	_core_init, .-_core_init
  59              		.section	.text.chCoreAllocI,"ax",%progbits
  60              		.align	1
  61              		.global	chCoreAllocI
  62              		.thumb
  63              		.thumb_func
  64              		.type	chCoreAllocI, %function
  65              	chCoreAllocI:
  66              	.LFB2:
  67              		.loc 1 112 0
  68              		.cfi_startproc
  69              		@ args = 0, pretend = 0, frame = 0
  70              		@ frame_needed = 0, uses_anonymous_args = 0
  71              	.LVL0:
  72 0000 10B5     		push	{r4, lr}
  73              	.LCFI0:
  74              		.cfi_def_cfa_offset 8
  75              		.loc 1 112 0
  76 0002 0446     		mov	r4, r0
  77              		.cfi_offset 14, -4
  78              		.cfi_offset 4, -8
  79              		.loc 1 115 0
  80 0004 FFF7FEFF 		bl	chDbgCheckClassI
  81              	.LVL1:
  82              		.loc 1 118 0
  83 0008 064B     		ldr	r3, .L7
  84 000a 0749     		ldr	r1, .L7+4
  85 000c 1868     		ldr	r0, [r3, #0]
  86 000e 0968     		ldr	r1, [r1, #0]
  87              		.loc 1 117 0
  88 0010 E21D     		adds	r2, r4, #7
  89 0012 22F00702 		bic	r2, r2, #7
  90              	.LVL2:
  91              		.loc 1 118 0
  92 0016 091A     		subs	r1, r1, r0
  93 0018 9142     		cmp	r1, r2
  94              	.LVL3:
  95              		.loc 1 121 0
  96 001a 26BF     		itte	cs
  97 001c 8218     		addcs	r2, r0, r2
  98              	.LVL4:
  99 001e 1A60     		strcs	r2, [r3, #0]
 100              		.loc 1 119 0
 101 0020 0020     		movcc	r0, #0
 102              		.loc 1 123 0
 103 0022 10BD     		pop	{r4, pc}
 104              	.L8:
 105              		.align	2
 106              	.L7:
 107 0024 00000000 		.word	.LANCHOR0
 108 0028 00000000 		.word	.LANCHOR1
 109              		.cfi_endproc
 110              	.LFE2:
ARM GAS  /tmp/ccjo2pzn.s 			page 3


 111              		.size	chCoreAllocI, .-chCoreAllocI
 112              		.section	.text.chCoreAlloc,"ax",%progbits
 113              		.align	1
 114              		.global	chCoreAlloc
 115              		.thumb
 116              		.thumb_func
 117              		.type	chCoreAlloc, %function
 118              	chCoreAlloc:
 119              	.LFB1:
 120              		.loc 1 91 0
 121              		.cfi_startproc
 122              		@ args = 0, pretend = 0, frame = 0
 123              		@ frame_needed = 0, uses_anonymous_args = 0
 124              	.LVL5:
 125 0000 10B5     		push	{r4, lr}
 126              	.LCFI1:
 127              		.cfi_def_cfa_offset 8
 128              		.loc 1 91 0
 129 0002 0446     		mov	r4, r0
 130              		.cfi_offset 14, -4
 131              		.cfi_offset 4, -8
 132              		.loc 1 94 0
 133              	@ 94 "../chibios/os/kernel/src/chmemcore.c" 1
 134 0004 FFF7FEFF 		bl      _port_lock
 135              	@ 0 "" 2
 136              		.thumb
 137 0008 FFF7FEFF 		bl	dbg_check_lock
 138              	.LVL6:
 139              		.loc 1 95 0
 140 000c 2046     		mov	r0, r4
 141 000e FFF7FEFF 		bl	chCoreAllocI
 142 0012 0446     		mov	r4, r0
 143              	.LVL7:
 144              		.loc 1 96 0
 145 0014 FFF7FEFF 		bl	dbg_check_unlock
 146              	.LVL8:
 147              	@ 96 "../chibios/os/kernel/src/chmemcore.c" 1
 148 0018 FFF7FEFF 		bl      _port_unlock
 149              	@ 0 "" 2
 150              		.loc 1 98 0
 151              		.thumb
 152 001c 2046     		mov	r0, r4
 153 001e 10BD     		pop	{r4, pc}
 154              		.cfi_endproc
 155              	.LFE1:
 156              		.size	chCoreAlloc, .-chCoreAlloc
 157              		.section	.text.chCoreStatus,"ax",%progbits
 158              		.align	1
 159              		.global	chCoreStatus
 160              		.thumb
 161              		.thumb_func
 162              		.type	chCoreStatus, %function
 163              	chCoreStatus:
 164              	.LFB3:
 165              		.loc 1 132 0
 166              		.cfi_startproc
 167              		@ args = 0, pretend = 0, frame = 0
ARM GAS  /tmp/ccjo2pzn.s 			page 4


 168              		@ frame_needed = 0, uses_anonymous_args = 0
 169              		@ link register save eliminated.
 170              		.loc 1 134 0
 171 0000 024B     		ldr	r3, .L11
 172 0002 1868     		ldr	r0, [r3, #0]
 173 0004 024B     		ldr	r3, .L11+4
 174 0006 1B68     		ldr	r3, [r3, #0]
 175              		.loc 1 135 0
 176 0008 C01A     		subs	r0, r0, r3
 177 000a 7047     		bx	lr
 178              	.L12:
 179              		.align	2
 180              	.L11:
 181 000c 00000000 		.word	.LANCHOR1
 182 0010 00000000 		.word	.LANCHOR0
 183              		.cfi_endproc
 184              	.LFE3:
 185              		.size	chCoreStatus, .-chCoreStatus
 186              		.section	.bss.endmem,"aw",%nobits
 187              		.align	2
 188              		.set	.LANCHOR1,. + 0
 189              		.type	endmem, %object
 190              		.size	endmem, 4
 191              	endmem:
 192 0000 00000000 		.space	4
 193              		.section	.bss.nextmem,"aw",%nobits
 194              		.align	2
 195              		.set	.LANCHOR0,. + 0
 196              		.type	nextmem, %object
 197              		.size	nextmem, 4
 198              	nextmem:
 199 0000 00000000 		.space	4
 200              		.text
 201              	.Letext0:
 202              		.section	.debug_loc,"",%progbits
 203              	.Ldebug_loc0:
 204              	.LLST0:
 205 0000 00000000 		.4byte	.LFB2
 206 0004 02000000 		.4byte	.LCFI0
 207 0008 0200     		.2byte	0x2
 208 000a 7D       		.byte	0x7d
 209 000b 00       		.sleb128 0
 210 000c 02000000 		.4byte	.LCFI0
 211 0010 2C000000 		.4byte	.LFE2
 212 0014 0200     		.2byte	0x2
 213 0016 7D       		.byte	0x7d
 214 0017 08       		.sleb128 8
 215 0018 00000000 		.4byte	0x0
 216 001c 00000000 		.4byte	0x0
 217              	.LLST1:
 218 0020 00000000 		.4byte	.LVL0
 219 0024 07000000 		.4byte	.LVL1-1
 220 0028 0100     		.2byte	0x1
 221 002a 50       		.byte	0x50
 222 002b 07000000 		.4byte	.LVL1-1
 223 002f 16000000 		.4byte	.LVL2
 224 0033 0100     		.2byte	0x1
ARM GAS  /tmp/ccjo2pzn.s 			page 5


 225 0035 54       		.byte	0x54
 226 0036 16000000 		.4byte	.LVL2
 227 003a 1E000000 		.4byte	.LVL4
 228 003e 0100     		.2byte	0x1
 229 0040 52       		.byte	0x52
 230 0041 00000000 		.4byte	0x0
 231 0045 00000000 		.4byte	0x0
 232              	.LLST2:
 233 0049 00000000 		.4byte	.LFB1
 234 004d 02000000 		.4byte	.LCFI1
 235 0051 0200     		.2byte	0x2
 236 0053 7D       		.byte	0x7d
 237 0054 00       		.sleb128 0
 238 0055 02000000 		.4byte	.LCFI1
 239 0059 20000000 		.4byte	.LFE1
 240 005d 0200     		.2byte	0x2
 241 005f 7D       		.byte	0x7d
 242 0060 08       		.sleb128 8
 243 0061 00000000 		.4byte	0x0
 244 0065 00000000 		.4byte	0x0
 245              	.LLST3:
 246 0069 00000000 		.4byte	.LVL5
 247 006d 0B000000 		.4byte	.LVL6-1
 248 0071 0100     		.2byte	0x1
 249 0073 50       		.byte	0x50
 250 0074 0B000000 		.4byte	.LVL6-1
 251 0078 14000000 		.4byte	.LVL7
 252 007c 0100     		.2byte	0x1
 253 007e 54       		.byte	0x54
 254 007f 00000000 		.4byte	0x0
 255 0083 00000000 		.4byte	0x0
 256              	.LLST4:
 257 0087 14000000 		.4byte	.LVL7
 258 008b 17000000 		.4byte	.LVL8-1
 259 008f 0100     		.2byte	0x1
 260 0091 50       		.byte	0x50
 261 0092 17000000 		.4byte	.LVL8-1
 262 0096 20000000 		.4byte	.LFE1
 263 009a 0100     		.2byte	0x1
 264 009c 54       		.byte	0x54
 265 009d 00000000 		.4byte	0x0
 266 00a1 00000000 		.4byte	0x0
 267              		.file 2 "/home/z80/programs/code-sourcery/2011.03-42/bin/../lib/gcc/arm-none-eabi/4.5.2/include/st
 268              		.file 3 "/home/z80/programs/code-sourcery/2011.03-42/bin/../lib/gcc/arm-none-eabi/4.5.2/../../../.
 269              		.section	.debug_info
 270 0000 99010000 		.4byte	0x199
 271 0004 0200     		.2byte	0x2
 272 0006 00000000 		.4byte	.Ldebug_abbrev0
 273 000a 04       		.byte	0x4
 274 000b 01       		.uleb128 0x1
 275 000c 1B000000 		.4byte	.LASF19
 276 0010 01       		.byte	0x1
 277 0011 36000000 		.4byte	.LASF20
 278 0015 68000000 		.4byte	.LASF21
 279 0019 00000000 		.4byte	0x0
 280 001d 00000000 		.4byte	0x0
 281 0021 00000000 		.4byte	.Ldebug_ranges0+0x0
ARM GAS  /tmp/ccjo2pzn.s 			page 6


 282 0025 00000000 		.4byte	.Ldebug_line0
 283 0029 02       		.uleb128 0x2
 284 002a 04       		.byte	0x4
 285 002b 05       		.byte	0x5
 286 002c 696E7400 		.ascii	"int\000"
 287 0030 03       		.uleb128 0x3
 288 0031 27000000 		.4byte	.LASF2
 289 0035 02       		.byte	0x2
 290 0036 D3       		.byte	0xd3
 291 0037 3B000000 		.4byte	0x3b
 292 003b 04       		.uleb128 0x4
 293 003c 04       		.byte	0x4
 294 003d 07       		.byte	0x7
 295 003e 52010000 		.4byte	.LASF0
 296 0042 04       		.uleb128 0x4
 297 0043 01       		.byte	0x1
 298 0044 06       		.byte	0x6
 299 0045 2C010000 		.4byte	.LASF1
 300 0049 03       		.uleb128 0x3
 301 004a E8000000 		.4byte	.LASF3
 302 004e 03       		.byte	0x3
 303 004f 2A       		.byte	0x2a
 304 0050 54000000 		.4byte	0x54
 305 0054 04       		.uleb128 0x4
 306 0055 01       		.byte	0x1
 307 0056 08       		.byte	0x8
 308 0057 F0000000 		.4byte	.LASF4
 309 005b 04       		.uleb128 0x4
 310 005c 02       		.byte	0x2
 311 005d 05       		.byte	0x5
 312 005e 48010000 		.4byte	.LASF5
 313 0062 04       		.uleb128 0x4
 314 0063 02       		.byte	0x2
 315 0064 07       		.byte	0x7
 316 0065 D5000000 		.4byte	.LASF6
 317 0069 04       		.uleb128 0x4
 318 006a 04       		.byte	0x4
 319 006b 05       		.byte	0x5
 320 006c 0F010000 		.4byte	.LASF7
 321 0070 04       		.uleb128 0x4
 322 0071 04       		.byte	0x4
 323 0072 07       		.byte	0x7
 324 0073 AC000000 		.4byte	.LASF8
 325 0077 04       		.uleb128 0x4
 326 0078 08       		.byte	0x8
 327 0079 05       		.byte	0x5
 328 007a 00000000 		.4byte	.LASF9
 329 007e 04       		.uleb128 0x4
 330 007f 08       		.byte	0x8
 331 0080 07       		.byte	0x7
 332 0081 BE000000 		.4byte	.LASF10
 333 0085 05       		.uleb128 0x5
 334 0086 04       		.byte	0x4
 335 0087 04       		.uleb128 0x4
 336 0088 01       		.byte	0x1
 337 0089 08       		.byte	0x8
 338 008a FE000000 		.4byte	.LASF11
ARM GAS  /tmp/ccjo2pzn.s 			page 7


 339 008e 06       		.uleb128 0x6
 340 008f 04       		.byte	0x4
 341 0090 49000000 		.4byte	0x49
 342 0094 07       		.uleb128 0x7
 343 0095 01       		.byte	0x1
 344 0096 3D010000 		.4byte	.LASF22
 345 009a 01       		.byte	0x1
 346 009b 42       		.byte	0x42
 347 009c 01       		.byte	0x1
 348 009d 00000000 		.4byte	.LFB0
 349 00a1 28000000 		.4byte	.LFE0
 350 00a5 02       		.byte	0x2
 351 00a6 7D       		.byte	0x7d
 352 00a7 00       		.sleb128 0
 353 00a8 C7000000 		.4byte	0xc7
 354 00ac 08       		.uleb128 0x8
 355 00ad 9E000000 		.4byte	.LASF12
 356 00b1 01       		.byte	0x1
 357 00b2 44       		.byte	0x44
 358 00b3 C7000000 		.4byte	0xc7
 359 00b7 01       		.byte	0x1
 360 00b8 01       		.byte	0x1
 361 00b9 08       		.uleb128 0x8
 362 00ba 5B000000 		.4byte	.LASF13
 363 00be 01       		.byte	0x1
 364 00bf 45       		.byte	0x45
 365 00c0 C7000000 		.4byte	0xc7
 366 00c4 01       		.byte	0x1
 367 00c5 01       		.byte	0x1
 368 00c6 00       		.byte	0x0
 369 00c7 09       		.uleb128 0x9
 370 00c8 49000000 		.4byte	0x49
 371 00cc D2000000 		.4byte	0xd2
 372 00d0 0A       		.uleb128 0xa
 373 00d1 00       		.byte	0x0
 374 00d2 0B       		.uleb128 0xb
 375 00d3 01       		.byte	0x1
 376 00d4 1F010000 		.4byte	.LASF14
 377 00d8 01       		.byte	0x1
 378 00d9 70       		.byte	0x70
 379 00da 01       		.byte	0x1
 380 00db 85000000 		.4byte	0x85
 381 00df 00000000 		.4byte	.LFB2
 382 00e3 2C000000 		.4byte	.LFE2
 383 00e7 00000000 		.4byte	.LLST0
 384 00eb 0E010000 		.4byte	0x10e
 385 00ef 0C       		.uleb128 0xc
 386 00f0 38010000 		.4byte	.LASF16
 387 00f4 01       		.byte	0x1
 388 00f5 70       		.byte	0x70
 389 00f6 30000000 		.4byte	0x30
 390 00fa 20000000 		.4byte	.LLST1
 391 00fe 0D       		.uleb128 0xd
 392 00ff 7000     		.ascii	"p\000"
 393 0101 01       		.byte	0x1
 394 0102 71       		.byte	0x71
 395 0103 85000000 		.4byte	0x85
ARM GAS  /tmp/ccjo2pzn.s 			page 8


 396 0107 05       		.byte	0x5
 397 0108 03       		.byte	0x3
 398 0109 00000000 		.4byte	nextmem
 399 010d 00       		.byte	0x0
 400 010e 0B       		.uleb128 0xb
 401 010f 01       		.byte	0x1
 402 0110 03010000 		.4byte	.LASF15
 403 0114 01       		.byte	0x1
 404 0115 5B       		.byte	0x5b
 405 0116 01       		.byte	0x1
 406 0117 85000000 		.4byte	0x85
 407 011b 00000000 		.4byte	.LFB1
 408 011f 20000000 		.4byte	.LFE1
 409 0123 49000000 		.4byte	.LLST2
 410 0127 48010000 		.4byte	0x148
 411 012b 0C       		.uleb128 0xc
 412 012c 38010000 		.4byte	.LASF16
 413 0130 01       		.byte	0x1
 414 0131 5B       		.byte	0x5b
 415 0132 30000000 		.4byte	0x30
 416 0136 69000000 		.4byte	.LLST3
 417 013a 0E       		.uleb128 0xe
 418 013b 7000     		.ascii	"p\000"
 419 013d 01       		.byte	0x1
 420 013e 5C       		.byte	0x5c
 421 013f 85000000 		.4byte	0x85
 422 0143 87000000 		.4byte	.LLST4
 423 0147 00       		.byte	0x0
 424 0148 0F       		.uleb128 0xf
 425 0149 01       		.byte	0x1
 426 014a 0E000000 		.4byte	.LASF23
 427 014e 01       		.byte	0x1
 428 014f 84       		.byte	0x84
 429 0150 01       		.byte	0x1
 430 0151 30000000 		.4byte	0x30
 431 0155 00000000 		.4byte	.LFB3
 432 0159 14000000 		.4byte	.LFE3
 433 015d 02       		.byte	0x2
 434 015e 7D       		.byte	0x7d
 435 015f 00       		.sleb128 0
 436 0160 10       		.uleb128 0x10
 437 0161 2E000000 		.4byte	.LASF17
 438 0165 01       		.byte	0x1
 439 0166 3A       		.byte	0x3a
 440 0167 8E000000 		.4byte	0x8e
 441 016b 05       		.byte	0x5
 442 016c 03       		.byte	0x3
 443 016d 00000000 		.4byte	nextmem
 444 0171 10       		.uleb128 0x10
 445 0172 18010000 		.4byte	.LASF18
 446 0176 01       		.byte	0x1
 447 0177 3B       		.byte	0x3b
 448 0178 8E000000 		.4byte	0x8e
 449 017c 05       		.byte	0x5
 450 017d 03       		.byte	0x3
 451 017e 00000000 		.4byte	endmem
 452 0182 08       		.uleb128 0x8
ARM GAS  /tmp/ccjo2pzn.s 			page 9


 453 0183 9E000000 		.4byte	.LASF12
 454 0187 01       		.byte	0x1
 455 0188 44       		.byte	0x44
 456 0189 C7000000 		.4byte	0xc7
 457 018d 01       		.byte	0x1
 458 018e 01       		.byte	0x1
 459 018f 08       		.uleb128 0x8
 460 0190 5B000000 		.4byte	.LASF13
 461 0194 01       		.byte	0x1
 462 0195 45       		.byte	0x45
 463 0196 C7000000 		.4byte	0xc7
 464 019a 01       		.byte	0x1
 465 019b 01       		.byte	0x1
 466 019c 00       		.byte	0x0
 467              		.section	.debug_abbrev
 468 0000 01       		.uleb128 0x1
 469 0001 11       		.uleb128 0x11
 470 0002 01       		.byte	0x1
 471 0003 25       		.uleb128 0x25
 472 0004 0E       		.uleb128 0xe
 473 0005 13       		.uleb128 0x13
 474 0006 0B       		.uleb128 0xb
 475 0007 03       		.uleb128 0x3
 476 0008 0E       		.uleb128 0xe
 477 0009 1B       		.uleb128 0x1b
 478 000a 0E       		.uleb128 0xe
 479 000b 11       		.uleb128 0x11
 480 000c 01       		.uleb128 0x1
 481 000d 52       		.uleb128 0x52
 482 000e 01       		.uleb128 0x1
 483 000f 55       		.uleb128 0x55
 484 0010 06       		.uleb128 0x6
 485 0011 10       		.uleb128 0x10
 486 0012 06       		.uleb128 0x6
 487 0013 00       		.byte	0x0
 488 0014 00       		.byte	0x0
 489 0015 02       		.uleb128 0x2
 490 0016 24       		.uleb128 0x24
 491 0017 00       		.byte	0x0
 492 0018 0B       		.uleb128 0xb
 493 0019 0B       		.uleb128 0xb
 494 001a 3E       		.uleb128 0x3e
 495 001b 0B       		.uleb128 0xb
 496 001c 03       		.uleb128 0x3
 497 001d 08       		.uleb128 0x8
 498 001e 00       		.byte	0x0
 499 001f 00       		.byte	0x0
 500 0020 03       		.uleb128 0x3
 501 0021 16       		.uleb128 0x16
 502 0022 00       		.byte	0x0
 503 0023 03       		.uleb128 0x3
 504 0024 0E       		.uleb128 0xe
 505 0025 3A       		.uleb128 0x3a
 506 0026 0B       		.uleb128 0xb
 507 0027 3B       		.uleb128 0x3b
 508 0028 0B       		.uleb128 0xb
 509 0029 49       		.uleb128 0x49
ARM GAS  /tmp/ccjo2pzn.s 			page 10


 510 002a 13       		.uleb128 0x13
 511 002b 00       		.byte	0x0
 512 002c 00       		.byte	0x0
 513 002d 04       		.uleb128 0x4
 514 002e 24       		.uleb128 0x24
 515 002f 00       		.byte	0x0
 516 0030 0B       		.uleb128 0xb
 517 0031 0B       		.uleb128 0xb
 518 0032 3E       		.uleb128 0x3e
 519 0033 0B       		.uleb128 0xb
 520 0034 03       		.uleb128 0x3
 521 0035 0E       		.uleb128 0xe
 522 0036 00       		.byte	0x0
 523 0037 00       		.byte	0x0
 524 0038 05       		.uleb128 0x5
 525 0039 0F       		.uleb128 0xf
 526 003a 00       		.byte	0x0
 527 003b 0B       		.uleb128 0xb
 528 003c 0B       		.uleb128 0xb
 529 003d 00       		.byte	0x0
 530 003e 00       		.byte	0x0
 531 003f 06       		.uleb128 0x6
 532 0040 0F       		.uleb128 0xf
 533 0041 00       		.byte	0x0
 534 0042 0B       		.uleb128 0xb
 535 0043 0B       		.uleb128 0xb
 536 0044 49       		.uleb128 0x49
 537 0045 13       		.uleb128 0x13
 538 0046 00       		.byte	0x0
 539 0047 00       		.byte	0x0
 540 0048 07       		.uleb128 0x7
 541 0049 2E       		.uleb128 0x2e
 542 004a 01       		.byte	0x1
 543 004b 3F       		.uleb128 0x3f
 544 004c 0C       		.uleb128 0xc
 545 004d 03       		.uleb128 0x3
 546 004e 0E       		.uleb128 0xe
 547 004f 3A       		.uleb128 0x3a
 548 0050 0B       		.uleb128 0xb
 549 0051 3B       		.uleb128 0x3b
 550 0052 0B       		.uleb128 0xb
 551 0053 27       		.uleb128 0x27
 552 0054 0C       		.uleb128 0xc
 553 0055 11       		.uleb128 0x11
 554 0056 01       		.uleb128 0x1
 555 0057 12       		.uleb128 0x12
 556 0058 01       		.uleb128 0x1
 557 0059 40       		.uleb128 0x40
 558 005a 0A       		.uleb128 0xa
 559 005b 01       		.uleb128 0x1
 560 005c 13       		.uleb128 0x13
 561 005d 00       		.byte	0x0
 562 005e 00       		.byte	0x0
 563 005f 08       		.uleb128 0x8
 564 0060 34       		.uleb128 0x34
 565 0061 00       		.byte	0x0
 566 0062 03       		.uleb128 0x3
ARM GAS  /tmp/ccjo2pzn.s 			page 11


 567 0063 0E       		.uleb128 0xe
 568 0064 3A       		.uleb128 0x3a
 569 0065 0B       		.uleb128 0xb
 570 0066 3B       		.uleb128 0x3b
 571 0067 0B       		.uleb128 0xb
 572 0068 49       		.uleb128 0x49
 573 0069 13       		.uleb128 0x13
 574 006a 3F       		.uleb128 0x3f
 575 006b 0C       		.uleb128 0xc
 576 006c 3C       		.uleb128 0x3c
 577 006d 0C       		.uleb128 0xc
 578 006e 00       		.byte	0x0
 579 006f 00       		.byte	0x0
 580 0070 09       		.uleb128 0x9
 581 0071 01       		.uleb128 0x1
 582 0072 01       		.byte	0x1
 583 0073 49       		.uleb128 0x49
 584 0074 13       		.uleb128 0x13
 585 0075 01       		.uleb128 0x1
 586 0076 13       		.uleb128 0x13
 587 0077 00       		.byte	0x0
 588 0078 00       		.byte	0x0
 589 0079 0A       		.uleb128 0xa
 590 007a 21       		.uleb128 0x21
 591 007b 00       		.byte	0x0
 592 007c 00       		.byte	0x0
 593 007d 00       		.byte	0x0
 594 007e 0B       		.uleb128 0xb
 595 007f 2E       		.uleb128 0x2e
 596 0080 01       		.byte	0x1
 597 0081 3F       		.uleb128 0x3f
 598 0082 0C       		.uleb128 0xc
 599 0083 03       		.uleb128 0x3
 600 0084 0E       		.uleb128 0xe
 601 0085 3A       		.uleb128 0x3a
 602 0086 0B       		.uleb128 0xb
 603 0087 3B       		.uleb128 0x3b
 604 0088 0B       		.uleb128 0xb
 605 0089 27       		.uleb128 0x27
 606 008a 0C       		.uleb128 0xc
 607 008b 49       		.uleb128 0x49
 608 008c 13       		.uleb128 0x13
 609 008d 11       		.uleb128 0x11
 610 008e 01       		.uleb128 0x1
 611 008f 12       		.uleb128 0x12
 612 0090 01       		.uleb128 0x1
 613 0091 40       		.uleb128 0x40
 614 0092 06       		.uleb128 0x6
 615 0093 01       		.uleb128 0x1
 616 0094 13       		.uleb128 0x13
 617 0095 00       		.byte	0x0
 618 0096 00       		.byte	0x0
 619 0097 0C       		.uleb128 0xc
 620 0098 05       		.uleb128 0x5
 621 0099 00       		.byte	0x0
 622 009a 03       		.uleb128 0x3
 623 009b 0E       		.uleb128 0xe
ARM GAS  /tmp/ccjo2pzn.s 			page 12


 624 009c 3A       		.uleb128 0x3a
 625 009d 0B       		.uleb128 0xb
 626 009e 3B       		.uleb128 0x3b
 627 009f 0B       		.uleb128 0xb
 628 00a0 49       		.uleb128 0x49
 629 00a1 13       		.uleb128 0x13
 630 00a2 02       		.uleb128 0x2
 631 00a3 06       		.uleb128 0x6
 632 00a4 00       		.byte	0x0
 633 00a5 00       		.byte	0x0
 634 00a6 0D       		.uleb128 0xd
 635 00a7 34       		.uleb128 0x34
 636 00a8 00       		.byte	0x0
 637 00a9 03       		.uleb128 0x3
 638 00aa 08       		.uleb128 0x8
 639 00ab 3A       		.uleb128 0x3a
 640 00ac 0B       		.uleb128 0xb
 641 00ad 3B       		.uleb128 0x3b
 642 00ae 0B       		.uleb128 0xb
 643 00af 49       		.uleb128 0x49
 644 00b0 13       		.uleb128 0x13
 645 00b1 02       		.uleb128 0x2
 646 00b2 0A       		.uleb128 0xa
 647 00b3 00       		.byte	0x0
 648 00b4 00       		.byte	0x0
 649 00b5 0E       		.uleb128 0xe
 650 00b6 34       		.uleb128 0x34
 651 00b7 00       		.byte	0x0
 652 00b8 03       		.uleb128 0x3
 653 00b9 08       		.uleb128 0x8
 654 00ba 3A       		.uleb128 0x3a
 655 00bb 0B       		.uleb128 0xb
 656 00bc 3B       		.uleb128 0x3b
 657 00bd 0B       		.uleb128 0xb
 658 00be 49       		.uleb128 0x49
 659 00bf 13       		.uleb128 0x13
 660 00c0 02       		.uleb128 0x2
 661 00c1 06       		.uleb128 0x6
 662 00c2 00       		.byte	0x0
 663 00c3 00       		.byte	0x0
 664 00c4 0F       		.uleb128 0xf
 665 00c5 2E       		.uleb128 0x2e
 666 00c6 00       		.byte	0x0
 667 00c7 3F       		.uleb128 0x3f
 668 00c8 0C       		.uleb128 0xc
 669 00c9 03       		.uleb128 0x3
 670 00ca 0E       		.uleb128 0xe
 671 00cb 3A       		.uleb128 0x3a
 672 00cc 0B       		.uleb128 0xb
 673 00cd 3B       		.uleb128 0x3b
 674 00ce 0B       		.uleb128 0xb
 675 00cf 27       		.uleb128 0x27
 676 00d0 0C       		.uleb128 0xc
 677 00d1 49       		.uleb128 0x49
 678 00d2 13       		.uleb128 0x13
 679 00d3 11       		.uleb128 0x11
 680 00d4 01       		.uleb128 0x1
ARM GAS  /tmp/ccjo2pzn.s 			page 13


 681 00d5 12       		.uleb128 0x12
 682 00d6 01       		.uleb128 0x1
 683 00d7 40       		.uleb128 0x40
 684 00d8 0A       		.uleb128 0xa
 685 00d9 00       		.byte	0x0
 686 00da 00       		.byte	0x0
 687 00db 10       		.uleb128 0x10
 688 00dc 34       		.uleb128 0x34
 689 00dd 00       		.byte	0x0
 690 00de 03       		.uleb128 0x3
 691 00df 0E       		.uleb128 0xe
 692 00e0 3A       		.uleb128 0x3a
 693 00e1 0B       		.uleb128 0xb
 694 00e2 3B       		.uleb128 0x3b
 695 00e3 0B       		.uleb128 0xb
 696 00e4 49       		.uleb128 0x49
 697 00e5 13       		.uleb128 0x13
 698 00e6 02       		.uleb128 0x2
 699 00e7 0A       		.uleb128 0xa
 700 00e8 00       		.byte	0x0
 701 00e9 00       		.byte	0x0
 702 00ea 00       		.byte	0x0
 703              		.section	.debug_pubnames,"",%progbits
 704 0000 4F000000 		.4byte	0x4f
 705 0004 0200     		.2byte	0x2
 706 0006 00000000 		.4byte	.Ldebug_info0
 707 000a 9D010000 		.4byte	0x19d
 708 000e 94000000 		.4byte	0x94
 709 0012 5F636F72 		.ascii	"_core_init\000"
 709      655F696E 
 709      697400
 710 001d D2000000 		.4byte	0xd2
 711 0021 6368436F 		.ascii	"chCoreAllocI\000"
 711      7265416C 
 711      6C6F6349 
 711      00
 712 002e 0E010000 		.4byte	0x10e
 713 0032 6368436F 		.ascii	"chCoreAlloc\000"
 713      7265416C 
 713      6C6F6300 
 714 003e 48010000 		.4byte	0x148
 715 0042 6368436F 		.ascii	"chCoreStatus\000"
 715      72655374 
 715      61747573 
 715      00
 716 004f 00000000 		.4byte	0x0
 717              		.section	.debug_pubtypes,"",%progbits
 718 0000 25000000 		.4byte	0x25
 719 0004 0200     		.2byte	0x2
 720 0006 00000000 		.4byte	.Ldebug_info0
 721 000a 9D010000 		.4byte	0x19d
 722 000e 30000000 		.4byte	0x30
 723 0012 73697A65 		.ascii	"size_t\000"
 723      5F7400
 724 0019 49000000 		.4byte	0x49
 725 001d 75696E74 		.ascii	"uint8_t\000"
 725      385F7400 
ARM GAS  /tmp/ccjo2pzn.s 			page 14


 726 0025 00000000 		.4byte	0x0
 727              		.section	.debug_aranges,"",%progbits
 728 0000 34000000 		.4byte	0x34
 729 0004 0200     		.2byte	0x2
 730 0006 00000000 		.4byte	.Ldebug_info0
 731 000a 04       		.byte	0x4
 732 000b 00       		.byte	0x0
 733 000c 0000     		.2byte	0x0
 734 000e 0000     		.2byte	0x0
 735 0010 00000000 		.4byte	.LFB0
 736 0014 28000000 		.4byte	.LFE0-.LFB0
 737 0018 00000000 		.4byte	.LFB2
 738 001c 2C000000 		.4byte	.LFE2-.LFB2
 739 0020 00000000 		.4byte	.LFB1
 740 0024 20000000 		.4byte	.LFE1-.LFB1
 741 0028 00000000 		.4byte	.LFB3
 742 002c 14000000 		.4byte	.LFE3-.LFB3
 743 0030 00000000 		.4byte	0x0
 744 0034 00000000 		.4byte	0x0
 745              		.section	.debug_ranges,"",%progbits
 746              	.Ldebug_ranges0:
 747 0000 00000000 		.4byte	.LFB0
 748 0004 28000000 		.4byte	.LFE0
 749 0008 00000000 		.4byte	.LFB2
 750 000c 2C000000 		.4byte	.LFE2
 751 0010 00000000 		.4byte	.LFB1
 752 0014 20000000 		.4byte	.LFE1
 753 0018 00000000 		.4byte	.LFB3
 754 001c 14000000 		.4byte	.LFE3
 755 0020 00000000 		.4byte	0x0
 756 0024 00000000 		.4byte	0x0
 757              		.section	.debug_str,"MS",%progbits,1
 758              	.LASF9:
 759 0000 6C6F6E67 		.ascii	"long long int\000"
 759      206C6F6E 
 759      6720696E 
 759      7400
 760              	.LASF23:
 761 000e 6368436F 		.ascii	"chCoreStatus\000"
 761      72655374 
 761      61747573 
 761      00
 762              	.LASF19:
 763 001b 474E5520 		.ascii	"GNU C 4.5.2\000"
 763      4320342E 
 763      352E3200 
 764              	.LASF2:
 765 0027 73697A65 		.ascii	"size_t\000"
 765      5F7400
 766              	.LASF17:
 767 002e 6E657874 		.ascii	"nextmem\000"
 767      6D656D00 
 768              	.LASF20:
 769 0036 2E2E2F63 		.ascii	"../chibios/os/kernel/src/chmemcore.c\000"
 769      68696269 
 769      6F732F6F 
 769      732F6B65 
ARM GAS  /tmp/ccjo2pzn.s 			page 15


 769      726E656C 
 770              	.LASF13:
 771 005b 5F5F6865 		.ascii	"__heap_end__\000"
 771      61705F65 
 771      6E645F5F 
 771      00
 772              	.LASF21:
 773 0068 2F686F6D 		.ascii	"/home/z80/projects/dfu.git/firmware-pawn-dev/firmwa"
 773      652F7A38 
 773      302F7072 
 773      6F6A6563 
 773      74732F64 
 774 009b 726500   		.ascii	"re\000"
 775              	.LASF12:
 776 009e 5F5F6865 		.ascii	"__heap_base__\000"
 776      61705F62 
 776      6173655F 
 776      5F00
 777              	.LASF8:
 778 00ac 6C6F6E67 		.ascii	"long unsigned int\000"
 778      20756E73 
 778      69676E65 
 778      6420696E 
 778      7400
 779              	.LASF10:
 780 00be 6C6F6E67 		.ascii	"long long unsigned int\000"
 780      206C6F6E 
 780      6720756E 
 780      7369676E 
 780      65642069 
 781              	.LASF6:
 782 00d5 73686F72 		.ascii	"short unsigned int\000"
 782      7420756E 
 782      7369676E 
 782      65642069 
 782      6E7400
 783              	.LASF3:
 784 00e8 75696E74 		.ascii	"uint8_t\000"
 784      385F7400 
 785              	.LASF4:
 786 00f0 756E7369 		.ascii	"unsigned char\000"
 786      676E6564 
 786      20636861 
 786      7200
 787              	.LASF11:
 788 00fe 63686172 		.ascii	"char\000"
 788      00
 789              	.LASF15:
 790 0103 6368436F 		.ascii	"chCoreAlloc\000"
 790      7265416C 
 790      6C6F6300 
 791              	.LASF7:
 792 010f 6C6F6E67 		.ascii	"long int\000"
 792      20696E74 
 792      00
 793              	.LASF18:
 794 0118 656E646D 		.ascii	"endmem\000"
ARM GAS  /tmp/ccjo2pzn.s 			page 16


 794      656D00
 795              	.LASF14:
 796 011f 6368436F 		.ascii	"chCoreAllocI\000"
 796      7265416C 
 796      6C6F6349 
 796      00
 797              	.LASF1:
 798 012c 7369676E 		.ascii	"signed char\000"
 798      65642063 
 798      68617200 
 799              	.LASF16:
 800 0138 73697A65 		.ascii	"size\000"
 800      00
 801              	.LASF22:
 802 013d 5F636F72 		.ascii	"_core_init\000"
 802      655F696E 
 802      697400
 803              	.LASF5:
 804 0148 73686F72 		.ascii	"short int\000"
 804      7420696E 
 804      7400
 805              	.LASF0:
 806 0152 756E7369 		.ascii	"unsigned int\000"
 806      676E6564 
 806      20696E74 
 806      00
 807              		.ident	"GCC: (Sourcery G++ Lite 2011.03-42) 4.5.2"
ARM GAS  /tmp/ccjo2pzn.s 			page 17


DEFINED SYMBOLS
                            *ABS*:00000000 chmemcore.c
     /tmp/ccjo2pzn.s:24     .text._core_init:00000000 $t
     /tmp/ccjo2pzn.s:29     .text._core_init:00000000 _core_init
     /tmp/ccjo2pzn.s:52     .text._core_init:00000018 $d
     /tmp/ccjo2pzn.s:60     .text.chCoreAllocI:00000000 $t
     /tmp/ccjo2pzn.s:65     .text.chCoreAllocI:00000000 chCoreAllocI
     /tmp/ccjo2pzn.s:107    .text.chCoreAllocI:00000024 $d
     /tmp/ccjo2pzn.s:113    .text.chCoreAlloc:00000000 $t
     /tmp/ccjo2pzn.s:118    .text.chCoreAlloc:00000000 chCoreAlloc
     /tmp/ccjo2pzn.s:158    .text.chCoreStatus:00000000 $t
     /tmp/ccjo2pzn.s:163    .text.chCoreStatus:00000000 chCoreStatus
     /tmp/ccjo2pzn.s:181    .text.chCoreStatus:0000000c $d
     /tmp/ccjo2pzn.s:187    .bss.endmem:00000000 $d
     /tmp/ccjo2pzn.s:191    .bss.endmem:00000000 endmem
     /tmp/ccjo2pzn.s:194    .bss.nextmem:00000000 $d
     /tmp/ccjo2pzn.s:198    .bss.nextmem:00000000 nextmem
                     .debug_frame:00000010 $d

UNDEFINED SYMBOLS
__heap_base__
__heap_end__
chDbgCheckClassI
_port_lock
dbg_check_lock
dbg_check_unlock
_port_unlock
