ARM GAS  /tmp/ccyTkqvK.s 			page 1


   1              		.syntax unified
   2              		.cpu cortex-m3
   3              		.fpu softvfp
   4              		.eabi_attribute 20, 1
   5              		.eabi_attribute 21, 1
   6              		.eabi_attribute 23, 3
   7              		.eabi_attribute 24, 1
   8              		.eabi_attribute 25, 1
   9              		.eabi_attribute 26, 1
  10              		.eabi_attribute 30, 4
  11              		.eabi_attribute 18, 4
  12              		.thumb
  13              		.file	"chsem.c"
  20 0000 46030000 		.text
  20      02004B01 
  20      00000201 
  20      FB0E0D00 
  20      01010101 
  21              	.Ltext0:
  22              		.cfi_sections	.debug_frame
  23              		.section	.text.chSemInit,"ax",%progbits
  24              		.align	1
  25              		.global	chSemInit
  26              		.thumb
  27              		.thumb_func
  28              		.type	chSemInit, %function
  29              	chSemInit:
  30              	.LFB0:
  31              		.file 1 "../chibios/os/kernel/src/chsem.c"
  32              		.loc 1 86 0
  33              		.cfi_startproc
  34              		@ args = 0, pretend = 0, frame = 0
  35              		@ frame_needed = 0, uses_anonymous_args = 0
  36              	.LVL0:
  37 0000 38B5     		push	{r3, r4, r5, lr}
  38              	.LCFI0:
  39              		.cfi_def_cfa_offset 16
  40              		.loc 1 86 0
  41 0002 0D46     		mov	r5, r1
  42              		.cfi_offset 14, -4
  43              		.cfi_offset 5, -8
  44              		.cfi_offset 4, -12
  45              		.cfi_offset 3, -16
  46              		.loc 1 88 0
  47 0004 0446     		mov	r4, r0
  48 0006 08B1     		cbz	r0, .L2
  49              		.loc 1 88 0 is_stmt 0 discriminator 2
  50 0008 0029     		cmp	r1, #0
  51 000a 02DA     		bge	.L3
  52              	.L2:
  53              		.loc 1 88 0 discriminator 1
ARM GAS  /tmp/ccyTkqvK.s 			page 2


  54 000c 0348     		ldr	r0, .L4
  55              	.LVL1:
  56 000e FFF7FEFF 		bl	chDbgPanic
  57              	.LVL2:
  58              	.L3:
  59              		.loc 1 90 0 is_stmt 1
  60 0012 6460     		str	r4, [r4, #4]
  61 0014 2460     		str	r4, [r4, #0]
  62              		.loc 1 91 0
  63 0016 A560     		str	r5, [r4, #8]
  64              		.loc 1 92 0
  65 0018 38BD     		pop	{r3, r4, r5, pc}
  66              	.L5:
  67 001a 00BF     		.align	2
  68              	.L4:
  69 001c 00000000 		.word	.LC0
  70              		.cfi_endproc
  71              	.LFE0:
  72              		.size	chSemInit, .-chSemInit
  73              		.section	.text.chSemResetI,"ax",%progbits
  74              		.align	1
  75              		.global	chSemResetI
  76              		.thumb
  77              		.thumb_func
  78              		.type	chSemResetI, %function
  79              	chSemResetI:
  80              	.LFB2:
  81              		.loc 1 136 0
  82              		.cfi_startproc
  83              		@ args = 0, pretend = 0, frame = 0
  84              		@ frame_needed = 0, uses_anonymous_args = 0
  85              	.LVL3:
  86 0000 70B5     		push	{r4, r5, r6, lr}
  87              	.LCFI1:
  88              		.cfi_def_cfa_offset 16
  89              		.loc 1 136 0
  90 0002 0446     		mov	r4, r0
  91              		.cfi_offset 14, -4
  92              		.cfi_offset 6, -8
  93              		.cfi_offset 5, -12
  94              		.cfi_offset 4, -16
  95 0004 0E46     		mov	r6, r1
  96              		.loc 1 139 0
  97 0006 FFF7FEFF 		bl	chDbgCheckClassI
  98              	.LVL4:
  99              		.loc 1 140 0
 100 000a 0CB1     		cbz	r4, .L7
 101              		.loc 1 140 0 is_stmt 0 discriminator 2
 102 000c 002E     		cmp	r6, #0
 103 000e 02DA     		bge	.L8
 104              	.L7:
 105              		.loc 1 140 0 discriminator 1
 106 0010 0E48     		ldr	r0, .L14
 107 0012 FFF7FEFF 		bl	chDbgPanic
 108              	.L8:
 109              		.loc 1 141 0 is_stmt 1
 110 0016 A368     		ldr	r3, [r4, #8]
ARM GAS  /tmp/ccyTkqvK.s 			page 3


 111 0018 002B     		cmp	r3, #0
 112 001a 2368     		ldr	r3, [r4, #0]
 113 001c 02DB     		blt	.L9
 114              		.loc 1 141 0 is_stmt 0 discriminator 2
 115 001e A342     		cmp	r3, r4
 116 0020 02D1     		bne	.L10
 117 0022 04E0     		b	.L11
 118              	.L9:
 119              		.loc 1 141 0 discriminator 4
 120 0024 A342     		cmp	r3, r4
 121 0026 02D1     		bne	.L11
 122              	.L10:
 123              		.loc 1 141 0 discriminator 3
 124 0028 0948     		ldr	r0, .L14+4
 125 002a FFF7FEFF 		bl	chDbgPanic
 126              	.L11:
 127              		.loc 1 146 0 is_stmt 1
 128 002e A568     		ldr	r5, [r4, #8]
 129              	.LVL5:
 130              		.loc 1 147 0
 131 0030 A660     		str	r6, [r4, #8]
 132              		.loc 1 148 0
 133 0032 07E0     		b	.L12
 134              	.LVL6:
 135              	.L13:
 136              		.loc 1 149 0
 137 0034 2046     		mov	r0, r4
 138 0036 FFF7FEFF 		bl	lifo_remove
 139 003a FFF7FEFF 		bl	chSchReadyI
 140 003e 6FF00103 		mvn	r3, #1
 141 0042 8362     		str	r3, [r0, #40]
 142              	.L12:
 143              		.loc 1 148 0 discriminator 1
 144 0044 0135     		adds	r5, r5, #1
 145              	.LVL7:
 146 0046 002D     		cmp	r5, #0
 147 0048 F4DD     		ble	.L13
 148              		.loc 1 150 0
 149 004a 70BD     		pop	{r4, r5, r6, pc}
 150              	.L15:
 151              		.align	2
 152              	.L14:
 153 004c 0E000000 		.word	.LC1
 154 0050 1E000000 		.word	.LC2
 155              		.cfi_endproc
 156              	.LFE2:
 157              		.size	chSemResetI, .-chSemResetI
 158              		.section	.text.chSemReset,"ax",%progbits
 159              		.align	1
 160              		.global	chSemReset
 161              		.thumb
 162              		.thumb_func
 163              		.type	chSemReset, %function
 164              	chSemReset:
 165              	.LFB1:
 166              		.loc 1 109 0
 167              		.cfi_startproc
ARM GAS  /tmp/ccyTkqvK.s 			page 4


 168              		@ args = 0, pretend = 0, frame = 0
 169              		@ frame_needed = 0, uses_anonymous_args = 0
 170              	.LVL8:
 171 0000 38B5     		push	{r3, r4, r5, lr}
 172              	.LCFI2:
 173              		.cfi_def_cfa_offset 16
 174              		.loc 1 109 0
 175 0002 0546     		mov	r5, r0
 176              		.cfi_offset 14, -4
 177              		.cfi_offset 5, -8
 178              		.cfi_offset 4, -12
 179              		.cfi_offset 3, -16
 180 0004 0C46     		mov	r4, r1
 181              		.loc 1 111 0
 182              	@ 111 "../chibios/os/kernel/src/chsem.c" 1
 183 0006 FFF7FEFF 		bl      _port_lock
 184              	@ 0 "" 2
 185              		.thumb
 186 000a FFF7FEFF 		bl	dbg_check_lock
 187              	.LVL9:
 188              		.loc 1 112 0
 189 000e 2846     		mov	r0, r5
 190 0010 2146     		mov	r1, r4
 191 0012 FFF7FEFF 		bl	chSemResetI
 192              		.loc 1 113 0
 193 0016 FFF7FEFF 		bl	chSchRescheduleS
 194              		.loc 1 114 0
 195 001a FFF7FEFF 		bl	dbg_check_unlock
 196              	@ 114 "../chibios/os/kernel/src/chsem.c" 1
 197 001e FFF7FEFF 		bl      _port_unlock
 198              	@ 0 "" 2
 199              		.loc 1 115 0
 200              		.thumb
 201 0022 38BD     		pop	{r3, r4, r5, pc}
 202              		.cfi_endproc
 203              	.LFE1:
 204              		.size	chSemReset, .-chSemReset
 205              		.section	.text.chSemWaitS,"ax",%progbits
 206              		.align	1
 207              		.global	chSemWaitS
 208              		.thumb
 209              		.thumb_func
 210              		.type	chSemWaitS, %function
 211              	chSemWaitS:
 212              	.LFB4:
 213              		.loc 1 185 0
 214              		.cfi_startproc
 215              		@ args = 0, pretend = 0, frame = 0
 216              		@ frame_needed = 0, uses_anonymous_args = 0
 217              	.LVL10:
 218 0000 38B5     		push	{r3, r4, r5, lr}
 219              	.LCFI3:
 220              		.cfi_def_cfa_offset 16
 221              		.loc 1 185 0
 222 0002 0546     		mov	r5, r0
 223              		.cfi_offset 14, -4
 224              		.cfi_offset 5, -8
ARM GAS  /tmp/ccyTkqvK.s 			page 5


 225              		.cfi_offset 4, -12
 226              		.cfi_offset 3, -16
 227              		.loc 1 187 0
 228 0004 FFF7FEFF 		bl	chDbgCheckClassS
 229              	.LVL11:
 230              		.loc 1 188 0
 231 0008 15B9     		cbnz	r5, .L18
 232              		.loc 1 188 0 is_stmt 0 discriminator 1
 233 000a 1148     		ldr	r0, .L24
 234 000c FFF7FEFF 		bl	chDbgPanic
 235              	.L18:
 236              		.loc 1 189 0 is_stmt 1
 237 0010 AB68     		ldr	r3, [r5, #8]
 238 0012 002B     		cmp	r3, #0
 239 0014 2B68     		ldr	r3, [r5, #0]
 240 0016 02DB     		blt	.L19
 241              		.loc 1 189 0 is_stmt 0 discriminator 2
 242 0018 AB42     		cmp	r3, r5
 243 001a 02D1     		bne	.L20
 244 001c 04E0     		b	.L21
 245              	.L19:
 246              		.loc 1 189 0 discriminator 4
 247 001e AB42     		cmp	r3, r5
 248 0020 02D1     		bne	.L21
 249              	.L20:
 250              		.loc 1 189 0 discriminator 3
 251 0022 0C48     		ldr	r0, .L24+4
 252 0024 FFF7FEFF 		bl	chDbgPanic
 253              	.L21:
 254              		.loc 1 194 0 is_stmt 1
 255 0028 AB68     		ldr	r3, [r5, #8]
 256 002a 013B     		subs	r3, r3, #1
 257 002c 002B     		cmp	r3, #0
 258 002e AB60     		str	r3, [r5, #8]
 259 0030 0BDA     		bge	.L23
 260              		.loc 1 195 0
 261 0032 094C     		ldr	r4, .L24+8
 262              		.loc 1 196 0
 263 0034 2946     		mov	r1, r5
 264              		.loc 1 195 0
 265 0036 E069     		ldr	r0, [r4, #28]
 266 0038 8562     		str	r5, [r0, #40]
 267              		.loc 1 196 0
 268 003a FFF7FEFF 		bl	queue_insert
 269              		.loc 1 197 0
 270 003e 0320     		movs	r0, #3
 271 0040 FFF7FEFF 		bl	chSchGoSleepS
 272              		.loc 1 198 0
 273 0044 E369     		ldr	r3, [r4, #28]
 274 0046 986A     		ldr	r0, [r3, #40]
 275 0048 38BD     		pop	{r3, r4, r5, pc}
 276              	.L23:
 277              		.loc 1 200 0
 278 004a 0020     		movs	r0, #0
 279              		.loc 1 201 0
 280 004c 38BD     		pop	{r3, r4, r5, pc}
 281              	.L25:
ARM GAS  /tmp/ccyTkqvK.s 			page 6


 282 004e 00BF     		.align	2
 283              	.L24:
 284 0050 30000000 		.word	.LC3
 285 0054 3F000000 		.word	.LC4
 286 0058 00000000 		.word	rlist
 287              		.cfi_endproc
 288              	.LFE4:
 289              		.size	chSemWaitS, .-chSemWaitS
 290              		.section	.text.chSemWait,"ax",%progbits
 291              		.align	1
 292              		.global	chSemWait
 293              		.thumb
 294              		.thumb_func
 295              		.type	chSemWait, %function
 296              	chSemWait:
 297              	.LFB3:
 298              		.loc 1 164 0
 299              		.cfi_startproc
 300              		@ args = 0, pretend = 0, frame = 0
 301              		@ frame_needed = 0, uses_anonymous_args = 0
 302              	.LVL12:
 303 0000 10B5     		push	{r4, lr}
 304              	.LCFI4:
 305              		.cfi_def_cfa_offset 8
 306              		.loc 1 164 0
 307 0002 0446     		mov	r4, r0
 308              		.cfi_offset 14, -4
 309              		.cfi_offset 4, -8
 310              		.loc 1 167 0
 311              	@ 167 "../chibios/os/kernel/src/chsem.c" 1
 312 0004 FFF7FEFF 		bl      _port_lock
 313              	@ 0 "" 2
 314              		.thumb
 315 0008 FFF7FEFF 		bl	dbg_check_lock
 316              	.LVL13:
 317              		.loc 1 168 0
 318 000c 2046     		mov	r0, r4
 319 000e FFF7FEFF 		bl	chSemWaitS
 320 0012 0446     		mov	r4, r0
 321              	.LVL14:
 322              		.loc 1 169 0
 323 0014 FFF7FEFF 		bl	dbg_check_unlock
 324              	.LVL15:
 325              	@ 169 "../chibios/os/kernel/src/chsem.c" 1
 326 0018 FFF7FEFF 		bl      _port_unlock
 327              	@ 0 "" 2
 328              		.loc 1 171 0
 329              		.thumb
 330 001c 2046     		mov	r0, r4
 331 001e 10BD     		pop	{r4, pc}
 332              		.cfi_endproc
 333              	.LFE3:
 334              		.size	chSemWait, .-chSemWait
 335              		.section	.text.chSemWaitTimeoutS,"ax",%progbits
 336              		.align	1
 337              		.global	chSemWaitTimeoutS
 338              		.thumb
ARM GAS  /tmp/ccyTkqvK.s 			page 7


 339              		.thumb_func
 340              		.type	chSemWaitTimeoutS, %function
 341              	chSemWaitTimeoutS:
 342              	.LFB6:
 343              		.loc 1 250 0
 344              		.cfi_startproc
 345              		@ args = 0, pretend = 0, frame = 0
 346              		@ frame_needed = 0, uses_anonymous_args = 0
 347              	.LVL16:
 348 0000 70B5     		push	{r4, r5, r6, lr}
 349              	.LCFI5:
 350              		.cfi_def_cfa_offset 16
 351              		.loc 1 250 0
 352 0002 0446     		mov	r4, r0
 353              		.cfi_offset 14, -4
 354              		.cfi_offset 6, -8
 355              		.cfi_offset 5, -12
 356              		.cfi_offset 4, -16
 357 0004 0D46     		mov	r5, r1
 358              		.loc 1 252 0
 359 0006 FFF7FEFF 		bl	chDbgCheckClassS
 360              	.LVL17:
 361              		.loc 1 253 0
 362 000a 14B9     		cbnz	r4, .L28
 363              		.loc 1 253 0 is_stmt 0 discriminator 1
 364 000c 1348     		ldr	r0, .L35
 365 000e FFF7FEFF 		bl	chDbgPanic
 366              	.L28:
 367              		.loc 1 254 0 is_stmt 1
 368 0012 A368     		ldr	r3, [r4, #8]
 369 0014 002B     		cmp	r3, #0
 370 0016 2368     		ldr	r3, [r4, #0]
 371 0018 02DB     		blt	.L29
 372              		.loc 1 254 0 is_stmt 0 discriminator 2
 373 001a A342     		cmp	r3, r4
 374 001c 02D1     		bne	.L30
 375 001e 04E0     		b	.L31
 376              	.L29:
 377              		.loc 1 254 0 discriminator 4
 378 0020 A342     		cmp	r3, r4
 379 0022 02D1     		bne	.L31
 380              	.L30:
 381              		.loc 1 254 0 discriminator 3
 382 0024 0E48     		ldr	r0, .L35+4
 383 0026 FFF7FEFF 		bl	chDbgPanic
 384              	.L31:
 385              		.loc 1 259 0 is_stmt 1
 386 002a A368     		ldr	r3, [r4, #8]
 387 002c 5A1E     		subs	r2, r3, #1
 388 002e 002A     		cmp	r2, #0
 389 0030 A260     		str	r2, [r4, #8]
 390 0032 10DA     		bge	.L34
 391              		.loc 1 260 0
 392 0034 1DB9     		cbnz	r5, .L33
 393              		.loc 1 261 0
 394 0036 A360     		str	r3, [r4, #8]
 395              		.loc 1 262 0
ARM GAS  /tmp/ccyTkqvK.s 			page 8


 396 0038 4FF0FF30 		mov	r0, #-1
 397 003c 70BD     		pop	{r4, r5, r6, pc}
 398              	.L33:
 399              		.loc 1 264 0
 400 003e 094B     		ldr	r3, .L35+8
 401              		.loc 1 265 0
 402 0040 2146     		mov	r1, r4
 403              		.loc 1 264 0
 404 0042 D869     		ldr	r0, [r3, #28]
 405 0044 8462     		str	r4, [r0, #40]
 406              		.loc 1 265 0
 407 0046 FFF7FEFF 		bl	queue_insert
 408              		.loc 1 266 0
 409 004a 0320     		movs	r0, #3
 410 004c 2946     		mov	r1, r5
 411              		.loc 1 269 0
 412 004e BDE87040 		pop	{r4, r5, r6, lr}
 413              		.loc 1 266 0
 414 0052 FFF7FEBF 		b	chSchGoSleepTimeoutS
 415              	.L34:
 416              		.loc 1 268 0
 417 0056 0020     		movs	r0, #0
 418              		.loc 1 269 0
 419 0058 70BD     		pop	{r4, r5, r6, pc}
 420              	.L36:
 421 005a 00BF     		.align	2
 422              	.L35:
 423 005c 50000000 		.word	.LC5
 424 0060 66000000 		.word	.LC6
 425 0064 00000000 		.word	rlist
 426              		.cfi_endproc
 427              	.LFE6:
 428              		.size	chSemWaitTimeoutS, .-chSemWaitTimeoutS
 429              		.section	.text.chSemWaitTimeout,"ax",%progbits
 430              		.align	1
 431              		.global	chSemWaitTimeout
 432              		.thumb
 433              		.thumb_func
 434              		.type	chSemWaitTimeout, %function
 435              	chSemWaitTimeout:
 436              	.LFB5:
 437              		.loc 1 222 0
 438              		.cfi_startproc
 439              		@ args = 0, pretend = 0, frame = 0
 440              		@ frame_needed = 0, uses_anonymous_args = 0
 441              	.LVL18:
 442 0000 38B5     		push	{r3, r4, r5, lr}
 443              	.LCFI6:
 444              		.cfi_def_cfa_offset 16
 445              		.loc 1 222 0
 446 0002 0546     		mov	r5, r0
 447              		.cfi_offset 14, -4
 448              		.cfi_offset 5, -8
 449              		.cfi_offset 4, -12
 450              		.cfi_offset 3, -16
 451 0004 0C46     		mov	r4, r1
 452              		.loc 1 225 0
ARM GAS  /tmp/ccyTkqvK.s 			page 9


 453              	@ 225 "../chibios/os/kernel/src/chsem.c" 1
 454 0006 FFF7FEFF 		bl      _port_lock
 455              	@ 0 "" 2
 456              		.thumb
 457 000a FFF7FEFF 		bl	dbg_check_lock
 458              	.LVL19:
 459              		.loc 1 226 0
 460 000e 2146     		mov	r1, r4
 461 0010 2846     		mov	r0, r5
 462 0012 FFF7FEFF 		bl	chSemWaitTimeoutS
 463 0016 0446     		mov	r4, r0
 464              	.LVL20:
 465              		.loc 1 227 0
 466 0018 FFF7FEFF 		bl	dbg_check_unlock
 467              	.LVL21:
 468              	@ 227 "../chibios/os/kernel/src/chsem.c" 1
 469 001c FFF7FEFF 		bl      _port_unlock
 470              	@ 0 "" 2
 471              		.loc 1 229 0
 472              		.thumb
 473 0020 2046     		mov	r0, r4
 474 0022 38BD     		pop	{r3, r4, r5, pc}
 475              		.cfi_endproc
 476              	.LFE5:
 477              		.size	chSemWaitTimeout, .-chSemWaitTimeout
 478              		.section	.text.chSemSignal,"ax",%progbits
 479              		.align	1
 480              		.global	chSemSignal
 481              		.thumb
 482              		.thumb_func
 483              		.type	chSemSignal, %function
 484              	chSemSignal:
 485              	.LFB7:
 486              		.loc 1 278 0
 487              		.cfi_startproc
 488              		@ args = 0, pretend = 0, frame = 0
 489              		@ frame_needed = 0, uses_anonymous_args = 0
 490              	.LVL22:
 491 0000 10B5     		push	{r4, lr}
 492              	.LCFI7:
 493              		.cfi_def_cfa_offset 8
 494              		.loc 1 280 0
 495 0002 0446     		mov	r4, r0
 496              		.cfi_offset 14, -4
 497              		.cfi_offset 4, -8
 498 0004 10B9     		cbnz	r0, .L39
 499              		.loc 1 280 0 is_stmt 0 discriminator 1
 500 0006 1148     		ldr	r0, .L44
 501              	.LVL23:
 502 0008 FFF7FEFF 		bl	chDbgPanic
 503              	.L39:
 504              		.loc 1 281 0 is_stmt 1
 505 000c A368     		ldr	r3, [r4, #8]
 506 000e 002B     		cmp	r3, #0
 507 0010 2368     		ldr	r3, [r4, #0]
 508 0012 02DB     		blt	.L40
 509              		.loc 1 281 0 is_stmt 0 discriminator 2
ARM GAS  /tmp/ccyTkqvK.s 			page 10


 510 0014 A342     		cmp	r3, r4
 511 0016 02D1     		bne	.L41
 512 0018 04E0     		b	.L42
 513              	.L40:
 514              		.loc 1 281 0 discriminator 4
 515 001a A342     		cmp	r3, r4
 516 001c 02D1     		bne	.L42
 517              	.L41:
 518              		.loc 1 281 0 discriminator 3
 519 001e 0C48     		ldr	r0, .L44+4
 520 0020 FFF7FEFF 		bl	chDbgPanic
 521              	.L42:
 522              		.loc 1 286 0 is_stmt 1
 523              	@ 286 "../chibios/os/kernel/src/chsem.c" 1
 524 0024 FFF7FEFF 		bl      _port_lock
 525              	@ 0 "" 2
 526              		.thumb
 527 0028 FFF7FEFF 		bl	dbg_check_lock
 528              		.loc 1 287 0
 529 002c A368     		ldr	r3, [r4, #8]
 530 002e 0133     		adds	r3, r3, #1
 531 0030 002B     		cmp	r3, #0
 532 0032 A360     		str	r3, [r4, #8]
 533 0034 05DC     		bgt	.L43
 534              		.loc 1 288 0
 535 0036 2046     		mov	r0, r4
 536 0038 FFF7FEFF 		bl	fifo_remove
 537 003c 0021     		movs	r1, #0
 538 003e FFF7FEFF 		bl	chSchWakeupS
 539              	.L43:
 540              		.loc 1 289 0
 541 0042 FFF7FEFF 		bl	dbg_check_unlock
 542              	@ 289 "../chibios/os/kernel/src/chsem.c" 1
 543 0046 FFF7FEFF 		bl      _port_unlock
 544              	@ 0 "" 2
 545              		.loc 1 290 0
 546              		.thumb
 547 004a 10BD     		pop	{r4, pc}
 548              	.L45:
 549              		.align	2
 550              	.L44:
 551 004c 7E000000 		.word	.LC7
 552 0050 8E000000 		.word	.LC8
 553              		.cfi_endproc
 554              	.LFE7:
 555              		.size	chSemSignal, .-chSemSignal
 556              		.section	.text.chSemSignalI,"ax",%progbits
 557              		.align	1
 558              		.global	chSemSignalI
 559              		.thumb
 560              		.thumb_func
 561              		.type	chSemSignalI, %function
 562              	chSemSignalI:
 563              	.LFB8:
 564              		.loc 1 303 0
 565              		.cfi_startproc
 566              		@ args = 0, pretend = 0, frame = 0
ARM GAS  /tmp/ccyTkqvK.s 			page 11


 567              		@ frame_needed = 0, uses_anonymous_args = 0
 568              	.LVL24:
 569 0000 10B5     		push	{r4, lr}
 570              	.LCFI8:
 571              		.cfi_def_cfa_offset 8
 572              		.loc 1 303 0
 573 0002 0446     		mov	r4, r0
 574              		.cfi_offset 14, -4
 575              		.cfi_offset 4, -8
 576              		.loc 1 305 0
 577 0004 FFF7FEFF 		bl	chDbgCheckClassI
 578              	.LVL25:
 579              		.loc 1 306 0
 580 0008 14B9     		cbnz	r4, .L47
 581              		.loc 1 306 0 is_stmt 0 discriminator 1
 582 000a 0F48     		ldr	r0, .L52
 583 000c FFF7FEFF 		bl	chDbgPanic
 584              	.L47:
 585              		.loc 1 307 0 is_stmt 1
 586 0010 A368     		ldr	r3, [r4, #8]
 587 0012 002B     		cmp	r3, #0
 588 0014 2368     		ldr	r3, [r4, #0]
 589 0016 02DB     		blt	.L48
 590              		.loc 1 307 0 is_stmt 0 discriminator 2
 591 0018 A342     		cmp	r3, r4
 592 001a 02D1     		bne	.L49
 593 001c 04E0     		b	.L50
 594              	.L48:
 595              		.loc 1 307 0 discriminator 4
 596 001e A342     		cmp	r3, r4
 597 0020 02D1     		bne	.L50
 598              	.L49:
 599              		.loc 1 307 0 discriminator 3
 600 0022 0A48     		ldr	r0, .L52+4
 601 0024 FFF7FEFF 		bl	chDbgPanic
 602              	.L50:
 603              		.loc 1 312 0 is_stmt 1
 604 0028 A368     		ldr	r3, [r4, #8]
 605 002a 0133     		adds	r3, r3, #1
 606 002c 002B     		cmp	r3, #0
 607 002e A360     		str	r3, [r4, #8]
 608 0030 08DC     		bgt	.L46
 609              	.LBB2:
 610              		.loc 1 315 0
 611 0032 2046     		mov	r0, r4
 612 0034 FFF7FEFF 		bl	fifo_remove
 613              		.loc 1 316 0
 614 0038 0022     		movs	r2, #0
 615 003a 8262     		str	r2, [r0, #40]
 616              	.LBE2:
 617              		.loc 1 319 0
 618 003c BDE81040 		pop	{r4, lr}
 619              	.LBB3:
 620              		.loc 1 317 0
 621 0040 FFF7FEBF 		b	chSchReadyI
 622              	.L46:
 623 0044 10BD     		pop	{r4, pc}
ARM GAS  /tmp/ccyTkqvK.s 			page 12


 624              	.L53:
 625 0046 00BF     		.align	2
 626              	.L52:
 627 0048 A0000000 		.word	.LC9
 628 004c B1000000 		.word	.LC10
 629              	.LBE3:
 630              		.cfi_endproc
 631              	.LFE8:
 632              		.size	chSemSignalI, .-chSemSignalI
 633              		.section	.text.chSemAddCounterI,"ax",%progbits
 634              		.align	1
 635              		.global	chSemAddCounterI
 636              		.thumb
 637              		.thumb_func
 638              		.type	chSemAddCounterI, %function
 639              	chSemAddCounterI:
 640              	.LFB9:
 641              		.loc 1 334 0
 642              		.cfi_startproc
 643              		@ args = 0, pretend = 0, frame = 0
 644              		@ frame_needed = 0, uses_anonymous_args = 0
 645              	.LVL26:
 646 0000 38B5     		push	{r3, r4, r5, lr}
 647              	.LCFI9:
 648              		.cfi_def_cfa_offset 16
 649              		.loc 1 334 0
 650 0002 0446     		mov	r4, r0
 651              		.cfi_offset 14, -4
 652              		.cfi_offset 5, -8
 653              		.cfi_offset 4, -12
 654              		.cfi_offset 3, -16
 655 0004 0D46     		mov	r5, r1
 656              		.loc 1 336 0
 657 0006 FFF7FEFF 		bl	chDbgCheckClassI
 658              	.LVL27:
 659              		.loc 1 337 0
 660 000a 0CB1     		cbz	r4, .L55
 661              		.loc 1 337 0 is_stmt 0 discriminator 2
 662 000c 002D     		cmp	r5, #0
 663 000e 02DC     		bgt	.L56
 664              	.L55:
 665              		.loc 1 337 0 discriminator 1
 666 0010 0F48     		ldr	r0, .L63
 667 0012 FFF7FEFF 		bl	chDbgPanic
 668              	.L56:
 669              		.loc 1 338 0 is_stmt 1
 670 0016 A368     		ldr	r3, [r4, #8]
 671 0018 002B     		cmp	r3, #0
 672 001a 2368     		ldr	r3, [r4, #0]
 673 001c 02DB     		blt	.L57
 674              		.loc 1 338 0 is_stmt 0 discriminator 2
 675 001e A342     		cmp	r3, r4
 676 0020 02D1     		bne	.L58
 677 0022 12E0     		b	.L60
 678              	.L57:
 679              		.loc 1 338 0 discriminator 4
 680 0024 A342     		cmp	r3, r4
ARM GAS  /tmp/ccyTkqvK.s 			page 13


 681 0026 10D1     		bne	.L60
 682              	.L58:
 683              		.loc 1 338 0 discriminator 3
 684 0028 0A48     		ldr	r0, .L63+4
 685 002a FFF7FEFF 		bl	chDbgPanic
 686 002e 0CE0     		b	.L60
 687              	.L62:
 688              		.loc 1 344 0 is_stmt 1
 689 0030 A368     		ldr	r3, [r4, #8]
 690 0032 0133     		adds	r3, r3, #1
 691 0034 002B     		cmp	r3, #0
 692 0036 A360     		str	r3, [r4, #8]
 693 0038 06DC     		bgt	.L61
 694              		.loc 1 345 0
 695 003a 2046     		mov	r0, r4
 696 003c FFF7FEFF 		bl	fifo_remove
 697 0040 FFF7FEFF 		bl	chSchReadyI
 698 0044 0023     		movs	r3, #0
 699 0046 8362     		str	r3, [r0, #40]
 700              	.L61:
 701              		.loc 1 346 0
 702 0048 013D     		subs	r5, r5, #1
 703              	.LVL28:
 704              	.L60:
 705              		.loc 1 343 0 discriminator 1
 706 004a 002D     		cmp	r5, #0
 707 004c F0DC     		bgt	.L62
 708              		.loc 1 348 0
 709 004e 38BD     		pop	{r3, r4, r5, pc}
 710              	.L64:
 711              		.align	2
 712              	.L63:
 713 0050 C4000000 		.word	.LC11
 714 0054 D9000000 		.word	.LC12
 715              		.cfi_endproc
 716              	.LFE9:
 717              		.size	chSemAddCounterI, .-chSemAddCounterI
 718              		.section	.text.chSemSignalWait,"ax",%progbits
 719              		.align	1
 720              		.global	chSemSignalWait
 721              		.thumb
 722              		.thumb_func
 723              		.type	chSemSignalWait, %function
 724              	chSemSignalWait:
 725              	.LFB10:
 726              		.loc 1 366 0
 727              		.cfi_startproc
 728              		@ args = 0, pretend = 0, frame = 0
 729              		@ frame_needed = 0, uses_anonymous_args = 0
 730              	.LVL29:
 731 0000 38B5     		push	{r3, r4, r5, lr}
 732              	.LCFI10:
 733              		.cfi_def_cfa_offset 16
 734              		.loc 1 366 0
 735 0002 0C46     		mov	r4, r1
 736              		.cfi_offset 14, -4
 737              		.cfi_offset 5, -8
ARM GAS  /tmp/ccyTkqvK.s 			page 14


 738              		.cfi_offset 4, -12
 739              		.cfi_offset 3, -16
 740              		.loc 1 369 0
 741 0004 0546     		mov	r5, r0
 742 0006 00B1     		cbz	r0, .L66
 743              		.loc 1 369 0 is_stmt 0 discriminator 2
 744 0008 11B9     		cbnz	r1, .L67
 745              	.L66:
 746              		.loc 1 369 0 discriminator 1
 747 000a 2248     		ldr	r0, .L77
 748              	.LVL30:
 749 000c FFF7FEFF 		bl	chDbgPanic
 750              	.LVL31:
 751              	.L67:
 752              		.loc 1 370 0 is_stmt 1
 753 0010 AB68     		ldr	r3, [r5, #8]
 754 0012 002B     		cmp	r3, #0
 755 0014 2B68     		ldr	r3, [r5, #0]
 756 0016 02DB     		blt	.L68
 757              		.loc 1 370 0 is_stmt 0 discriminator 2
 758 0018 AB42     		cmp	r3, r5
 759 001a 02D1     		bne	.L69
 760 001c 04E0     		b	.L70
 761              	.L68:
 762              		.loc 1 370 0 discriminator 4
 763 001e AB42     		cmp	r3, r5
 764 0020 02D1     		bne	.L70
 765              	.L69:
 766              		.loc 1 370 0 discriminator 3
 767 0022 1D48     		ldr	r0, .L77+4
 768 0024 FFF7FEFF 		bl	chDbgPanic
 769              	.L70:
 770              		.loc 1 374 0 is_stmt 1
 771 0028 A368     		ldr	r3, [r4, #8]
 772 002a 002B     		cmp	r3, #0
 773 002c 2368     		ldr	r3, [r4, #0]
 774 002e 02DB     		blt	.L71
 775              		.loc 1 374 0 is_stmt 0 discriminator 2
 776 0030 A342     		cmp	r3, r4
 777 0032 02D1     		bne	.L72
 778 0034 04E0     		b	.L73
 779              	.L71:
 780              		.loc 1 374 0 discriminator 4
 781 0036 A342     		cmp	r3, r4
 782 0038 02D1     		bne	.L73
 783              	.L72:
 784              		.loc 1 374 0 discriminator 3
 785 003a 1848     		ldr	r0, .L77+8
 786 003c FFF7FEFF 		bl	chDbgPanic
 787              	.L73:
 788              		.loc 1 379 0 is_stmt 1
 789              	@ 379 "../chibios/os/kernel/src/chsem.c" 1
 790 0040 FFF7FEFF 		bl      _port_lock
 791              	@ 0 "" 2
 792              		.thumb
 793 0044 FFF7FEFF 		bl	dbg_check_lock
 794              		.loc 1 380 0
ARM GAS  /tmp/ccyTkqvK.s 			page 15


 795 0048 AB68     		ldr	r3, [r5, #8]
 796 004a 0133     		adds	r3, r3, #1
 797 004c 002B     		cmp	r3, #0
 798 004e AB60     		str	r3, [r5, #8]
 799 0050 06DC     		bgt	.L74
 800              		.loc 1 381 0
 801 0052 2846     		mov	r0, r5
 802 0054 FFF7FEFF 		bl	fifo_remove
 803 0058 FFF7FEFF 		bl	chSchReadyI
 804 005c 0023     		movs	r3, #0
 805 005e 8362     		str	r3, [r0, #40]
 806              	.L74:
 807              		.loc 1 382 0
 808 0060 A368     		ldr	r3, [r4, #8]
 809 0062 013B     		subs	r3, r3, #1
 810 0064 002B     		cmp	r3, #0
 811 0066 A360     		str	r3, [r4, #8]
 812 0068 0BDA     		bge	.L75
 813              	.LBB4:
 814              		.loc 1 383 0
 815 006a 0D4B     		ldr	r3, .L77+12
 816              		.loc 1 384 0
 817 006c 2146     		mov	r1, r4
 818              		.loc 1 383 0
 819 006e DD69     		ldr	r5, [r3, #28]
 820              	.LVL32:
 821              		.loc 1 384 0
 822 0070 2846     		mov	r0, r5
 823 0072 FFF7FEFF 		bl	queue_insert
 824              	.LVL33:
 825              		.loc 1 385 0
 826 0076 AC62     		str	r4, [r5, #40]
 827              		.loc 1 386 0
 828 0078 0320     		movs	r0, #3
 829 007a FFF7FEFF 		bl	chSchGoSleepS
 830              		.loc 1 387 0
 831 007e AC6A     		ldr	r4, [r5, #40]
 832              	.LVL34:
 833 0080 02E0     		b	.L76
 834              	.LVL35:
 835              	.L75:
 836              	.LBE4:
 837              		.loc 1 390 0
 838 0082 FFF7FEFF 		bl	chSchRescheduleS
 839              	.LVL36:
 840              		.loc 1 391 0
 841 0086 0024     		movs	r4, #0
 842              	.LVL37:
 843              	.L76:
 844              		.loc 1 393 0
 845 0088 FFF7FEFF 		bl	dbg_check_unlock
 846              	@ 393 "../chibios/os/kernel/src/chsem.c" 1
 847 008c FFF7FEFF 		bl      _port_unlock
 848              	@ 0 "" 2
 849              		.loc 1 395 0
 850              		.thumb
 851 0090 2046     		mov	r0, r4
ARM GAS  /tmp/ccyTkqvK.s 			page 16


 852 0092 38BD     		pop	{r3, r4, r5, pc}
 853              	.L78:
 854              		.align	2
 855              	.L77:
 856 0094 F0000000 		.word	.LC13
 857 0098 04010000 		.word	.LC14
 858 009c 1A010000 		.word	.LC15
 859 00a0 00000000 		.word	rlist
 860              		.cfi_endproc
 861              	.LFE10:
 862              		.size	chSemSignalWait, .-chSemSignalWait
 863              		.section	.rodata.str1.1,"aMS",%progbits,1
 864              	.LC0:
 865 0000 22636853 		.ascii	"\"chSemInit\"()\000"
 865      656D496E 
 865      69742228 
 865      2900
 866              	.LC1:
 867 000e 22636853 		.ascii	"\"chSemResetI\"()\000"
 867      656D5265 
 867      73657449 
 867      22282900 
 868              	.LC2:
 869 001e 63685365 		.ascii	"chSemResetI(), #1\000"
 869      6D526573 
 869      65744928 
 869      292C2023 
 869      3100
 870              	.LC3:
 871 0030 22636853 		.ascii	"\"chSemWaitS\"()\000"
 871      656D5761 
 871      69745322 
 871      282900
 872              	.LC4:
 873 003f 63685365 		.ascii	"chSemWaitS(), #1\000"
 873      6D576169 
 873      74532829 
 873      2C202331 
 873      00
 874              	.LC5:
 875 0050 22636853 		.ascii	"\"chSemWaitTimeoutS\"()\000"
 875      656D5761 
 875      69745469 
 875      6D656F75 
 875      74532228 
 876              	.LC6:
 877 0066 63685365 		.ascii	"chSemWaitTimeoutS(), #1\000"
 877      6D576169 
 877      7454696D 
 877      656F7574 
 877      5328292C 
 878              	.LC7:
 879 007e 22636853 		.ascii	"\"chSemSignal\"()\000"
 879      656D5369 
 879      676E616C 
 879      22282900 
 880              	.LC8:
ARM GAS  /tmp/ccyTkqvK.s 			page 17


 881 008e 63685365 		.ascii	"chSemSignal(), #1\000"
 881      6D536967 
 881      6E616C28 
 881      292C2023 
 881      3100
 882              	.LC9:
 883 00a0 22636853 		.ascii	"\"chSemSignalI\"()\000"
 883      656D5369 
 883      676E616C 
 883      49222829 
 883      00
 884              	.LC10:
 885 00b1 63685365 		.ascii	"chSemSignalI(), #1\000"
 885      6D536967 
 885      6E616C49 
 885      28292C20 
 885      233100
 886              	.LC11:
 887 00c4 22636853 		.ascii	"\"chSemAddCounterI\"()\000"
 887      656D4164 
 887      64436F75 
 887      6E746572 
 887      49222829 
 888              	.LC12:
 889 00d9 63685365 		.ascii	"chSemAddCounterI(), #1\000"
 889      6D416464 
 889      436F756E 
 889      74657249 
 889      28292C20 
 890              	.LC13:
 891 00f0 22636853 		.ascii	"\"chSemSignalWait\"()\000"
 891      656D5369 
 891      676E616C 
 891      57616974 
 891      22282900 
 892              	.LC14:
 893 0104 63685365 		.ascii	"chSemSignalWait(), #1\000"
 893      6D536967 
 893      6E616C57 
 893      61697428 
 893      292C2023 
 894              	.LC15:
 895 011a 63685365 		.ascii	"chSemSignalWait(), #2\000"
 895      6D536967 
 895      6E616C57 
 895      61697428 
 895      292C2023 
 896              		.text
 897              	.Letext0: