ARM GAS  /tmp/ccyTkqvK.s 			page 1


   1              		.syntax unified
   2              		.cpu cortex-m3
   3              		.fpu softvfp
   4              		.eabi_attribute 20, 1
   5              		.eabi_attribute 21, 1
   6              		.eabi_attribute 23, 3
   7              		.eabi_attribute 24, 1
   8              		.eabi_attribute 25, 1
   9              		.eabi_attribute 26, 1
  10              		.eabi_attribute 30, 4
  11              		.eabi_attribute 18, 4
  12              		.thumb
  13              		.file	"chsem.c"
  14              		.section	.debug_abbrev,"",%progbits
  15              	.Ldebug_abbrev0:
  16              		.section	.debug_info,"",%progbits
  17              	.Ldebug_info0:
  18              		.section	.debug_line,"",%progbits
  19              	.Ldebug_line0:
  20 0000 46030000 		.text
  20      02004B01 
  20      00000201 
  20      FB0E0D00 
  20      01010101 
  21              	.Ltext0:
  22              		.cfi_sections	.debug_frame
  23              		.section	.text.chSemInit,"ax",%progbits
  24              		.align	1
  25              		.global	chSemInit
  26              		.thumb
  27              		.thumb_func
  28              		.type	chSemInit, %function
  29              	chSemInit:
  30              	.LFB0:
  31              		.file 1 "../chibios/os/kernel/src/chsem.c"
  32              		.loc 1 86 0
  33              		.cfi_startproc
  34              		@ args = 0, pretend = 0, frame = 0
  35              		@ frame_needed = 0, uses_anonymous_args = 0
  36              	.LVL0:
  37 0000 38B5     		push	{r3, r4, r5, lr}
  38              	.LCFI0:
  39              		.cfi_def_cfa_offset 16
  40              		.loc 1 86 0
  41 0002 0D46     		mov	r5, r1
  42              		.cfi_offset 14, -4
  43              		.cfi_offset 5, -8
  44              		.cfi_offset 4, -12
  45              		.cfi_offset 3, -16
  46              		.loc 1 88 0
  47 0004 0446     		mov	r4, r0
  48 0006 08B1     		cbz	r0, .L2
  49              		.loc 1 88 0 is_stmt 0 discriminator 2
  50 0008 0029     		cmp	r1, #0
  51 000a 02DA     		bge	.L3
  52              	.L2:
  53              		.loc 1 88 0 discriminator 1
ARM GAS  /tmp/ccyTkqvK.s 			page 2


  54 000c 0348     		ldr	r0, .L4
  55              	.LVL1:
  56 000e FFF7FEFF 		bl	chDbgPanic
  57              	.LVL2:
  58              	.L3:
  59              		.loc 1 90 0 is_stmt 1
  60 0012 6460     		str	r4, [r4, #4]
  61 0014 2460     		str	r4, [r4, #0]
  62              		.loc 1 91 0
  63 0016 A560     		str	r5, [r4, #8]
  64              		.loc 1 92 0
  65 0018 38BD     		pop	{r3, r4, r5, pc}
  66              	.L5:
  67 001a 00BF     		.align	2
  68              	.L4:
  69 001c 00000000 		.word	.LC0
  70              		.cfi_endproc
  71              	.LFE0:
  72              		.size	chSemInit, .-chSemInit
  73              		.section	.text.chSemResetI,"ax",%progbits
  74              		.align	1
  75              		.global	chSemResetI
  76              		.thumb
  77              		.thumb_func
  78              		.type	chSemResetI, %function
  79              	chSemResetI:
  80              	.LFB2:
  81              		.loc 1 136 0
  82              		.cfi_startproc
  83              		@ args = 0, pretend = 0, frame = 0
  84              		@ frame_needed = 0, uses_anonymous_args = 0
  85              	.LVL3:
  86 0000 70B5     		push	{r4, r5, r6, lr}
  87              	.LCFI1:
  88              		.cfi_def_cfa_offset 16
  89              		.loc 1 136 0
  90 0002 0446     		mov	r4, r0
  91              		.cfi_offset 14, -4
  92              		.cfi_offset 6, -8
  93              		.cfi_offset 5, -12
  94              		.cfi_offset 4, -16
  95 0004 0E46     		mov	r6, r1
  96              		.loc 1 139 0
  97 0006 FFF7FEFF 		bl	chDbgCheckClassI
  98              	.LVL4:
  99              		.loc 1 140 0
 100 000a 0CB1     		cbz	r4, .L7
 101              		.loc 1 140 0 is_stmt 0 discriminator 2
 102 000c 002E     		cmp	r6, #0
 103 000e 02DA     		bge	.L8
 104              	.L7:
 105              		.loc 1 140 0 discriminator 1
 106 0010 0E48     		ldr	r0, .L14
 107 0012 FFF7FEFF 		bl	chDbgPanic
 108              	.L8:
 109              		.loc 1 141 0 is_stmt 1
 110 0016 A368     		ldr	r3, [r4, #8]
ARM GAS  /tmp/ccyTkqvK.s 			page 3


 111 0018 002B     		cmp	r3, #0
 112 001a 2368     		ldr	r3, [r4, #0]
 113 001c 02DB     		blt	.L9
 114              		.loc 1 141 0 is_stmt 0 discriminator 2
 115 001e A342     		cmp	r3, r4
 116 0020 02D1     		bne	.L10
 117 0022 04E0     		b	.L11
 118              	.L9:
 119              		.loc 1 141 0 discriminator 4
 120 0024 A342     		cmp	r3, r4
 121 0026 02D1     		bne	.L11
 122              	.L10:
 123              		.loc 1 141 0 discriminator 3
 124 0028 0948     		ldr	r0, .L14+4
 125 002a FFF7FEFF 		bl	chDbgPanic
 126              	.L11:
 127              		.loc 1 146 0 is_stmt 1
 128 002e A568     		ldr	r5, [r4, #8]
 129              	.LVL5:
 130              		.loc 1 147 0
 131 0030 A660     		str	r6, [r4, #8]
 132              		.loc 1 148 0
 133 0032 07E0     		b	.L12
 134              	.LVL6:
 135              	.L13:
 136              		.loc 1 149 0
 137 0034 2046     		mov	r0, r4
 138 0036 FFF7FEFF 		bl	lifo_remove
 139 003a FFF7FEFF 		bl	chSchReadyI
 140 003e 6FF00103 		mvn	r3, #1
 141 0042 8362     		str	r3, [r0, #40]
 142              	.L12:
 143              		.loc 1 148 0 discriminator 1
 144 0044 0135     		adds	r5, r5, #1
 145              	.LVL7:
 146 0046 002D     		cmp	r5, #0
 147 0048 F4DD     		ble	.L13
 148              		.loc 1 150 0
 149 004a 70BD     		pop	{r4, r5, r6, pc}
 150              	.L15:
 151              		.align	2
 152              	.L14:
 153 004c 0E000000 		.word	.LC1
 154 0050 1E000000 		.word	.LC2
 155              		.cfi_endproc
 156              	.LFE2:
 157              		.size	chSemResetI, .-chSemResetI
 158              		.section	.text.chSemReset,"ax",%progbits
 159              		.align	1
 160              		.global	chSemReset
 161              		.thumb
 162              		.thumb_func
 163              		.type	chSemReset, %function
 164              	chSemReset:
 165              	.LFB1:
 166              		.loc 1 109 0
 167              		.cfi_startproc
ARM GAS  /tmp/ccyTkqvK.s 			page 4


 168              		@ args = 0, pretend = 0, frame = 0
 169              		@ frame_needed = 0, uses_anonymous_args = 0
 170              	.LVL8:
 171 0000 38B5     		push	{r3, r4, r5, lr}
 172              	.LCFI2:
 173              		.cfi_def_cfa_offset 16
 174              		.loc 1 109 0
 175 0002 0546     		mov	r5, r0
 176              		.cfi_offset 14, -4
 177              		.cfi_offset 5, -8
 178              		.cfi_offset 4, -12
 179              		.cfi_offset 3, -16
 180 0004 0C46     		mov	r4, r1
 181              		.loc 1 111 0
 182              	@ 111 "../chibios/os/kernel/src/chsem.c" 1
 183 0006 FFF7FEFF 		bl      _port_lock
 184              	@ 0 "" 2
 185              		.thumb
 186 000a FFF7FEFF 		bl	dbg_check_lock
 187              	.LVL9:
 188              		.loc 1 112 0
 189 000e 2846     		mov	r0, r5
 190 0010 2146     		mov	r1, r4
 191 0012 FFF7FEFF 		bl	chSemResetI
 192              		.loc 1 113 0
 193 0016 FFF7FEFF 		bl	chSchRescheduleS
 194              		.loc 1 114 0
 195 001a FFF7FEFF 		bl	dbg_check_unlock
 196              	@ 114 "../chibios/os/kernel/src/chsem.c" 1
 197 001e FFF7FEFF 		bl      _port_unlock
 198              	@ 0 "" 2
 199              		.loc 1 115 0
 200              		.thumb
 201 0022 38BD     		pop	{r3, r4, r5, pc}
 202              		.cfi_endproc
 203              	.LFE1:
 204              		.size	chSemReset, .-chSemReset
 205              		.section	.text.chSemWaitS,"ax",%progbits
 206              		.align	1
 207              		.global	chSemWaitS
 208              		.thumb
 209              		.thumb_func
 210              		.type	chSemWaitS, %function
 211              	chSemWaitS:
 212              	.LFB4:
 213              		.loc 1 185 0
 214              		.cfi_startproc
 215              		@ args = 0, pretend = 0, frame = 0
 216              		@ frame_needed = 0, uses_anonymous_args = 0
 217              	.LVL10:
 218 0000 38B5     		push	{r3, r4, r5, lr}
 219              	.LCFI3:
 220              		.cfi_def_cfa_offset 16
 221              		.loc 1 185 0
 222 0002 0546     		mov	r5, r0
 223              		.cfi_offset 14, -4
 224              		.cfi_offset 5, -8
ARM GAS  /tmp/ccyTkqvK.s 			page 5


 225              		.cfi_offset 4, -12
 226              		.cfi_offset 3, -16
 227              		.loc 1 187 0
 228 0004 FFF7FEFF 		bl	chDbgCheckClassS
 229              	.LVL11:
 230              		.loc 1 188 0
 231 0008 15B9     		cbnz	r5, .L18
 232              		.loc 1 188 0 is_stmt 0 discriminator 1
 233 000a 1148     		ldr	r0, .L24
 234 000c FFF7FEFF 		bl	chDbgPanic
 235              	.L18:
 236              		.loc 1 189 0 is_stmt 1
 237 0010 AB68     		ldr	r3, [r5, #8]
 238 0012 002B     		cmp	r3, #0
 239 0014 2B68     		ldr	r3, [r5, #0]
 240 0016 02DB     		blt	.L19
 241              		.loc 1 189 0 is_stmt 0 discriminator 2
 242 0018 AB42     		cmp	r3, r5
 243 001a 02D1     		bne	.L20
 244 001c 04E0     		b	.L21
 245              	.L19:
 246              		.loc 1 189 0 discriminator 4
 247 001e AB42     		cmp	r3, r5
 248 0020 02D1     		bne	.L21
 249              	.L20:
 250              		.loc 1 189 0 discriminator 3
 251 0022 0C48     		ldr	r0, .L24+4
 252 0024 FFF7FEFF 		bl	chDbgPanic
 253              	.L21:
 254              		.loc 1 194 0 is_stmt 1
 255 0028 AB68     		ldr	r3, [r5, #8]
 256 002a 013B     		subs	r3, r3, #1
 257 002c 002B     		cmp	r3, #0
 258 002e AB60     		str	r3, [r5, #8]
 259 0030 0BDA     		bge	.L23
 260              		.loc 1 195 0
 261 0032 094C     		ldr	r4, .L24+8
 262              		.loc 1 196 0
 263 0034 2946     		mov	r1, r5
 264              		.loc 1 195 0
 265 0036 E069     		ldr	r0, [r4, #28]
 266 0038 8562     		str	r5, [r0, #40]
 267              		.loc 1 196 0
 268 003a FFF7FEFF 		bl	queue_insert
 269              		.loc 1 197 0
 270 003e 0320     		movs	r0, #3
 271 0040 FFF7FEFF 		bl	chSchGoSleepS
 272              		.loc 1 198 0
 273 0044 E369     		ldr	r3, [r4, #28]
 274 0046 986A     		ldr	r0, [r3, #40]
 275 0048 38BD     		pop	{r3, r4, r5, pc}
 276              	.L23:
 277              		.loc 1 200 0
 278 004a 0020     		movs	r0, #0
 279              		.loc 1 201 0
 280 004c 38BD     		pop	{r3, r4, r5, pc}
 281              	.L25:
ARM GAS  /tmp/ccyTkqvK.s 			page 6


 282 004e 00BF     		.align	2
 283              	.L24:
 284 0050 30000000 		.word	.LC3
 285 0054 3F000000 		.word	.LC4
 286 0058 00000000 		.word	rlist
 287              		.cfi_endproc
 288              	.LFE4:
 289              		.size	chSemWaitS, .-chSemWaitS
 290              		.section	.text.chSemWait,"ax",%progbits
 291              		.align	1
 292              		.global	chSemWait
 293              		.thumb
 294              		.thumb_func
 295              		.type	chSemWait, %function
 296              	chSemWait:
 297              	.LFB3:
 298              		.loc 1 164 0
 299              		.cfi_startproc
 300              		@ args = 0, pretend = 0, frame = 0
 301              		@ frame_needed = 0, uses_anonymous_args = 0
 302              	.LVL12:
 303 0000 10B5     		push	{r4, lr}
 304              	.LCFI4:
 305              		.cfi_def_cfa_offset 8
 306              		.loc 1 164 0
 307 0002 0446     		mov	r4, r0
 308              		.cfi_offset 14, -4
 309              		.cfi_offset 4, -8
 310              		.loc 1 167 0
 311              	@ 167 "../chibios/os/kernel/src/chsem.c" 1
 312 0004 FFF7FEFF 		bl      _port_lock
 313              	@ 0 "" 2
 314              		.thumb
 315 0008 FFF7FEFF 		bl	dbg_check_lock
 316              	.LVL13:
 317              		.loc 1 168 0
 318 000c 2046     		mov	r0, r4
 319 000e FFF7FEFF 		bl	chSemWaitS
 320 0012 0446     		mov	r4, r0
 321              	.LVL14:
 322              		.loc 1 169 0
 323 0014 FFF7FEFF 		bl	dbg_check_unlock
 324              	.LVL15:
 325              	@ 169 "../chibios/os/kernel/src/chsem.c" 1
 326 0018 FFF7FEFF 		bl      _port_unlock
 327              	@ 0 "" 2
 328              		.loc 1 171 0
 329              		.thumb
 330 001c 2046     		mov	r0, r4
 331 001e 10BD     		pop	{r4, pc}
 332              		.cfi_endproc
 333              	.LFE3:
 334              		.size	chSemWait, .-chSemWait
 335              		.section	.text.chSemWaitTimeoutS,"ax",%progbits
 336              		.align	1
 337              		.global	chSemWaitTimeoutS
 338              		.thumb
ARM GAS  /tmp/ccyTkqvK.s 			page 7


 339              		.thumb_func
 340              		.type	chSemWaitTimeoutS, %function
 341              	chSemWaitTimeoutS:
 342              	.LFB6:
 343              		.loc 1 250 0
 344              		.cfi_startproc
 345              		@ args = 0, pretend = 0, frame = 0
 346              		@ frame_needed = 0, uses_anonymous_args = 0
 347              	.LVL16:
 348 0000 70B5     		push	{r4, r5, r6, lr}
 349              	.LCFI5:
 350              		.cfi_def_cfa_offset 16
 351              		.loc 1 250 0
 352 0002 0446     		mov	r4, r0
 353              		.cfi_offset 14, -4
 354              		.cfi_offset 6, -8
 355              		.cfi_offset 5, -12
 356              		.cfi_offset 4, -16
 357 0004 0D46     		mov	r5, r1
 358              		.loc 1 252 0
 359 0006 FFF7FEFF 		bl	chDbgCheckClassS
 360              	.LVL17:
 361              		.loc 1 253 0
 362 000a 14B9     		cbnz	r4, .L28
 363              		.loc 1 253 0 is_stmt 0 discriminator 1
 364 000c 1348     		ldr	r0, .L35
 365 000e FFF7FEFF 		bl	chDbgPanic
 366              	.L28:
 367              		.loc 1 254 0 is_stmt 1
 368 0012 A368     		ldr	r3, [r4, #8]
 369 0014 002B     		cmp	r3, #0
 370 0016 2368     		ldr	r3, [r4, #0]
 371 0018 02DB     		blt	.L29
 372              		.loc 1 254 0 is_stmt 0 discriminator 2
 373 001a A342     		cmp	r3, r4
 374 001c 02D1     		bne	.L30
 375 001e 04E0     		b	.L31
 376              	.L29:
 377              		.loc 1 254 0 discriminator 4
 378 0020 A342     		cmp	r3, r4
 379 0022 02D1     		bne	.L31
 380              	.L30:
 381              		.loc 1 254 0 discriminator 3
 382 0024 0E48     		ldr	r0, .L35+4
 383 0026 FFF7FEFF 		bl	chDbgPanic
 384              	.L31:
 385              		.loc 1 259 0 is_stmt 1
 386 002a A368     		ldr	r3, [r4, #8]
 387 002c 5A1E     		subs	r2, r3, #1
 388 002e 002A     		cmp	r2, #0
 389 0030 A260     		str	r2, [r4, #8]
 390 0032 10DA     		bge	.L34
 391              		.loc 1 260 0
 392 0034 1DB9     		cbnz	r5, .L33
 393              		.loc 1 261 0
 394 0036 A360     		str	r3, [r4, #8]
 395              		.loc 1 262 0
ARM GAS  /tmp/ccyTkqvK.s 			page 8


 396 0038 4FF0FF30 		mov	r0, #-1
 397 003c 70BD     		pop	{r4, r5, r6, pc}
 398              	.L33:
 399              		.loc 1 264 0
 400 003e 094B     		ldr	r3, .L35+8
 401              		.loc 1 265 0
 402 0040 2146     		mov	r1, r4
 403              		.loc 1 264 0
 404 0042 D869     		ldr	r0, [r3, #28]
 405 0044 8462     		str	r4, [r0, #40]
 406              		.loc 1 265 0
 407 0046 FFF7FEFF 		bl	queue_insert
 408              		.loc 1 266 0
 409 004a 0320     		movs	r0, #3
 410 004c 2946     		mov	r1, r5
 411              		.loc 1 269 0
 412 004e BDE87040 		pop	{r4, r5, r6, lr}
 413              		.loc 1 266 0
 414 0052 FFF7FEBF 		b	chSchGoSleepTimeoutS
 415              	.L34:
 416              		.loc 1 268 0
 417 0056 0020     		movs	r0, #0
 418              		.loc 1 269 0
 419 0058 70BD     		pop	{r4, r5, r6, pc}
 420              	.L36:
 421 005a 00BF     		.align	2
 422              	.L35:
 423 005c 50000000 		.word	.LC5
 424 0060 66000000 		.word	.LC6
 425 0064 00000000 		.word	rlist
 426              		.cfi_endproc
 427              	.LFE6:
 428              		.size	chSemWaitTimeoutS, .-chSemWaitTimeoutS
 429              		.section	.text.chSemWaitTimeout,"ax",%progbits
 430              		.align	1
 431              		.global	chSemWaitTimeout
 432              		.thumb
 433              		.thumb_func
 434              		.type	chSemWaitTimeout, %function
 435              	chSemWaitTimeout:
 436              	.LFB5:
 437              		.loc 1 222 0
 438              		.cfi_startproc
 439              		@ args = 0, pretend = 0, frame = 0
 440              		@ frame_needed = 0, uses_anonymous_args = 0
 441              	.LVL18:
 442 0000 38B5     		push	{r3, r4, r5, lr}
 443              	.LCFI6:
 444              		.cfi_def_cfa_offset 16
 445              		.loc 1 222 0
 446 0002 0546     		mov	r5, r0
 447              		.cfi_offset 14, -4
 448              		.cfi_offset 5, -8
 449              		.cfi_offset 4, -12
 450              		.cfi_offset 3, -16
 451 0004 0C46     		mov	r4, r1
 452              		.loc 1 225 0
ARM GAS  /tmp/ccyTkqvK.s 			page 9


 453              	@ 225 "../chibios/os/kernel/src/chsem.c" 1
 454 0006 FFF7FEFF 		bl      _port_lock
 455              	@ 0 "" 2
 456              		.thumb
 457 000a FFF7FEFF 		bl	dbg_check_lock
 458              	.LVL19:
 459              		.loc 1 226 0
 460 000e 2146     		mov	r1, r4
 461 0010 2846     		mov	r0, r5
 462 0012 FFF7FEFF 		bl	chSemWaitTimeoutS
 463 0016 0446     		mov	r4, r0
 464              	.LVL20:
 465              		.loc 1 227 0
 466 0018 FFF7FEFF 		bl	dbg_check_unlock
 467              	.LVL21:
 468              	@ 227 "../chibios/os/kernel/src/chsem.c" 1
 469 001c FFF7FEFF 		bl      _port_unlock
 470              	@ 0 "" 2
 471              		.loc 1 229 0
 472              		.thumb
 473 0020 2046     		mov	r0, r4
 474 0022 38BD     		pop	{r3, r4, r5, pc}
 475              		.cfi_endproc
 476              	.LFE5:
 477              		.size	chSemWaitTimeout, .-chSemWaitTimeout
 478              		.section	.text.chSemSignal,"ax",%progbits
 479              		.align	1
 480              		.global	chSemSignal
 481              		.thumb
 482              		.thumb_func
 483              		.type	chSemSignal, %function
 484              	chSemSignal:
 485              	.LFB7:
 486              		.loc 1 278 0
 487              		.cfi_startproc
 488              		@ args = 0, pretend = 0, frame = 0
 489              		@ frame_needed = 0, uses_anonymous_args = 0
 490              	.LVL22:
 491 0000 10B5     		push	{r4, lr}
 492              	.LCFI7:
 493              		.cfi_def_cfa_offset 8
 494              		.loc 1 280 0
 495 0002 0446     		mov	r4, r0
 496              		.cfi_offset 14, -4
 497              		.cfi_offset 4, -8
 498 0004 10B9     		cbnz	r0, .L39
 499              		.loc 1 280 0 is_stmt 0 discriminator 1
 500 0006 1148     		ldr	r0, .L44
 501              	.LVL23:
 502 0008 FFF7FEFF 		bl	chDbgPanic
 503              	.L39:
 504              		.loc 1 281 0 is_stmt 1
 505 000c A368     		ldr	r3, [r4, #8]
 506 000e 002B     		cmp	r3, #0
 507 0010 2368     		ldr	r3, [r4, #0]
 508 0012 02DB     		blt	.L40
 509              		.loc 1 281 0 is_stmt 0 discriminator 2
ARM GAS  /tmp/ccyTkqvK.s 			page 10


 510 0014 A342     		cmp	r3, r4
 511 0016 02D1     		bne	.L41
 512 0018 04E0     		b	.L42
 513              	.L40:
 514              		.loc 1 281 0 discriminator 4
 515 001a A342     		cmp	r3, r4
 516 001c 02D1     		bne	.L42
 517              	.L41:
 518              		.loc 1 281 0 discriminator 3
 519 001e 0C48     		ldr	r0, .L44+4
 520 0020 FFF7FEFF 		bl	chDbgPanic
 521              	.L42:
 522              		.loc 1 286 0 is_stmt 1
 523              	@ 286 "../chibios/os/kernel/src/chsem.c" 1
 524 0024 FFF7FEFF 		bl      _port_lock
 525              	@ 0 "" 2
 526              		.thumb
 527 0028 FFF7FEFF 		bl	dbg_check_lock
 528              		.loc 1 287 0
 529 002c A368     		ldr	r3, [r4, #8]
 530 002e 0133     		adds	r3, r3, #1
 531 0030 002B     		cmp	r3, #0
 532 0032 A360     		str	r3, [r4, #8]
 533 0034 05DC     		bgt	.L43
 534              		.loc 1 288 0
 535 0036 2046     		mov	r0, r4
 536 0038 FFF7FEFF 		bl	fifo_remove
 537 003c 0021     		movs	r1, #0
 538 003e FFF7FEFF 		bl	chSchWakeupS
 539              	.L43:
 540              		.loc 1 289 0
 541 0042 FFF7FEFF 		bl	dbg_check_unlock
 542              	@ 289 "../chibios/os/kernel/src/chsem.c" 1
 543 0046 FFF7FEFF 		bl      _port_unlock
 544              	@ 0 "" 2
 545              		.loc 1 290 0
 546              		.thumb
 547 004a 10BD     		pop	{r4, pc}
 548              	.L45:
 549              		.align	2
 550              	.L44:
 551 004c 7E000000 		.word	.LC7
 552 0050 8E000000 		.word	.LC8
 553              		.cfi_endproc
 554              	.LFE7:
 555              		.size	chSemSignal, .-chSemSignal
 556              		.section	.text.chSemSignalI,"ax",%progbits
 557              		.align	1
 558              		.global	chSemSignalI
 559              		.thumb
 560              		.thumb_func
 561              		.type	chSemSignalI, %function
 562              	chSemSignalI:
 563              	.LFB8:
 564              		.loc 1 303 0
 565              		.cfi_startproc
 566              		@ args = 0, pretend = 0, frame = 0
ARM GAS  /tmp/ccyTkqvK.s 			page 11


 567              		@ frame_needed = 0, uses_anonymous_args = 0
 568              	.LVL24:
 569 0000 10B5     		push	{r4, lr}
 570              	.LCFI8:
 571              		.cfi_def_cfa_offset 8
 572              		.loc 1 303 0
 573 0002 0446     		mov	r4, r0
 574              		.cfi_offset 14, -4
 575              		.cfi_offset 4, -8
 576              		.loc 1 305 0
 577 0004 FFF7FEFF 		bl	chDbgCheckClassI
 578              	.LVL25:
 579              		.loc 1 306 0
 580 0008 14B9     		cbnz	r4, .L47
 581              		.loc 1 306 0 is_stmt 0 discriminator 1
 582 000a 0F48     		ldr	r0, .L52
 583 000c FFF7FEFF 		bl	chDbgPanic
 584              	.L47:
 585              		.loc 1 307 0 is_stmt 1
 586 0010 A368     		ldr	r3, [r4, #8]
 587 0012 002B     		cmp	r3, #0
 588 0014 2368     		ldr	r3, [r4, #0]
 589 0016 02DB     		blt	.L48
 590              		.loc 1 307 0 is_stmt 0 discriminator 2
 591 0018 A342     		cmp	r3, r4
 592 001a 02D1     		bne	.L49
 593 001c 04E0     		b	.L50
 594              	.L48:
 595              		.loc 1 307 0 discriminator 4
 596 001e A342     		cmp	r3, r4
 597 0020 02D1     		bne	.L50
 598              	.L49:
 599              		.loc 1 307 0 discriminator 3
 600 0022 0A48     		ldr	r0, .L52+4
 601 0024 FFF7FEFF 		bl	chDbgPanic
 602              	.L50:
 603              		.loc 1 312 0 is_stmt 1
 604 0028 A368     		ldr	r3, [r4, #8]
 605 002a 0133     		adds	r3, r3, #1
 606 002c 002B     		cmp	r3, #0
 607 002e A360     		str	r3, [r4, #8]
 608 0030 08DC     		bgt	.L46
 609              	.LBB2:
 610              		.loc 1 315 0
 611 0032 2046     		mov	r0, r4
 612 0034 FFF7FEFF 		bl	fifo_remove
 613              		.loc 1 316 0
 614 0038 0022     		movs	r2, #0
 615 003a 8262     		str	r2, [r0, #40]
 616              	.LBE2:
 617              		.loc 1 319 0
 618 003c BDE81040 		pop	{r4, lr}
 619              	.LBB3:
 620              		.loc 1 317 0
 621 0040 FFF7FEBF 		b	chSchReadyI
 622              	.L46:
 623 0044 10BD     		pop	{r4, pc}
ARM GAS  /tmp/ccyTkqvK.s 			page 12


 624              	.L53:
 625 0046 00BF     		.align	2
 626              	.L52:
 627 0048 A0000000 		.word	.LC9
 628 004c B1000000 		.word	.LC10
 629              	.LBE3:
 630              		.cfi_endproc
 631              	.LFE8:
 632              		.size	chSemSignalI, .-chSemSignalI
 633              		.section	.text.chSemAddCounterI,"ax",%progbits
 634              		.align	1
 635              		.global	chSemAddCounterI
 636              		.thumb
 637              		.thumb_func
 638              		.type	chSemAddCounterI, %function
 639              	chSemAddCounterI:
 640              	.LFB9:
 641              		.loc 1 334 0
 642              		.cfi_startproc
 643              		@ args = 0, pretend = 0, frame = 0
 644              		@ frame_needed = 0, uses_anonymous_args = 0
 645              	.LVL26:
 646 0000 38B5     		push	{r3, r4, r5, lr}
 647              	.LCFI9:
 648              		.cfi_def_cfa_offset 16
 649              		.loc 1 334 0
 650 0002 0446     		mov	r4, r0
 651              		.cfi_offset 14, -4
 652              		.cfi_offset 5, -8
 653              		.cfi_offset 4, -12
 654              		.cfi_offset 3, -16
 655 0004 0D46     		mov	r5, r1
 656              		.loc 1 336 0
 657 0006 FFF7FEFF 		bl	chDbgCheckClassI
 658              	.LVL27:
 659              		.loc 1 337 0
 660 000a 0CB1     		cbz	r4, .L55
 661              		.loc 1 337 0 is_stmt 0 discriminator 2
 662 000c 002D     		cmp	r5, #0
 663 000e 02DC     		bgt	.L56
 664              	.L55:
 665              		.loc 1 337 0 discriminator 1
 666 0010 0F48     		ldr	r0, .L63
 667 0012 FFF7FEFF 		bl	chDbgPanic
 668              	.L56:
 669              		.loc 1 338 0 is_stmt 1
 670 0016 A368     		ldr	r3, [r4, #8]
 671 0018 002B     		cmp	r3, #0
 672 001a 2368     		ldr	r3, [r4, #0]
 673 001c 02DB     		blt	.L57
 674              		.loc 1 338 0 is_stmt 0 discriminator 2
 675 001e A342     		cmp	r3, r4
 676 0020 02D1     		bne	.L58
 677 0022 12E0     		b	.L60
 678              	.L57:
 679              		.loc 1 338 0 discriminator 4
 680 0024 A342     		cmp	r3, r4
ARM GAS  /tmp/ccyTkqvK.s 			page 13


 681 0026 10D1     		bne	.L60
 682              	.L58:
 683              		.loc 1 338 0 discriminator 3
 684 0028 0A48     		ldr	r0, .L63+4
 685 002a FFF7FEFF 		bl	chDbgPanic
 686 002e 0CE0     		b	.L60
 687              	.L62:
 688              		.loc 1 344 0 is_stmt 1
 689 0030 A368     		ldr	r3, [r4, #8]
 690 0032 0133     		adds	r3, r3, #1
 691 0034 002B     		cmp	r3, #0
 692 0036 A360     		str	r3, [r4, #8]
 693 0038 06DC     		bgt	.L61
 694              		.loc 1 345 0
 695 003a 2046     		mov	r0, r4
 696 003c FFF7FEFF 		bl	fifo_remove
 697 0040 FFF7FEFF 		bl	chSchReadyI
 698 0044 0023     		movs	r3, #0
 699 0046 8362     		str	r3, [r0, #40]
 700              	.L61:
 701              		.loc 1 346 0
 702 0048 013D     		subs	r5, r5, #1
 703              	.LVL28:
 704              	.L60:
 705              		.loc 1 343 0 discriminator 1
 706 004a 002D     		cmp	r5, #0
 707 004c F0DC     		bgt	.L62
 708              		.loc 1 348 0
 709 004e 38BD     		pop	{r3, r4, r5, pc}
 710              	.L64:
 711              		.align	2
 712              	.L63:
 713 0050 C4000000 		.word	.LC11
 714 0054 D9000000 		.word	.LC12
 715              		.cfi_endproc
 716              	.LFE9:
 717              		.size	chSemAddCounterI, .-chSemAddCounterI
 718              		.section	.text.chSemSignalWait,"ax",%progbits
 719              		.align	1
 720              		.global	chSemSignalWait
 721              		.thumb
 722              		.thumb_func
 723              		.type	chSemSignalWait, %function
 724              	chSemSignalWait:
 725              	.LFB10:
 726              		.loc 1 366 0
 727              		.cfi_startproc
 728              		@ args = 0, pretend = 0, frame = 0
 729              		@ frame_needed = 0, uses_anonymous_args = 0
 730              	.LVL29:
 731 0000 38B5     		push	{r3, r4, r5, lr}
 732              	.LCFI10:
 733              		.cfi_def_cfa_offset 16
 734              		.loc 1 366 0
 735 0002 0C46     		mov	r4, r1
 736              		.cfi_offset 14, -4
 737              		.cfi_offset 5, -8
ARM GAS  /tmp/ccyTkqvK.s 			page 14


 738              		.cfi_offset 4, -12
 739              		.cfi_offset 3, -16
 740              		.loc 1 369 0
 741 0004 0546     		mov	r5, r0
 742 0006 00B1     		cbz	r0, .L66
 743              		.loc 1 369 0 is_stmt 0 discriminator 2
 744 0008 11B9     		cbnz	r1, .L67
 745              	.L66:
 746              		.loc 1 369 0 discriminator 1
 747 000a 2248     		ldr	r0, .L77
 748              	.LVL30:
 749 000c FFF7FEFF 		bl	chDbgPanic
 750              	.LVL31:
 751              	.L67:
 752              		.loc 1 370 0 is_stmt 1
 753 0010 AB68     		ldr	r3, [r5, #8]
 754 0012 002B     		cmp	r3, #0
 755 0014 2B68     		ldr	r3, [r5, #0]
 756 0016 02DB     		blt	.L68
 757              		.loc 1 370 0 is_stmt 0 discriminator 2
 758 0018 AB42     		cmp	r3, r5
 759 001a 02D1     		bne	.L69
 760 001c 04E0     		b	.L70
 761              	.L68:
 762              		.loc 1 370 0 discriminator 4
 763 001e AB42     		cmp	r3, r5
 764 0020 02D1     		bne	.L70
 765              	.L69:
 766              		.loc 1 370 0 discriminator 3
 767 0022 1D48     		ldr	r0, .L77+4
 768 0024 FFF7FEFF 		bl	chDbgPanic
 769              	.L70:
 770              		.loc 1 374 0 is_stmt 1
 771 0028 A368     		ldr	r3, [r4, #8]
 772 002a 002B     		cmp	r3, #0
 773 002c 2368     		ldr	r3, [r4, #0]
 774 002e 02DB     		blt	.L71
 775              		.loc 1 374 0 is_stmt 0 discriminator 2
 776 0030 A342     		cmp	r3, r4
 777 0032 02D1     		bne	.L72
 778 0034 04E0     		b	.L73
 779              	.L71:
 780              		.loc 1 374 0 discriminator 4
 781 0036 A342     		cmp	r3, r4
 782 0038 02D1     		bne	.L73
 783              	.L72:
 784              		.loc 1 374 0 discriminator 3
 785 003a 1848     		ldr	r0, .L77+8
 786 003c FFF7FEFF 		bl	chDbgPanic
 787              	.L73:
 788              		.loc 1 379 0 is_stmt 1
 789              	@ 379 "../chibios/os/kernel/src/chsem.c" 1
 790 0040 FFF7FEFF 		bl      _port_lock
 791              	@ 0 "" 2
 792              		.thumb
 793 0044 FFF7FEFF 		bl	dbg_check_lock
 794              		.loc 1 380 0
ARM GAS  /tmp/ccyTkqvK.s 			page 15


 795 0048 AB68     		ldr	r3, [r5, #8]
 796 004a 0133     		adds	r3, r3, #1
 797 004c 002B     		cmp	r3, #0
 798 004e AB60     		str	r3, [r5, #8]
 799 0050 06DC     		bgt	.L74
 800              		.loc 1 381 0
 801 0052 2846     		mov	r0, r5
 802 0054 FFF7FEFF 		bl	fifo_remove
 803 0058 FFF7FEFF 		bl	chSchReadyI
 804 005c 0023     		movs	r3, #0
 805 005e 8362     		str	r3, [r0, #40]
 806              	.L74:
 807              		.loc 1 382 0
 808 0060 A368     		ldr	r3, [r4, #8]
 809 0062 013B     		subs	r3, r3, #1
 810 0064 002B     		cmp	r3, #0
 811 0066 A360     		str	r3, [r4, #8]
 812 0068 0BDA     		bge	.L75
 813              	.LBB4:
 814              		.loc 1 383 0
 815 006a 0D4B     		ldr	r3, .L77+12
 816              		.loc 1 384 0
 817 006c 2146     		mov	r1, r4
 818              		.loc 1 383 0
 819 006e DD69     		ldr	r5, [r3, #28]
 820              	.LVL32:
 821              		.loc 1 384 0
 822 0070 2846     		mov	r0, r5
 823 0072 FFF7FEFF 		bl	queue_insert
 824              	.LVL33:
 825              		.loc 1 385 0
 826 0076 AC62     		str	r4, [r5, #40]
 827              		.loc 1 386 0
 828 0078 0320     		movs	r0, #3
 829 007a FFF7FEFF 		bl	chSchGoSleepS
 830              		.loc 1 387 0
 831 007e AC6A     		ldr	r4, [r5, #40]
 832              	.LVL34:
 833 0080 02E0     		b	.L76
 834              	.LVL35:
 835              	.L75:
 836              	.LBE4:
 837              		.loc 1 390 0
 838 0082 FFF7FEFF 		bl	chSchRescheduleS
 839              	.LVL36:
 840              		.loc 1 391 0
 841 0086 0024     		movs	r4, #0
 842              	.LVL37:
 843              	.L76:
 844              		.loc 1 393 0
 845 0088 FFF7FEFF 		bl	dbg_check_unlock
 846              	@ 393 "../chibios/os/kernel/src/chsem.c" 1
 847 008c FFF7FEFF 		bl      _port_unlock
 848              	@ 0 "" 2
 849              		.loc 1 395 0
 850              		.thumb
 851 0090 2046     		mov	r0, r4
ARM GAS  /tmp/ccyTkqvK.s 			page 16


 852 0092 38BD     		pop	{r3, r4, r5, pc}
 853              	.L78:
 854              		.align	2
 855              	.L77:
 856 0094 F0000000 		.word	.LC13
 857 0098 04010000 		.word	.LC14
 858 009c 1A010000 		.word	.LC15
 859 00a0 00000000 		.word	rlist
 860              		.cfi_endproc
 861              	.LFE10:
 862              		.size	chSemSignalWait, .-chSemSignalWait
 863              		.section	.rodata.str1.1,"aMS",%progbits,1
 864              	.LC0:
 865 0000 22636853 		.ascii	"\"chSemInit\"()\000"
 865      656D496E 
 865      69742228 
 865      2900
 866              	.LC1:
 867 000e 22636853 		.ascii	"\"chSemResetI\"()\000"
 867      656D5265 
 867      73657449 
 867      22282900 
 868              	.LC2:
 869 001e 63685365 		.ascii	"chSemResetI(), #1\000"
 869      6D526573 
 869      65744928 
 869      292C2023 
 869      3100
 870              	.LC3:
 871 0030 22636853 		.ascii	"\"chSemWaitS\"()\000"
 871      656D5761 
 871      69745322 
 871      282900
 872              	.LC4:
 873 003f 63685365 		.ascii	"chSemWaitS(), #1\000"
 873      6D576169 
 873      74532829 
 873      2C202331 
 873      00
 874              	.LC5:
 875 0050 22636853 		.ascii	"\"chSemWaitTimeoutS\"()\000"
 875      656D5761 
 875      69745469 
 875      6D656F75 
 875      74532228 
 876              	.LC6:
 877 0066 63685365 		.ascii	"chSemWaitTimeoutS(), #1\000"
 877      6D576169 
 877      7454696D 
 877      656F7574 
 877      5328292C 
 878              	.LC7:
 879 007e 22636853 		.ascii	"\"chSemSignal\"()\000"
 879      656D5369 
 879      676E616C 
 879      22282900 
 880              	.LC8:
ARM GAS  /tmp/ccyTkqvK.s 			page 17


 881 008e 63685365 		.ascii	"chSemSignal(), #1\000"
 881      6D536967 
 881      6E616C28 
 881      292C2023 
 881      3100
 882              	.LC9:
 883 00a0 22636853 		.ascii	"\"chSemSignalI\"()\000"
 883      656D5369 
 883      676E616C 
 883      49222829 
 883      00
 884              	.LC10:
 885 00b1 63685365 		.ascii	"chSemSignalI(), #1\000"
 885      6D536967 
 885      6E616C49 
 885      28292C20 
 885      233100
 886              	.LC11:
 887 00c4 22636853 		.ascii	"\"chSemAddCounterI\"()\000"
 887      656D4164 
 887      64436F75 
 887      6E746572 
 887      49222829 
 888              	.LC12:
 889 00d9 63685365 		.ascii	"chSemAddCounterI(), #1\000"
 889      6D416464 
 889      436F756E 
 889      74657249 
 889      28292C20 
 890              	.LC13:
 891 00f0 22636853 		.ascii	"\"chSemSignalWait\"()\000"
 891      656D5369 
 891      676E616C 
 891      57616974 
 891      22282900 
 892              	.LC14:
 893 0104 63685365 		.ascii	"chSemSignalWait(), #1\000"
 893      6D536967 
 893      6E616C57 
 893      61697428 
 893      292C2023 
 894              	.LC15:
 895 011a 63685365 		.ascii	"chSemSignalWait(), #2\000"
 895      6D536967 
 895      6E616C57 
 895      61697428 
 895      292C2023 
 896              		.text
 897              	.Letext0:
 898              		.section	.debug_loc,"",%progbits
 899              	.Ldebug_loc0:
 900              	.LLST0:
 901 0000 00000000 		.4byte	.LFB0
 902 0004 02000000 		.4byte	.LCFI0
 903 0008 0200     		.2byte	0x2
 904 000a 7D       		.byte	0x7d
 905 000b 00       		.sleb128 0
ARM GAS  /tmp/ccyTkqvK.s 			page 18


 906 000c 02000000 		.4byte	.LCFI0
 907 0010 20000000 		.4byte	.LFE0
 908 0014 0200     		.2byte	0x2
 909 0016 7D       		.byte	0x7d
 910 0017 10       		.sleb128 16
 911 0018 00000000 		.4byte	0x0
 912 001c 00000000 		.4byte	0x0
 913              	.LLST1:
 914 0020 00000000 		.4byte	.LVL0
 915 0024 0E000000 		.4byte	.LVL1
 916 0028 0100     		.2byte	0x1
 917 002a 50       		.byte	0x50
 918 002b 0E000000 		.4byte	.LVL1
 919 002f 20000000 		.4byte	.LFE0
 920 0033 0100     		.2byte	0x1
 921 0035 54       		.byte	0x54
 922 0036 00000000 		.4byte	0x0
 923 003a 00000000 		.4byte	0x0
 924              	.LLST2:
 925 003e 00000000 		.4byte	.LVL0
 926 0042 11000000 		.4byte	.LVL2-1
 927 0046 0100     		.2byte	0x1
 928 0048 51       		.byte	0x51
 929 0049 11000000 		.4byte	.LVL2-1
 930 004d 20000000 		.4byte	.LFE0
 931 0051 0100     		.2byte	0x1
 932 0053 55       		.byte	0x55
 933 0054 00000000 		.4byte	0x0
 934 0058 00000000 		.4byte	0x0
 935              	.LLST3:
 936 005c 00000000 		.4byte	.LFB2
 937 0060 02000000 		.4byte	.LCFI1
 938 0064 0200     		.2byte	0x2
 939 0066 7D       		.byte	0x7d
 940 0067 00       		.sleb128 0
 941 0068 02000000 		.4byte	.LCFI1
 942 006c 54000000 		.4byte	.LFE2
 943 0070 0200     		.2byte	0x2
 944 0072 7D       		.byte	0x7d
 945 0073 10       		.sleb128 16
 946 0074 00000000 		.4byte	0x0
 947 0078 00000000 		.4byte	0x0
 948              	.LLST4:
 949 007c 00000000 		.4byte	.LVL3
 950 0080 09000000 		.4byte	.LVL4-1
 951 0084 0100     		.2byte	0x1
 952 0086 50       		.byte	0x50
 953 0087 09000000 		.4byte	.LVL4-1
 954 008b 54000000 		.4byte	.LFE2
 955 008f 0100     		.2byte	0x1
 956 0091 54       		.byte	0x54
 957 0092 00000000 		.4byte	0x0
 958 0096 00000000 		.4byte	0x0
 959              	.LLST5:
 960 009a 00000000 		.4byte	.LVL3
 961 009e 09000000 		.4byte	.LVL4-1
 962 00a2 0100     		.2byte	0x1
ARM GAS  /tmp/ccyTkqvK.s 			page 19


 963 00a4 51       		.byte	0x51
 964 00a5 09000000 		.4byte	.LVL4-1
 965 00a9 54000000 		.4byte	.LFE2
 966 00ad 0100     		.2byte	0x1
 967 00af 56       		.byte	0x56
 968 00b0 00000000 		.4byte	0x0
 969 00b4 00000000 		.4byte	0x0
 970              	.LLST6:
 971 00b8 30000000 		.4byte	.LVL5
 972 00bc 34000000 		.4byte	.LVL6
 973 00c0 0200     		.2byte	0x2
 974 00c2 74       		.byte	0x74
 975 00c3 08       		.sleb128 8
 976 00c4 34000000 		.4byte	.LVL6
 977 00c8 46000000 		.4byte	.LVL7
 978 00cc 0100     		.2byte	0x1
 979 00ce 55       		.byte	0x55
 980 00cf 46000000 		.4byte	.LVL7
 981 00d3 54000000 		.4byte	.LFE2
 982 00d7 0100     		.2byte	0x1
 983 00d9 55       		.byte	0x55
 984 00da 00000000 		.4byte	0x0
 985 00de 00000000 		.4byte	0x0
 986              	.LLST7:
 987 00e2 00000000 		.4byte	.LFB1
 988 00e6 02000000 		.4byte	.LCFI2
 989 00ea 0200     		.2byte	0x2
 990 00ec 7D       		.byte	0x7d
 991 00ed 00       		.sleb128 0
 992 00ee 02000000 		.4byte	.LCFI2
 993 00f2 24000000 		.4byte	.LFE1
 994 00f6 0200     		.2byte	0x2
 995 00f8 7D       		.byte	0x7d
 996 00f9 10       		.sleb128 16
 997 00fa 00000000 		.4byte	0x0
 998 00fe 00000000 		.4byte	0x0
 999              	.LLST8:
 1000 0102 00000000 		.4byte	.LVL8
 1001 0106 0D000000 		.4byte	.LVL9-1
 1002 010a 0100     		.2byte	0x1
 1003 010c 50       		.byte	0x50
 1004 010d 0D000000 		.4byte	.LVL9-1
 1005 0111 24000000 		.4byte	.LFE1
 1006 0115 0100     		.2byte	0x1
 1007 0117 55       		.byte	0x55
 1008 0118 00000000 		.4byte	0x0
 1009 011c 00000000 		.4byte	0x0
 1010              	.LLST9:
 1011 0120 00000000 		.4byte	.LVL8
 1012 0124 0D000000 		.4byte	.LVL9-1
 1013 0128 0100     		.2byte	0x1
 1014 012a 51       		.byte	0x51
 1015 012b 0D000000 		.4byte	.LVL9-1
 1016 012f 24000000 		.4byte	.LFE1
 1017 0133 0100     		.2byte	0x1
 1018 0135 54       		.byte	0x54
 1019 0136 00000000 		.4byte	0x0
ARM GAS  /tmp/ccyTkqvK.s 			page 20


 1020 013a 00000000 		.4byte	0x0
 1021              	.LLST10:
 1022 013e 00000000 		.4byte	.LFB4
 1023 0142 02000000 		.4byte	.LCFI3
 1024 0146 0200     		.2byte	0x2
 1025 0148 7D       		.byte	0x7d
 1026 0149 00       		.sleb128 0
 1027 014a 02000000 		.4byte	.LCFI3
 1028 014e 5C000000 		.4byte	.LFE4
 1029 0152 0200     		.2byte	0x2
 1030 0154 7D       		.byte	0x7d
 1031 0155 10       		.sleb128 16
 1032 0156 00000000 		.4byte	0x0
 1033 015a 00000000 		.4byte	0x0
 1034              	.LLST11:
 1035 015e 00000000 		.4byte	.LVL10
 1036 0162 07000000 		.4byte	.LVL11-1
 1037 0166 0100     		.2byte	0x1
 1038 0168 50       		.byte	0x50
 1039 0169 07000000 		.4byte	.LVL11-1
 1040 016d 5C000000 		.4byte	.LFE4
 1041 0171 0100     		.2byte	0x1
 1042 0173 55       		.byte	0x55
 1043 0174 00000000 		.4byte	0x0
 1044 0178 00000000 		.4byte	0x0
 1045              	.LLST12:
 1046 017c 00000000 		.4byte	.LFB3
 1047 0180 02000000 		.4byte	.LCFI4
 1048 0184 0200     		.2byte	0x2
 1049 0186 7D       		.byte	0x7d
 1050 0187 00       		.sleb128 0
 1051 0188 02000000 		.4byte	.LCFI4
 1052 018c 20000000 		.4byte	.LFE3
 1053 0190 0200     		.2byte	0x2
 1054 0192 7D       		.byte	0x7d
 1055 0193 08       		.sleb128 8
 1056 0194 00000000 		.4byte	0x0
 1057 0198 00000000 		.4byte	0x0
 1058              	.LLST13:
 1059 019c 00000000 		.4byte	.LVL12
 1060 01a0 0B000000 		.4byte	.LVL13-1
 1061 01a4 0100     		.2byte	0x1
 1062 01a6 50       		.byte	0x50
 1063 01a7 0B000000 		.4byte	.LVL13-1
 1064 01ab 14000000 		.4byte	.LVL14
 1065 01af 0100     		.2byte	0x1
 1066 01b1 54       		.byte	0x54
 1067 01b2 00000000 		.4byte	0x0
 1068 01b6 00000000 		.4byte	0x0
 1069              	.LLST14:
 1070 01ba 14000000 		.4byte	.LVL14
 1071 01be 17000000 		.4byte	.LVL15-1
 1072 01c2 0100     		.2byte	0x1
 1073 01c4 50       		.byte	0x50
 1074 01c5 17000000 		.4byte	.LVL15-1
 1075 01c9 20000000 		.4byte	.LFE3
 1076 01cd 0100     		.2byte	0x1
ARM GAS  /tmp/ccyTkqvK.s 			page 21


 1077 01cf 54       		.byte	0x54
 1078 01d0 00000000 		.4byte	0x0
 1079 01d4 00000000 		.4byte	0x0
 1080              	.LLST15:
 1081 01d8 00000000 		.4byte	.LFB6
 1082 01dc 02000000 		.4byte	.LCFI5
 1083 01e0 0200     		.2byte	0x2
 1084 01e2 7D       		.byte	0x7d
 1085 01e3 00       		.sleb128 0
 1086 01e4 02000000 		.4byte	.LCFI5
 1087 01e8 68000000 		.4byte	.LFE6
 1088 01ec 0200     		.2byte	0x2
 1089 01ee 7D       		.byte	0x7d
 1090 01ef 10       		.sleb128 16
 1091 01f0 00000000 		.4byte	0x0
 1092 01f4 00000000 		.4byte	0x0
 1093              	.LLST16:
 1094 01f8 00000000 		.4byte	.LVL16
 1095 01fc 09000000 		.4byte	.LVL17-1
 1096 0200 0100     		.2byte	0x1
 1097 0202 50       		.byte	0x50
 1098 0203 09000000 		.4byte	.LVL17-1
 1099 0207 68000000 		.4byte	.LFE6
 1100 020b 0100     		.2byte	0x1
 1101 020d 54       		.byte	0x54
 1102 020e 00000000 		.4byte	0x0
 1103 0212 00000000 		.4byte	0x0
 1104              	.LLST17:
 1105 0216 00000000 		.4byte	.LVL16
 1106 021a 09000000 		.4byte	.LVL17-1
 1107 021e 0100     		.2byte	0x1
 1108 0220 51       		.byte	0x51
 1109 0221 09000000 		.4byte	.LVL17-1
 1110 0225 68000000 		.4byte	.LFE6
 1111 0229 0100     		.2byte	0x1
 1112 022b 55       		.byte	0x55
 1113 022c 00000000 		.4byte	0x0
 1114 0230 00000000 		.4byte	0x0
 1115              	.LLST18:
 1116 0234 00000000 		.4byte	.LFB5
 1117 0238 02000000 		.4byte	.LCFI6
 1118 023c 0200     		.2byte	0x2
 1119 023e 7D       		.byte	0x7d
 1120 023f 00       		.sleb128 0
 1121 0240 02000000 		.4byte	.LCFI6
 1122 0244 24000000 		.4byte	.LFE5
 1123 0248 0200     		.2byte	0x2
 1124 024a 7D       		.byte	0x7d
 1125 024b 10       		.sleb128 16
 1126 024c 00000000 		.4byte	0x0
 1127 0250 00000000 		.4byte	0x0
 1128              	.LLST19:
 1129 0254 00000000 		.4byte	.LVL18
 1130 0258 0D000000 		.4byte	.LVL19-1
 1131 025c 0100     		.2byte	0x1
 1132 025e 50       		.byte	0x50
 1133 025f 0D000000 		.4byte	.LVL19-1
ARM GAS  /tmp/ccyTkqvK.s 			page 22


 1134 0263 24000000 		.4byte	.LFE5
 1135 0267 0100     		.2byte	0x1
 1136 0269 55       		.byte	0x55
 1137 026a 00000000 		.4byte	0x0
 1138 026e 00000000 		.4byte	0x0
 1139              	.LLST20:
 1140 0272 00000000 		.4byte	.LVL18
 1141 0276 0D000000 		.4byte	.LVL19-1
 1142 027a 0100     		.2byte	0x1
 1143 027c 51       		.byte	0x51
 1144 027d 0D000000 		.4byte	.LVL19-1
 1145 0281 18000000 		.4byte	.LVL20
 1146 0285 0100     		.2byte	0x1
 1147 0287 54       		.byte	0x54
 1148 0288 00000000 		.4byte	0x0
 1149 028c 00000000 		.4byte	0x0
 1150              	.LLST21:
 1151 0290 18000000 		.4byte	.LVL20
 1152 0294 1B000000 		.4byte	.LVL21-1
 1153 0298 0100     		.2byte	0x1
 1154 029a 50       		.byte	0x50
 1155 029b 1B000000 		.4byte	.LVL21-1
 1156 029f 24000000 		.4byte	.LFE5
 1157 02a3 0100     		.2byte	0x1
 1158 02a5 54       		.byte	0x54
 1159 02a6 00000000 		.4byte	0x0
 1160 02aa 00000000 		.4byte	0x0
 1161              	.LLST22:
 1162 02ae 00000000 		.4byte	.LFB7
 1163 02b2 02000000 		.4byte	.LCFI7
 1164 02b6 0200     		.2byte	0x2
 1165 02b8 7D       		.byte	0x7d
 1166 02b9 00       		.sleb128 0
 1167 02ba 02000000 		.4byte	.LCFI7
 1168 02be 54000000 		.4byte	.LFE7
 1169 02c2 0200     		.2byte	0x2
 1170 02c4 7D       		.byte	0x7d
 1171 02c5 08       		.sleb128 8
 1172 02c6 00000000 		.4byte	0x0
 1173 02ca 00000000 		.4byte	0x0
 1174              	.LLST23:
 1175 02ce 00000000 		.4byte	.LVL22
 1176 02d2 08000000 		.4byte	.LVL23
 1177 02d6 0100     		.2byte	0x1
 1178 02d8 50       		.byte	0x50
 1179 02d9 08000000 		.4byte	.LVL23
 1180 02dd 54000000 		.4byte	.LFE7
 1181 02e1 0100     		.2byte	0x1
 1182 02e3 54       		.byte	0x54
 1183 02e4 00000000 		.4byte	0x0
 1184 02e8 00000000 		.4byte	0x0
 1185              	.LLST24:
 1186 02ec 00000000 		.4byte	.LFB8
 1187 02f0 02000000 		.4byte	.LCFI8
 1188 02f4 0200     		.2byte	0x2
 1189 02f6 7D       		.byte	0x7d
 1190 02f7 00       		.sleb128 0
ARM GAS  /tmp/ccyTkqvK.s 			page 23


 1191 02f8 02000000 		.4byte	.LCFI8
 1192 02fc 50000000 		.4byte	.LFE8
 1193 0300 0200     		.2byte	0x2
 1194 0302 7D       		.byte	0x7d
 1195 0303 08       		.sleb128 8
 1196 0304 00000000 		.4byte	0x0
 1197 0308 00000000 		.4byte	0x0
 1198              	.LLST25:
 1199 030c 00000000 		.4byte	.LVL24
 1200 0310 07000000 		.4byte	.LVL25-1
 1201 0314 0100     		.2byte	0x1
 1202 0316 50       		.byte	0x50
 1203 0317 07000000 		.4byte	.LVL25-1
 1204 031b 50000000 		.4byte	.LFE8
 1205 031f 0100     		.2byte	0x1
 1206 0321 54       		.byte	0x54
 1207 0322 00000000 		.4byte	0x0
 1208 0326 00000000 		.4byte	0x0
 1209              	.LLST26:
 1210 032a 00000000 		.4byte	.LFB9
 1211 032e 02000000 		.4byte	.LCFI9
 1212 0332 0200     		.2byte	0x2
 1213 0334 7D       		.byte	0x7d
 1214 0335 00       		.sleb128 0
 1215 0336 02000000 		.4byte	.LCFI9
 1216 033a 58000000 		.4byte	.LFE9
 1217 033e 0200     		.2byte	0x2
 1218 0340 7D       		.byte	0x7d
 1219 0341 10       		.sleb128 16
 1220 0342 00000000 		.4byte	0x0
 1221 0346 00000000 		.4byte	0x0
 1222              	.LLST27:
 1223 034a 00000000 		.4byte	.LVL26
 1224 034e 09000000 		.4byte	.LVL27-1
 1225 0352 0100     		.2byte	0x1
 1226 0354 50       		.byte	0x50
 1227 0355 09000000 		.4byte	.LVL27-1
 1228 0359 58000000 		.4byte	.LFE9
 1229 035d 0100     		.2byte	0x1
 1230 035f 54       		.byte	0x54
 1231 0360 00000000 		.4byte	0x0
 1232 0364 00000000 		.4byte	0x0
 1233              	.LLST28:
 1234 0368 00000000 		.4byte	.LVL26
 1235 036c 09000000 		.4byte	.LVL27-1
 1236 0370 0100     		.2byte	0x1
 1237 0372 51       		.byte	0x51
 1238 0373 09000000 		.4byte	.LVL27-1
 1239 0377 4A000000 		.4byte	.LVL28
 1240 037b 0100     		.2byte	0x1
 1241 037d 55       		.byte	0x55
 1242 037e 4A000000 		.4byte	.LVL28
 1243 0382 58000000 		.4byte	.LFE9
 1244 0386 0100     		.2byte	0x1
 1245 0388 55       		.byte	0x55
 1246 0389 00000000 		.4byte	0x0
 1247 038d 00000000 		.4byte	0x0
ARM GAS  /tmp/ccyTkqvK.s 			page 24


 1248              	.LLST29:
 1249 0391 00000000 		.4byte	.LFB10
 1250 0395 02000000 		.4byte	.LCFI10
 1251 0399 0200     		.2byte	0x2
 1252 039b 7D       		.byte	0x7d
 1253 039c 00       		.sleb128 0
 1254 039d 02000000 		.4byte	.LCFI10
 1255 03a1 A4000000 		.4byte	.LFE10
 1256 03a5 0200     		.2byte	0x2
 1257 03a7 7D       		.byte	0x7d
 1258 03a8 10       		.sleb128 16
 1259 03a9 00000000 		.4byte	0x0
 1260 03ad 00000000 		.4byte	0x0
 1261              	.LLST30:
 1262 03b1 00000000 		.4byte	.LVL29
 1263 03b5 0C000000 		.4byte	.LVL30
 1264 03b9 0100     		.2byte	0x1
 1265 03bb 50       		.byte	0x50
 1266 03bc 0C000000 		.4byte	.LVL30
 1267 03c0 70000000 		.4byte	.LVL32
 1268 03c4 0100     		.2byte	0x1
 1269 03c6 55       		.byte	0x55
 1270 03c7 82000000 		.4byte	.LVL35
 1271 03cb 88000000 		.4byte	.LVL37
 1272 03cf 0100     		.2byte	0x1
 1273 03d1 55       		.byte	0x55
 1274 03d2 00000000 		.4byte	0x0
 1275 03d6 00000000 		.4byte	0x0
 1276              	.LLST31:
 1277 03da 00000000 		.4byte	.LVL29
 1278 03de 0F000000 		.4byte	.LVL31-1
 1279 03e2 0100     		.2byte	0x1
 1280 03e4 51       		.byte	0x51
 1281 03e5 0F000000 		.4byte	.LVL31-1
 1282 03e9 80000000 		.4byte	.LVL34
 1283 03ed 0100     		.2byte	0x1
 1284 03ef 54       		.byte	0x54
 1285 03f0 82000000 		.4byte	.LVL35
 1286 03f4 88000000 		.4byte	.LVL37
 1287 03f8 0100     		.2byte	0x1
 1288 03fa 54       		.byte	0x54
 1289 03fb 00000000 		.4byte	0x0
 1290 03ff 00000000 		.4byte	0x0
 1291              	.LLST32:
 1292 0403 80000000 		.4byte	.LVL34
 1293 0407 82000000 		.4byte	.LVL35
 1294 040b 0200     		.2byte	0x2
 1295 040d 75       		.byte	0x75
 1296 040e 28       		.sleb128 40
 1297 040f 86000000 		.4byte	.LVL36
 1298 0413 88000000 		.4byte	.LVL37
 1299 0417 0200     		.2byte	0x2
 1300 0419 30       		.byte	0x30
 1301 041a 9F       		.byte	0x9f
 1302 041b 88000000 		.4byte	.LVL37
 1303 041f A4000000 		.4byte	.LFE10
 1304 0423 0100     		.2byte	0x1
ARM GAS  /tmp/ccyTkqvK.s 			page 25


 1305 0425 54       		.byte	0x54
 1306 0426 00000000 		.4byte	0x0
 1307 042a 00000000 		.4byte	0x0
 1308              	.LLST33:
 1309 042e 70000000 		.4byte	.LVL32
 1310 0432 75000000 		.4byte	.LVL33-1
 1311 0436 0200     		.2byte	0x2
 1312 0438 73       		.byte	0x73
 1313 0439 1C       		.sleb128 28
 1314 043a 75000000 		.4byte	.LVL33-1
 1315 043e 82000000 		.4byte	.LVL35
 1316 0442 0100     		.2byte	0x1
 1317 0444 55       		.byte	0x55
 1318 0445 00000000 		.4byte	0x0
 1319 0449 00000000 		.4byte	0x0
 1320              		.file 2 "/home/z80/programs/code-sourcery/2011.03-42/bin/../lib/gcc/arm-none-eabi/4.5.2/../../../.
 1321              		.file 3 "../chibios/os/ports/GCC/ARMCMx/chtypes.h"
 1322              		.file 4 "../chibios/os/kernel/include/chlists.h"
 1323              		.file 5 "../chibios/os/kernel/include/chthreads.h"
 1324              		.file 6 "../chibios/os/ports/GCC/ARMCMx/chcore_v7m.h"
 1325              		.file 7 "../chibios/os/kernel/include/chschd.h"
 1326              		.file 8 "../chibios/os/kernel/include/chsem.h"
 1327              		.file 9 "../chibios/os/kernel/include/chmtx.h"
 1328              		.section	.debug_info
 1329 0000 4C070000 		.4byte	0x74c
 1330 0004 0200     		.2byte	0x2
 1331 0006 00000000 		.4byte	.Ldebug_abbrev0
 1332 000a 04       		.byte	0x4
 1333 000b 01       		.uleb128 0x1
 1334 000c 27030000 		.4byte	.LASF80
 1335 0010 01       		.byte	0x1
 1336 0011 00000000 		.4byte	.LASF81
 1337 0015 4B010000 		.4byte	.LASF82
 1338 0019 00000000 		.4byte	0x0
 1339 001d 00000000 		.4byte	0x0
 1340 0021 18000000 		.4byte	.Ldebug_ranges0+0x18
 1341 0025 00000000 		.4byte	.Ldebug_line0
 1342 0029 02       		.uleb128 0x2
 1343 002a 04       		.byte	0x4
 1344 002b 05       		.byte	0x5
 1345 002c 696E7400 		.ascii	"int\000"
 1346 0030 03       		.uleb128 0x3
 1347 0031 04       		.byte	0x4
 1348 0032 07       		.byte	0x7
 1349 0033 0D010000 		.4byte	.LASF0
 1350 0037 03       		.uleb128 0x3
 1351 0038 01       		.byte	0x1
 1352 0039 06       		.byte	0x6
 1353 003a 8A000000 		.4byte	.LASF1
 1354 003e 04       		.uleb128 0x4
 1355 003f 18030000 		.4byte	.LASF5
 1356 0043 02       		.byte	0x2
 1357 0044 2A       		.byte	0x2a
 1358 0045 49000000 		.4byte	0x49
 1359 0049 03       		.uleb128 0x3
 1360 004a 01       		.byte	0x1
 1361 004b 08       		.byte	0x8
ARM GAS  /tmp/ccyTkqvK.s 			page 26


 1362 004c 14020000 		.4byte	.LASF2
 1363 0050 03       		.uleb128 0x3
 1364 0051 02       		.byte	0x2
 1365 0052 05       		.byte	0x5
 1366 0053 2C020000 		.4byte	.LASF3
 1367 0057 03       		.uleb128 0x3
 1368 0058 02       		.byte	0x2
 1369 0059 07       		.byte	0x7
 1370 005a C6020000 		.4byte	.LASF4
 1371 005e 04       		.uleb128 0x4
 1372 005f 0C020000 		.4byte	.LASF6
 1373 0063 02       		.byte	0x2
 1374 0064 4F       		.byte	0x4f
 1375 0065 69000000 		.4byte	0x69
 1376 0069 03       		.uleb128 0x3
 1377 006a 04       		.byte	0x4
 1378 006b 05       		.byte	0x5
 1379 006c BD000000 		.4byte	.LASF7
 1380 0070 04       		.uleb128 0x4
 1381 0071 78020000 		.4byte	.LASF8
 1382 0075 02       		.byte	0x2
 1383 0076 50       		.byte	0x50
 1384 0077 7B000000 		.4byte	0x7b
 1385 007b 03       		.uleb128 0x3
 1386 007c 04       		.byte	0x4
 1387 007d 07       		.byte	0x7
 1388 007e 2B010000 		.4byte	.LASF9
 1389 0082 03       		.uleb128 0x3
 1390 0083 08       		.byte	0x8
 1391 0084 05       		.byte	0x5
 1392 0085 7C000000 		.4byte	.LASF10
 1393 0089 04       		.uleb128 0x4
 1394 008a 3B000000 		.4byte	.LASF11
 1395 008e 02       		.byte	0x2
 1396 008f 78       		.byte	0x78
 1397 0090 94000000 		.4byte	0x94
 1398 0094 03       		.uleb128 0x3
 1399 0095 08       		.byte	0x8
 1400 0096 07       		.byte	0x7
 1401 0097 44000000 		.4byte	.LASF12
 1402 009b 04       		.uleb128 0x4
 1403 009c 92010000 		.4byte	.LASF13
 1404 00a0 03       		.byte	0x3
 1405 00a1 2F       		.byte	0x2f
 1406 00a2 3E000000 		.4byte	0x3e
 1407 00a6 04       		.uleb128 0x4
 1408 00a7 C6000000 		.4byte	.LASF14
 1409 00ab 03       		.byte	0x3
 1410 00ac 30       		.byte	0x30
 1411 00ad 3E000000 		.4byte	0x3e
 1412 00b1 04       		.uleb128 0x4
 1413 00b2 F5010000 		.4byte	.LASF15
 1414 00b6 03       		.byte	0x3
 1415 00b7 31       		.byte	0x31
 1416 00b8 3E000000 		.4byte	0x3e
 1417 00bc 04       		.uleb128 0x4
 1418 00bd 04020000 		.4byte	.LASF16
ARM GAS  /tmp/ccyTkqvK.s 			page 27


 1419 00c1 03       		.byte	0x3
 1420 00c2 32       		.byte	0x32
 1421 00c3 70000000 		.4byte	0x70
 1422 00c7 04       		.uleb128 0x4
 1423 00c8 8C010000 		.4byte	.LASF17
 1424 00cc 03       		.byte	0x3
 1425 00cd 33       		.byte	0x33
 1426 00ce 5E000000 		.4byte	0x5e
 1427 00d2 04       		.uleb128 0x4
 1428 00d3 A6010000 		.4byte	.LASF18
 1429 00d7 03       		.byte	0x3
 1430 00d8 35       		.byte	0x35
 1431 00d9 70000000 		.4byte	0x70
 1432 00dd 04       		.uleb128 0x4
 1433 00de A7020000 		.4byte	.LASF19
 1434 00e2 03       		.byte	0x3
 1435 00e3 36       		.byte	0x36
 1436 00e4 70000000 		.4byte	0x70
 1437 00e8 04       		.uleb128 0x4
 1438 00e9 FC000000 		.4byte	.LASF20
 1439 00ed 03       		.byte	0x3
 1440 00ee 37       		.byte	0x37
 1441 00ef 5E000000 		.4byte	0x5e
 1442 00f3 04       		.uleb128 0x4
 1443 00f4 66020000 		.4byte	.LASF21
 1444 00f8 04       		.byte	0x4
 1445 00f9 2A       		.byte	0x2a
 1446 00fa FE000000 		.4byte	0xfe
 1447 00fe 05       		.uleb128 0x5
 1448 00ff 66020000 		.4byte	.LASF21
 1449 0103 4C       		.byte	0x4c
 1450 0104 05       		.byte	0x5
 1451 0105 5E       		.byte	0x5e
 1452 0106 23020000 		.4byte	0x223
 1453 010a 06       		.uleb128 0x6
 1454 010b 4C020000 		.4byte	.LASF22
 1455 010f 05       		.byte	0x5
 1456 0110 5F       		.byte	0x5f
 1457 0111 48020000 		.4byte	0x248
 1458 0115 02       		.byte	0x2
 1459 0116 23       		.byte	0x23
 1460 0117 00       		.uleb128 0x0
 1461 0118 06       		.uleb128 0x6
 1462 0119 FD010000 		.4byte	.LASF23
 1463 011d 05       		.byte	0x5
 1464 011e 61       		.byte	0x61
 1465 011f 48020000 		.4byte	0x248
 1466 0123 02       		.byte	0x2
 1467 0124 23       		.byte	0x23
 1468 0125 04       		.uleb128 0x4
 1469 0126 06       		.uleb128 0x6
 1470 0127 75000000 		.4byte	.LASF24
 1471 012b 05       		.byte	0x5
 1472 012c 63       		.byte	0x63
 1473 012d BC000000 		.4byte	0xbc
 1474 0131 02       		.byte	0x2
 1475 0132 23       		.byte	0x23
ARM GAS  /tmp/ccyTkqvK.s 			page 28


 1476 0133 08       		.uleb128 0x8
 1477 0134 06       		.uleb128 0x6
 1478 0135 4C030000 		.4byte	.LASF25
 1479 0139 05       		.byte	0x5
 1480 013a 64       		.byte	0x64
 1481 013b 20030000 		.4byte	0x320
 1482 013f 02       		.byte	0x2
 1483 0140 23       		.byte	0x23
 1484 0141 0C       		.uleb128 0xc
 1485 0142 06       		.uleb128 0x6
 1486 0143 DB000000 		.4byte	.LASF26
 1487 0147 05       		.byte	0x5
 1488 0148 66       		.byte	0x66
 1489 0149 48020000 		.4byte	0x248
 1490 014d 02       		.byte	0x2
 1491 014e 23       		.byte	0x23
 1492 014f 10       		.uleb128 0x10
 1493 0150 06       		.uleb128 0x6
 1494 0151 C3010000 		.4byte	.LASF27
 1495 0155 05       		.byte	0x5
 1496 0156 67       		.byte	0x67
 1497 0157 48020000 		.4byte	0x248
 1498 015b 02       		.byte	0x2
 1499 015c 23       		.byte	0x23
 1500 015d 14       		.uleb128 0x14
 1501 015e 06       		.uleb128 0x6
 1502 015f 33030000 		.4byte	.LASF28
 1503 0163 05       		.byte	0x5
 1504 0164 6E       		.byte	0x6e
 1505 0165 6F040000 		.4byte	0x46f
 1506 0169 02       		.byte	0x2
 1507 016a 23       		.byte	0x23
 1508 016b 18       		.uleb128 0x18
 1509 016c 06       		.uleb128 0x6
 1510 016d 02010000 		.4byte	.LASF29
 1511 0171 05       		.byte	0x5
 1512 0172 74       		.byte	0x74
 1513 0173 81040000 		.4byte	0x481
 1514 0177 02       		.byte	0x2
 1515 0178 23       		.byte	0x23
 1516 0179 1C       		.uleb128 0x1c
 1517 017a 06       		.uleb128 0x6
 1518 017b 36020000 		.4byte	.LASF30
 1519 017f 05       		.byte	0x5
 1520 0180 79       		.byte	0x79
 1521 0181 A6000000 		.4byte	0xa6
 1522 0185 02       		.byte	0x2
 1523 0186 23       		.byte	0x23
 1524 0187 20       		.uleb128 0x20
 1525 0188 06       		.uleb128 0x6
 1526 0189 53020000 		.4byte	.LASF31
 1527 018d 05       		.byte	0x5
 1528 018e 7D       		.byte	0x7d
 1529 018f 9B000000 		.4byte	0x9b
 1530 0193 02       		.byte	0x2
 1531 0194 23       		.byte	0x23
 1532 0195 21       		.uleb128 0x21
ARM GAS  /tmp/ccyTkqvK.s 			page 29


 1533 0196 06       		.uleb128 0x6
 1534 0197 F5020000 		.4byte	.LASF32
 1535 019b 05       		.byte	0x5
 1536 019c 82       		.byte	0x82
 1537 019d B1000000 		.4byte	0xb1
 1538 01a1 02       		.byte	0x2
 1539 01a2 23       		.byte	0x23
 1540 01a3 22       		.uleb128 0x22
 1541 01a4 06       		.uleb128 0x6
 1542 01a5 20030000 		.4byte	.LASF33
 1543 01a9 05       		.byte	0x5
 1544 01aa 89       		.byte	0x89
 1545 01ab 43030000 		.4byte	0x343
 1546 01af 02       		.byte	0x2
 1547 01b0 23       		.byte	0x23
 1548 01b1 24       		.uleb128 0x24
 1549 01b2 07       		.uleb128 0x7
 1550 01b3 705F7500 		.ascii	"p_u\000"
 1551 01b7 05       		.byte	0x5
 1552 01b8 AE       		.byte	0xae
 1553 01b9 3A040000 		.4byte	0x43a
 1554 01bd 02       		.byte	0x2
 1555 01be 23       		.byte	0x23
 1556 01bf 28       		.uleb128 0x28
 1557 01c0 06       		.uleb128 0x6
 1558 01c1 52030000 		.4byte	.LASF34
 1559 01c5 05       		.byte	0x5
 1560 01c6 B3       		.byte	0xb3
 1561 01c7 70020000 		.4byte	0x270
 1562 01cb 02       		.byte	0x2
 1563 01cc 23       		.byte	0x23
 1564 01cd 2C       		.uleb128 0x2c
 1565 01ce 06       		.uleb128 0x6
 1566 01cf E0020000 		.4byte	.LASF35
 1567 01d3 05       		.byte	0x5
 1568 01d4 B9       		.byte	0xb9
 1569 01d5 4E020000 		.4byte	0x24e
 1570 01d9 02       		.byte	0x2
 1571 01da 23       		.byte	0x23
 1572 01db 30       		.uleb128 0x30
 1573 01dc 06       		.uleb128 0x6
 1574 01dd 21000000 		.4byte	.LASF36
 1575 01e1 05       		.byte	0x5
 1576 01e2 BD       		.byte	0xbd
 1577 01e3 C7000000 		.4byte	0xc7
 1578 01e7 02       		.byte	0x2
 1579 01e8 23       		.byte	0x23
 1580 01e9 38       		.uleb128 0x38
 1581 01ea 06       		.uleb128 0x6
 1582 01eb 6D020000 		.4byte	.LASF37
 1583 01ef 05       		.byte	0x5
 1584 01f0 C3       		.byte	0xc3
 1585 01f1 D2000000 		.4byte	0xd2
 1586 01f5 02       		.byte	0x2
 1587 01f6 23       		.byte	0x23
 1588 01f7 3C       		.uleb128 0x3c
 1589 01f8 06       		.uleb128 0x6
ARM GAS  /tmp/ccyTkqvK.s 			page 30


 1590 01f9 22020000 		.4byte	.LASF38
 1591 01fd 05       		.byte	0x5
 1592 01fe CA       		.byte	0xca
 1593 01ff 87040000 		.4byte	0x487
 1594 0203 02       		.byte	0x2
 1595 0204 23       		.byte	0x23
 1596 0205 40       		.uleb128 0x40
 1597 0206 06       		.uleb128 0x6
 1598 0207 B1020000 		.4byte	.LASF39
 1599 020b 05       		.byte	0x5
 1600 020c CE       		.byte	0xce
 1601 020d BC000000 		.4byte	0xbc
 1602 0211 02       		.byte	0x2
 1603 0212 23       		.byte	0x23
 1604 0213 44       		.uleb128 0x44
 1605 0214 06       		.uleb128 0x6
 1606 0215 A6000000 		.4byte	.LASF40
 1607 0219 05       		.byte	0x5
 1608 021a D4       		.byte	0xd4
 1609 021b 86020000 		.4byte	0x286
 1610 021f 02       		.byte	0x2
 1611 0220 23       		.byte	0x23
 1612 0221 48       		.uleb128 0x48
 1613 0222 00       		.byte	0x0
 1614 0223 08       		.uleb128 0x8
 1615 0224 08       		.byte	0x8
 1616 0225 04       		.byte	0x4
 1617 0226 61       		.byte	0x61
 1618 0227 48020000 		.4byte	0x248
 1619 022b 06       		.uleb128 0x6
 1620 022c 4C020000 		.4byte	.LASF22
 1621 0230 04       		.byte	0x4
 1622 0231 62       		.byte	0x62
 1623 0232 48020000 		.4byte	0x248
 1624 0236 02       		.byte	0x2
 1625 0237 23       		.byte	0x23
 1626 0238 00       		.uleb128 0x0
 1627 0239 06       		.uleb128 0x6
 1628 023a FD010000 		.4byte	.LASF23
 1629 023e 04       		.byte	0x4
 1630 023f 64       		.byte	0x64
 1631 0240 48020000 		.4byte	0x248
 1632 0244 02       		.byte	0x2
 1633 0245 23       		.byte	0x23
 1634 0246 04       		.uleb128 0x4
 1635 0247 00       		.byte	0x0
 1636 0248 09       		.uleb128 0x9
 1637 0249 04       		.byte	0x4
 1638 024a F3000000 		.4byte	0xf3
 1639 024e 04       		.uleb128 0x4
 1640 024f D1010000 		.4byte	.LASF41
 1641 0253 04       		.byte	0x4
 1642 0254 66       		.byte	0x66
 1643 0255 23020000 		.4byte	0x223
 1644 0259 08       		.uleb128 0x8
 1645 025a 04       		.byte	0x4
 1646 025b 04       		.byte	0x4
ARM GAS  /tmp/ccyTkqvK.s 			page 31


 1647 025c 6B       		.byte	0x6b
 1648 025d 70020000 		.4byte	0x270
 1649 0261 06       		.uleb128 0x6
 1650 0262 4C020000 		.4byte	.LASF22
 1651 0266 04       		.byte	0x4
 1652 0267 6D       		.byte	0x6d
 1653 0268 48020000 		.4byte	0x248
 1654 026c 02       		.byte	0x2
 1655 026d 23       		.byte	0x23
 1656 026e 00       		.uleb128 0x0
 1657 026f 00       		.byte	0x0
 1658 0270 04       		.uleb128 0x4
 1659 0271 9A010000 		.4byte	.LASF42
 1660 0275 04       		.byte	0x4
 1661 0276 70       		.byte	0x70
 1662 0277 59020000 		.4byte	0x259
 1663 027b 04       		.uleb128 0x4
 1664 027c F3000000 		.4byte	.LASF43
 1665 0280 06       		.byte	0x6
 1666 0281 D7       		.byte	0xd7
 1667 0282 86020000 		.4byte	0x286
 1668 0286 0A       		.uleb128 0xa
 1669 0287 04       		.byte	0x4
 1670 0288 04       		.uleb128 0x4
 1671 0289 B8010000 		.4byte	.LASF44
 1672 028d 06       		.byte	0x6
 1673 028e DD       		.byte	0xdd
 1674 028f 89000000 		.4byte	0x89
 1675 0293 05       		.uleb128 0x5
 1676 0294 D9020000 		.4byte	.LASF45
 1677 0298 24       		.byte	0x24
 1678 0299 06       		.byte	0x6
 1679 029a FE       		.byte	0xfe
 1680 029b 20030000 		.4byte	0x320
 1681 029f 0B       		.uleb128 0xb
 1682 02a0 723400   		.ascii	"r4\000"
 1683 02a3 06       		.byte	0x6
 1684 02a4 1101     		.2byte	0x111
 1685 02a6 7B020000 		.4byte	0x27b
 1686 02aa 02       		.byte	0x2
 1687 02ab 23       		.byte	0x23
 1688 02ac 00       		.uleb128 0x0
 1689 02ad 0B       		.uleb128 0xb
 1690 02ae 723500   		.ascii	"r5\000"
 1691 02b1 06       		.byte	0x6
 1692 02b2 1201     		.2byte	0x112
 1693 02b4 7B020000 		.4byte	0x27b
 1694 02b8 02       		.byte	0x2
 1695 02b9 23       		.byte	0x23
 1696 02ba 04       		.uleb128 0x4
 1697 02bb 0B       		.uleb128 0xb
 1698 02bc 723600   		.ascii	"r6\000"
 1699 02bf 06       		.byte	0x6
 1700 02c0 1301     		.2byte	0x113
 1701 02c2 7B020000 		.4byte	0x27b
 1702 02c6 02       		.byte	0x2
 1703 02c7 23       		.byte	0x23
ARM GAS  /tmp/ccyTkqvK.s 			page 32


 1704 02c8 08       		.uleb128 0x8
 1705 02c9 0B       		.uleb128 0xb
 1706 02ca 723700   		.ascii	"r7\000"
 1707 02cd 06       		.byte	0x6
 1708 02ce 1401     		.2byte	0x114
 1709 02d0 7B020000 		.4byte	0x27b
 1710 02d4 02       		.byte	0x2
 1711 02d5 23       		.byte	0x23
 1712 02d6 0C       		.uleb128 0xc
 1713 02d7 0B       		.uleb128 0xb
 1714 02d8 723800   		.ascii	"r8\000"
 1715 02db 06       		.byte	0x6
 1716 02dc 1501     		.2byte	0x115
 1717 02de 7B020000 		.4byte	0x27b
 1718 02e2 02       		.byte	0x2
 1719 02e3 23       		.byte	0x23
 1720 02e4 10       		.uleb128 0x10
 1721 02e5 0B       		.uleb128 0xb
 1722 02e6 723900   		.ascii	"r9\000"
 1723 02e9 06       		.byte	0x6
 1724 02ea 1601     		.2byte	0x116
 1725 02ec 7B020000 		.4byte	0x27b
 1726 02f0 02       		.byte	0x2
 1727 02f1 23       		.byte	0x23
 1728 02f2 14       		.uleb128 0x14
 1729 02f3 0B       		.uleb128 0xb
 1730 02f4 72313000 		.ascii	"r10\000"
 1731 02f8 06       		.byte	0x6
 1732 02f9 1701     		.2byte	0x117
 1733 02fb 7B020000 		.4byte	0x27b
 1734 02ff 02       		.byte	0x2
 1735 0300 23       		.byte	0x23
 1736 0301 18       		.uleb128 0x18
 1737 0302 0B       		.uleb128 0xb
 1738 0303 72313100 		.ascii	"r11\000"
 1739 0307 06       		.byte	0x6
 1740 0308 1801     		.2byte	0x118
 1741 030a 7B020000 		.4byte	0x27b
 1742 030e 02       		.byte	0x2
 1743 030f 23       		.byte	0x23
 1744 0310 1C       		.uleb128 0x1c
 1745 0311 0B       		.uleb128 0xb
 1746 0312 6C7200   		.ascii	"lr\000"
 1747 0315 06       		.byte	0x6
 1748 0316 1901     		.2byte	0x119
 1749 0318 7B020000 		.4byte	0x27b
 1750 031c 02       		.byte	0x2
 1751 031d 23       		.byte	0x23
 1752 031e 20       		.uleb128 0x20
 1753 031f 00       		.byte	0x0
 1754 0320 0C       		.uleb128 0xc
 1755 0321 43010000 		.4byte	.LASF46
 1756 0325 04       		.byte	0x4
 1757 0326 06       		.byte	0x6
 1758 0327 2301     		.2byte	0x123
 1759 0329 3D030000 		.4byte	0x33d
 1760 032d 0B       		.uleb128 0xb
ARM GAS  /tmp/ccyTkqvK.s 			page 33


 1761 032e 72313300 		.ascii	"r13\000"
 1762 0332 06       		.byte	0x6
 1763 0333 2401     		.2byte	0x124
 1764 0335 3D030000 		.4byte	0x33d
 1765 0339 02       		.byte	0x2
 1766 033a 23       		.byte	0x23
 1767 033b 00       		.uleb128 0x0
 1768 033c 00       		.byte	0x0
 1769 033d 09       		.uleb128 0x9
 1770 033e 04       		.byte	0x4
 1771 033f 93020000 		.4byte	0x293
 1772 0343 0D       		.uleb128 0xd
 1773 0344 DD000000 		.4byte	0xdd
 1774 0348 08       		.uleb128 0x8
 1775 0349 20       		.byte	0x20
 1776 034a 07       		.byte	0x7
 1777 034b 5E       		.byte	0x5e
 1778 034c B3030000 		.4byte	0x3b3
 1779 0350 06       		.uleb128 0x6
 1780 0351 81020000 		.4byte	.LASF47
 1781 0355 07       		.byte	0x7
 1782 0356 5F       		.byte	0x5f
 1783 0357 4E020000 		.4byte	0x24e
 1784 035b 02       		.byte	0x2
 1785 035c 23       		.byte	0x23
 1786 035d 00       		.uleb128 0x0
 1787 035e 06       		.uleb128 0x6
 1788 035f 3E020000 		.4byte	.LASF48
 1789 0363 07       		.byte	0x7
 1790 0364 60       		.byte	0x60
 1791 0365 BC000000 		.4byte	0xbc
 1792 0369 02       		.byte	0x2
 1793 036a 23       		.byte	0x23
 1794 036b 08       		.uleb128 0x8
 1795 036c 06       		.uleb128 0x6
 1796 036d CB010000 		.4byte	.LASF49
 1797 0371 07       		.byte	0x7
 1798 0372 62       		.byte	0x62
 1799 0373 20030000 		.4byte	0x320
 1800 0377 02       		.byte	0x2
 1801 0378 23       		.byte	0x23
 1802 0379 0C       		.uleb128 0xc
 1803 037a 06       		.uleb128 0x6
 1804 037b EB000000 		.4byte	.LASF50
 1805 037f 07       		.byte	0x7
 1806 0380 65       		.byte	0x65
 1807 0381 48020000 		.4byte	0x248
 1808 0385 02       		.byte	0x2
 1809 0386 23       		.byte	0x23
 1810 0387 10       		.uleb128 0x10
 1811 0388 06       		.uleb128 0x6
 1812 0389 ED010000 		.4byte	.LASF51
 1813 038d 07       		.byte	0x7
 1814 038e 66       		.byte	0x66
 1815 038f 48020000 		.4byte	0x248
 1816 0393 02       		.byte	0x2
 1817 0394 23       		.byte	0x23
ARM GAS  /tmp/ccyTkqvK.s 			page 34


 1818 0395 14       		.uleb128 0x14
 1819 0396 06       		.uleb128 0x6
 1820 0397 3A030000 		.4byte	.LASF52
 1821 039b 07       		.byte	0x7
 1822 039c 6A       		.byte	0x6a
 1823 039d E8000000 		.4byte	0xe8
 1824 03a1 02       		.byte	0x2
 1825 03a2 23       		.byte	0x23
 1826 03a3 18       		.uleb128 0x18
 1827 03a4 06       		.uleb128 0x6
 1828 03a5 E3010000 		.4byte	.LASF53
 1829 03a9 07       		.byte	0x7
 1830 03aa 6C       		.byte	0x6c
 1831 03ab 48020000 		.4byte	0x248
 1832 03af 02       		.byte	0x2
 1833 03b0 23       		.byte	0x23
 1834 03b1 1C       		.uleb128 0x1c
 1835 03b2 00       		.byte	0x0
 1836 03b3 04       		.uleb128 0x4
 1837 03b4 FC020000 		.4byte	.LASF54
 1838 03b8 07       		.byte	0x7
 1839 03b9 6E       		.byte	0x6e
 1840 03ba 48030000 		.4byte	0x348
 1841 03be 05       		.uleb128 0x5
 1842 03bf EB020000 		.4byte	.LASF55
 1843 03c3 0C       		.byte	0xc
 1844 03c4 08       		.byte	0x8
 1845 03c5 2C       		.byte	0x2c
 1846 03c6 E7030000 		.4byte	0x3e7
 1847 03ca 06       		.uleb128 0x6
 1848 03cb E3000000 		.4byte	.LASF56
 1849 03cf 08       		.byte	0x8
 1850 03d0 2D       		.byte	0x2d
 1851 03d1 4E020000 		.4byte	0x24e
 1852 03d5 02       		.byte	0x2
 1853 03d6 23       		.byte	0x23
 1854 03d7 00       		.uleb128 0x0
 1855 03d8 06       		.uleb128 0x6
 1856 03d9 3D010000 		.4byte	.LASF57
 1857 03dd 08       		.byte	0x8
 1858 03de 2F       		.byte	0x2f
 1859 03df E8000000 		.4byte	0xe8
 1860 03e3 02       		.byte	0x2
 1861 03e4 23       		.byte	0x23
 1862 03e5 08       		.uleb128 0x8
 1863 03e6 00       		.byte	0x0
 1864 03e7 04       		.uleb128 0x4
 1865 03e8 EB020000 		.4byte	.LASF55
 1866 03ec 08       		.byte	0x8
 1867 03ed 30       		.byte	0x30
 1868 03ee BE030000 		.4byte	0x3be
 1869 03f2 05       		.uleb128 0x5
 1870 03f3 B2010000 		.4byte	.LASF58
 1871 03f7 10       		.byte	0x10
 1872 03f8 09       		.byte	0x9
 1873 03f9 2C       		.byte	0x2c
 1874 03fa 29040000 		.4byte	0x429
ARM GAS  /tmp/ccyTkqvK.s 			page 35


 1875 03fe 06       		.uleb128 0x6
 1876 03ff AE000000 		.4byte	.LASF59
 1877 0403 09       		.byte	0x9
 1878 0404 2D       		.byte	0x2d
 1879 0405 4E020000 		.4byte	0x24e
 1880 0409 02       		.byte	0x2
 1881 040a 23       		.byte	0x23
 1882 040b 00       		.uleb128 0x0
 1883 040c 06       		.uleb128 0x6
 1884 040d 44030000 		.4byte	.LASF60
 1885 0411 09       		.byte	0x9
 1886 0412 2F       		.byte	0x2f
 1887 0413 48020000 		.4byte	0x248
 1888 0417 02       		.byte	0x2
 1889 0418 23       		.byte	0x23
 1890 0419 08       		.uleb128 0x8
 1891 041a 06       		.uleb128 0x6
 1892 041b A0020000 		.4byte	.LASF61
 1893 041f 09       		.byte	0x9
 1894 0420 31       		.byte	0x31
 1895 0421 29040000 		.4byte	0x429
 1896 0425 02       		.byte	0x2
 1897 0426 23       		.byte	0x23
 1898 0427 0C       		.uleb128 0xc
 1899 0428 00       		.byte	0x0
 1900 0429 09       		.uleb128 0x9
 1901 042a 04       		.byte	0x4
 1902 042b F2030000 		.4byte	0x3f2
 1903 042f 04       		.uleb128 0x4
 1904 0430 B2010000 		.4byte	.LASF58
 1905 0434 09       		.byte	0x9
 1906 0435 33       		.byte	0x33
 1907 0436 F2030000 		.4byte	0x3f2
 1908 043a 0E       		.uleb128 0xe
 1909 043b 04       		.byte	0x4
 1910 043c 05       		.byte	0x5
 1911 043d 90       		.byte	0x90
 1912 043e 6F040000 		.4byte	0x46f
 1913 0442 0F       		.uleb128 0xf
 1914 0443 34000000 		.4byte	.LASF62
 1915 0447 05       		.byte	0x5
 1916 0448 97       		.byte	0x97
 1917 0449 C7000000 		.4byte	0xc7
 1918 044d 0F       		.uleb128 0xf
 1919 044e 5B000000 		.4byte	.LASF63
 1920 0452 05       		.byte	0x5
 1921 0453 9E       		.byte	0x9e
 1922 0454 C7000000 		.4byte	0xc7
 1923 0458 0F       		.uleb128 0xf
 1924 0459 B6000000 		.4byte	.LASF64
 1925 045d 05       		.byte	0x5
 1926 045e A5       		.byte	0xa5
 1927 045f 86020000 		.4byte	0x286
 1928 0463 0F       		.uleb128 0xf
 1929 0464 45020000 		.4byte	.LASF65
 1930 0468 05       		.byte	0x5
 1931 0469 AC       		.byte	0xac
ARM GAS  /tmp/ccyTkqvK.s 			page 36


 1932 046a D2000000 		.4byte	0xd2
 1933 046e 00       		.byte	0x0
 1934 046f 09       		.uleb128 0x9
 1935 0470 04       		.byte	0x4
 1936 0471 75040000 		.4byte	0x475
 1937 0475 10       		.uleb128 0x10
 1938 0476 7A040000 		.4byte	0x47a
 1939 047a 03       		.uleb128 0x3
 1940 047b 01       		.byte	0x1
 1941 047c 08       		.byte	0x8
 1942 047d 89020000 		.4byte	.LASF66
 1943 0481 09       		.uleb128 0x9
 1944 0482 04       		.byte	0x4
 1945 0483 88020000 		.4byte	0x288
 1946 0487 09       		.uleb128 0x9
 1947 0488 04       		.byte	0x4
 1948 0489 2F040000 		.4byte	0x42f
 1949 048d 11       		.uleb128 0x11
 1950 048e 01       		.byte	0x1
 1951 048f 5C030000 		.4byte	.LASF67
 1952 0493 01       		.byte	0x1
 1953 0494 56       		.byte	0x56
 1954 0495 01       		.byte	0x1
 1955 0496 00000000 		.4byte	.LFB0
 1956 049a 20000000 		.4byte	.LFE0
 1957 049e 00000000 		.4byte	.LLST0
 1958 04a2 C2040000 		.4byte	0x4c2
 1959 04a6 12       		.uleb128 0x12
 1960 04a7 737000   		.ascii	"sp\000"
 1961 04aa 01       		.byte	0x1
 1962 04ab 56       		.byte	0x56
 1963 04ac C2040000 		.4byte	0x4c2
 1964 04b0 20000000 		.4byte	.LLST1
 1965 04b4 12       		.uleb128 0x12
 1966 04b5 6E00     		.ascii	"n\000"
 1967 04b7 01       		.byte	0x1
 1968 04b8 56       		.byte	0x56
 1969 04b9 E8000000 		.4byte	0xe8
 1970 04bd 3E000000 		.4byte	.LLST2
 1971 04c1 00       		.byte	0x0
 1972 04c2 09       		.uleb128 0x9
 1973 04c3 04       		.byte	0x4
 1974 04c4 E7030000 		.4byte	0x3e7
 1975 04c8 11       		.uleb128 0x11
 1976 04c9 01       		.byte	0x1
 1977 04ca 06030000 		.4byte	.LASF68
 1978 04ce 01       		.byte	0x1
 1979 04cf 88       		.byte	0x88
 1980 04d0 01       		.byte	0x1
 1981 04d1 00000000 		.4byte	.LFB2
 1982 04d5 54000000 		.4byte	.LFE2
 1983 04d9 5C000000 		.4byte	.LLST3
 1984 04dd 0C050000 		.4byte	0x50c
 1985 04e1 12       		.uleb128 0x12
 1986 04e2 737000   		.ascii	"sp\000"
 1987 04e5 01       		.byte	0x1
 1988 04e6 88       		.byte	0x88
ARM GAS  /tmp/ccyTkqvK.s 			page 37


 1989 04e7 C2040000 		.4byte	0x4c2
 1990 04eb 7C000000 		.4byte	.LLST4
 1991 04ef 12       		.uleb128 0x12
 1992 04f0 6E00     		.ascii	"n\000"
 1993 04f2 01       		.byte	0x1
 1994 04f3 88       		.byte	0x88
 1995 04f4 E8000000 		.4byte	0xe8
 1996 04f8 9A000000 		.4byte	.LLST5
 1997 04fc 13       		.uleb128 0x13
 1998 04fd 636E7400 		.ascii	"cnt\000"
 1999 0501 01       		.byte	0x1
 2000 0502 89       		.byte	0x89
 2001 0503 E8000000 		.4byte	0xe8
 2002 0507 B8000000 		.4byte	.LLST6
 2003 050b 00       		.byte	0x0
 2004 050c 11       		.uleb128 0x11
 2005 050d 01       		.byte	0x1
 2006 050e 81010000 		.4byte	.LASF69
 2007 0512 01       		.byte	0x1
 2008 0513 6D       		.byte	0x6d
 2009 0514 01       		.byte	0x1
 2010 0515 00000000 		.4byte	.LFB1
 2011 0519 24000000 		.4byte	.LFE1
 2012 051d E2000000 		.4byte	.LLST7
 2013 0521 41050000 		.4byte	0x541
 2014 0525 12       		.uleb128 0x12
 2015 0526 737000   		.ascii	"sp\000"
 2016 0529 01       		.byte	0x1
 2017 052a 6D       		.byte	0x6d
 2018 052b C2040000 		.4byte	0x4c2
 2019 052f 02010000 		.4byte	.LLST8
 2020 0533 12       		.uleb128 0x12
 2021 0534 6E00     		.ascii	"n\000"
 2022 0536 01       		.byte	0x1
 2023 0537 6D       		.byte	0x6d
 2024 0538 E8000000 		.4byte	0xe8
 2025 053c 20010000 		.4byte	.LLST9
 2026 0540 00       		.byte	0x0
 2027 0541 14       		.uleb128 0x14
 2028 0542 01       		.byte	0x1
 2029 0543 5B020000 		.4byte	.LASF70
 2030 0547 01       		.byte	0x1
 2031 0548 B9       		.byte	0xb9
 2032 0549 01       		.byte	0x1
 2033 054a C7000000 		.4byte	0xc7
 2034 054e 00000000 		.4byte	.LFB4
 2035 0552 5C000000 		.4byte	.LFE4
 2036 0556 3E010000 		.4byte	.LLST10
 2037 055a 6D050000 		.4byte	0x56d
 2038 055e 12       		.uleb128 0x12
 2039 055f 737000   		.ascii	"sp\000"
 2040 0562 01       		.byte	0x1
 2041 0563 B9       		.byte	0xb9
 2042 0564 C2040000 		.4byte	0x4c2
 2043 0568 5E010000 		.4byte	.LLST11
 2044 056c 00       		.byte	0x0
 2045 056d 14       		.uleb128 0x14
ARM GAS  /tmp/ccyTkqvK.s 			page 38


 2046 056e 01       		.byte	0x1
 2047 056f BC020000 		.4byte	.LASF71
 2048 0573 01       		.byte	0x1
 2049 0574 A4       		.byte	0xa4
 2050 0575 01       		.byte	0x1
 2051 0576 C7000000 		.4byte	0xc7
 2052 057a 00000000 		.4byte	.LFB3
 2053 057e 20000000 		.4byte	.LFE3
 2054 0582 7C010000 		.4byte	.LLST12
 2055 0586 A8050000 		.4byte	0x5a8
 2056 058a 12       		.uleb128 0x12
 2057 058b 737000   		.ascii	"sp\000"
 2058 058e 01       		.byte	0x1
 2059 058f A4       		.byte	0xa4
 2060 0590 C2040000 		.4byte	0x4c2
 2061 0594 9C010000 		.4byte	.LLST13
 2062 0598 13       		.uleb128 0x13
 2063 0599 6D736700 		.ascii	"msg\000"
 2064 059d 01       		.byte	0x1
 2065 059e A5       		.byte	0xa5
 2066 059f C7000000 		.4byte	0xc7
 2067 05a3 BA010000 		.4byte	.LLST14
 2068 05a7 00       		.byte	0x0
 2069 05a8 14       		.uleb128 0x14
 2070 05a9 01       		.byte	0x1
 2071 05aa 8E020000 		.4byte	.LASF72
 2072 05ae 01       		.byte	0x1
 2073 05af FA       		.byte	0xfa
 2074 05b0 01       		.byte	0x1
 2075 05b1 C7000000 		.4byte	0xc7
 2076 05b5 00000000 		.4byte	.LFB6
 2077 05b9 68000000 		.4byte	.LFE6
 2078 05bd D8010000 		.4byte	.LLST15
 2079 05c1 E3050000 		.4byte	0x5e3
 2080 05c5 12       		.uleb128 0x12
 2081 05c6 737000   		.ascii	"sp\000"
 2082 05c9 01       		.byte	0x1
 2083 05ca FA       		.byte	0xfa
 2084 05cb C2040000 		.4byte	0x4c2
 2085 05cf F8010000 		.4byte	.LLST16
 2086 05d3 15       		.uleb128 0x15
 2087 05d4 DE010000 		.4byte	.LASF73
 2088 05d8 01       		.byte	0x1
 2089 05d9 FA       		.byte	0xfa
 2090 05da DD000000 		.4byte	0xdd
 2091 05de 16020000 		.4byte	.LLST17
 2092 05e2 00       		.byte	0x0
 2093 05e3 14       		.uleb128 0x14
 2094 05e4 01       		.byte	0x1
 2095 05e5 1A010000 		.4byte	.LASF74
 2096 05e9 01       		.byte	0x1
 2097 05ea DE       		.byte	0xde
 2098 05eb 01       		.byte	0x1
 2099 05ec C7000000 		.4byte	0xc7
 2100 05f0 00000000 		.4byte	.LFB5
 2101 05f4 24000000 		.4byte	.LFE5
 2102 05f8 34020000 		.4byte	.LLST18
ARM GAS  /tmp/ccyTkqvK.s 			page 39


 2103 05fc 2D060000 		.4byte	0x62d
 2104 0600 12       		.uleb128 0x12
 2105 0601 737000   		.ascii	"sp\000"
 2106 0604 01       		.byte	0x1
 2107 0605 DE       		.byte	0xde
 2108 0606 C2040000 		.4byte	0x4c2
 2109 060a 54020000 		.4byte	.LLST19
 2110 060e 15       		.uleb128 0x15
 2111 060f DE010000 		.4byte	.LASF73
 2112 0613 01       		.byte	0x1
 2113 0614 DE       		.byte	0xde
 2114 0615 DD000000 		.4byte	0xdd
 2115 0619 72020000 		.4byte	.LLST20
 2116 061d 13       		.uleb128 0x13
 2117 061e 6D736700 		.ascii	"msg\000"
 2118 0622 01       		.byte	0x1
 2119 0623 DF       		.byte	0xdf
 2120 0624 C7000000 		.4byte	0xc7
 2121 0628 90020000 		.4byte	.LLST21
 2122 062c 00       		.byte	0x0
 2123 062d 16       		.uleb128 0x16
 2124 062e 01       		.byte	0x1
 2125 062f CF000000 		.4byte	.LASF75
 2126 0633 01       		.byte	0x1
 2127 0634 1601     		.2byte	0x116
 2128 0636 01       		.byte	0x1
 2129 0637 00000000 		.4byte	.LFB7
 2130 063b 54000000 		.4byte	.LFE7
 2131 063f AE020000 		.4byte	.LLST22
 2132 0643 57060000 		.4byte	0x657
 2133 0647 17       		.uleb128 0x17
 2134 0648 737000   		.ascii	"sp\000"
 2135 064b 01       		.byte	0x1
 2136 064c 1601     		.2byte	0x116
 2137 064e C2040000 		.4byte	0x4c2
 2138 0652 CE020000 		.4byte	.LLST23
 2139 0656 00       		.byte	0x0
 2140 0657 16       		.uleb128 0x16
 2141 0658 01       		.byte	0x1
 2142 0659 27000000 		.4byte	.LASF76
 2143 065d 01       		.byte	0x1
 2144 065e 2F01     		.2byte	0x12f
 2145 0660 01       		.byte	0x1
 2146 0661 00000000 		.4byte	.LFB8
 2147 0665 50000000 		.4byte	.LFE8
 2148 0669 EC020000 		.4byte	.LLST24
 2149 066d 94060000 		.4byte	0x694
 2150 0671 17       		.uleb128 0x17
 2151 0672 737000   		.ascii	"sp\000"
 2152 0675 01       		.byte	0x1
 2153 0676 2F01     		.2byte	0x12f
 2154 0678 C2040000 		.4byte	0x4c2
 2155 067c 0C030000 		.4byte	.LLST25
 2156 0680 18       		.uleb128 0x18
 2157 0681 00000000 		.4byte	.Ldebug_ranges0+0x0
 2158 0685 19       		.uleb128 0x19
 2159 0686 747000   		.ascii	"tp\000"
ARM GAS  /tmp/ccyTkqvK.s 			page 40


 2160 0689 01       		.byte	0x1
 2161 068a 3B01     		.2byte	0x13b
 2162 068c 48020000 		.4byte	0x248
 2163 0690 01       		.byte	0x1
 2164 0691 53       		.byte	0x53
 2165 0692 00       		.byte	0x0
 2166 0693 00       		.byte	0x0
 2167 0694 16       		.uleb128 0x16
 2168 0695 01       		.byte	0x1
 2169 0696 64000000 		.4byte	.LASF77
 2170 069a 01       		.byte	0x1
 2171 069b 4E01     		.2byte	0x14e
 2172 069d 01       		.byte	0x1
 2173 069e 00000000 		.4byte	.LFB9
 2174 06a2 58000000 		.4byte	.LFE9
 2175 06a6 2A030000 		.4byte	.LLST26
 2176 06aa CC060000 		.4byte	0x6cc
 2177 06ae 17       		.uleb128 0x17
 2178 06af 737000   		.ascii	"sp\000"
 2179 06b2 01       		.byte	0x1
 2180 06b3 4E01     		.2byte	0x14e
 2181 06b5 C2040000 		.4byte	0x4c2
 2182 06b9 4A030000 		.4byte	.LLST27
 2183 06bd 17       		.uleb128 0x17
 2184 06be 6E00     		.ascii	"n\000"
 2185 06c0 01       		.byte	0x1
 2186 06c1 4E01     		.2byte	0x14e
 2187 06c3 E8000000 		.4byte	0xe8
 2188 06c7 68030000 		.4byte	.LLST28
 2189 06cb 00       		.byte	0x0
 2190 06cc 1A       		.uleb128 0x1a
 2191 06cd 01       		.byte	0x1
 2192 06ce 96000000 		.4byte	.LASF78
 2193 06d2 01       		.byte	0x1
 2194 06d3 6E01     		.2byte	0x16e
 2195 06d5 01       		.byte	0x1
 2196 06d6 C7000000 		.4byte	0xc7
 2197 06da 00000000 		.4byte	.LFB10
 2198 06de A4000000 		.4byte	.LFE10
 2199 06e2 91030000 		.4byte	.LLST29
 2200 06e6 35070000 		.4byte	0x735
 2201 06ea 17       		.uleb128 0x17
 2202 06eb 73707300 		.ascii	"sps\000"
 2203 06ef 01       		.byte	0x1
 2204 06f0 6E01     		.2byte	0x16e
 2205 06f2 C2040000 		.4byte	0x4c2
 2206 06f6 B1030000 		.4byte	.LLST30
 2207 06fa 17       		.uleb128 0x17
 2208 06fb 73707700 		.ascii	"spw\000"
 2209 06ff 01       		.byte	0x1
 2210 0700 6E01     		.2byte	0x16e
 2211 0702 C2040000 		.4byte	0x4c2
 2212 0706 DA030000 		.4byte	.LLST31
 2213 070a 1B       		.uleb128 0x1b
 2214 070b 6D736700 		.ascii	"msg\000"
 2215 070f 01       		.byte	0x1
 2216 0710 6F01     		.2byte	0x16f
ARM GAS  /tmp/ccyTkqvK.s 			page 41


 2217 0712 C7000000 		.4byte	0xc7
 2218 0716 03040000 		.4byte	.LLST32
 2219 071a 1C       		.uleb128 0x1c
 2220 071b 6A000000 		.4byte	.LBB4
 2221 071f 82000000 		.4byte	.LBE4
 2222 0723 1B       		.uleb128 0x1b
 2223 0724 63747000 		.ascii	"ctp\000"
 2224 0728 01       		.byte	0x1
 2225 0729 7F01     		.2byte	0x17f
 2226 072b 48020000 		.4byte	0x248
 2227 072f 2E040000 		.4byte	.LLST33
 2228 0733 00       		.byte	0x0
 2229 0734 00       		.byte	0x0
 2230 0735 1D       		.uleb128 0x1d
 2231 0736 12030000 		.4byte	.LASF79
 2232 073a 07       		.byte	0x7
 2233 073b 72       		.byte	0x72
 2234 073c B3030000 		.4byte	0x3b3
 2235 0740 01       		.byte	0x1
 2236 0741 01       		.byte	0x1
 2237 0742 1D       		.uleb128 0x1d
 2238 0743 12030000 		.4byte	.LASF79
 2239 0747 07       		.byte	0x7
 2240 0748 72       		.byte	0x72
 2241 0749 B3030000 		.4byte	0x3b3
 2242 074d 01       		.byte	0x1
 2243 074e 01       		.byte	0x1
 2244 074f 00       		.byte	0x0
 2245              		.section	.debug_abbrev
 2246 0000 01       		.uleb128 0x1
 2247 0001 11       		.uleb128 0x11
 2248 0002 01       		.byte	0x1
 2249 0003 25       		.uleb128 0x25
 2250 0004 0E       		.uleb128 0xe
 2251 0005 13       		.uleb128 0x13
 2252 0006 0B       		.uleb128 0xb
 2253 0007 03       		.uleb128 0x3
 2254 0008 0E       		.uleb128 0xe
 2255 0009 1B       		.uleb128 0x1b
 2256 000a 0E       		.uleb128 0xe
 2257 000b 11       		.uleb128 0x11
 2258 000c 01       		.uleb128 0x1
 2259 000d 52       		.uleb128 0x52
 2260 000e 01       		.uleb128 0x1
 2261 000f 55       		.uleb128 0x55
 2262 0010 06       		.uleb128 0x6
 2263 0011 10       		.uleb128 0x10
 2264 0012 06       		.uleb128 0x6
 2265 0013 00       		.byte	0x0
 2266 0014 00       		.byte	0x0
 2267 0015 02       		.uleb128 0x2
 2268 0016 24       		.uleb128 0x24
 2269 0017 00       		.byte	0x0
 2270 0018 0B       		.uleb128 0xb
 2271 0019 0B       		.uleb128 0xb
 2272 001a 3E       		.uleb128 0x3e
 2273 001b 0B       		.uleb128 0xb
ARM GAS  /tmp/ccyTkqvK.s 			page 42


 2274 001c 03       		.uleb128 0x3
 2275 001d 08       		.uleb128 0x8
 2276 001e 00       		.byte	0x0
 2277 001f 00       		.byte	0x0
 2278 0020 03       		.uleb128 0x3
 2279 0021 24       		.uleb128 0x24
 2280 0022 00       		.byte	0x0
 2281 0023 0B       		.uleb128 0xb
 2282 0024 0B       		.uleb128 0xb
 2283 0025 3E       		.uleb128 0x3e
 2284 0026 0B       		.uleb128 0xb
 2285 0027 03       		.uleb128 0x3
 2286 0028 0E       		.uleb128 0xe
 2287 0029 00       		.byte	0x0
 2288 002a 00       		.byte	0x0
 2289 002b 04       		.uleb128 0x4
 2290 002c 16       		.uleb128 0x16
 2291 002d 00       		.byte	0x0
 2292 002e 03       		.uleb128 0x3
 2293 002f 0E       		.uleb128 0xe
 2294 0030 3A       		.uleb128 0x3a
 2295 0031 0B       		.uleb128 0xb
 2296 0032 3B       		.uleb128 0x3b
 2297 0033 0B       		.uleb128 0xb
 2298 0034 49       		.uleb128 0x49
 2299 0035 13       		.uleb128 0x13
 2300 0036 00       		.byte	0x0
 2301 0037 00       		.byte	0x0
 2302 0038 05       		.uleb128 0x5
 2303 0039 13       		.uleb128 0x13
 2304 003a 01       		.byte	0x1
 2305 003b 03       		.uleb128 0x3
 2306 003c 0E       		.uleb128 0xe
 2307 003d 0B       		.uleb128 0xb
 2308 003e 0B       		.uleb128 0xb
 2309 003f 3A       		.uleb128 0x3a
 2310 0040 0B       		.uleb128 0xb
 2311 0041 3B       		.uleb128 0x3b
 2312 0042 0B       		.uleb128 0xb
 2313 0043 01       		.uleb128 0x1
 2314 0044 13       		.uleb128 0x13
 2315 0045 00       		.byte	0x0
 2316 0046 00       		.byte	0x0
 2317 0047 06       		.uleb128 0x6
 2318 0048 0D       		.uleb128 0xd
 2319 0049 00       		.byte	0x0
 2320 004a 03       		.uleb128 0x3
 2321 004b 0E       		.uleb128 0xe
 2322 004c 3A       		.uleb128 0x3a
 2323 004d 0B       		.uleb128 0xb
 2324 004e 3B       		.uleb128 0x3b
 2325 004f 0B       		.uleb128 0xb
 2326 0050 49       		.uleb128 0x49
 2327 0051 13       		.uleb128 0x13
 2328 0052 38       		.uleb128 0x38
 2329 0053 0A       		.uleb128 0xa
 2330 0054 00       		.byte	0x0
ARM GAS  /tmp/ccyTkqvK.s 			page 43


 2331 0055 00       		.byte	0x0
 2332 0056 07       		.uleb128 0x7
 2333 0057 0D       		.uleb128 0xd
 2334 0058 00       		.byte	0x0
 2335 0059 03       		.uleb128 0x3
 2336 005a 08       		.uleb128 0x8
 2337 005b 3A       		.uleb128 0x3a
 2338 005c 0B       		.uleb128 0xb
 2339 005d 3B       		.uleb128 0x3b
 2340 005e 0B       		.uleb128 0xb
 2341 005f 49       		.uleb128 0x49
 2342 0060 13       		.uleb128 0x13
 2343 0061 38       		.uleb128 0x38
 2344 0062 0A       		.uleb128 0xa
 2345 0063 00       		.byte	0x0
 2346 0064 00       		.byte	0x0
 2347 0065 08       		.uleb128 0x8
 2348 0066 13       		.uleb128 0x13
 2349 0067 01       		.byte	0x1
 2350 0068 0B       		.uleb128 0xb
 2351 0069 0B       		.uleb128 0xb
 2352 006a 3A       		.uleb128 0x3a
 2353 006b 0B       		.uleb128 0xb
 2354 006c 3B       		.uleb128 0x3b
 2355 006d 0B       		.uleb128 0xb
 2356 006e 01       		.uleb128 0x1
 2357 006f 13       		.uleb128 0x13
 2358 0070 00       		.byte	0x0
 2359 0071 00       		.byte	0x0
 2360 0072 09       		.uleb128 0x9
 2361 0073 0F       		.uleb128 0xf
 2362 0074 00       		.byte	0x0
 2363 0075 0B       		.uleb128 0xb
 2364 0076 0B       		.uleb128 0xb
 2365 0077 49       		.uleb128 0x49
 2366 0078 13       		.uleb128 0x13
 2367 0079 00       		.byte	0x0
 2368 007a 00       		.byte	0x0
 2369 007b 0A       		.uleb128 0xa
 2370 007c 0F       		.uleb128 0xf
 2371 007d 00       		.byte	0x0
 2372 007e 0B       		.uleb128 0xb
 2373 007f 0B       		.uleb128 0xb
 2374 0080 00       		.byte	0x0
 2375 0081 00       		.byte	0x0
 2376 0082 0B       		.uleb128 0xb
 2377 0083 0D       		.uleb128 0xd
 2378 0084 00       		.byte	0x0
 2379 0085 03       		.uleb128 0x3
 2380 0086 08       		.uleb128 0x8
 2381 0087 3A       		.uleb128 0x3a
 2382 0088 0B       		.uleb128 0xb
 2383 0089 3B       		.uleb128 0x3b
 2384 008a 05       		.uleb128 0x5
 2385 008b 49       		.uleb128 0x49
 2386 008c 13       		.uleb128 0x13
 2387 008d 38       		.uleb128 0x38
ARM GAS  /tmp/ccyTkqvK.s 			page 44


 2388 008e 0A       		.uleb128 0xa
 2389 008f 00       		.byte	0x0
 2390 0090 00       		.byte	0x0
 2391 0091 0C       		.uleb128 0xc
 2392 0092 13       		.uleb128 0x13
 2393 0093 01       		.byte	0x1
 2394 0094 03       		.uleb128 0x3
 2395 0095 0E       		.uleb128 0xe
 2396 0096 0B       		.uleb128 0xb
 2397 0097 0B       		.uleb128 0xb
 2398 0098 3A       		.uleb128 0x3a
 2399 0099 0B       		.uleb128 0xb
 2400 009a 3B       		.uleb128 0x3b
 2401 009b 05       		.uleb128 0x5
 2402 009c 01       		.uleb128 0x1
 2403 009d 13       		.uleb128 0x13
 2404 009e 00       		.byte	0x0
 2405 009f 00       		.byte	0x0
 2406 00a0 0D       		.uleb128 0xd
 2407 00a1 35       		.uleb128 0x35
 2408 00a2 00       		.byte	0x0
 2409 00a3 49       		.uleb128 0x49
 2410 00a4 13       		.uleb128 0x13
 2411 00a5 00       		.byte	0x0
 2412 00a6 00       		.byte	0x0
 2413 00a7 0E       		.uleb128 0xe
 2414 00a8 17       		.uleb128 0x17
 2415 00a9 01       		.byte	0x1
 2416 00aa 0B       		.uleb128 0xb
 2417 00ab 0B       		.uleb128 0xb
 2418 00ac 3A       		.uleb128 0x3a
 2419 00ad 0B       		.uleb128 0xb
 2420 00ae 3B       		.uleb128 0x3b
 2421 00af 0B       		.uleb128 0xb
 2422 00b0 01       		.uleb128 0x1
 2423 00b1 13       		.uleb128 0x13
 2424 00b2 00       		.byte	0x0
 2425 00b3 00       		.byte	0x0
 2426 00b4 0F       		.uleb128 0xf
 2427 00b5 0D       		.uleb128 0xd
 2428 00b6 00       		.byte	0x0
 2429 00b7 03       		.uleb128 0x3
 2430 00b8 0E       		.uleb128 0xe
 2431 00b9 3A       		.uleb128 0x3a
 2432 00ba 0B       		.uleb128 0xb
 2433 00bb 3B       		.uleb128 0x3b
 2434 00bc 0B       		.uleb128 0xb
 2435 00bd 49       		.uleb128 0x49
 2436 00be 13       		.uleb128 0x13
 2437 00bf 00       		.byte	0x0
 2438 00c0 00       		.byte	0x0
 2439 00c1 10       		.uleb128 0x10
 2440 00c2 26       		.uleb128 0x26
 2441 00c3 00       		.byte	0x0
 2442 00c4 49       		.uleb128 0x49
 2443 00c5 13       		.uleb128 0x13
 2444 00c6 00       		.byte	0x0
ARM GAS  /tmp/ccyTkqvK.s 			page 45


 2445 00c7 00       		.byte	0x0
 2446 00c8 11       		.uleb128 0x11
 2447 00c9 2E       		.uleb128 0x2e
 2448 00ca 01       		.byte	0x1
 2449 00cb 3F       		.uleb128 0x3f
 2450 00cc 0C       		.uleb128 0xc
 2451 00cd 03       		.uleb128 0x3
 2452 00ce 0E       		.uleb128 0xe
 2453 00cf 3A       		.uleb128 0x3a
 2454 00d0 0B       		.uleb128 0xb
 2455 00d1 3B       		.uleb128 0x3b
 2456 00d2 0B       		.uleb128 0xb
 2457 00d3 27       		.uleb128 0x27
 2458 00d4 0C       		.uleb128 0xc
 2459 00d5 11       		.uleb128 0x11
 2460 00d6 01       		.uleb128 0x1
 2461 00d7 12       		.uleb128 0x12
 2462 00d8 01       		.uleb128 0x1
 2463 00d9 40       		.uleb128 0x40
 2464 00da 06       		.uleb128 0x6
 2465 00db 01       		.uleb128 0x1
 2466 00dc 13       		.uleb128 0x13
 2467 00dd 00       		.byte	0x0
 2468 00de 00       		.byte	0x0
 2469 00df 12       		.uleb128 0x12
 2470 00e0 05       		.uleb128 0x5
 2471 00e1 00       		.byte	0x0
 2472 00e2 03       		.uleb128 0x3
 2473 00e3 08       		.uleb128 0x8
 2474 00e4 3A       		.uleb128 0x3a
 2475 00e5 0B       		.uleb128 0xb
 2476 00e6 3B       		.uleb128 0x3b
 2477 00e7 0B       		.uleb128 0xb
 2478 00e8 49       		.uleb128 0x49
 2479 00e9 13       		.uleb128 0x13
 2480 00ea 02       		.uleb128 0x2
 2481 00eb 06       		.uleb128 0x6
 2482 00ec 00       		.byte	0x0
 2483 00ed 00       		.byte	0x0
 2484 00ee 13       		.uleb128 0x13
 2485 00ef 34       		.uleb128 0x34
 2486 00f0 00       		.byte	0x0
 2487 00f1 03       		.uleb128 0x3
 2488 00f2 08       		.uleb128 0x8
 2489 00f3 3A       		.uleb128 0x3a
 2490 00f4 0B       		.uleb128 0xb
 2491 00f5 3B       		.uleb128 0x3b
 2492 00f6 0B       		.uleb128 0xb
 2493 00f7 49       		.uleb128 0x49
 2494 00f8 13       		.uleb128 0x13
 2495 00f9 02       		.uleb128 0x2
 2496 00fa 06       		.uleb128 0x6
 2497 00fb 00       		.byte	0x0
 2498 00fc 00       		.byte	0x0
 2499 00fd 14       		.uleb128 0x14
 2500 00fe 2E       		.uleb128 0x2e
 2501 00ff 01       		.byte	0x1
ARM GAS  /tmp/ccyTkqvK.s 			page 46


 2502 0100 3F       		.uleb128 0x3f
 2503 0101 0C       		.uleb128 0xc
 2504 0102 03       		.uleb128 0x3
 2505 0103 0E       		.uleb128 0xe
 2506 0104 3A       		.uleb128 0x3a
 2507 0105 0B       		.uleb128 0xb
 2508 0106 3B       		.uleb128 0x3b
 2509 0107 0B       		.uleb128 0xb
 2510 0108 27       		.uleb128 0x27
 2511 0109 0C       		.uleb128 0xc
 2512 010a 49       		.uleb128 0x49
 2513 010b 13       		.uleb128 0x13
 2514 010c 11       		.uleb128 0x11
 2515 010d 01       		.uleb128 0x1
 2516 010e 12       		.uleb128 0x12
 2517 010f 01       		.uleb128 0x1
 2518 0110 40       		.uleb128 0x40
 2519 0111 06       		.uleb128 0x6
 2520 0112 01       		.uleb128 0x1
 2521 0113 13       		.uleb128 0x13
 2522 0114 00       		.byte	0x0
 2523 0115 00       		.byte	0x0
 2524 0116 15       		.uleb128 0x15
 2525 0117 05       		.uleb128 0x5
 2526 0118 00       		.byte	0x0
 2527 0119 03       		.uleb128 0x3
 2528 011a 0E       		.uleb128 0xe
 2529 011b 3A       		.uleb128 0x3a
 2530 011c 0B       		.uleb128 0xb
 2531 011d 3B       		.uleb128 0x3b
 2532 011e 0B       		.uleb128 0xb
 2533 011f 49       		.uleb128 0x49
 2534 0120 13       		.uleb128 0x13
 2535 0121 02       		.uleb128 0x2
 2536 0122 06       		.uleb128 0x6
 2537 0123 00       		.byte	0x0
 2538 0124 00       		.byte	0x0
 2539 0125 16       		.uleb128 0x16
 2540 0126 2E       		.uleb128 0x2e
 2541 0127 01       		.byte	0x1
 2542 0128 3F       		.uleb128 0x3f
 2543 0129 0C       		.uleb128 0xc
 2544 012a 03       		.uleb128 0x3
 2545 012b 0E       		.uleb128 0xe
 2546 012c 3A       		.uleb128 0x3a
 2547 012d 0B       		.uleb128 0xb
 2548 012e 3B       		.uleb128 0x3b
 2549 012f 05       		.uleb128 0x5
 2550 0130 27       		.uleb128 0x27
 2551 0131 0C       		.uleb128 0xc
 2552 0132 11       		.uleb128 0x11
 2553 0133 01       		.uleb128 0x1
 2554 0134 12       		.uleb128 0x12
 2555 0135 01       		.uleb128 0x1
 2556 0136 40       		.uleb128 0x40
 2557 0137 06       		.uleb128 0x6
 2558 0138 01       		.uleb128 0x1
ARM GAS  /tmp/ccyTkqvK.s 			page 47


 2559 0139 13       		.uleb128 0x13
 2560 013a 00       		.byte	0x0
 2561 013b 00       		.byte	0x0
 2562 013c 17       		.uleb128 0x17
 2563 013d 05       		.uleb128 0x5
 2564 013e 00       		.byte	0x0
 2565 013f 03       		.uleb128 0x3
 2566 0140 08       		.uleb128 0x8
 2567 0141 3A       		.uleb128 0x3a
 2568 0142 0B       		.uleb128 0xb
 2569 0143 3B       		.uleb128 0x3b
 2570 0144 05       		.uleb128 0x5
 2571 0145 49       		.uleb128 0x49
 2572 0146 13       		.uleb128 0x13
 2573 0147 02       		.uleb128 0x2
 2574 0148 06       		.uleb128 0x6
 2575 0149 00       		.byte	0x0
 2576 014a 00       		.byte	0x0
 2577 014b 18       		.uleb128 0x18
 2578 014c 0B       		.uleb128 0xb
 2579 014d 01       		.byte	0x1
 2580 014e 55       		.uleb128 0x55
 2581 014f 06       		.uleb128 0x6
 2582 0150 00       		.byte	0x0
 2583 0151 00       		.byte	0x0
 2584 0152 19       		.uleb128 0x19
 2585 0153 34       		.uleb128 0x34
 2586 0154 00       		.byte	0x0
 2587 0155 03       		.uleb128 0x3
 2588 0156 08       		.uleb128 0x8
 2589 0157 3A       		.uleb128 0x3a
 2590 0158 0B       		.uleb128 0xb
 2591 0159 3B       		.uleb128 0x3b
 2592 015a 05       		.uleb128 0x5
 2593 015b 49       		.uleb128 0x49
 2594 015c 13       		.uleb128 0x13
 2595 015d 02       		.uleb128 0x2
 2596 015e 0A       		.uleb128 0xa
 2597 015f 00       		.byte	0x0
 2598 0160 00       		.byte	0x0
 2599 0161 1A       		.uleb128 0x1a
 2600 0162 2E       		.uleb128 0x2e
 2601 0163 01       		.byte	0x1
 2602 0164 3F       		.uleb128 0x3f
 2603 0165 0C       		.uleb128 0xc
 2604 0166 03       		.uleb128 0x3
 2605 0167 0E       		.uleb128 0xe
 2606 0168 3A       		.uleb128 0x3a
 2607 0169 0B       		.uleb128 0xb
 2608 016a 3B       		.uleb128 0x3b
 2609 016b 05       		.uleb128 0x5
 2610 016c 27       		.uleb128 0x27
 2611 016d 0C       		.uleb128 0xc
 2612 016e 49       		.uleb128 0x49
 2613 016f 13       		.uleb128 0x13
 2614 0170 11       		.uleb128 0x11
 2615 0171 01       		.uleb128 0x1
ARM GAS  /tmp/ccyTkqvK.s 			page 48


 2616 0172 12       		.uleb128 0x12
 2617 0173 01       		.uleb128 0x1
 2618 0174 40       		.uleb128 0x40
 2619 0175 06       		.uleb128 0x6
 2620 0176 01       		.uleb128 0x1
 2621 0177 13       		.uleb128 0x13
 2622 0178 00       		.byte	0x0
 2623 0179 00       		.byte	0x0
 2624 017a 1B       		.uleb128 0x1b
 2625 017b 34       		.uleb128 0x34
 2626 017c 00       		.byte	0x0
 2627 017d 03       		.uleb128 0x3
 2628 017e 08       		.uleb128 0x8
 2629 017f 3A       		.uleb128 0x3a
 2630 0180 0B       		.uleb128 0xb
 2631 0181 3B       		.uleb128 0x3b
 2632 0182 05       		.uleb128 0x5
 2633 0183 49       		.uleb128 0x49
 2634 0184 13       		.uleb128 0x13
 2635 0185 02       		.uleb128 0x2
 2636 0186 06       		.uleb128 0x6
 2637 0187 00       		.byte	0x0
 2638 0188 00       		.byte	0x0
 2639 0189 1C       		.uleb128 0x1c
 2640 018a 0B       		.uleb128 0xb
 2641 018b 01       		.byte	0x1
 2642 018c 11       		.uleb128 0x11
 2643 018d 01       		.uleb128 0x1
 2644 018e 12       		.uleb128 0x12
 2645 018f 01       		.uleb128 0x1
 2646 0190 00       		.byte	0x0
 2647 0191 00       		.byte	0x0
 2648 0192 1D       		.uleb128 0x1d
 2649 0193 34       		.uleb128 0x34
 2650 0194 00       		.byte	0x0
 2651 0195 03       		.uleb128 0x3
 2652 0196 0E       		.uleb128 0xe
 2653 0197 3A       		.uleb128 0x3a
 2654 0198 0B       		.uleb128 0xb
 2655 0199 3B       		.uleb128 0x3b
 2656 019a 0B       		.uleb128 0xb
 2657 019b 49       		.uleb128 0x49
 2658 019c 13       		.uleb128 0x13
 2659 019d 3F       		.uleb128 0x3f
 2660 019e 0C       		.uleb128 0xc
 2661 019f 3C       		.uleb128 0x3c
 2662 01a0 0C       		.uleb128 0xc
 2663 01a1 00       		.byte	0x0
 2664 01a2 00       		.byte	0x0
 2665 01a3 00       		.byte	0x0
 2666              		.section	.debug_pubnames,"",%progbits
 2667 0000 CD000000 		.4byte	0xcd
 2668 0004 0200     		.2byte	0x2
 2669 0006 00000000 		.4byte	.Ldebug_info0
 2670 000a 50070000 		.4byte	0x750
 2671 000e 8D040000 		.4byte	0x48d
 2672 0012 63685365 		.ascii	"chSemInit\000"
ARM GAS  /tmp/ccyTkqvK.s 			page 49


 2672      6D496E69 
 2672      7400
 2673 001c C8040000 		.4byte	0x4c8
 2674 0020 63685365 		.ascii	"chSemResetI\000"
 2674      6D526573 
 2674      65744900 
 2675 002c 0C050000 		.4byte	0x50c
 2676 0030 63685365 		.ascii	"chSemReset\000"
 2676      6D526573 
 2676      657400
 2677 003b 41050000 		.4byte	0x541
 2678 003f 63685365 		.ascii	"chSemWaitS\000"
 2678      6D576169 
 2678      745300
 2679 004a 6D050000 		.4byte	0x56d
 2680 004e 63685365 		.ascii	"chSemWait\000"
 2680      6D576169 
 2680      7400
 2681 0058 A8050000 		.4byte	0x5a8
 2682 005c 63685365 		.ascii	"chSemWaitTimeoutS\000"
 2682      6D576169 
 2682      7454696D 
 2682      656F7574 
 2682      5300
 2683 006e E3050000 		.4byte	0x5e3
 2684 0072 63685365 		.ascii	"chSemWaitTimeout\000"
 2684      6D576169 
 2684      7454696D 
 2684      656F7574 
 2684      00
 2685 0083 2D060000 		.4byte	0x62d
 2686 0087 63685365 		.ascii	"chSemSignal\000"
 2686      6D536967 
 2686      6E616C00 
 2687 0093 57060000 		.4byte	0x657
 2688 0097 63685365 		.ascii	"chSemSignalI\000"
 2688      6D536967 
 2688      6E616C49 
 2688      00
 2689 00a4 94060000 		.4byte	0x694
 2690 00a8 63685365 		.ascii	"chSemAddCounterI\000"
 2690      6D416464 
 2690      436F756E 
 2690      74657249 
 2690      00
 2691 00b9 CC060000 		.4byte	0x6cc
 2692 00bd 63685365 		.ascii	"chSemSignalWait\000"
 2692      6D536967 
 2692      6E616C57 
 2692      61697400 
 2693 00cd 00000000 		.4byte	0x0
 2694              		.section	.debug_pubtypes,"",%progbits
 2695 0000 4B010000 		.4byte	0x14b
 2696 0004 0200     		.2byte	0x2
 2697 0006 00000000 		.4byte	.Ldebug_info0
 2698 000a 50070000 		.4byte	0x750
 2699 000e 3E000000 		.4byte	0x3e
ARM GAS  /tmp/ccyTkqvK.s 			page 50


 2700 0012 75696E74 		.ascii	"uint8_t\000"
 2700      385F7400 
 2701 001a 5E000000 		.4byte	0x5e
 2702 001e 696E7433 		.ascii	"int32_t\000"
 2702      325F7400 
 2703 0026 70000000 		.4byte	0x70
 2704 002a 75696E74 		.ascii	"uint32_t\000"
 2704      33325F74 
 2704      00
 2705 0033 89000000 		.4byte	0x89
 2706 0037 75696E74 		.ascii	"uint64_t\000"
 2706      36345F74 
 2706      00
 2707 0040 9B000000 		.4byte	0x9b
 2708 0044 746D6F64 		.ascii	"tmode_t\000"
 2708      655F7400 
 2709 004c A6000000 		.4byte	0xa6
 2710 0050 74737461 		.ascii	"tstate_t\000"
 2710      74655F74 
 2710      00
 2711 0059 B1000000 		.4byte	0xb1
 2712 005d 74726566 		.ascii	"trefs_t\000"
 2712      735F7400 
 2713 0065 BC000000 		.4byte	0xbc
 2714 0069 74707269 		.ascii	"tprio_t\000"
 2714      6F5F7400 
 2715 0071 C7000000 		.4byte	0xc7
 2716 0075 6D73675F 		.ascii	"msg_t\000"
 2716      7400
 2717 007b D2000000 		.4byte	0xd2
 2718 007f 6576656E 		.ascii	"eventmask_t\000"
 2718      746D6173 
 2718      6B5F7400 
 2719 008b DD000000 		.4byte	0xdd
 2720 008f 73797374 		.ascii	"systime_t\000"
 2720      696D655F 
 2720      7400
 2721 0099 E8000000 		.4byte	0xe8
 2722 009d 636E745F 		.ascii	"cnt_t\000"
 2722      7400
 2723 00a3 F3000000 		.4byte	0xf3
 2724 00a7 54687265 		.ascii	"Thread\000"
 2724      616400
 2725 00ae 4E020000 		.4byte	0x24e
 2726 00b2 54687265 		.ascii	"ThreadsQueue\000"
 2726      61647351 
 2726      75657565 
 2726      00
 2727 00bf 70020000 		.4byte	0x270
 2728 00c3 54687265 		.ascii	"ThreadsList\000"
 2728      6164734C 
 2728      69737400 
 2729 00cf 7B020000 		.4byte	0x27b
 2730 00d3 72656761 		.ascii	"regarm_t\000"
 2730      726D5F74 
 2730      00
 2731 00dc 88020000 		.4byte	0x288
ARM GAS  /tmp/ccyTkqvK.s 			page 51


 2732 00e0 73746B61 		.ascii	"stkalign_t\000"
 2732      6C69676E 
 2732      5F7400
 2733 00eb 93020000 		.4byte	0x293
 2734 00ef 696E7463 		.ascii	"intctx\000"
 2734      747800
 2735 00f6 20030000 		.4byte	0x320
 2736 00fa 636F6E74 		.ascii	"context\000"
 2736      65787400 
 2737 0102 B3030000 		.4byte	0x3b3
 2738 0106 52656164 		.ascii	"ReadyList\000"
 2738      794C6973 
 2738      7400
 2739 0110 BE030000 		.4byte	0x3be
 2740 0114 53656D61 		.ascii	"Semaphore\000"
 2740      70686F72 
 2740      6500
 2741 011e E7030000 		.4byte	0x3e7
 2742 0122 53656D61 		.ascii	"Semaphore\000"
 2742      70686F72 
 2742      6500
 2743 012c F2030000 		.4byte	0x3f2
 2744 0130 4D757465 		.ascii	"Mutex\000"
 2744      7800
 2745 0136 2F040000 		.4byte	0x42f
 2746 013a 4D757465 		.ascii	"Mutex\000"
 2746      7800
 2747 0140 FE000000 		.4byte	0xfe
 2748 0144 54687265 		.ascii	"Thread\000"
 2748      616400
 2749 014b 00000000 		.4byte	0x0
 2750              		.section	.debug_aranges,"",%progbits
 2751 0000 6C000000 		.4byte	0x6c
 2752 0004 0200     		.2byte	0x2
 2753 0006 00000000 		.4byte	.Ldebug_info0
 2754 000a 04       		.byte	0x4
 2755 000b 00       		.byte	0x0
 2756 000c 0000     		.2byte	0x0
 2757 000e 0000     		.2byte	0x0
 2758 0010 00000000 		.4byte	.LFB0
 2759 0014 20000000 		.4byte	.LFE0-.LFB0
 2760 0018 00000000 		.4byte	.LFB2
 2761 001c 54000000 		.4byte	.LFE2-.LFB2
 2762 0020 00000000 		.4byte	.LFB1
 2763 0024 24000000 		.4byte	.LFE1-.LFB1
 2764 0028 00000000 		.4byte	.LFB4
 2765 002c 5C000000 		.4byte	.LFE4-.LFB4
 2766 0030 00000000 		.4byte	.LFB3
 2767 0034 20000000 		.4byte	.LFE3-.LFB3
 2768 0038 00000000 		.4byte	.LFB6
 2769 003c 68000000 		.4byte	.LFE6-.LFB6
 2770 0040 00000000 		.4byte	.LFB5
 2771 0044 24000000 		.4byte	.LFE5-.LFB5
 2772 0048 00000000 		.4byte	.LFB7
 2773 004c 54000000 		.4byte	.LFE7-.LFB7
 2774 0050 00000000 		.4byte	.LFB8
 2775 0054 50000000 		.4byte	.LFE8-.LFB8
ARM GAS  /tmp/ccyTkqvK.s 			page 52


 2776 0058 00000000 		.4byte	.LFB9
 2777 005c 58000000 		.4byte	.LFE9-.LFB9
 2778 0060 00000000 		.4byte	.LFB10
 2779 0064 A4000000 		.4byte	.LFE10-.LFB10
 2780 0068 00000000 		.4byte	0x0
 2781 006c 00000000 		.4byte	0x0
 2782              		.section	.debug_ranges,"",%progbits
 2783              	.Ldebug_ranges0:
 2784 0000 32000000 		.4byte	.LBB2
 2785 0004 3C000000 		.4byte	.LBE2
 2786 0008 40000000 		.4byte	.LBB3
 2787 000c 50000000 		.4byte	.LBE3
 2788 0010 00000000 		.4byte	0x0
 2789 0014 00000000 		.4byte	0x0
 2790 0018 00000000 		.4byte	.LFB0
 2791 001c 20000000 		.4byte	.LFE0
 2792 0020 00000000 		.4byte	.LFB2
 2793 0024 54000000 		.4byte	.LFE2
 2794 0028 00000000 		.4byte	.LFB1
 2795 002c 24000000 		.4byte	.LFE1
 2796 0030 00000000 		.4byte	.LFB4
 2797 0034 5C000000 		.4byte	.LFE4
 2798 0038 00000000 		.4byte	.LFB3
 2799 003c 20000000 		.4byte	.LFE3
 2800 0040 00000000 		.4byte	.LFB6
 2801 0044 68000000 		.4byte	.LFE6
 2802 0048 00000000 		.4byte	.LFB5
 2803 004c 24000000 		.4byte	.LFE5
 2804 0050 00000000 		.4byte	.LFB7
 2805 0054 54000000 		.4byte	.LFE7
 2806 0058 00000000 		.4byte	.LFB8
 2807 005c 50000000 		.4byte	.LFE8
 2808 0060 00000000 		.4byte	.LFB9
 2809 0064 58000000 		.4byte	.LFE9
 2810 0068 00000000 		.4byte	.LFB10
 2811 006c A4000000 		.4byte	.LFE10
 2812 0070 00000000 		.4byte	0x0
 2813 0074 00000000 		.4byte	0x0
 2814              		.section	.debug_str,"MS",%progbits,1
 2815              	.LASF81:
 2816 0000 2E2E2F63 		.ascii	"../chibios/os/kernel/src/chsem.c\000"
 2816      68696269 
 2816      6F732F6F 
 2816      732F6B65 
 2816      726E656C 
 2817              	.LASF36:
 2818 0021 705F6D73 		.ascii	"p_msg\000"
 2818      6700
 2819              	.LASF76:
 2820 0027 63685365 		.ascii	"chSemSignalI\000"
 2820      6D536967 
 2820      6E616C49 
 2820      00
 2821              	.LASF62:
 2822 0034 7264796D 		.ascii	"rdymsg\000"
 2822      736700
 2823              	.LASF11:
ARM GAS  /tmp/ccyTkqvK.s 			page 53


 2824 003b 75696E74 		.ascii	"uint64_t\000"
 2824      36345F74 
 2824      00
 2825              	.LASF12:
 2826 0044 6C6F6E67 		.ascii	"long long unsigned int\000"
 2826      206C6F6E 
 2826      6720756E 
 2826      7369676E 
 2826      65642069 
 2827              	.LASF63:
 2828 005b 65786974 		.ascii	"exitcode\000"
 2828      636F6465 
 2828      00
 2829              	.LASF77:
 2830 0064 63685365 		.ascii	"chSemAddCounterI\000"
 2830      6D416464 
 2830      436F756E 
 2830      74657249 
 2830      00
 2831              	.LASF24:
 2832 0075 705F7072 		.ascii	"p_prio\000"
 2832      696F00
 2833              	.LASF10:
 2834 007c 6C6F6E67 		.ascii	"long long int\000"
 2834      206C6F6E 
 2834      6720696E 
 2834      7400
 2835              	.LASF1:
 2836 008a 7369676E 		.ascii	"signed char\000"
 2836      65642063 
 2836      68617200 
 2837              	.LASF78:
 2838 0096 63685365 		.ascii	"chSemSignalWait\000"
 2838      6D536967 
 2838      6E616C57 
 2838      61697400 
 2839              	.LASF40:
 2840 00a6 705F6D70 		.ascii	"p_mpool\000"
 2840      6F6F6C00 
 2841              	.LASF59:
 2842 00ae 6D5F7175 		.ascii	"m_queue\000"
 2842      65756500 
 2843              	.LASF64:
 2844 00b6 77746F62 		.ascii	"wtobjp\000"
 2844      6A7000
 2845              	.LASF7:
 2846 00bd 6C6F6E67 		.ascii	"long int\000"
 2846      20696E74 
 2846      00
 2847              	.LASF14:
 2848 00c6 74737461 		.ascii	"tstate_t\000"
 2848      74655F74 
 2848      00
 2849              	.LASF75:
 2850 00cf 63685365 		.ascii	"chSemSignal\000"
 2850      6D536967 
 2850      6E616C00 
ARM GAS  /tmp/ccyTkqvK.s 			page 54


 2851              	.LASF26:
 2852 00db 705F6E65 		.ascii	"p_newer\000"
 2852      77657200 
 2853              	.LASF56:
 2854 00e3 735F7175 		.ascii	"s_queue\000"
 2854      65756500 
 2855              	.LASF50:
 2856 00eb 725F6E65 		.ascii	"r_newer\000"
 2856      77657200 
 2857              	.LASF43:
 2858 00f3 72656761 		.ascii	"regarm_t\000"
 2858      726D5F74 
 2858      00
 2859              	.LASF20:
 2860 00fc 636E745F 		.ascii	"cnt_t\000"
 2860      7400
 2861              	.LASF29:
 2862 0102 705F7374 		.ascii	"p_stklimit\000"
 2862      6B6C696D 
 2862      697400
 2863              	.LASF0:
 2864 010d 756E7369 		.ascii	"unsigned int\000"
 2864      676E6564 
 2864      20696E74 
 2864      00
 2865              	.LASF74:
 2866 011a 63685365 		.ascii	"chSemWaitTimeout\000"
 2866      6D576169 
 2866      7454696D 
 2866      656F7574 
 2866      00
 2867              	.LASF9:
 2868 012b 6C6F6E67 		.ascii	"long unsigned int\000"
 2868      20756E73 
 2868      69676E65 
 2868      6420696E 
 2868      7400
 2869              	.LASF57:
 2870 013d 735F636E 		.ascii	"s_cnt\000"
 2870      7400
 2871              	.LASF46:
 2872 0143 636F6E74 		.ascii	"context\000"
 2872      65787400 
 2873              	.LASF82:
 2874 014b 2F686F6D 		.ascii	"/home/z80/projects/dfu.git/firmware-pawn-dev/firmwa"
 2874      652F7A38 
 2874      302F7072 
 2874      6F6A6563 
 2874      74732F64 
 2875 017e 726500   		.ascii	"re\000"
 2876              	.LASF69:
 2877 0181 63685365 		.ascii	"chSemReset\000"
 2877      6D526573 
 2877      657400
 2878              	.LASF17:
 2879 018c 6D73675F 		.ascii	"msg_t\000"
 2879      7400
ARM GAS  /tmp/ccyTkqvK.s 			page 55


 2880              	.LASF13:
 2881 0192 746D6F64 		.ascii	"tmode_t\000"
 2881      655F7400 
 2882              	.LASF42:
 2883 019a 54687265 		.ascii	"ThreadsList\000"
 2883      6164734C 
 2883      69737400 
 2884              	.LASF18:
 2885 01a6 6576656E 		.ascii	"eventmask_t\000"
 2885      746D6173 
 2885      6B5F7400 
 2886              	.LASF58:
 2887 01b2 4D757465 		.ascii	"Mutex\000"
 2887      7800
 2888              	.LASF44:
 2889 01b8 73746B61 		.ascii	"stkalign_t\000"
 2889      6C69676E 
 2889      5F7400
 2890              	.LASF27:
 2891 01c3 705F6F6C 		.ascii	"p_older\000"
 2891      64657200 
 2892              	.LASF49:
 2893 01cb 725F6374 		.ascii	"r_ctx\000"
 2893      7800
 2894              	.LASF41:
 2895 01d1 54687265 		.ascii	"ThreadsQueue\000"
 2895      61647351 
 2895      75657565 
 2895      00
 2896              	.LASF73:
 2897 01de 74696D65 		.ascii	"time\000"
 2897      00
 2898              	.LASF53:
 2899 01e3 725F6375 		.ascii	"r_current\000"
 2899      7272656E 
 2899      7400
 2900              	.LASF51:
 2901 01ed 725F6F6C 		.ascii	"r_older\000"
 2901      64657200 
 2902              	.LASF15:
 2903 01f5 74726566 		.ascii	"trefs_t\000"
 2903      735F7400 
 2904              	.LASF23:
 2905 01fd 705F7072 		.ascii	"p_prev\000"
 2905      657600
 2906              	.LASF16:
 2907 0204 74707269 		.ascii	"tprio_t\000"
 2907      6F5F7400 
 2908              	.LASF6:
 2909 020c 696E7433 		.ascii	"int32_t\000"
 2909      325F7400 
 2910              	.LASF2:
 2911 0214 756E7369 		.ascii	"unsigned char\000"
 2911      676E6564 
 2911      20636861 
 2911      7200
 2912              	.LASF38:
ARM GAS  /tmp/ccyTkqvK.s 			page 56


 2913 0222 705F6D74 		.ascii	"p_mtxlist\000"
 2913      786C6973 
 2913      7400
 2914              	.LASF3:
 2915 022c 73686F72 		.ascii	"short int\000"
 2915      7420696E 
 2915      7400
 2916              	.LASF30:
 2917 0236 705F7374 		.ascii	"p_state\000"
 2917      61746500 
 2918              	.LASF48:
 2919 023e 725F7072 		.ascii	"r_prio\000"
 2919      696F00
 2920              	.LASF65:
 2921 0245 65776D61 		.ascii	"ewmask\000"
 2921      736B00
 2922              	.LASF22:
 2923 024c 705F6E65 		.ascii	"p_next\000"
 2923      787400
 2924              	.LASF31:
 2925 0253 705F666C 		.ascii	"p_flags\000"
 2925      61677300 
 2926              	.LASF70:
 2927 025b 63685365 		.ascii	"chSemWaitS\000"
 2927      6D576169 
 2927      745300
 2928              	.LASF21:
 2929 0266 54687265 		.ascii	"Thread\000"
 2929      616400
 2930              	.LASF37:
 2931 026d 705F6570 		.ascii	"p_epending\000"
 2931      656E6469 
 2931      6E6700
 2932              	.LASF8:
 2933 0278 75696E74 		.ascii	"uint32_t\000"
 2933      33325F74 
 2933      00
 2934              	.LASF47:
 2935 0281 725F7175 		.ascii	"r_queue\000"
 2935      65756500 
 2936              	.LASF66:
 2937 0289 63686172 		.ascii	"char\000"
 2937      00
 2938              	.LASF72:
 2939 028e 63685365 		.ascii	"chSemWaitTimeoutS\000"
 2939      6D576169 
 2939      7454696D 
 2939      656F7574 
 2939      5300
 2940              	.LASF61:
 2941 02a0 6D5F6E65 		.ascii	"m_next\000"
 2941      787400
 2942              	.LASF19:
 2943 02a7 73797374 		.ascii	"systime_t\000"
 2943      696D655F 
 2943      7400
 2944              	.LASF39:
ARM GAS  /tmp/ccyTkqvK.s 			page 57


 2945 02b1 705F7265 		.ascii	"p_realprio\000"
 2945      616C7072 
 2945      696F00
 2946              	.LASF71:
 2947 02bc 63685365 		.ascii	"chSemWait\000"
 2947      6D576169 
 2947      7400
 2948              	.LASF4:
 2949 02c6 73686F72 		.ascii	"short unsigned int\000"
 2949      7420756E 
 2949      7369676E 
 2949      65642069 
 2949      6E7400
 2950              	.LASF45:
 2951 02d9 696E7463 		.ascii	"intctx\000"
 2951      747800
 2952              	.LASF35:
 2953 02e0 705F6D73 		.ascii	"p_msgqueue\000"
 2953      67717565 
 2953      756500
 2954              	.LASF55:
 2955 02eb 53656D61 		.ascii	"Semaphore\000"
 2955      70686F72 
 2955      6500
 2956              	.LASF32:
 2957 02f5 705F7265 		.ascii	"p_refs\000"
 2957      667300
 2958              	.LASF54:
 2959 02fc 52656164 		.ascii	"ReadyList\000"
 2959      794C6973 
 2959      7400
 2960              	.LASF68:
 2961 0306 63685365 		.ascii	"chSemResetI\000"
 2961      6D526573 
 2961      65744900 
 2962              	.LASF79:
 2963 0312 726C6973 		.ascii	"rlist\000"
 2963      7400
 2964              	.LASF5:
 2965 0318 75696E74 		.ascii	"uint8_t\000"
 2965      385F7400 
 2966              	.LASF33:
 2967 0320 705F7469 		.ascii	"p_time\000"
 2967      6D6500
 2968              	.LASF80:
 2969 0327 474E5520 		.ascii	"GNU C 4.5.2\000"
 2969      4320342E 
 2969      352E3200 
 2970              	.LASF28:
 2971 0333 705F6E61 		.ascii	"p_name\000"
 2971      6D6500
 2972              	.LASF52:
 2973 033a 725F7072 		.ascii	"r_preempt\000"
 2973      65656D70 
 2973      7400
 2974              	.LASF60:
 2975 0344 6D5F6F77 		.ascii	"m_owner\000"
ARM GAS  /tmp/ccyTkqvK.s 			page 58


 2975      6E657200 
 2976              	.LASF25:
 2977 034c 705F6374 		.ascii	"p_ctx\000"
 2977      7800
 2978              	.LASF34:
 2979 0352 705F7761 		.ascii	"p_waiting\000"
 2979      6974696E 
 2979      6700
 2980              	.LASF67:
 2981 035c 63685365 		.ascii	"chSemInit\000"
 2981      6D496E69 
 2981      7400
 2982              		.ident	"GCC: (Sourcery G++ Lite 2011.03-42) 4.5.2"
ARM GAS  /tmp/ccyTkqvK.s 			page 59


DEFINED SYMBOLS
                            *ABS*:00000000 chsem.c
     /tmp/ccyTkqvK.s:24     .text.chSemInit:00000000 $t
     /tmp/ccyTkqvK.s:29     .text.chSemInit:00000000 chSemInit
     /tmp/ccyTkqvK.s:69     .text.chSemInit:0000001c $d
     /tmp/ccyTkqvK.s:74     .text.chSemResetI:00000000 $t
     /tmp/ccyTkqvK.s:79     .text.chSemResetI:00000000 chSemResetI
     /tmp/ccyTkqvK.s:153    .text.chSemResetI:0000004c $d
     /tmp/ccyTkqvK.s:159    .text.chSemReset:00000000 $t
     /tmp/ccyTkqvK.s:164    .text.chSemReset:00000000 chSemReset
     /tmp/ccyTkqvK.s:206    .text.chSemWaitS:00000000 $t
     /tmp/ccyTkqvK.s:211    .text.chSemWaitS:00000000 chSemWaitS
     /tmp/ccyTkqvK.s:284    .text.chSemWaitS:00000050 $d
     /tmp/ccyTkqvK.s:291    .text.chSemWait:00000000 $t
     /tmp/ccyTkqvK.s:296    .text.chSemWait:00000000 chSemWait
     /tmp/ccyTkqvK.s:336    .text.chSemWaitTimeoutS:00000000 $t
     /tmp/ccyTkqvK.s:341    .text.chSemWaitTimeoutS:00000000 chSemWaitTimeoutS
     /tmp/ccyTkqvK.s:423    .text.chSemWaitTimeoutS:0000005c $d
     /tmp/ccyTkqvK.s:430    .text.chSemWaitTimeout:00000000 $t
     /tmp/ccyTkqvK.s:435    .text.chSemWaitTimeout:00000000 chSemWaitTimeout
     /tmp/ccyTkqvK.s:479    .text.chSemSignal:00000000 $t
     /tmp/ccyTkqvK.s:484    .text.chSemSignal:00000000 chSemSignal
     /tmp/ccyTkqvK.s:551    .text.chSemSignal:0000004c $d
     /tmp/ccyTkqvK.s:557    .text.chSemSignalI:00000000 $t
     /tmp/ccyTkqvK.s:562    .text.chSemSignalI:00000000 chSemSignalI
     /tmp/ccyTkqvK.s:627    .text.chSemSignalI:00000048 $d
     /tmp/ccyTkqvK.s:634    .text.chSemAddCounterI:00000000 $t
     /tmp/ccyTkqvK.s:639    .text.chSemAddCounterI:00000000 chSemAddCounterI
     /tmp/ccyTkqvK.s:713    .text.chSemAddCounterI:00000050 $d
     /tmp/ccyTkqvK.s:719    .text.chSemSignalWait:00000000 $t
     /tmp/ccyTkqvK.s:724    .text.chSemSignalWait:00000000 chSemSignalWait
     /tmp/ccyTkqvK.s:856    .text.chSemSignalWait:00000094 $d
                     .debug_frame:00000010 $d

UNDEFINED SYMBOLS
chDbgPanic
chDbgCheckClassI
lifo_remove
chSchReadyI
_port_lock
dbg_check_lock
chSchRescheduleS
dbg_check_unlock
_port_unlock
chDbgCheckClassS
queue_insert
chSchGoSleepS
rlist
chSchGoSleepTimeoutS
fifo_remove
chSchWakeupS
