ARM GAS  /tmp/ccv3ibDj.s 			page 1


   1              		.syntax unified
   2              		.cpu cortex-m3
   3              		.fpu softvfp
   4              		.eabi_attribute 20, 1
   5              		.eabi_attribute 21, 1
   6              		.eabi_attribute 23, 3
   7              		.eabi_attribute 24, 1
   8              		.eabi_attribute 25, 1
   9              		.eabi_attribute 26, 1
  10              		.eabi_attribute 30, 4
  11              		.eabi_attribute 18, 4
  12              		.thumb
  13              		.file	"chvt.c"
  14              		.section	.debug_abbrev,"",%progbits
  15              	.Ldebug_abbrev0:
  16              		.section	.debug_info,"",%progbits
  17              	.Ldebug_info0:
  18              		.section	.debug_line,"",%progbits
  19              	.Ldebug_line0:
  20 0000 A2010000 		.text
  20      02000601 
  20      00000201 
  20      FB0E0D00 
  20      01010101 
  21              	.Ltext0:
  22              		.cfi_sections	.debug_frame
  23              		.section	.text._vt_init,"ax",%progbits
  24              		.align	1
  25              		.global	_vt_init
  26              		.thumb
  27              		.thumb_func
  28              		.type	_vt_init, %function
  29              	_vt_init:
  30              	.LFB0:
  31              		.file 1 "../chibios/os/kernel/src/chvt.c"
  32              		.loc 1 50 0
  33              		.cfi_startproc
  34              		@ args = 0, pretend = 0, frame = 0
  35              		@ frame_needed = 0, uses_anonymous_args = 0
  36              		@ link register save eliminated.
  37              		.loc 1 52 0
  38 0000 044B     		ldr	r3, .L2
  39              		.loc 1 53 0
  40 0002 4FF0FF32 		mov	r2, #-1
  41 0006 9A60     		str	r2, [r3, #8]
  42              		.loc 1 54 0
  43 0008 0132     		adds	r2, r2, #1
  44              		.loc 1 52 0
  45 000a 5B60     		str	r3, [r3, #4]
  46 000c 1B60     		str	r3, [r3, #0]
  47              		.loc 1 54 0
  48 000e DA60     		str	r2, [r3, #12]
  49              		.loc 1 55 0
  50 0010 7047     		bx	lr
  51              	.L3:
  52 0012 00BF     		.align	2
  53              	.L2:
ARM GAS  /tmp/ccv3ibDj.s 			page 2


  54 0014 00000000 		.word	.LANCHOR0
  55              		.cfi_endproc
  56              	.LFE0:
  57              		.size	_vt_init, .-_vt_init
  58              		.section	.text.chVTSetI,"ax",%progbits
  59              		.align	1
  60              		.global	chVTSetI
  61              		.thumb
  62              		.thumb_func
  63              		.type	chVTSetI, %function
  64              	chVTSetI:
  65              	.LFB1:
  66              		.loc 1 77 0
  67              		.cfi_startproc
  68              		@ args = 0, pretend = 0, frame = 0
  69              		@ frame_needed = 0, uses_anonymous_args = 0
  70              	.LVL0:
  71 0000 F8B5     		push	{r3, r4, r5, r6, r7, lr}
  72              	.LCFI0:
  73              		.cfi_def_cfa_offset 24
  74              		.loc 1 77 0
  75 0002 0446     		mov	r4, r0
  76              		.cfi_offset 14, -4
  77              		.cfi_offset 7, -8
  78              		.cfi_offset 6, -12
  79              		.cfi_offset 5, -16
  80              		.cfi_offset 4, -20
  81              		.cfi_offset 3, -24
  82 0004 0D46     		mov	r5, r1
  83 0006 1646     		mov	r6, r2
  84 0008 1F46     		mov	r7, r3
  85              		.loc 1 80 0
  86 000a FFF7FEFF 		bl	chDbgCheckClassI
  87              	.LVL1:
  88              		.loc 1 81 0
  89 000e 0CB1     		cbz	r4, .L5
  90              		.loc 1 81 0 is_stmt 0 discriminator 2
  91 0010 06B1     		cbz	r6, .L5
  92              		.loc 1 81 0 discriminator 3
  93 0012 15B9     		cbnz	r5, .L6
  94              	.L5:
  95              		.loc 1 81 0 discriminator 1
  96 0014 0C48     		ldr	r0, .L10
  97 0016 FFF7FEFF 		bl	chDbgPanic
  98              	.L6:
  99              		.loc 1 86 0 is_stmt 1
 100 001a 0C4A     		ldr	r2, .L10+4
 101              		.loc 1 84 0
 102 001c 2761     		str	r7, [r4, #16]
 103              		.loc 1 85 0
 104 001e E660     		str	r6, [r4, #12]
 105              		.loc 1 86 0
 106 0020 1368     		ldr	r3, [r2, #0]
 107              	.LVL2:
 108 0022 1046     		mov	r0, r2
 109              		.loc 1 87 0
 110 0024 01E0     		b	.L7
ARM GAS  /tmp/ccv3ibDj.s 			page 3


 111              	.LVL3:
 112              	.L8:
 113              		.loc 1 89 0
 114 0026 1B68     		ldr	r3, [r3, #0]
 115              	.LVL4:
 116              		.loc 1 88 0
 117 0028 6D1A     		subs	r5, r5, r1
 118              	.LVL5:
 119              	.L7:
 120              		.loc 1 87 0 discriminator 1
 121 002a 9968     		ldr	r1, [r3, #8]
 122 002c A942     		cmp	r1, r5
 123 002e FAD3     		bcc	.L8
 124              		.loc 1 92 0
 125 0030 5A68     		ldr	r2, [r3, #4]
 126              		.loc 1 95 0
 127 0032 8342     		cmp	r3, r0
 128              		.loc 1 92 0
 129 0034 2360     		str	r3, [r4, #0]
 130 0036 6260     		str	r2, [r4, #4]
 131              		.loc 1 93 0
 132 0038 1460     		str	r4, [r2, #0]
 133 003a 5C60     		str	r4, [r3, #4]
 134              		.loc 1 94 0
 135 003c A560     		str	r5, [r4, #8]
 136              		.loc 1 95 0
 137 003e 02D0     		beq	.L4
 138              		.loc 1 96 0
 139 0040 9A68     		ldr	r2, [r3, #8]
 140 0042 551B     		subs	r5, r2, r5
 141              	.LVL6:
 142 0044 9D60     		str	r5, [r3, #8]
 143              	.L4:
 144 0046 F8BD     		pop	{r3, r4, r5, r6, r7, pc}
 145              	.L11:
 146              		.align	2
 147              	.L10:
 148 0048 00000000 		.word	.LC0
 149 004c 00000000 		.word	.LANCHOR0
 150              		.cfi_endproc
 151              	.LFE1:
 152              		.size	chVTSetI, .-chVTSetI
 153              		.section	.text.chVTResetI,"ax",%progbits
 154              		.align	1
 155              		.global	chVTResetI
 156              		.thumb
 157              		.thumb_func
 158              		.type	chVTResetI, %function
 159              	chVTResetI:
 160              	.LFB2:
 161              		.loc 1 107 0
 162              		.cfi_startproc
 163              		@ args = 0, pretend = 0, frame = 0
 164              		@ frame_needed = 0, uses_anonymous_args = 0
 165              	.LVL7:
 166 0000 10B5     		push	{r4, lr}
 167              	.LCFI1:
ARM GAS  /tmp/ccv3ibDj.s 			page 4


 168              		.cfi_def_cfa_offset 8
 169              		.loc 1 107 0
 170 0002 0446     		mov	r4, r0
 171              		.cfi_offset 14, -4
 172              		.cfi_offset 4, -8
 173              		.loc 1 109 0
 174 0004 FFF7FEFF 		bl	chDbgCheckClassI
 175              	.LVL8:
 176              		.loc 1 110 0
 177 0008 14B9     		cbnz	r4, .L13
 178              		.loc 1 110 0 is_stmt 0 discriminator 1
 179 000a 0B48     		ldr	r0, .L16
 180 000c FFF7FEFF 		bl	chDbgPanic
 181              	.L13:
 182              		.loc 1 111 0 is_stmt 1
 183 0010 E368     		ldr	r3, [r4, #12]
 184 0012 13B9     		cbnz	r3, .L14
 185              		.loc 1 111 0 is_stmt 0 discriminator 1
 186 0014 0948     		ldr	r0, .L16+4
 187 0016 FFF7FEFF 		bl	chDbgPanic
 188              	.L14:
 189              		.loc 1 115 0 is_stmt 1
 190 001a 2368     		ldr	r3, [r4, #0]
 191 001c 084A     		ldr	r2, .L16+8
 192 001e 9342     		cmp	r3, r2
 193 0020 03D0     		beq	.L15
 194              		.loc 1 116 0
 195 0022 9968     		ldr	r1, [r3, #8]
 196 0024 A268     		ldr	r2, [r4, #8]
 197 0026 8A18     		adds	r2, r1, r2
 198 0028 9A60     		str	r2, [r3, #8]
 199              	.L15:
 200              		.loc 1 117 0
 201 002a 6268     		ldr	r2, [r4, #4]
 202 002c 1360     		str	r3, [r2, #0]
 203              		.loc 1 118 0
 204 002e 2368     		ldr	r3, [r4, #0]
 205 0030 5A60     		str	r2, [r3, #4]
 206              		.loc 1 119 0
 207 0032 0023     		movs	r3, #0
 208 0034 E360     		str	r3, [r4, #12]
 209              		.loc 1 120 0
 210 0036 10BD     		pop	{r4, pc}
 211              	.L17:
 212              		.align	2
 213              	.L16:
 214 0038 0D000000 		.word	.LC1
 215 003c 1C000000 		.word	.LC2
 216 0040 00000000 		.word	.LANCHOR0
 217              		.cfi_endproc
 218              	.LFE2:
 219              		.size	chVTResetI, .-chVTResetI
 220              		.section	.text.chTimeIsWithin,"ax",%progbits
 221              		.align	1
 222              		.global	chTimeIsWithin
 223              		.thumb
 224              		.thumb_func
ARM GAS  /tmp/ccv3ibDj.s 			page 5


 225              		.type	chTimeIsWithin, %function
 226              	chTimeIsWithin:
 227              	.LFB3:
 228              		.loc 1 135 0
 229              		.cfi_startproc
 230              		@ args = 0, pretend = 0, frame = 0
 231              		@ frame_needed = 0, uses_anonymous_args = 0
 232              		@ link register save eliminated.
 233              	.LVL9:
 234              		.loc 1 137 0
 235 0000 084B     		ldr	r3, .L24
 236              		.loc 1 138 0
 237 0002 8142     		cmp	r1, r0
 238              		.loc 1 137 0
 239 0004 DB68     		ldr	r3, [r3, #12]
 240              	.LVL10:
 241              		.loc 1 138 0
 242 0006 02D9     		bls	.L19
 243              		.loc 1 138 0 is_stmt 0 discriminator 1
 244 0008 8342     		cmp	r3, r0
 245 000a 07D3     		bcc	.L21
 246 000c 01E0     		b	.L23
 247              	.L19:
 248              		.loc 1 138 0 discriminator 2
 249 000e 8342     		cmp	r3, r0
 250 0010 06D2     		bcs	.L22
 251              	.L23:
 252              		.loc 1 138 0
 253 0012 8B42     		cmp	r3, r1
 254 0014 2CBF     		ite	cs
 255 0016 0020     		movcs	r0, #0
 256              	.LVL11:
 257 0018 0120     		movcc	r0, #1
 258 001a 7047     		bx	lr
 259              	.LVL12:
 260              	.L21:
 261 001c 0020     		movs	r0, #0
 262              	.LVL13:
 263 001e 7047     		bx	lr
 264              	.LVL14:
 265              	.L22:
 266 0020 0120     		movs	r0, #1
 267              	.LVL15:
 268              		.loc 1 140 0 is_stmt 1
 269 0022 7047     		bx	lr
 270              	.L25:
 271              		.align	2
 272              	.L24:
 273 0024 00000000 		.word	.LANCHOR0
 274              		.cfi_endproc
 275              	.LFE3:
 276              		.size	chTimeIsWithin, .-chTimeIsWithin
 277              		.global	vtlist
 278              		.section	.bss.vtlist,"aw",%nobits
 279              		.align	2
 280              		.set	.LANCHOR0,. + 0
 281              		.type	vtlist, %object
ARM GAS  /tmp/ccv3ibDj.s 			page 6


 282              		.size	vtlist, 16
 283              	vtlist:
 284 0000 00000000 		.space	16
 284      00000000 
 284      00000000 
 284      00000000 
 285              		.section	.rodata.str1.1,"aMS",%progbits,1
 286              	.LC0:
 287 0000 22636856 		.ascii	"\"chVTSetI\"()\000"
 287      54536574 
 287      49222829 
 287      00
 288              	.LC1:
 289 000d 22636856 		.ascii	"\"chVTResetI\"()\000"
 289      54526573 
 289      65744922 
 289      282900
 290              	.LC2:
 291 001c 63685654 		.ascii	"chVTResetI(), #1\000"
 291      52657365 
 291      74492829 
 291      2C202331 
 291      00
 292              		.text
 293              	.Letext0:
 294              		.section	.debug_loc,"",%progbits
 295              	.Ldebug_loc0:
 296              	.LLST0:
 297 0000 00000000 		.4byte	.LFB1
 298 0004 02000000 		.4byte	.LCFI0
 299 0008 0200     		.2byte	0x2
 300 000a 7D       		.byte	0x7d
 301 000b 00       		.sleb128 0
 302 000c 02000000 		.4byte	.LCFI0
 303 0010 50000000 		.4byte	.LFE1
 304 0014 0200     		.2byte	0x2
 305 0016 7D       		.byte	0x7d
 306 0017 18       		.sleb128 24
 307 0018 00000000 		.4byte	0x0
 308 001c 00000000 		.4byte	0x0
 309              	.LLST1:
 310 0020 00000000 		.4byte	.LVL0
 311 0024 0D000000 		.4byte	.LVL1-1
 312 0028 0100     		.2byte	0x1
 313 002a 50       		.byte	0x50
 314 002b 0D000000 		.4byte	.LVL1-1
 315 002f 50000000 		.4byte	.LFE1
 316 0033 0100     		.2byte	0x1
 317 0035 54       		.byte	0x54
 318 0036 00000000 		.4byte	0x0
 319 003a 00000000 		.4byte	0x0
 320              	.LLST2:
 321 003e 00000000 		.4byte	.LVL0
 322 0042 0D000000 		.4byte	.LVL1-1
 323 0046 0100     		.2byte	0x1
 324 0048 51       		.byte	0x51
 325 0049 0D000000 		.4byte	.LVL1-1
ARM GAS  /tmp/ccv3ibDj.s 			page 7


 326 004d 2A000000 		.4byte	.LVL5
 327 0051 0100     		.2byte	0x1
 328 0053 55       		.byte	0x55
 329 0054 2A000000 		.4byte	.LVL5
 330 0058 44000000 		.4byte	.LVL6
 331 005c 0100     		.2byte	0x1
 332 005e 55       		.byte	0x55
 333 005f 44000000 		.4byte	.LVL6
 334 0063 50000000 		.4byte	.LFE1
 335 0067 0200     		.2byte	0x2
 336 0069 74       		.byte	0x74
 337 006a 08       		.sleb128 8
 338 006b 00000000 		.4byte	0x0
 339 006f 00000000 		.4byte	0x0
 340              	.LLST3:
 341 0073 00000000 		.4byte	.LVL0
 342 0077 0D000000 		.4byte	.LVL1-1
 343 007b 0100     		.2byte	0x1
 344 007d 52       		.byte	0x52
 345 007e 0D000000 		.4byte	.LVL1-1
 346 0082 50000000 		.4byte	.LFE1
 347 0086 0100     		.2byte	0x1
 348 0088 56       		.byte	0x56
 349 0089 00000000 		.4byte	0x0
 350 008d 00000000 		.4byte	0x0
 351              	.LLST4:
 352 0091 00000000 		.4byte	.LVL0
 353 0095 0D000000 		.4byte	.LVL1-1
 354 0099 0100     		.2byte	0x1
 355 009b 53       		.byte	0x53
 356 009c 0D000000 		.4byte	.LVL1-1
 357 00a0 50000000 		.4byte	.LFE1
 358 00a4 0100     		.2byte	0x1
 359 00a6 57       		.byte	0x57
 360 00a7 00000000 		.4byte	0x0
 361 00ab 00000000 		.4byte	0x0
 362              	.LLST5:
 363 00af 22000000 		.4byte	.LVL2
 364 00b3 26000000 		.4byte	.LVL3
 365 00b7 0500     		.2byte	0x5
 366 00b9 03       		.byte	0x3
 367 00ba 00000000 		.4byte	vtlist
 368 00be 26000000 		.4byte	.LVL3
 369 00c2 28000000 		.4byte	.LVL4
 370 00c6 0100     		.2byte	0x1
 371 00c8 53       		.byte	0x53
 372 00c9 2A000000 		.4byte	.LVL5
 373 00cd 50000000 		.4byte	.LFE1
 374 00d1 0100     		.2byte	0x1
 375 00d3 53       		.byte	0x53
 376 00d4 00000000 		.4byte	0x0
 377 00d8 00000000 		.4byte	0x0
 378              	.LLST6:
 379 00dc 00000000 		.4byte	.LFB2
 380 00e0 02000000 		.4byte	.LCFI1
 381 00e4 0200     		.2byte	0x2
 382 00e6 7D       		.byte	0x7d
ARM GAS  /tmp/ccv3ibDj.s 			page 8


 383 00e7 00       		.sleb128 0
 384 00e8 02000000 		.4byte	.LCFI1
 385 00ec 44000000 		.4byte	.LFE2
 386 00f0 0200     		.2byte	0x2
 387 00f2 7D       		.byte	0x7d
 388 00f3 08       		.sleb128 8
 389 00f4 00000000 		.4byte	0x0
 390 00f8 00000000 		.4byte	0x0
 391              	.LLST7:
 392 00fc 00000000 		.4byte	.LVL7
 393 0100 07000000 		.4byte	.LVL8-1
 394 0104 0100     		.2byte	0x1
 395 0106 50       		.byte	0x50
 396 0107 07000000 		.4byte	.LVL8-1
 397 010b 44000000 		.4byte	.LFE2
 398 010f 0100     		.2byte	0x1
 399 0111 54       		.byte	0x54
 400 0112 00000000 		.4byte	0x0
 401 0116 00000000 		.4byte	0x0
 402              	.LLST8:
 403 011a 00000000 		.4byte	.LVL9
 404 011e 18000000 		.4byte	.LVL11
 405 0122 0100     		.2byte	0x1
 406 0124 50       		.byte	0x50
 407 0125 1C000000 		.4byte	.LVL12
 408 0129 1E000000 		.4byte	.LVL13
 409 012d 0100     		.2byte	0x1
 410 012f 50       		.byte	0x50
 411 0130 20000000 		.4byte	.LVL14
 412 0134 22000000 		.4byte	.LVL15
 413 0138 0100     		.2byte	0x1
 414 013a 50       		.byte	0x50
 415 013b 00000000 		.4byte	0x0
 416 013f 00000000 		.4byte	0x0
 417              		.file 2 "/home/z80/programs/code-sourcery/2011.03-42/bin/../lib/gcc/arm-none-eabi/4.5.2/../../../.
 418              		.file 3 "../chibios/os/ports/GCC/ARMCMx/chtypes.h"
 419              		.file 4 "../chibios/os/kernel/include/chvt.h"
 420              		.section	.debug_info
 421 0000 7C020000 		.4byte	0x27c
 422 0004 0200     		.2byte	0x2
 423 0006 00000000 		.4byte	.Ldebug_abbrev0
 424 000a 04       		.byte	0x4
 425 000b 01       		.uleb128 0x1
 426 000c 09000000 		.4byte	.LASF29
 427 0010 01       		.byte	0x1
 428 0011 25000000 		.4byte	.LASF30
 429 0015 45010000 		.4byte	.LASF31
 430 0019 00000000 		.4byte	0x0
 431 001d 00000000 		.4byte	0x0
 432 0021 00000000 		.4byte	.Ldebug_ranges0+0x0
 433 0025 00000000 		.4byte	.Ldebug_line0
 434 0029 02       		.uleb128 0x2
 435 002a 04       		.byte	0x4
 436 002b 05       		.byte	0x5
 437 002c 696E7400 		.ascii	"int\000"
 438 0030 03       		.uleb128 0x3
 439 0031 04       		.byte	0x4
ARM GAS  /tmp/ccv3ibDj.s 			page 9


 440 0032 07       		.byte	0x7
 441 0033 9E000000 		.4byte	.LASF0
 442 0037 03       		.uleb128 0x3
 443 0038 01       		.byte	0x1
 444 0039 06       		.byte	0x6
 445 003a 7B010000 		.4byte	.LASF1
 446 003e 03       		.uleb128 0x3
 447 003f 01       		.byte	0x1
 448 0040 08       		.byte	0x8
 449 0041 87000000 		.4byte	.LASF2
 450 0045 03       		.uleb128 0x3
 451 0046 02       		.byte	0x2
 452 0047 05       		.byte	0x5
 453 0048 12010000 		.4byte	.LASF3
 454 004c 03       		.uleb128 0x3
 455 004d 02       		.byte	0x2
 456 004e 07       		.byte	0x7
 457 004f 67000000 		.4byte	.LASF4
 458 0053 04       		.uleb128 0x4
 459 0054 D6000000 		.4byte	.LASF6
 460 0058 02       		.byte	0x2
 461 0059 4F       		.byte	0x4f
 462 005a 5E000000 		.4byte	0x5e
 463 005e 03       		.uleb128 0x3
 464 005f 04       		.byte	0x4
 465 0060 05       		.byte	0x5
 466 0061 3C010000 		.4byte	.LASF5
 467 0065 04       		.uleb128 0x4
 468 0066 33010000 		.4byte	.LASF7
 469 006a 02       		.byte	0x2
 470 006b 50       		.byte	0x50
 471 006c 70000000 		.4byte	0x70
 472 0070 03       		.uleb128 0x3
 473 0071 04       		.byte	0x4
 474 0072 07       		.byte	0x7
 475 0073 55000000 		.4byte	.LASF8
 476 0077 03       		.uleb128 0x3
 477 0078 08       		.byte	0x8
 478 0079 05       		.byte	0x5
 479 007a E9000000 		.4byte	.LASF9
 480 007e 03       		.uleb128 0x3
 481 007f 08       		.byte	0x8
 482 0080 07       		.byte	0x7
 483 0081 AB000000 		.4byte	.LASF10
 484 0085 04       		.uleb128 0x4
 485 0086 45000000 		.4byte	.LASF11
 486 008a 03       		.byte	0x3
 487 008b 2E       		.byte	0x2e
 488 008c 53000000 		.4byte	0x53
 489 0090 04       		.uleb128 0x4
 490 0091 15000000 		.4byte	.LASF12
 491 0095 03       		.byte	0x3
 492 0096 36       		.byte	0x36
 493 0097 65000000 		.4byte	0x65
 494 009b 05       		.uleb128 0x5
 495 009c 04       		.byte	0x4
 496 009d 04       		.uleb128 0x4
ARM GAS  /tmp/ccv3ibDj.s 			page 10


 497 009e 4C000000 		.4byte	.LASF13
 498 00a2 04       		.byte	0x4
 499 00a3 53       		.byte	0x53
 500 00a4 A8000000 		.4byte	0xa8
 501 00a8 06       		.uleb128 0x6
 502 00a9 04       		.byte	0x4
 503 00aa AE000000 		.4byte	0xae
 504 00ae 07       		.uleb128 0x7
 505 00af 01       		.byte	0x1
 506 00b0 BA000000 		.4byte	0xba
 507 00b4 08       		.uleb128 0x8
 508 00b5 9B000000 		.4byte	0x9b
 509 00b9 00       		.byte	0x0
 510 00ba 04       		.uleb128 0x4
 511 00bb 7A000000 		.4byte	.LASF14
 512 00bf 04       		.byte	0x4
 513 00c0 58       		.byte	0x58
 514 00c1 C5000000 		.4byte	0xc5
 515 00c5 09       		.uleb128 0x9
 516 00c6 7A000000 		.4byte	.LASF14
 517 00ca 14       		.byte	0x14
 518 00cb 04       		.byte	0x4
 519 00cc 5F       		.byte	0x5f
 520 00cd 18010000 		.4byte	0x118
 521 00d1 0A       		.uleb128 0xa
 522 00d2 8E010000 		.4byte	.LASF15
 523 00d6 04       		.byte	0x4
 524 00d7 60       		.byte	0x60
 525 00d8 18010000 		.4byte	0x118
 526 00dc 02       		.byte	0x2
 527 00dd 23       		.byte	0x23
 528 00de 00       		.uleb128 0x0
 529 00df 0A       		.uleb128 0xa
 530 00e0 2B010000 		.4byte	.LASF16
 531 00e4 04       		.byte	0x4
 532 00e5 62       		.byte	0x62
 533 00e6 18010000 		.4byte	0x118
 534 00ea 02       		.byte	0x2
 535 00eb 23       		.byte	0x23
 536 00ec 04       		.uleb128 0x4
 537 00ed 0A       		.uleb128 0xa
 538 00ee CE000000 		.4byte	.LASF17
 539 00f2 04       		.byte	0x4
 540 00f3 64       		.byte	0x64
 541 00f4 90000000 		.4byte	0x90
 542 00f8 02       		.byte	0x2
 543 00f9 23       		.byte	0x23
 544 00fa 08       		.uleb128 0x8
 545 00fb 0A       		.uleb128 0xa
 546 00fc F7000000 		.4byte	.LASF18
 547 0100 04       		.byte	0x4
 548 0101 65       		.byte	0x65
 549 0102 9D000000 		.4byte	0x9d
 550 0106 02       		.byte	0x2
 551 0107 23       		.byte	0x23
 552 0108 0C       		.uleb128 0xc
 553 0109 0A       		.uleb128 0xa
ARM GAS  /tmp/ccv3ibDj.s 			page 11


 554 010a 0B010000 		.4byte	.LASF19
 555 010e 04       		.byte	0x4
 556 010f 67       		.byte	0x67
 557 0110 9B000000 		.4byte	0x9b
 558 0114 02       		.byte	0x2
 559 0115 23       		.byte	0x23
 560 0116 10       		.uleb128 0x10
 561 0117 00       		.byte	0x0
 562 0118 06       		.uleb128 0x6
 563 0119 04       		.byte	0x4
 564 011a BA000000 		.4byte	0xba
 565 011e 0B       		.uleb128 0xb
 566 011f 10       		.byte	0x10
 567 0120 04       		.byte	0x4
 568 0121 71       		.byte	0x71
 569 0122 5F010000 		.4byte	0x15f
 570 0126 0A       		.uleb128 0xa
 571 0127 8E010000 		.4byte	.LASF15
 572 012b 04       		.byte	0x4
 573 012c 72       		.byte	0x72
 574 012d 18010000 		.4byte	0x118
 575 0131 02       		.byte	0x2
 576 0132 23       		.byte	0x23
 577 0133 00       		.uleb128 0x0
 578 0134 0A       		.uleb128 0xa
 579 0135 2B010000 		.4byte	.LASF16
 580 0139 04       		.byte	0x4
 581 013a 74       		.byte	0x74
 582 013b 18010000 		.4byte	0x118
 583 013f 02       		.byte	0x2
 584 0140 23       		.byte	0x23
 585 0141 04       		.uleb128 0x4
 586 0142 0A       		.uleb128 0xa
 587 0143 CE000000 		.4byte	.LASF17
 588 0147 04       		.byte	0x4
 589 0148 76       		.byte	0x76
 590 0149 90000000 		.4byte	0x90
 591 014d 02       		.byte	0x2
 592 014e 23       		.byte	0x23
 593 014f 08       		.uleb128 0x8
 594 0150 0A       		.uleb128 0xa
 595 0151 DE000000 		.4byte	.LASF20
 596 0155 04       		.byte	0x4
 597 0156 77       		.byte	0x77
 598 0157 5F010000 		.4byte	0x15f
 599 015b 02       		.byte	0x2
 600 015c 23       		.byte	0x23
 601 015d 0C       		.uleb128 0xc
 602 015e 00       		.byte	0x0
 603 015f 0C       		.uleb128 0xc
 604 0160 90000000 		.4byte	0x90
 605 0164 04       		.uleb128 0x4
 606 0165 87010000 		.4byte	.LASF21
 607 0169 04       		.byte	0x4
 608 016a 78       		.byte	0x78
 609 016b 1E010000 		.4byte	0x11e
 610 016f 03       		.uleb128 0x3
ARM GAS  /tmp/ccv3ibDj.s 			page 12


 611 0170 01       		.byte	0x1
 612 0171 08       		.byte	0x8
 613 0172 06010000 		.4byte	.LASF22
 614 0176 0D       		.uleb128 0xd
 615 0177 01       		.byte	0x1
 616 0178 95000000 		.4byte	.LASF32
 617 017c 01       		.byte	0x1
 618 017d 32       		.byte	0x32
 619 017e 01       		.byte	0x1
 620 017f 00000000 		.4byte	.LFB0
 621 0183 18000000 		.4byte	.LFE0
 622 0187 02       		.byte	0x2
 623 0188 7D       		.byte	0x7d
 624 0189 00       		.sleb128 0
 625 018a 0E       		.uleb128 0xe
 626 018b 01       		.byte	0x1
 627 018c 00000000 		.4byte	.LASF25
 628 0190 01       		.byte	0x1
 629 0191 4D       		.byte	0x4d
 630 0192 01       		.byte	0x1
 631 0193 00000000 		.4byte	.LFB1
 632 0197 50000000 		.4byte	.LFE1
 633 019b 00000000 		.4byte	.LLST0
 634 019f ED010000 		.4byte	0x1ed
 635 01a3 0F       		.uleb128 0xf
 636 01a4 76747000 		.ascii	"vtp\000"
 637 01a8 01       		.byte	0x1
 638 01a9 4D       		.byte	0x4d
 639 01aa 18010000 		.4byte	0x118
 640 01ae 20000000 		.4byte	.LLST1
 641 01b2 10       		.uleb128 0x10
 642 01b3 C9000000 		.4byte	.LASF23
 643 01b7 01       		.byte	0x1
 644 01b8 4D       		.byte	0x4d
 645 01b9 90000000 		.4byte	0x90
 646 01bd 3E000000 		.4byte	.LLST2
 647 01c1 10       		.uleb128 0x10
 648 01c2 FF000000 		.4byte	.LASF24
 649 01c6 01       		.byte	0x1
 650 01c7 4D       		.byte	0x4d
 651 01c8 9D000000 		.4byte	0x9d
 652 01cc 73000000 		.4byte	.LLST3
 653 01d0 0F       		.uleb128 0xf
 654 01d1 70617200 		.ascii	"par\000"
 655 01d5 01       		.byte	0x1
 656 01d6 4D       		.byte	0x4d
 657 01d7 9B000000 		.4byte	0x9b
 658 01db 91000000 		.4byte	.LLST4
 659 01df 11       		.uleb128 0x11
 660 01e0 7000     		.ascii	"p\000"
 661 01e2 01       		.byte	0x1
 662 01e3 4E       		.byte	0x4e
 663 01e4 18010000 		.4byte	0x118
 664 01e8 AF000000 		.4byte	.LLST5
 665 01ec 00       		.byte	0x0
 666 01ed 0E       		.uleb128 0xe
 667 01ee 01       		.byte	0x1
ARM GAS  /tmp/ccv3ibDj.s 			page 13


 668 01ef 96010000 		.4byte	.LASF26
 669 01f3 01       		.byte	0x1
 670 01f4 6B       		.byte	0x6b
 671 01f5 01       		.byte	0x1
 672 01f6 00000000 		.4byte	.LFB2
 673 01fa 44000000 		.4byte	.LFE2
 674 01fe DC000000 		.4byte	.LLST6
 675 0202 16020000 		.4byte	0x216
 676 0206 0F       		.uleb128 0xf
 677 0207 76747000 		.ascii	"vtp\000"
 678 020b 01       		.byte	0x1
 679 020c 6B       		.byte	0x6b
 680 020d 18010000 		.4byte	0x118
 681 0211 FC000000 		.4byte	.LLST7
 682 0215 00       		.byte	0x0
 683 0216 12       		.uleb128 0x12
 684 0217 01       		.byte	0x1
 685 0218 1C010000 		.4byte	.LASF33
 686 021c 01       		.byte	0x1
 687 021d 87       		.byte	0x87
 688 021e 01       		.byte	0x1
 689 021f 85000000 		.4byte	0x85
 690 0223 00000000 		.4byte	.LFB3
 691 0227 28000000 		.4byte	.LFE3
 692 022b 02       		.byte	0x2
 693 022c 7D       		.byte	0x7d
 694 022d 00       		.sleb128 0
 695 022e 60020000 		.4byte	0x260
 696 0232 10       		.uleb128 0x10
 697 0233 1F000000 		.4byte	.LASF27
 698 0237 01       		.byte	0x1
 699 0238 87       		.byte	0x87
 700 0239 90000000 		.4byte	0x90
 701 023d 1A010000 		.4byte	.LLST8
 702 0241 13       		.uleb128 0x13
 703 0242 656E6400 		.ascii	"end\000"
 704 0246 01       		.byte	0x1
 705 0247 87       		.byte	0x87
 706 0248 90000000 		.4byte	0x90
 707 024c 01       		.byte	0x1
 708 024d 51       		.byte	0x51
 709 024e 14       		.uleb128 0x14
 710 024f C9000000 		.4byte	.LASF23
 711 0253 01       		.byte	0x1
 712 0254 89       		.byte	0x89
 713 0255 90000000 		.4byte	0x90
 714 0259 05       		.byte	0x5
 715 025a 03       		.byte	0x3
 716 025b 0C000000 		.4byte	vtlist+12
 717 025f 00       		.byte	0x0
 718 0260 15       		.uleb128 0x15
 719 0261 C2000000 		.4byte	.LASF28
 720 0265 04       		.byte	0x4
 721 0266 7A       		.byte	0x7a
 722 0267 64010000 		.4byte	0x164
 723 026b 01       		.byte	0x1
 724 026c 01       		.byte	0x1
ARM GAS  /tmp/ccv3ibDj.s 			page 14


 725 026d 16       		.uleb128 0x16
 726 026e C2000000 		.4byte	.LASF28
 727 0272 01       		.byte	0x1
 728 0273 2A       		.byte	0x2a
 729 0274 64010000 		.4byte	0x164
 730 0278 01       		.byte	0x1
 731 0279 05       		.byte	0x5
 732 027a 03       		.byte	0x3
 733 027b 00000000 		.4byte	vtlist
 734 027f 00       		.byte	0x0
 735              		.section	.debug_abbrev
 736 0000 01       		.uleb128 0x1
 737 0001 11       		.uleb128 0x11
 738 0002 01       		.byte	0x1
 739 0003 25       		.uleb128 0x25
 740 0004 0E       		.uleb128 0xe
 741 0005 13       		.uleb128 0x13
 742 0006 0B       		.uleb128 0xb
 743 0007 03       		.uleb128 0x3
 744 0008 0E       		.uleb128 0xe
 745 0009 1B       		.uleb128 0x1b
 746 000a 0E       		.uleb128 0xe
 747 000b 11       		.uleb128 0x11
 748 000c 01       		.uleb128 0x1
 749 000d 52       		.uleb128 0x52
 750 000e 01       		.uleb128 0x1
 751 000f 55       		.uleb128 0x55
 752 0010 06       		.uleb128 0x6
 753 0011 10       		.uleb128 0x10
 754 0012 06       		.uleb128 0x6
 755 0013 00       		.byte	0x0
 756 0014 00       		.byte	0x0
 757 0015 02       		.uleb128 0x2
 758 0016 24       		.uleb128 0x24
 759 0017 00       		.byte	0x0
 760 0018 0B       		.uleb128 0xb
 761 0019 0B       		.uleb128 0xb
 762 001a 3E       		.uleb128 0x3e
 763 001b 0B       		.uleb128 0xb
 764 001c 03       		.uleb128 0x3
 765 001d 08       		.uleb128 0x8
 766 001e 00       		.byte	0x0
 767 001f 00       		.byte	0x0
 768 0020 03       		.uleb128 0x3
 769 0021 24       		.uleb128 0x24
 770 0022 00       		.byte	0x0
 771 0023 0B       		.uleb128 0xb
 772 0024 0B       		.uleb128 0xb
 773 0025 3E       		.uleb128 0x3e
 774 0026 0B       		.uleb128 0xb
 775 0027 03       		.uleb128 0x3
 776 0028 0E       		.uleb128 0xe
 777 0029 00       		.byte	0x0
 778 002a 00       		.byte	0x0
 779 002b 04       		.uleb128 0x4
 780 002c 16       		.uleb128 0x16
 781 002d 00       		.byte	0x0
ARM GAS  /tmp/ccv3ibDj.s 			page 15


 782 002e 03       		.uleb128 0x3
 783 002f 0E       		.uleb128 0xe
 784 0030 3A       		.uleb128 0x3a
 785 0031 0B       		.uleb128 0xb
 786 0032 3B       		.uleb128 0x3b
 787 0033 0B       		.uleb128 0xb
 788 0034 49       		.uleb128 0x49
 789 0035 13       		.uleb128 0x13
 790 0036 00       		.byte	0x0
 791 0037 00       		.byte	0x0
 792 0038 05       		.uleb128 0x5
 793 0039 0F       		.uleb128 0xf
 794 003a 00       		.byte	0x0
 795 003b 0B       		.uleb128 0xb
 796 003c 0B       		.uleb128 0xb
 797 003d 00       		.byte	0x0
 798 003e 00       		.byte	0x0
 799 003f 06       		.uleb128 0x6
 800 0040 0F       		.uleb128 0xf
 801 0041 00       		.byte	0x0
 802 0042 0B       		.uleb128 0xb
 803 0043 0B       		.uleb128 0xb
 804 0044 49       		.uleb128 0x49
 805 0045 13       		.uleb128 0x13
 806 0046 00       		.byte	0x0
 807 0047 00       		.byte	0x0
 808 0048 07       		.uleb128 0x7
 809 0049 15       		.uleb128 0x15
 810 004a 01       		.byte	0x1
 811 004b 27       		.uleb128 0x27
 812 004c 0C       		.uleb128 0xc
 813 004d 01       		.uleb128 0x1
 814 004e 13       		.uleb128 0x13
 815 004f 00       		.byte	0x0
 816 0050 00       		.byte	0x0
 817 0051 08       		.uleb128 0x8
 818 0052 05       		.uleb128 0x5
 819 0053 00       		.byte	0x0
 820 0054 49       		.uleb128 0x49
 821 0055 13       		.uleb128 0x13
 822 0056 00       		.byte	0x0
 823 0057 00       		.byte	0x0
 824 0058 09       		.uleb128 0x9
 825 0059 13       		.uleb128 0x13
 826 005a 01       		.byte	0x1
 827 005b 03       		.uleb128 0x3
 828 005c 0E       		.uleb128 0xe
 829 005d 0B       		.uleb128 0xb
 830 005e 0B       		.uleb128 0xb
 831 005f 3A       		.uleb128 0x3a
 832 0060 0B       		.uleb128 0xb
 833 0061 3B       		.uleb128 0x3b
 834 0062 0B       		.uleb128 0xb
 835 0063 01       		.uleb128 0x1
 836 0064 13       		.uleb128 0x13
 837 0065 00       		.byte	0x0
 838 0066 00       		.byte	0x0
ARM GAS  /tmp/ccv3ibDj.s 			page 16


 839 0067 0A       		.uleb128 0xa
 840 0068 0D       		.uleb128 0xd
 841 0069 00       		.byte	0x0
 842 006a 03       		.uleb128 0x3
 843 006b 0E       		.uleb128 0xe
 844 006c 3A       		.uleb128 0x3a
 845 006d 0B       		.uleb128 0xb
 846 006e 3B       		.uleb128 0x3b
 847 006f 0B       		.uleb128 0xb
 848 0070 49       		.uleb128 0x49
 849 0071 13       		.uleb128 0x13
 850 0072 38       		.uleb128 0x38
 851 0073 0A       		.uleb128 0xa
 852 0074 00       		.byte	0x0
 853 0075 00       		.byte	0x0
 854 0076 0B       		.uleb128 0xb
 855 0077 13       		.uleb128 0x13
 856 0078 01       		.byte	0x1
 857 0079 0B       		.uleb128 0xb
 858 007a 0B       		.uleb128 0xb
 859 007b 3A       		.uleb128 0x3a
 860 007c 0B       		.uleb128 0xb
 861 007d 3B       		.uleb128 0x3b
 862 007e 0B       		.uleb128 0xb
 863 007f 01       		.uleb128 0x1
 864 0080 13       		.uleb128 0x13
 865 0081 00       		.byte	0x0
 866 0082 00       		.byte	0x0
 867 0083 0C       		.uleb128 0xc
 868 0084 35       		.uleb128 0x35
 869 0085 00       		.byte	0x0
 870 0086 49       		.uleb128 0x49
 871 0087 13       		.uleb128 0x13
 872 0088 00       		.byte	0x0
 873 0089 00       		.byte	0x0
 874 008a 0D       		.uleb128 0xd
 875 008b 2E       		.uleb128 0x2e
 876 008c 00       		.byte	0x0
 877 008d 3F       		.uleb128 0x3f
 878 008e 0C       		.uleb128 0xc
 879 008f 03       		.uleb128 0x3
 880 0090 0E       		.uleb128 0xe
 881 0091 3A       		.uleb128 0x3a
 882 0092 0B       		.uleb128 0xb
 883 0093 3B       		.uleb128 0x3b
 884 0094 0B       		.uleb128 0xb
 885 0095 27       		.uleb128 0x27
 886 0096 0C       		.uleb128 0xc
 887 0097 11       		.uleb128 0x11
 888 0098 01       		.uleb128 0x1
 889 0099 12       		.uleb128 0x12
 890 009a 01       		.uleb128 0x1
 891 009b 40       		.uleb128 0x40
 892 009c 0A       		.uleb128 0xa
 893 009d 00       		.byte	0x0
 894 009e 00       		.byte	0x0
 895 009f 0E       		.uleb128 0xe
ARM GAS  /tmp/ccv3ibDj.s 			page 17


 896 00a0 2E       		.uleb128 0x2e
 897 00a1 01       		.byte	0x1
 898 00a2 3F       		.uleb128 0x3f
 899 00a3 0C       		.uleb128 0xc
 900 00a4 03       		.uleb128 0x3
 901 00a5 0E       		.uleb128 0xe
 902 00a6 3A       		.uleb128 0x3a
 903 00a7 0B       		.uleb128 0xb
 904 00a8 3B       		.uleb128 0x3b
 905 00a9 0B       		.uleb128 0xb
 906 00aa 27       		.uleb128 0x27
 907 00ab 0C       		.uleb128 0xc
 908 00ac 11       		.uleb128 0x11
 909 00ad 01       		.uleb128 0x1
 910 00ae 12       		.uleb128 0x12
 911 00af 01       		.uleb128 0x1
 912 00b0 40       		.uleb128 0x40
 913 00b1 06       		.uleb128 0x6
 914 00b2 01       		.uleb128 0x1
 915 00b3 13       		.uleb128 0x13
 916 00b4 00       		.byte	0x0
 917 00b5 00       		.byte	0x0
 918 00b6 0F       		.uleb128 0xf
 919 00b7 05       		.uleb128 0x5
 920 00b8 00       		.byte	0x0
 921 00b9 03       		.uleb128 0x3
 922 00ba 08       		.uleb128 0x8
 923 00bb 3A       		.uleb128 0x3a
 924 00bc 0B       		.uleb128 0xb
 925 00bd 3B       		.uleb128 0x3b
 926 00be 0B       		.uleb128 0xb
 927 00bf 49       		.uleb128 0x49
 928 00c0 13       		.uleb128 0x13
 929 00c1 02       		.uleb128 0x2
 930 00c2 06       		.uleb128 0x6
 931 00c3 00       		.byte	0x0
 932 00c4 00       		.byte	0x0
 933 00c5 10       		.uleb128 0x10
 934 00c6 05       		.uleb128 0x5
 935 00c7 00       		.byte	0x0
 936 00c8 03       		.uleb128 0x3
 937 00c9 0E       		.uleb128 0xe
 938 00ca 3A       		.uleb128 0x3a
 939 00cb 0B       		.uleb128 0xb
 940 00cc 3B       		.uleb128 0x3b
 941 00cd 0B       		.uleb128 0xb
 942 00ce 49       		.uleb128 0x49
 943 00cf 13       		.uleb128 0x13
 944 00d0 02       		.uleb128 0x2
 945 00d1 06       		.uleb128 0x6
 946 00d2 00       		.byte	0x0
 947 00d3 00       		.byte	0x0
 948 00d4 11       		.uleb128 0x11
 949 00d5 34       		.uleb128 0x34
 950 00d6 00       		.byte	0x0
 951 00d7 03       		.uleb128 0x3
 952 00d8 08       		.uleb128 0x8
ARM GAS  /tmp/ccv3ibDj.s 			page 18


 953 00d9 3A       		.uleb128 0x3a
 954 00da 0B       		.uleb128 0xb
 955 00db 3B       		.uleb128 0x3b
 956 00dc 0B       		.uleb128 0xb
 957 00dd 49       		.uleb128 0x49
 958 00de 13       		.uleb128 0x13
 959 00df 02       		.uleb128 0x2
 960 00e0 06       		.uleb128 0x6
 961 00e1 00       		.byte	0x0
 962 00e2 00       		.byte	0x0
 963 00e3 12       		.uleb128 0x12
 964 00e4 2E       		.uleb128 0x2e
 965 00e5 01       		.byte	0x1
 966 00e6 3F       		.uleb128 0x3f
 967 00e7 0C       		.uleb128 0xc
 968 00e8 03       		.uleb128 0x3
 969 00e9 0E       		.uleb128 0xe
 970 00ea 3A       		.uleb128 0x3a
 971 00eb 0B       		.uleb128 0xb
 972 00ec 3B       		.uleb128 0x3b
 973 00ed 0B       		.uleb128 0xb
 974 00ee 27       		.uleb128 0x27
 975 00ef 0C       		.uleb128 0xc
 976 00f0 49       		.uleb128 0x49
 977 00f1 13       		.uleb128 0x13
 978 00f2 11       		.uleb128 0x11
 979 00f3 01       		.uleb128 0x1
 980 00f4 12       		.uleb128 0x12
 981 00f5 01       		.uleb128 0x1
 982 00f6 40       		.uleb128 0x40
 983 00f7 0A       		.uleb128 0xa
 984 00f8 01       		.uleb128 0x1
 985 00f9 13       		.uleb128 0x13
 986 00fa 00       		.byte	0x0
 987 00fb 00       		.byte	0x0
 988 00fc 13       		.uleb128 0x13
 989 00fd 05       		.uleb128 0x5
 990 00fe 00       		.byte	0x0
 991 00ff 03       		.uleb128 0x3
 992 0100 08       		.uleb128 0x8
 993 0101 3A       		.uleb128 0x3a
 994 0102 0B       		.uleb128 0xb
 995 0103 3B       		.uleb128 0x3b
 996 0104 0B       		.uleb128 0xb
 997 0105 49       		.uleb128 0x49
 998 0106 13       		.uleb128 0x13
 999 0107 02       		.uleb128 0x2
 1000 0108 0A       		.uleb128 0xa
 1001 0109 00       		.byte	0x0
 1002 010a 00       		.byte	0x0
 1003 010b 14       		.uleb128 0x14
 1004 010c 34       		.uleb128 0x34
 1005 010d 00       		.byte	0x0
 1006 010e 03       		.uleb128 0x3
 1007 010f 0E       		.uleb128 0xe
 1008 0110 3A       		.uleb128 0x3a
 1009 0111 0B       		.uleb128 0xb
ARM GAS  /tmp/ccv3ibDj.s 			page 19


 1010 0112 3B       		.uleb128 0x3b
 1011 0113 0B       		.uleb128 0xb
 1012 0114 49       		.uleb128 0x49
 1013 0115 13       		.uleb128 0x13
 1014 0116 02       		.uleb128 0x2
 1015 0117 0A       		.uleb128 0xa
 1016 0118 00       		.byte	0x0
 1017 0119 00       		.byte	0x0
 1018 011a 15       		.uleb128 0x15
 1019 011b 34       		.uleb128 0x34
 1020 011c 00       		.byte	0x0
 1021 011d 03       		.uleb128 0x3
 1022 011e 0E       		.uleb128 0xe
 1023 011f 3A       		.uleb128 0x3a
 1024 0120 0B       		.uleb128 0xb
 1025 0121 3B       		.uleb128 0x3b
 1026 0122 0B       		.uleb128 0xb
 1027 0123 49       		.uleb128 0x49
 1028 0124 13       		.uleb128 0x13
 1029 0125 3F       		.uleb128 0x3f
 1030 0126 0C       		.uleb128 0xc
 1031 0127 3C       		.uleb128 0x3c
 1032 0128 0C       		.uleb128 0xc
 1033 0129 00       		.byte	0x0
 1034 012a 00       		.byte	0x0
 1035 012b 16       		.uleb128 0x16
 1036 012c 34       		.uleb128 0x34
 1037 012d 00       		.byte	0x0
 1038 012e 03       		.uleb128 0x3
 1039 012f 0E       		.uleb128 0xe
 1040 0130 3A       		.uleb128 0x3a
 1041 0131 0B       		.uleb128 0xb
 1042 0132 3B       		.uleb128 0x3b
 1043 0133 0B       		.uleb128 0xb
 1044 0134 49       		.uleb128 0x49
 1045 0135 13       		.uleb128 0x13
 1046 0136 3F       		.uleb128 0x3f
 1047 0137 0C       		.uleb128 0xc
 1048 0138 02       		.uleb128 0x2
 1049 0139 0A       		.uleb128 0xa
 1050 013a 00       		.byte	0x0
 1051 013b 00       		.byte	0x0
 1052 013c 00       		.byte	0x0
 1053              		.section	.debug_pubnames,"",%progbits
 1054 0000 55000000 		.4byte	0x55
 1055 0004 0200     		.2byte	0x2
 1056 0006 00000000 		.4byte	.Ldebug_info0
 1057 000a 80020000 		.4byte	0x280
 1058 000e 76010000 		.4byte	0x176
 1059 0012 5F76745F 		.ascii	"_vt_init\000"
 1059      696E6974 
 1059      00
 1060 001b 8A010000 		.4byte	0x18a
 1061 001f 63685654 		.ascii	"chVTSetI\000"
 1061      53657449 
 1061      00
 1062 0028 ED010000 		.4byte	0x1ed
ARM GAS  /tmp/ccv3ibDj.s 			page 20


 1063 002c 63685654 		.ascii	"chVTResetI\000"
 1063      52657365 
 1063      744900
 1064 0037 16020000 		.4byte	0x216
 1065 003b 63685469 		.ascii	"chTimeIsWithin\000"
 1065      6D654973 
 1065      57697468 
 1065      696E00
 1066 004a 6D020000 		.4byte	0x26d
 1067 004e 76746C69 		.ascii	"vtlist\000"
 1067      737400
 1068 0055 00000000 		.4byte	0x0
 1069              		.section	.debug_pubtypes,"",%progbits
 1070 0000 7A000000 		.4byte	0x7a
 1071 0004 0200     		.2byte	0x2
 1072 0006 00000000 		.4byte	.Ldebug_info0
 1073 000a 80020000 		.4byte	0x280
 1074 000e 53000000 		.4byte	0x53
 1075 0012 696E7433 		.ascii	"int32_t\000"
 1075      325F7400 
 1076 001a 65000000 		.4byte	0x65
 1077 001e 75696E74 		.ascii	"uint32_t\000"
 1077      33325F74 
 1077      00
 1078 0027 85000000 		.4byte	0x85
 1079 002b 626F6F6C 		.ascii	"bool_t\000"
 1079      5F7400
 1080 0032 90000000 		.4byte	0x90
 1081 0036 73797374 		.ascii	"systime_t\000"
 1081      696D655F 
 1081      7400
 1082 0040 9D000000 		.4byte	0x9d
 1083 0044 76746675 		.ascii	"vtfunc_t\000"
 1083      6E635F74 
 1083      00
 1084 004d BA000000 		.4byte	0xba
 1085 0051 56697274 		.ascii	"VirtualTimer\000"
 1085      75616C54 
 1085      696D6572 
 1085      00
 1086 005e C5000000 		.4byte	0xc5
 1087 0062 56697274 		.ascii	"VirtualTimer\000"
 1087      75616C54 
 1087      696D6572 
 1087      00
 1088 006f 64010000 		.4byte	0x164
 1089 0073 56544C69 		.ascii	"VTList\000"
 1089      737400
 1090 007a 00000000 		.4byte	0x0
 1091              		.section	.debug_aranges,"",%progbits
 1092 0000 34000000 		.4byte	0x34
 1093 0004 0200     		.2byte	0x2
 1094 0006 00000000 		.4byte	.Ldebug_info0
 1095 000a 04       		.byte	0x4
 1096 000b 00       		.byte	0x0
 1097 000c 0000     		.2byte	0x0
 1098 000e 0000     		.2byte	0x0
ARM GAS  /tmp/ccv3ibDj.s 			page 21


 1099 0010 00000000 		.4byte	.LFB0
 1100 0014 18000000 		.4byte	.LFE0-.LFB0
 1101 0018 00000000 		.4byte	.LFB1
 1102 001c 50000000 		.4byte	.LFE1-.LFB1
 1103 0020 00000000 		.4byte	.LFB2
 1104 0024 44000000 		.4byte	.LFE2-.LFB2
 1105 0028 00000000 		.4byte	.LFB3
 1106 002c 28000000 		.4byte	.LFE3-.LFB3
 1107 0030 00000000 		.4byte	0x0
 1108 0034 00000000 		.4byte	0x0
 1109              		.section	.debug_ranges,"",%progbits
 1110              	.Ldebug_ranges0:
 1111 0000 00000000 		.4byte	.LFB0
 1112 0004 18000000 		.4byte	.LFE0
 1113 0008 00000000 		.4byte	.LFB1
 1114 000c 50000000 		.4byte	.LFE1
 1115 0010 00000000 		.4byte	.LFB2
 1116 0014 44000000 		.4byte	.LFE2
 1117 0018 00000000 		.4byte	.LFB3
 1118 001c 28000000 		.4byte	.LFE3
 1119 0020 00000000 		.4byte	0x0
 1120 0024 00000000 		.4byte	0x0
 1121              		.section	.debug_str,"MS",%progbits,1
 1122              	.LASF25:
 1123 0000 63685654 		.ascii	"chVTSetI\000"
 1123      53657449 
 1123      00
 1124              	.LASF29:
 1125 0009 474E5520 		.ascii	"GNU C 4.5.2\000"
 1125      4320342E 
 1125      352E3200 
 1126              	.LASF12:
 1127 0015 73797374 		.ascii	"systime_t\000"
 1127      696D655F 
 1127      7400
 1128              	.LASF27:
 1129 001f 73746172 		.ascii	"start\000"
 1129      7400
 1130              	.LASF30:
 1131 0025 2E2E2F63 		.ascii	"../chibios/os/kernel/src/chvt.c\000"
 1131      68696269 
 1131      6F732F6F 
 1131      732F6B65 
 1131      726E656C 
 1132              	.LASF11:
 1133 0045 626F6F6C 		.ascii	"bool_t\000"
 1133      5F7400
 1134              	.LASF13:
 1135 004c 76746675 		.ascii	"vtfunc_t\000"
 1135      6E635F74 
 1135      00
 1136              	.LASF8:
 1137 0055 6C6F6E67 		.ascii	"long unsigned int\000"
 1137      20756E73 
 1137      69676E65 
 1137      6420696E 
 1137      7400
ARM GAS  /tmp/ccv3ibDj.s 			page 22


 1138              	.LASF4:
 1139 0067 73686F72 		.ascii	"short unsigned int\000"
 1139      7420756E 
 1139      7369676E 
 1139      65642069 
 1139      6E7400
 1140              	.LASF14:
 1141 007a 56697274 		.ascii	"VirtualTimer\000"
 1141      75616C54 
 1141      696D6572 
 1141      00
 1142              	.LASF2:
 1143 0087 756E7369 		.ascii	"unsigned char\000"
 1143      676E6564 
 1143      20636861 
 1143      7200
 1144              	.LASF32:
 1145 0095 5F76745F 		.ascii	"_vt_init\000"
 1145      696E6974 
 1145      00
 1146              	.LASF0:
 1147 009e 756E7369 		.ascii	"unsigned int\000"
 1147      676E6564 
 1147      20696E74 
 1147      00
 1148              	.LASF10:
 1149 00ab 6C6F6E67 		.ascii	"long long unsigned int\000"
 1149      206C6F6E 
 1149      6720756E 
 1149      7369676E 
 1149      65642069 
 1150              	.LASF28:
 1151 00c2 76746C69 		.ascii	"vtlist\000"
 1151      737400
 1152              	.LASF23:
 1153 00c9 74696D65 		.ascii	"time\000"
 1153      00
 1154              	.LASF17:
 1155 00ce 76745F74 		.ascii	"vt_time\000"
 1155      696D6500 
 1156              	.LASF6:
 1157 00d6 696E7433 		.ascii	"int32_t\000"
 1157      325F7400 
 1158              	.LASF20:
 1159 00de 76745F73 		.ascii	"vt_systime\000"
 1159      79737469 
 1159      6D6500
 1160              	.LASF9:
 1161 00e9 6C6F6E67 		.ascii	"long long int\000"
 1161      206C6F6E 
 1161      6720696E 
 1161      7400
 1162              	.LASF18:
 1163 00f7 76745F66 		.ascii	"vt_func\000"
 1163      756E6300 
 1164              	.LASF24:
 1165 00ff 76746675 		.ascii	"vtfunc\000"
ARM GAS  /tmp/ccv3ibDj.s 			page 23


 1165      6E6300
 1166              	.LASF22:
 1167 0106 63686172 		.ascii	"char\000"
 1167      00
 1168              	.LASF19:
 1169 010b 76745F70 		.ascii	"vt_par\000"
 1169      617200
 1170              	.LASF3:
 1171 0112 73686F72 		.ascii	"short int\000"
 1171      7420696E 
 1171      7400
 1172              	.LASF33:
 1173 011c 63685469 		.ascii	"chTimeIsWithin\000"
 1173      6D654973 
 1173      57697468 
 1173      696E00
 1174              	.LASF16:
 1175 012b 76745F70 		.ascii	"vt_prev\000"
 1175      72657600 
 1176              	.LASF7:
 1177 0133 75696E74 		.ascii	"uint32_t\000"
 1177      33325F74 
 1177      00
 1178              	.LASF5:
 1179 013c 6C6F6E67 		.ascii	"long int\000"
 1179      20696E74 
 1179      00
 1180              	.LASF31:
 1181 0145 2F686F6D 		.ascii	"/home/z80/projects/dfu.git/firmware-pawn-dev/firmwa"
 1181      652F7A38 
 1181      302F7072 
 1181      6F6A6563 
 1181      74732F64 
 1182 0178 726500   		.ascii	"re\000"
 1183              	.LASF1:
 1184 017b 7369676E 		.ascii	"signed char\000"
 1184      65642063 
 1184      68617200 
 1185              	.LASF21:
 1186 0187 56544C69 		.ascii	"VTList\000"
 1186      737400
 1187              	.LASF15:
 1188 018e 76745F6E 		.ascii	"vt_next\000"
 1188      65787400 
 1189              	.LASF26:
 1190 0196 63685654 		.ascii	"chVTResetI\000"
 1190      52657365 
 1190      744900
 1191              		.ident	"GCC: (Sourcery G++ Lite 2011.03-42) 4.5.2"
ARM GAS  /tmp/ccv3ibDj.s 			page 24


DEFINED SYMBOLS
                            *ABS*:00000000 chvt.c
     /tmp/ccv3ibDj.s:24     .text._vt_init:00000000 $t
     /tmp/ccv3ibDj.s:29     .text._vt_init:00000000 _vt_init
     /tmp/ccv3ibDj.s:54     .text._vt_init:00000014 $d
     /tmp/ccv3ibDj.s:59     .text.chVTSetI:00000000 $t
     /tmp/ccv3ibDj.s:64     .text.chVTSetI:00000000 chVTSetI
     /tmp/ccv3ibDj.s:148    .text.chVTSetI:00000048 $d
     /tmp/ccv3ibDj.s:154    .text.chVTResetI:00000000 $t
     /tmp/ccv3ibDj.s:159    .text.chVTResetI:00000000 chVTResetI
     /tmp/ccv3ibDj.s:214    .text.chVTResetI:00000038 $d
     /tmp/ccv3ibDj.s:221    .text.chTimeIsWithin:00000000 $t
     /tmp/ccv3ibDj.s:226    .text.chTimeIsWithin:00000000 chTimeIsWithin
     /tmp/ccv3ibDj.s:273    .text.chTimeIsWithin:00000024 $d
     /tmp/ccv3ibDj.s:283    .bss.vtlist:00000000 vtlist
     /tmp/ccv3ibDj.s:279    .bss.vtlist:00000000 $d
                     .debug_frame:00000010 $d

UNDEFINED SYMBOLS
chDbgCheckClassI
chDbgPanic
