ARM GAS  /tmp/ccv3ibDj.s 			page 1


   1              		.syntax unified
   2              		.cpu cortex-m3
   3              		.fpu softvfp
   4              		.eabi_attribute 20, 1
   5              		.eabi_attribute 21, 1
   6              		.eabi_attribute 23, 3
   7              		.eabi_attribute 24, 1
   8              		.eabi_attribute 25, 1
   9              		.eabi_attribute 26, 1
  10              		.eabi_attribute 30, 4
  11              		.eabi_attribute 18, 4
  12              		.thumb
  13              		.file	"chvt.c"
  20 0000 A2010000 		.text
  20      02000601 
  20      00000201 
  20      FB0E0D00 
  20      01010101 
  21              	.Ltext0:
  22              		.cfi_sections	.debug_frame
  23              		.section	.text._vt_init,"ax",%progbits
  24              		.align	1
  25              		.global	_vt_init
  26              		.thumb
  27              		.thumb_func
  28              		.type	_vt_init, %function
  29              	_vt_init:
  30              	.LFB0:
  31              		.file 1 "../chibios/os/kernel/src/chvt.c"
  32              		.loc 1 50 0
  33              		.cfi_startproc
  34              		@ args = 0, pretend = 0, frame = 0
  35              		@ frame_needed = 0, uses_anonymous_args = 0
  36              		@ link register save eliminated.
  37              		.loc 1 52 0
  38 0000 044B     		ldr	r3, .L2
  39              		.loc 1 53 0
  40 0002 4FF0FF32 		mov	r2, #-1
  41 0006 9A60     		str	r2, [r3, #8]
  42              		.loc 1 54 0
  43 0008 0132     		adds	r2, r2, #1
  44              		.loc 1 52 0
  45 000a 5B60     		str	r3, [r3, #4]
  46 000c 1B60     		str	r3, [r3, #0]
  47              		.loc 1 54 0
  48 000e DA60     		str	r2, [r3, #12]
  49              		.loc 1 55 0
  50 0010 7047     		bx	lr
  51              	.L3:
  52 0012 00BF     		.align	2
  53              	.L2:
ARM GAS  /tmp/ccv3ibDj.s 			page 2


  54 0014 00000000 		.word	.LANCHOR0
  55              		.cfi_endproc
  56              	.LFE0:
  57              		.size	_vt_init, .-_vt_init
  58              		.section	.text.chVTSetI,"ax",%progbits
  59              		.align	1
  60              		.global	chVTSetI
  61              		.thumb
  62              		.thumb_func
  63              		.type	chVTSetI, %function
  64              	chVTSetI:
  65              	.LFB1:
  66              		.loc 1 77 0
  67              		.cfi_startproc
  68              		@ args = 0, pretend = 0, frame = 0
  69              		@ frame_needed = 0, uses_anonymous_args = 0
  70              	.LVL0:
  71 0000 F8B5     		push	{r3, r4, r5, r6, r7, lr}
  72              	.LCFI0:
  73              		.cfi_def_cfa_offset 24
  74              		.loc 1 77 0
  75 0002 0446     		mov	r4, r0
  76              		.cfi_offset 14, -4
  77              		.cfi_offset 7, -8
  78              		.cfi_offset 6, -12
  79              		.cfi_offset 5, -16
  80              		.cfi_offset 4, -20
  81              		.cfi_offset 3, -24
  82 0004 0D46     		mov	r5, r1
  83 0006 1646     		mov	r6, r2
  84 0008 1F46     		mov	r7, r3
  85              		.loc 1 80 0
  86 000a FFF7FEFF 		bl	chDbgCheckClassI
  87              	.LVL1:
  88              		.loc 1 81 0
  89 000e 0CB1     		cbz	r4, .L5
  90              		.loc 1 81 0 is_stmt 0 discriminator 2
  91 0010 06B1     		cbz	r6, .L5
  92              		.loc 1 81 0 discriminator 3
  93 0012 15B9     		cbnz	r5, .L6
  94              	.L5:
  95              		.loc 1 81 0 discriminator 1
  96 0014 0C48     		ldr	r0, .L10
  97 0016 FFF7FEFF 		bl	chDbgPanic
  98              	.L6:
  99              		.loc 1 86 0 is_stmt 1
 100 001a 0C4A     		ldr	r2, .L10+4
 101              		.loc 1 84 0
 102 001c 2761     		str	r7, [r4, #16]
 103              		.loc 1 85 0
 104 001e E660     		str	r6, [r4, #12]
 105              		.loc 1 86 0
 106 0020 1368     		ldr	r3, [r2, #0]
 107              	.LVL2:
 108 0022 1046     		mov	r0, r2
 109              		.loc 1 87 0
 110 0024 01E0     		b	.L7
ARM GAS  /tmp/ccv3ibDj.s 			page 3


 111              	.LVL3:
 112              	.L8:
 113              		.loc 1 89 0
 114 0026 1B68     		ldr	r3, [r3, #0]
 115              	.LVL4:
 116              		.loc 1 88 0
 117 0028 6D1A     		subs	r5, r5, r1
 118              	.LVL5:
 119              	.L7:
 120              		.loc 1 87 0 discriminator 1
 121 002a 9968     		ldr	r1, [r3, #8]
 122 002c A942     		cmp	r1, r5
 123 002e FAD3     		bcc	.L8
 124              		.loc 1 92 0
 125 0030 5A68     		ldr	r2, [r3, #4]
 126              		.loc 1 95 0
 127 0032 8342     		cmp	r3, r0
 128              		.loc 1 92 0
 129 0034 2360     		str	r3, [r4, #0]
 130 0036 6260     		str	r2, [r4, #4]
 131              		.loc 1 93 0
 132 0038 1460     		str	r4, [r2, #0]
 133 003a 5C60     		str	r4, [r3, #4]
 134              		.loc 1 94 0
 135 003c A560     		str	r5, [r4, #8]
 136              		.loc 1 95 0
 137 003e 02D0     		beq	.L4
 138              		.loc 1 96 0
 139 0040 9A68     		ldr	r2, [r3, #8]
 140 0042 551B     		subs	r5, r2, r5
 141              	.LVL6:
 142 0044 9D60     		str	r5, [r3, #8]
 143              	.L4:
 144 0046 F8BD     		pop	{r3, r4, r5, r6, r7, pc}
 145              	.L11:
 146              		.align	2
 147              	.L10:
 148 0048 00000000 		.word	.LC0
 149 004c 00000000 		.word	.LANCHOR0
 150              		.cfi_endproc
 151              	.LFE1:
 152              		.size	chVTSetI, .-chVTSetI
 153              		.section	.text.chVTResetI,"ax",%progbits
 154              		.align	1
 155              		.global	chVTResetI
 156              		.thumb
 157              		.thumb_func
 158              		.type	chVTResetI, %function
 159              	chVTResetI:
 160              	.LFB2:
 161              		.loc 1 107 0
 162              		.cfi_startproc
 163              		@ args = 0, pretend = 0, frame = 0
 164              		@ frame_needed = 0, uses_anonymous_args = 0
 165              	.LVL7:
 166 0000 10B5     		push	{r4, lr}
 167              	.LCFI1:
ARM GAS  /tmp/ccv3ibDj.s 			page 4


 168              		.cfi_def_cfa_offset 8
 169              		.loc 1 107 0
 170 0002 0446     		mov	r4, r0
 171              		.cfi_offset 14, -4
 172              		.cfi_offset 4, -8
 173              		.loc 1 109 0
 174 0004 FFF7FEFF 		bl	chDbgCheckClassI
 175              	.LVL8:
 176              		.loc 1 110 0
 177 0008 14B9     		cbnz	r4, .L13
 178              		.loc 1 110 0 is_stmt 0 discriminator 1
 179 000a 0B48     		ldr	r0, .L16
 180 000c FFF7FEFF 		bl	chDbgPanic
 181              	.L13:
 182              		.loc 1 111 0 is_stmt 1
 183 0010 E368     		ldr	r3, [r4, #12]
 184 0012 13B9     		cbnz	r3, .L14
 185              		.loc 1 111 0 is_stmt 0 discriminator 1
 186 0014 0948     		ldr	r0, .L16+4
 187 0016 FFF7FEFF 		bl	chDbgPanic
 188              	.L14:
 189              		.loc 1 115 0 is_stmt 1
 190 001a 2368     		ldr	r3, [r4, #0]
 191 001c 084A     		ldr	r2, .L16+8
 192 001e 9342     		cmp	r3, r2
 193 0020 03D0     		beq	.L15
 194              		.loc 1 116 0
 195 0022 9968     		ldr	r1, [r3, #8]
 196 0024 A268     		ldr	r2, [r4, #8]
 197 0026 8A18     		adds	r2, r1, r2
 198 0028 9A60     		str	r2, [r3, #8]
 199              	.L15:
 200              		.loc 1 117 0
 201 002a 6268     		ldr	r2, [r4, #4]
 202 002c 1360     		str	r3, [r2, #0]
 203              		.loc 1 118 0
 204 002e 2368     		ldr	r3, [r4, #0]
 205 0030 5A60     		str	r2, [r3, #4]
 206              		.loc 1 119 0
 207 0032 0023     		movs	r3, #0
 208 0034 E360     		str	r3, [r4, #12]
 209              		.loc 1 120 0
 210 0036 10BD     		pop	{r4, pc}
 211              	.L17:
 212              		.align	2
 213              	.L16:
 214 0038 0D000000 		.word	.LC1
 215 003c 1C000000 		.word	.LC2
 216 0040 00000000 		.word	.LANCHOR0
 217              		.cfi_endproc
 218              	.LFE2:
 219              		.size	chVTResetI, .-chVTResetI
 220              		.section	.text.chTimeIsWithin,"ax",%progbits
 221              		.align	1
 222              		.global	chTimeIsWithin
 223              		.thumb
 224              		.thumb_func
ARM GAS  /tmp/ccv3ibDj.s 			page 5


 225              		.type	chTimeIsWithin, %function
 226              	chTimeIsWithin:
 227              	.LFB3:
 228              		.loc 1 135 0
 229              		.cfi_startproc
 230              		@ args = 0, pretend = 0, frame = 0
 231              		@ frame_needed = 0, uses_anonymous_args = 0
 232              		@ link register save eliminated.
 233              	.LVL9:
 234              		.loc 1 137 0
 235 0000 084B     		ldr	r3, .L24
 236              		.loc 1 138 0
 237 0002 8142     		cmp	r1, r0
 238              		.loc 1 137 0
 239 0004 DB68     		ldr	r3, [r3, #12]
 240              	.LVL10:
 241              		.loc 1 138 0
 242 0006 02D9     		bls	.L19
 243              		.loc 1 138 0 is_stmt 0 discriminator 1
 244 0008 8342     		cmp	r3, r0
 245 000a 07D3     		bcc	.L21
 246 000c 01E0     		b	.L23
 247              	.L19:
 248              		.loc 1 138 0 discriminator 2
 249 000e 8342     		cmp	r3, r0
 250 0010 06D2     		bcs	.L22
 251              	.L23:
 252              		.loc 1 138 0
 253 0012 8B42     		cmp	r3, r1
 254 0014 2CBF     		ite	cs
 255 0016 0020     		movcs	r0, #0
 256              	.LVL11:
 257 0018 0120     		movcc	r0, #1
 258 001a 7047     		bx	lr
 259              	.LVL12:
 260              	.L21:
 261 001c 0020     		movs	r0, #0
 262              	.LVL13:
 263 001e 7047     		bx	lr
 264              	.LVL14:
 265              	.L22:
 266 0020 0120     		movs	r0, #1
 267              	.LVL15:
 268              		.loc 1 140 0 is_stmt 1
 269 0022 7047     		bx	lr
 270              	.L25:
 271              		.align	2
 272              	.L24:
 273 0024 00000000 		.word	.LANCHOR0
 274              		.cfi_endproc
 275              	.LFE3:
 276              		.size	chTimeIsWithin, .-chTimeIsWithin
 277              		.global	vtlist
 278              		.section	.bss.vtlist,"aw",%nobits
 279              		.align	2
 280              		.set	.LANCHOR0,. + 0
 281              		.type	vtlist, %object
ARM GAS  /tmp/ccv3ibDj.s 			page 6


 282              		.size	vtlist, 16
 283              	vtlist:
 284 0000 00000000 		.space	16
 284      00000000 
 284      00000000 
 284      00000000 
 285              		.section	.rodata.str1.1,"aMS",%progbits,1
 286              	.LC0:
 287 0000 22636856 		.ascii	"\"chVTSetI\"()\000"
 287      54536574 
 287      49222829 
 287      00
 288              	.LC1:
 289 000d 22636856 		.ascii	"\"chVTResetI\"()\000"
 289      54526573 
 289      65744922 
 289      282900
 290              	.LC2:
 291 001c 63685654 		.ascii	"chVTResetI(), #1\000"
 291      52657365 
 291      74492829 
 291      2C202331 
 291      00
 292              		.text
 293              	.Letext0: