ARM GAS  /tmp/ccie05b8.s 			page 1


   1              		.syntax unified
   2              		.cpu cortex-m3
   3              		.fpu softvfp
   4              		.eabi_attribute 20, 1
   5              		.eabi_attribute 21, 1
   6              		.eabi_attribute 23, 3
   7              		.eabi_attribute 24, 1
   8              		.eabi_attribute 25, 1
   9              		.eabi_attribute 26, 1
  10              		.eabi_attribute 30, 4
  11              		.eabi_attribute 18, 4
  12              		.thumb
  13              		.file	"conf_ctrl.c"
  20 0000 69010000 		.text
  20      0200F200 
  20      00000201 
  20      FB0E0D00 
  20      01010101 
  21              	.Ltext0:
  22              		.cfi_sections	.debug_frame
  23              		.section	.text.crc8,"ax",%progbits
  24              		.align	1
  25              		.thumb
  26              		.thumb_func
  27              		.type	crc8, %function
  28              	crc8:
  29              	.LFB57:
  30              		.file 1 "conf_ctrl.c"
  31              		.loc 1 67 0
  32              		.cfi_startproc
  33              		@ args = 0, pretend = 0, frame = 0
  34              		@ frame_needed = 0, uses_anonymous_args = 0
  35              	.LVL0:
  36 0000 0346     		mov	r3, r0
  37              		.loc 1 70 0
  38 0002 0020     		movs	r0, #0
  39              	.LVL1:
  40              		.loc 1 67 0
  41 0004 10B5     		push	{r4, lr}
  42              	.LCFI0:
  43              		.cfi_def_cfa_offset 8
  44              		.loc 1 71 0
  45 0006 0246     		mov	r2, r0
  46 0008 0DE0     		b	.L2
  47              		.cfi_offset 14, -4
  48              		.cfi_offset 4, -8
  49              	.LVL2:
  50              	.L6:
  51              		.loc 1 73 0
  52 000a 9C5C     		ldrb	r4, [r3, r2]	@ zero_extendqisi2
  53 000c 6040     		eors	r0, r0, r4
ARM GAS  /tmp/ccie05b8.s 			page 2


  54              	.LVL3:
  55 000e 0824     		movs	r4, #8
  56              	.LVL4:
  57              	.L5:
  58              		.loc 1 76 0
  59 0010 10F0010F 		tst	r0, #1
  60 0014 4FEA5000 		lsr	r0, r0, #1
  61              		.loc 1 77 0
  62 0018 C0B2     		uxtb	r0, r0
  63 001a 18BF     		it	ne
  64 001c 80F08C00 		eorne	r0, r0, #140
  65              	.LVL5:
  66              		.loc 1 74 0
  67 0020 013C     		subs	r4, r4, #1
  68 0022 F5D1     		bne	.L5
  69              		.loc 1 71 0
  70 0024 0132     		adds	r2, r2, #1
  71              	.LVL6:
  72              	.L2:
  73              		.loc 1 71 0 is_stmt 0 discriminator 1
  74 0026 8A42     		cmp	r2, r1
  75 0028 EFDB     		blt	.L6
  76              		.loc 1 83 0 is_stmt 1
  77 002a 10BD     		pop	{r4, pc}
  78              		.cfi_endproc
  79              	.LFE57:
  80              		.size	crc8, .-crc8
  81              		.section	.text.saveConf,"ax",%progbits
  82              		.align	1
  83              		.global	saveConf
  84              		.thumb
  85              		.thumb_func
  86              		.type	saveConf, %function
  87              	saveConf:
  88              	.LFB55:
  89              		.loc 1 14 0
  90              		.cfi_startproc
  91              		@ args = 0, pretend = 0, frame = 0
  92              		@ frame_needed = 0, uses_anonymous_args = 0
  93              	.LVL7:
  94 0000 2DE9F041 		push	{r4, r5, r6, r7, r8, lr}
  95              	.LCFI1:
  96              		.cfi_def_cfa_offset 24
  97              		.loc 1 19 0
  98 0004 234A     		ldr	r2, .L17
  99              		.loc 1 14 0
 100 0006 0D46     		mov	r5, r1
 101              		.cfi_offset 14, -4
 102              		.cfi_offset 8, -8
 103              		.cfi_offset 7, -12
 104              		.cfi_offset 6, -16
 105              		.cfi_offset 5, -20
 106              		.cfi_offset 4, -24
 107 0008 0646     		mov	r6, r0
 108              		.loc 1 53 0
 109 000a 8046     		mov	r8, r0
 110              		.loc 1 19 0
ARM GAS  /tmp/ccie05b8.s 			page 3


 111 000c 0146     		mov	r1, r0
 112              	.LVL8:
 113 000e 0023     		movs	r3, #0
 114 0010 06E0     		b	.L8
 115              	.LVL9:
 116              	.L10:
 117              		.loc 1 21 0
 118 0012 51F8040B 		ldr	r0, [r1], #4
 119 0016 52F8044F 		ldr	r4, [r2, #4]!
 120 001a 8442     		cmp	r4, r0
 121 001c 05D1     		bne	.L9
 122              		.loc 1 19 0
 123 001e 0133     		adds	r3, r3, #1
 124              	.LVL10:
 125              	.L8:
 126              		.loc 1 19 0 is_stmt 0 discriminator 1
 127 0020 AB42     		cmp	r3, r5
 128 0022 F6DB     		blt	.L10
 129              		.loc 1 29 0 is_stmt 1
 130 0024 0020     		movs	r0, #0
 131 0026 BDE8F081 		pop	{r4, r5, r6, r7, r8, pc}
 132              	.L9:
 133              	.LVL11:
 134              		.loc 1 31 0
 135 002a FFF7FEFF 		bl	FLASH_Unlock
 136              	.LVL12:
 137              		.loc 1 33 0
 138 002e 1A48     		ldr	r0, .L17+4
 139 0030 FFF7FEFF 		bl	FLASH_ErasePage
 140              	.LVL13:
 141              		.loc 1 34 0
 142 0034 0428     		cmp	r0, #4
 143 0036 13D0     		beq	.L15
 144              		.loc 1 36 0
 145 0038 FFF7FEFF 		bl	FLASH_Lock
 146              	.LVL14:
 147              		.loc 1 37 0
 148 003c 0120     		movs	r0, #1
 149 003e BDE8F081 		pop	{r4, r5, r6, r7, r8, pc}
 150              	.LVL15:
 151              	.L14:
 152              		.loc 1 41 0
 153 0042 3846     		mov	r0, r7
 154              	.LVL16:
 155 0044 58F8041B 		ldr	r1, [r8], #4
 156 0048 FFF7FEFF 		bl	FLASH_ProgramWord
 157              	.LVL17:
 158 004c 0437     		adds	r7, r7, #4
 159              		.loc 1 42 0
 160 004e 0428     		cmp	r0, #4
 161 0050 04D0     		beq	.L13
 162              		.loc 1 44 0
 163 0052 FFF7FEFF 		bl	FLASH_Lock
 164              	.LVL18:
 165              		.loc 1 45 0
 166 0056 0220     		movs	r0, #2
 167 0058 BDE8F081 		pop	{r4, r5, r6, r7, r8, pc}
ARM GAS  /tmp/ccie05b8.s 			page 4


 168              	.LVL19:
 169              	.L13:
 170              		.loc 1 39 0
 171 005c 0134     		adds	r4, r4, #1
 172              	.LVL20:
 173 005e 01E0     		b	.L12
 174              	.LVL21:
 175              	.L15:
 176              		.loc 1 34 0
 177 0060 0D4F     		ldr	r7, .L17+4
 178 0062 0024     		movs	r4, #0
 179              	.L12:
 180              	.LVL22:
 181              		.loc 1 39 0 discriminator 1
 182 0064 AC42     		cmp	r4, r5
 183 0066 ECDB     		blt	.L14
 184              		.loc 1 48 0
 185 0068 A900     		lsls	r1, r5, #2
 186 006a 3046     		mov	r0, r6
 187              	.LVL23:
 188 006c FFF7FEFF 		bl	crc8
 189 0070 0146     		mov	r1, r0
 190              	.LVL24:
 191              		.loc 1 49 0
 192 0072 A000     		lsls	r0, r4, #2
 193              	.LVL25:
 194 0074 00F10060 		add	r0, r0, #134217728
 195 0078 00F5A040 		add	r0, r0, #20480
 196 007c FFF7FEFF 		bl	FLASH_ProgramWord
 197              	.LVL26:
 198 0080 0446     		mov	r4, r0
 199              	.LVL27:
 200              		.loc 1 50 0
 201 0082 FFF7FEFF 		bl	FLASH_Lock
 202              	.LVL28:
 203              		.loc 1 52 0
 204 0086 042C     		cmp	r4, #4
 205 0088 14BF     		ite	ne
 206 008a 0320     		movne	r0, #3
 207 008c 0020     		moveq	r0, #0
 208              		.loc 1 54 0
 209 008e BDE8F081 		pop	{r4, r5, r6, r7, r8, pc}
 210              	.L18:
 211 0092 00BF     		.align	2
 212              	.L17:
 213 0094 FC4F0008 		.word	134238204
 214 0098 00500008 		.word	134238208
 215              		.cfi_endproc
 216              	.LFE55:
 217              		.size	saveConf, .-saveConf
 218              		.section	.text.loadConf,"ax",%progbits
 219              		.align	1
 220              		.global	loadConf
 221              		.thumb
 222              		.thumb_func
 223              		.type	loadConf, %function
 224              	loadConf:
ARM GAS  /tmp/ccie05b8.s 			page 5


 225              	.LFB56:
 226              		.loc 1 57 0
 227              		.cfi_startproc
 228              		@ args = 0, pretend = 0, frame = 0
 229              		@ frame_needed = 0, uses_anonymous_args = 0
 230              	.LVL29:
 231 0000 10B5     		push	{r4, lr}
 232              	.LCFI2:
 233              		.cfi_def_cfa_offset 8
 234              		.loc 1 59 0
 235 0002 8400     		lsls	r4, r0, #2
 236              		.cfi_offset 14, -4
 237              		.cfi_offset 4, -8
 238 0004 2146     		mov	r1, r4
 239 0006 0748     		ldr	r0, .L22
 240              	.LVL30:
 241 0008 FFF7FEFF 		bl	crc8
 242              	.LVL31:
 243              		.loc 1 60 0
 244 000c 04F10064 		add	r4, r4, #134217728
 245 0010 04F5A044 		add	r4, r4, #20480
 246              		.loc 1 61 0
 247 0014 2278     		ldrb	r2, [r4, #0]	@ zero_extendqisi2
 248              		.loc 1 64 0
 249 0016 034B     		ldr	r3, .L22
 250 0018 9042     		cmp	r0, r2
 251 001a 0CBF     		ite	eq
 252 001c 1846     		moveq	r0, r3
 253 001e 0020     		movne	r0, #0
 254              	.LVL32:
 255 0020 10BD     		pop	{r4, pc}
 256              	.L23:
 257 0022 00BF     		.align	2
 258              	.L22:
 259 0024 00500008 		.word	134238208
 260              		.cfi_endproc
 261              	.LFE56:
 262              		.size	loadConf, .-loadConf
 263              		.text
 264              	.Letext0: