ARM GAS  /tmp/cc40H2X1.s 			page 1


   1              		.syntax unified
   2              		.cpu cortex-m3
   3              		.fpu softvfp
   4              		.eabi_attribute 20, 1
   5              		.eabi_attribute 21, 1
   6              		.eabi_attribute 23, 3
   7              		.eabi_attribute 24, 1
   8              		.eabi_attribute 25, 1
   9              		.eabi_attribute 26, 1
  10              		.eabi_attribute 30, 4
  11              		.eabi_attribute 18, 4
  12              		.thumb
  13              		.file	"crt0.c"
  20 0000 45010000 		.text
  20      0200B900 
  20      00000201 
  20      FB0E0D00 
  20      01010101 
  21              	.Ltext0:
  22              		.cfi_sections	.debug_frame
  23              		.section	.text.fill32,"ax",%progbits
  24              		.align	1
  25              		.thumb
  26              		.thumb_func
  27              		.type	fill32, %function
  28              	fill32:
  29              	.LFB3:
  30              		.file 1 "../chibios/os/ports/GCC/ARMCMx/crt0.c"
  31              		.loc 1 244 0
  32              		.cfi_startproc
  33              		@ args = 0, pretend = 0, frame = 0
  34              		@ frame_needed = 0, uses_anonymous_args = 0
  35              		@ link register save eliminated.
  36              	.LVL0:
  37              		.loc 1 246 0
  38 0000 01E0     		b	.L2
  39              	.L3:
  40              		.loc 1 247 0
  41 0002 40F8042B 		str	r2, [r0], #4
  42              	.LVL1:
  43              	.L2:
  44              		.loc 1 246 0 discriminator 1
  45 0006 8842     		cmp	r0, r1
  46 0008 FBD3     		bcc	.L3
  47              		.loc 1 248 0
  48 000a 7047     		bx	lr
  49              		.cfi_endproc
  50              	.LFE3:
  51              		.size	fill32, .-fill32
  52              		.section	.text.__early_init,"ax",%progbits
  53              		.align	1
ARM GAS  /tmp/cc40H2X1.s 			page 2


  54              		.weak	__early_init
  55              		.thumb
  56              		.thumb_func
  57              		.type	__early_init, %function
  58              	__early_init:
  59              	.LFB0:
  60              		.loc 1 209 0
  61              		.cfi_startproc
  62              		@ args = 0, pretend = 0, frame = 0
  63              		@ frame_needed = 0, uses_anonymous_args = 0
  64              		@ link register save eliminated.
  65              		.loc 1 209 0
  66 0000 7047     		bx	lr
  67              		.cfi_endproc
  68              	.LFE0:
  69              		.size	__early_init, .-__early_init
  70              		.section	.text.__late_init,"ax",%progbits
  71              		.align	1
  72              		.weak	__late_init
  73              		.thumb
  74              		.thumb_func
  75              		.type	__late_init, %function
  76              	__late_init:
  77              	.LFB1:
  78              		.loc 1 221 0
  79              		.cfi_startproc
  80              		@ args = 0, pretend = 0, frame = 0
  81              		@ frame_needed = 0, uses_anonymous_args = 0
  82              		@ link register save eliminated.
  83              		.loc 1 221 0
  84 0000 7047     		bx	lr
  85              		.cfi_endproc
  86              	.LFE1:
  87              		.size	__late_init, .-__late_init
  88              		.section	.text._default_exit,"ax",%progbits
  89              		.align	1
  90              		.weak	_default_exit
  91              		.thumb
  92              		.thumb_func
  93              		.type	_default_exit, %function
  94              	_default_exit:
  95              	.LFB2:
  96              		.loc 1 232 0
  97              		.cfi_startproc
  98              		@ Naked Function: prologue and epilogue provided by programmer.
  99              		@ args = 0, pretend = 0, frame = 0
 100              		@ frame_needed = 0, uses_anonymous_args = 0
 101              	.L7:
 102 0000 FEE7     		b	.L7
 103              		.cfi_endproc
 104              	.LFE2:
 105              		.size	_default_exit, .-_default_exit
 106              		.section	.text.ResetHandler,"ax",%progbits
 107              		.align	1
 108              		.global	ResetHandler
 109              		.thumb
 110              		.thumb_func
ARM GAS  /tmp/cc40H2X1.s 			page 3


 111              		.type	ResetHandler, %function
 112              	ResetHandler:
 113              	.LFB4:
 114              		.loc 1 256 0
 115              		.cfi_startproc
 116              		@ Naked Function: prologue and epilogue provided by programmer.
 117              		@ args = 0, pretend = 0, frame = 0
 118              		@ frame_needed = 0, uses_anonymous_args = 0
 119              		.loc 1 262 0
 120              	@ 262 "../chibios/os/ports/GCC/ARMCMx/crt0.c" 1
 121 0000 72B6     		cpsid   i
 122              	@ 0 "" 2
 123              	.LVL2:
 124              		.loc 1 264 0
 125              		.thumb
 126 0002 1D4B     		ldr	r3, .L15
 127              	@ 264 "../chibios/os/ports/GCC/ARMCMx/crt0.c" 1
 128 0004 83F30988 		msr     PSP, r3
 129              	@ 0 "" 2
 130              	.LVL3:
 131              		.loc 1 284 0
 132              		.thumb
 133 0008 0223     		movs	r3, #2
 134              	@ 284 "../chibios/os/ports/GCC/ARMCMx/crt0.c" 1
 135 000a 83F31488 		msr     CONTROL, r3
 136              	@ 0 "" 2
 137              		.loc 1 285 0
 138              	@ 285 "../chibios/os/ports/GCC/ARMCMx/crt0.c" 1
 139 000e BFF36F8F 		isb
 140              	@ 0 "" 2
 141              		.loc 1 288 0
 142              		.thumb
 143 0012 FFF7FEFF 		bl	__early_init
 144              		.loc 1 292 0
 145 0016 1948     		ldr	r0, .L15+4
 146 0018 1949     		ldr	r1, .L15+8
 147 001a 4FF05532 		mov	r2, #1431655765
 148 001e FFF7FEFF 		bl	fill32
 149              		.loc 1 295 0
 150 0022 4FF05532 		mov	r2, #1431655765
 151 0026 1748     		ldr	r0, .L15+12
 152 0028 1349     		ldr	r1, .L15
 153 002a FFF7FEFF 		bl	fill32
 154              	.LVL4:
 155 002e 164A     		ldr	r2, .L15+16
 156              	.LBB2:
 157              		.loc 1 306 0
 158 0030 164B     		ldr	r3, .L15+20
 159              		.loc 1 307 0
 160 0032 03E0     		b	.L9
 161              	.LVL5:
 162              	.L10:
 163              		.loc 1 308 0
 164 0034 52F8041B 		ldr	r1, [r2], #4
 165 0038 43F8041B 		str	r1, [r3], #4
 166              	.LVL6:
 167              	.L9:
ARM GAS  /tmp/cc40H2X1.s 			page 4


 168              		.loc 1 307 0 discriminator 1
 169 003c 1449     		ldr	r1, .L15+24
 170 003e 8B42     		cmp	r3, r1
 171 0040 F8D3     		bcc	.L10
 172              	.LBE2:
 173              		.loc 1 314 0
 174 0042 1448     		ldr	r0, .L15+28
 175 0044 1449     		ldr	r1, .L15+32
 176 0046 0022     		movs	r2, #0
 177 0048 FFF7FEFF 		bl	fill32
 178              	.LVL7:
 179              	.LBB3:
 180              		.loc 1 323 0
 181 004c 134C     		ldr	r4, .L15+36
 182              	.LBE3:
 183              		.loc 1 318 0
 184 004e FFF7FEFF 		bl	__late_init
 185              	.LVL8:
 186              	.LBB4:
 187              		.loc 1 324 0
 188 0052 02E0     		b	.L11
 189              	.LVL9:
 190              	.L12:
 191              		.loc 1 325 0
 192 0054 54F8043B 		ldr	r3, [r4], #4
 193              	.LVL10:
 194 0058 9847     		blx	r3
 195              	.LVL11:
 196              	.L11:
 197              		.loc 1 324 0 discriminator 1
 198 005a 114B     		ldr	r3, .L15+40
 199 005c 9C42     		cmp	r4, r3
 200 005e F9D3     		bcc	.L12
 201              	.LBE4:
 202              		.loc 1 332 0
 203 0060 FFF7FEFF 		bl	main
 204              	.LVL12:
 205              	.LBB5:
 206              		.loc 1 337 0
 207 0064 0F4C     		ldr	r4, .L15+44
 208              	.LVL13:
 209              		.loc 1 338 0
 210 0066 02E0     		b	.L13
 211              	.LVL14:
 212              	.L14:
 213              		.loc 1 339 0
 214 0068 54F8043B 		ldr	r3, [r4], #4
 215              	.LVL15:
 216 006c 9847     		blx	r3
 217              	.LVL16:
 218              	.L13:
 219              		.loc 1 338 0 discriminator 1
 220 006e 0E4B     		ldr	r3, .L15+48
 221 0070 9C42     		cmp	r4, r3
 222 0072 F9D3     		bcc	.L14
 223              	.LBE5:
 224              		.loc 1 347 0
ARM GAS  /tmp/cc40H2X1.s 			page 5


 225              		.loc 1 346 0
 226 0074 FFF7FEBF 		b	_default_exit
 227              	.L16:
 228              		.align	2
 229              	.L15:
 230 0078 00000000 		.word	__process_stack_end__
 231 007c 00000000 		.word	__main_stack_base__
 232 0080 00000000 		.word	__main_stack_end__
 233 0084 00000000 		.word	__process_stack_base__
 234 0088 00000000 		.word	_textdata
 235 008c 00000000 		.word	_data
 236 0090 00000000 		.word	_edata
 237 0094 00000000 		.word	_bss_start
 238 0098 00000000 		.word	_bss_end
 239 009c 00000000 		.word	__init_array_start
 240 00a0 00000000 		.word	__init_array_end
 241 00a4 00000000 		.word	__fini_array_start
 242 00a8 00000000 		.word	__fini_array_end
 243              		.cfi_endproc
 244              	.LFE4:
 245              		.size	ResetHandler, .-ResetHandler
 246              		.text
 247              	.Letext0: