ARM GAS  /tmp/ccW51SAB.s 			page 1


   1              		.syntax unified
   2              		.cpu cortex-m3
   3              		.fpu softvfp
   4              		.eabi_attribute 20, 1
   5              		.eabi_attribute 21, 1
   6              		.eabi_attribute 23, 3
   7              		.eabi_attribute 24, 1
   8              		.eabi_attribute 25, 1
   9              		.eabi_attribute 26, 1
  10              		.eabi_attribute 30, 4
  11              		.eabi_attribute 18, 4
  12              		.thumb
  13              		.file	"hal.c"
  20 0000 08020000 		.text
  20      0200AE01 
  20      00000201 
  20      FB0E0D00 
  20      01010101 
  21              	.Ltext0:
  22              		.cfi_sections	.debug_frame
  23              		.section	.text.halInit,"ax",%progbits
  24              		.align	1
  25              		.global	halInit
  26              		.thumb
  27              		.thumb_func
  28              		.type	halInit, %function
  29              	halInit:
  30              	.LFB55:
  31              		.file 1 "../chibios/os/hal/src/hal.c"
  32              		.loc 1 68 0
  33              		.cfi_startproc
  34              		@ args = 0, pretend = 0, frame = 0
  35              		@ frame_needed = 0, uses_anonymous_args = 0
  36 0000 10B5     		push	{r4, lr}
  37              	.LCFI0:
  38              		.cfi_def_cfa_offset 8
  39              		.loc 1 70 0
  40              		.cfi_offset 14, -4
  41              		.cfi_offset 4, -8
  42 0002 FFF7FEFF 		bl	hal_lld_init
  43              		.loc 1 73 0
  44 0006 FFF7FEFF 		bl	tmInit
  45              		.loc 1 76 0
  46 000a 0648     		ldr	r0, .L2
  47 000c FFF7FEFF 		bl	_pal_lld_init
  48              		.loc 1 115 0
  49 0010 FFF7FEFF 		bl	usbInit
  50              		.loc 1 121 0
  51 0014 FFF7FEFF 		bl	sduInit
  52              		.loc 1 124 0
  53 0018 FFF7FEFF 		bl	rtcInit
ARM GAS  /tmp/ccW51SAB.s 			page 2


  54              		.loc 1 128 0
  55 001c BDE81040 		pop	{r4, lr}
  56              		.loc 1 127 0
  57 0020 FFF7FEBF 		b	boardInit
  58              	.L3:
  59              		.align	2
  60              	.L2:
  61 0024 00000000 		.word	pal_default_config
  62              		.cfi_endproc
  63              	.LFE55:
  64              		.size	halInit, .-halInit
  65              		.section	.text.halIsCounterWithin,"ax",%progbits
  66              		.align	1
  67              		.global	halIsCounterWithin
  68              		.thumb
  69              		.thumb_func
  70              		.type	halIsCounterWithin, %function
  71              	halIsCounterWithin:
  72              	.LFB56:
  73              		.loc 1 174 0
  74              		.cfi_startproc
  75              		@ args = 0, pretend = 0, frame = 0
  76              		@ frame_needed = 0, uses_anonymous_args = 0
  77              		@ link register save eliminated.
  78              	.LVL0:
  79              		.loc 1 175 0
  80 0000 084B     		ldr	r3, .L10
  81              		.loc 1 177 0
  82 0002 8142     		cmp	r1, r0
  83              		.loc 1 175 0
  84 0004 5B68     		ldr	r3, [r3, #4]
  85              	.LVL1:
  86              		.loc 1 177 0
  87 0006 02D9     		bls	.L5
  88              		.loc 1 177 0 is_stmt 0 discriminator 1
  89 0008 8342     		cmp	r3, r0
  90 000a 07D3     		bcc	.L7
  91 000c 01E0     		b	.L9
  92              	.L5:
  93              		.loc 1 177 0 discriminator 2
  94 000e 8342     		cmp	r3, r0
  95 0010 06D2     		bcs	.L8
  96              	.L9:
  97              		.loc 1 177 0
  98 0012 8B42     		cmp	r3, r1
  99 0014 2CBF     		ite	cs
 100 0016 0020     		movcs	r0, #0
 101              	.LVL2:
 102 0018 0120     		movcc	r0, #1
 103 001a 7047     		bx	lr
 104              	.LVL3:
 105              	.L7:
 106 001c 0020     		movs	r0, #0
 107              	.LVL4:
 108 001e 7047     		bx	lr
 109              	.LVL5:
 110              	.L8:
ARM GAS  /tmp/ccW51SAB.s 			page 3


 111 0020 0120     		movs	r0, #1
 112              	.LVL6:
 113              		.loc 1 179 0 is_stmt 1
 114 0022 7047     		bx	lr
 115              	.L11:
 116              		.align	2
 117              	.L10:
 118 0024 001000E0 		.word	-536866816
 119              		.cfi_endproc
 120              	.LFE56:
 121              		.size	halIsCounterWithin, .-halIsCounterWithin
 122              		.section	.text.halPolledDelay,"ax",%progbits
 123              		.align	1
 124              		.global	halPolledDelay
 125              		.thumb
 126              		.thumb_func
 127              		.type	halPolledDelay, %function
 128              	halPolledDelay:
 129              	.LFB57:
 130              		.loc 1 193 0
 131              		.cfi_startproc
 132              		@ args = 0, pretend = 0, frame = 0
 133              		@ frame_needed = 0, uses_anonymous_args = 0
 134              	.LVL7:
 135 0000 38B5     		push	{r3, r4, r5, lr}
 136              	.LCFI1:
 137              		.cfi_def_cfa_offset 16
 138              		.loc 1 194 0
 139 0002 054B     		ldr	r3, .L14
 140              		.cfi_offset 14, -4
 141              		.cfi_offset 5, -8
 142              		.cfi_offset 4, -12
 143              		.cfi_offset 3, -16
 144 0004 5C68     		ldr	r4, [r3, #4]
 145              	.LVL8:
 146              		.loc 1 195 0
 147 0006 0519     		adds	r5, r0, r4
 148              	.LVL9:
 149              	.L13:
 150              		.loc 1 196 0 discriminator 1
 151 0008 2046     		mov	r0, r4
 152 000a 2946     		mov	r1, r5
 153 000c FFF7FEFF 		bl	halIsCounterWithin
 154 0010 0028     		cmp	r0, #0
 155 0012 F9D1     		bne	.L13
 156              		.loc 1 198 0
 157 0014 38BD     		pop	{r3, r4, r5, pc}
 158              	.L15:
 159 0016 00BF     		.align	2
 160              	.L14:
 161 0018 001000E0 		.word	-536866816
 162              		.cfi_endproc
 163              	.LFE57:
 164              		.size	halPolledDelay, .-halPolledDelay
 165              		.text
 166              	.Letext0: