ARM GAS  /tmp/ccNImEOL.s 			page 1


   1              		.syntax unified
   2              		.cpu cortex-m3
   3              		.fpu softvfp
   4              		.eabi_attribute 20, 1
   5              		.eabi_attribute 21, 1
   6              		.eabi_attribute 23, 3
   7              		.eabi_attribute 24, 1
   8              		.eabi_attribute 25, 1
   9              		.eabi_attribute 26, 1
  10              		.eabi_attribute 30, 4
  11              		.eabi_attribute 18, 4
  12              		.thumb
  13              		.file	"misc.c"
  14              		.section	.debug_abbrev,"",%progbits
  15              	.Ldebug_abbrev0:
  16              		.section	.debug_info,"",%progbits
  17              	.Ldebug_info0:
  18              		.section	.debug_line,"",%progbits
  19              	.Ldebug_line0:
  20 0000 91010000 		.text
  20      02001701 
  20      00000201 
  20      FB0E0D00 
  20      01010101 
  21              	.Ltext0:
  22              		.cfi_sections	.debug_frame
  23              		.section	.text.NVIC_PriorityGroupConfig,"ax",%progbits
  24              		.align	1
  25              		.global	NVIC_PriorityGroupConfig
  26              		.thumb
  27              		.thumb_func
  28              		.type	NVIC_PriorityGroupConfig, %function
  29              	NVIC_PriorityGroupConfig:
  30              	.LFB55:
  31              		.file 1 "misc.c"
  32              		.loc 1 97 0
  33              		.cfi_startproc
  34              		@ args = 0, pretend = 0, frame = 0
  35              		@ frame_needed = 0, uses_anonymous_args = 0
  36              		@ link register save eliminated.
  37              	.LVL0:
  38              		.loc 1 102 0
  39 0000 40F0BE60 		orr	r0, r0, #99614720
  40              	.LVL1:
  41 0004 024B     		ldr	r3, .L2
  42 0006 40F42020 		orr	r0, r0, #655360
  43 000a D860     		str	r0, [r3, #12]
  44              		.loc 1 103 0
  45 000c 7047     		bx	lr
  46              	.L3:
  47 000e 00BF     		.align	2
  48              	.L2:
  49 0010 00ED00E0 		.word	-536810240
  50              		.cfi_endproc
  51              	.LFE55:
  52              		.size	NVIC_PriorityGroupConfig, .-NVIC_PriorityGroupConfig
  53              		.section	.text.NVIC_Init,"ax",%progbits
ARM GAS  /tmp/ccNImEOL.s 			page 2


  54              		.align	1
  55              		.global	NVIC_Init
  56              		.thumb
  57              		.thumb_func
  58              		.type	NVIC_Init, %function
  59              	NVIC_Init:
  60              	.LFB56:
  61              		.loc 1 113 0
  62              		.cfi_startproc
  63              		@ args = 0, pretend = 0, frame = 0
  64              		@ frame_needed = 0, uses_anonymous_args = 0
  65              	.LVL2:
  66              		.loc 1 121 0
  67 0000 C378     		ldrb	r3, [r0, #3]	@ zero_extendqisi2
  68              		.loc 1 113 0
  69 0002 10B5     		push	{r4, lr}
  70              	.LCFI0:
  71              		.cfi_def_cfa_offset 8
  72              		.loc 1 121 0
  73 0004 E3B1     		cbz	r3, .L5
  74              		.cfi_offset 14, -4
  75              		.cfi_offset 4, -8
  76              		.loc 1 124 0
  77 0006 144B     		ldr	r3, .L8
  78              		.loc 1 128 0
  79 0008 4178     		ldrb	r1, [r0, #1]	@ zero_extendqisi2
  80              		.loc 1 124 0
  81 000a DB68     		ldr	r3, [r3, #12]
  82              		.loc 1 129 0
  83 000c 8478     		ldrb	r4, [r0, #2]	@ zero_extendqisi2
  84              		.loc 1 124 0
  85 000e DB43     		mvns	r3, r3
  86 0010 03F4E063 		and	r3, r3, #1792
  87 0014 1B0A     		lsrs	r3, r3, #8
  88              	.LVL3:
  89              		.loc 1 125 0
  90 0016 C3F10402 		rsb	r2, r3, #4
  91              		.loc 1 128 0
  92 001a 9140     		lsls	r1, r1, r2
  93              	.LVL4:
  94              		.loc 1 126 0
  95 001c 0F22     		movs	r2, #15
  96 001e DA40     		lsrs	r2, r2, r3
  97              		.loc 1 129 0
  98 0020 2240     		ands	r2, r2, r4
  99 0022 0A43     		orrs	r2, r2, r1
 100              	.LVL5:
 101              		.loc 1 132 0
 102 0024 0D4B     		ldr	r3, .L8+4
 103              	.LVL6:
 104 0026 0178     		ldrb	r1, [r0, #0]	@ zero_extendqisi2
 105              		.loc 1 130 0
 106 0028 1201     		lsls	r2, r2, #4
 107              	.LVL7:
 108              		.loc 1 132 0
 109 002a CB18     		adds	r3, r1, r3
 110 002c 83F80023 		strb	r2, [r3, #768]
ARM GAS  /tmp/ccNImEOL.s 			page 3


 111              		.loc 1 135 0
 112 0030 0378     		ldrb	r3, [r0, #0]	@ zero_extendqisi2
 113              		.loc 1 136 0
 114 0032 0122     		movs	r2, #1
 115              	.LVL8:
 116              		.loc 1 135 0
 117 0034 5909     		lsrs	r1, r3, #5
 118              		.loc 1 136 0
 119 0036 03F01F03 		and	r3, r3, #31
 120 003a 12FA03F3 		lsls	r3, r2, r3
 121 003e 07E0     		b	.L7
 122              	.LVL9:
 123              	.L5:
 124              		.loc 1 141 0
 125 0040 0378     		ldrb	r3, [r0, #0]	@ zero_extendqisi2
 126              		.loc 1 142 0
 127 0042 0122     		movs	r2, #1
 128              		.loc 1 141 0
 129 0044 5909     		lsrs	r1, r3, #5
 130              		.loc 1 142 0
 131 0046 03F01F03 		and	r3, r3, #31
 132 004a 12FA03F3 		lsls	r3, r2, r3
 133              		.loc 1 141 0
 134 004e 2031     		adds	r1, r1, #32
 135              	.LVL10:
 136              	.L7:
 137 0050 024A     		ldr	r2, .L8+4
 138 0052 42F82130 		str	r3, [r2, r1, lsl #2]
 139 0056 10BD     		pop	{r4, pc}
 140              	.L9:
 141              		.align	2
 142              	.L8:
 143 0058 00ED00E0 		.word	-536810240
 144 005c 00E100E0 		.word	-536813312
 145              		.cfi_endproc
 146              	.LFE56:
 147              		.size	NVIC_Init, .-NVIC_Init
 148              		.section	.text.NVIC_SetVectorTable,"ax",%progbits
 149              		.align	1
 150              		.global	NVIC_SetVectorTable
 151              		.thumb
 152              		.thumb_func
 153              		.type	NVIC_SetVectorTable, %function
 154              	NVIC_SetVectorTable:
 155              	.LFB57:
 156              		.loc 1 157 0
 157              		.cfi_startproc
 158              		@ args = 0, pretend = 0, frame = 0
 159              		@ frame_needed = 0, uses_anonymous_args = 0
 160              		@ link register save eliminated.
 161              	.LVL11:
 162              		.loc 1 162 0
 163 0000 21F06041 		bic	r1, r1, #-536870912
 164              	.LVL12:
 165 0004 21F07F01 		bic	r1, r1, #127
 166 0008 014B     		ldr	r3, .L11
 167 000a 0143     		orrs	r1, r1, r0
ARM GAS  /tmp/ccNImEOL.s 			page 4


 168 000c 9960     		str	r1, [r3, #8]
 169              		.loc 1 163 0
 170 000e 7047     		bx	lr
 171              	.L12:
 172              		.align	2
 173              	.L11:
 174 0010 00ED00E0 		.word	-536810240
 175              		.cfi_endproc
 176              	.LFE57:
 177              		.size	NVIC_SetVectorTable, .-NVIC_SetVectorTable
 178              		.section	.text.NVIC_SystemLPConfig,"ax",%progbits
 179              		.align	1
 180              		.global	NVIC_SystemLPConfig
 181              		.thumb
 182              		.thumb_func
 183              		.type	NVIC_SystemLPConfig, %function
 184              	NVIC_SystemLPConfig:
 185              	.LFB58:
 186              		.loc 1 176 0
 187              		.cfi_startproc
 188              		@ args = 0, pretend = 0, frame = 0
 189              		@ frame_needed = 0, uses_anonymous_args = 0
 190              		@ link register save eliminated.
 191              	.LVL13:
 192 0000 044B     		ldr	r3, .L17
 193              		.loc 1 181 0
 194 0002 11B1     		cbz	r1, .L14
 195              		.loc 1 183 0
 196 0004 1A69     		ldr	r2, [r3, #16]
 197 0006 1043     		orrs	r0, r0, r2
 198              	.LVL14:
 199 0008 02E0     		b	.L16
 200              	.LVL15:
 201              	.L14:
 202              		.loc 1 187 0
 203 000a 1A69     		ldr	r2, [r3, #16]
 204 000c 22EA0000 		bic	r0, r2, r0
 205              	.LVL16:
 206              	.L16:
 207 0010 1861     		str	r0, [r3, #16]
 208 0012 7047     		bx	lr
 209              	.L18:
 210              		.align	2
 211              	.L17:
 212 0014 00ED00E0 		.word	-536810240
 213              		.cfi_endproc
 214              	.LFE58:
 215              		.size	NVIC_SystemLPConfig, .-NVIC_SystemLPConfig
 216              		.section	.text.SysTick_CLKSourceConfig,"ax",%progbits
 217              		.align	1
 218              		.global	SysTick_CLKSourceConfig
 219              		.thumb
 220              		.thumb_func
 221              		.type	SysTick_CLKSourceConfig, %function
 222              	SysTick_CLKSourceConfig:
 223              	.LFB59:
 224              		.loc 1 200 0
ARM GAS  /tmp/ccNImEOL.s 			page 5


 225              		.cfi_startproc
 226              		@ args = 0, pretend = 0, frame = 0
 227              		@ frame_needed = 0, uses_anonymous_args = 0
 228              		@ link register save eliminated.
 229              	.LVL17:
 230 0000 044B     		ldr	r3, .L23
 231              		.loc 1 203 0
 232 0002 0428     		cmp	r0, #4
 233              		.loc 1 205 0
 234 0004 1A68     		ldr	r2, [r3, #0]
 235 0006 0CBF     		ite	eq
 236 0008 42F00402 		orreq	r2, r2, #4
 237              		.loc 1 209 0
 238 000c 22F00402 		bicne	r2, r2, #4
 239 0010 1A60     		str	r2, [r3, #0]
 240 0012 7047     		bx	lr
 241              	.L24:
 242              		.align	2
 243              	.L23:
 244 0014 10E000E0 		.word	-536813552
 245              		.cfi_endproc
 246              	.LFE59:
 247              		.size	SysTick_CLKSourceConfig, .-SysTick_CLKSourceConfig
 248              		.text
 249              	.Letext0:
 250              		.section	.debug_loc,"",%progbits
 251              	.Ldebug_loc0:
 252              	.LLST0:
 253 0000 00000000 		.4byte	.LVL0
 254 0004 04000000 		.4byte	.LVL1
 255 0008 0100     		.2byte	0x1
 256 000a 50       		.byte	0x50
 257 000b 00000000 		.4byte	0x0
 258 000f 00000000 		.4byte	0x0
 259              	.LLST1:
 260 0013 00000000 		.4byte	.LFB56
 261 0017 04000000 		.4byte	.LCFI0
 262 001b 0200     		.2byte	0x2
 263 001d 7D       		.byte	0x7d
 264 001e 00       		.sleb128 0
 265 001f 04000000 		.4byte	.LCFI0
 266 0023 60000000 		.4byte	.LFE56
 267 0027 0200     		.2byte	0x2
 268 0029 7D       		.byte	0x7d
 269 002a 08       		.sleb128 8
 270 002b 00000000 		.4byte	0x0
 271 002f 00000000 		.4byte	0x0
 272              	.LLST2:
 273 0033 00000000 		.4byte	.LVL2
 274 0037 16000000 		.4byte	.LVL3
 275 003b 0200     		.2byte	0x2
 276 003d 30       		.byte	0x30
 277 003e 9F       		.byte	0x9f
 278 003f 16000000 		.4byte	.LVL3
 279 0043 1C000000 		.4byte	.LVL4
 280 0047 0100     		.2byte	0x1
 281 0049 53       		.byte	0x53
ARM GAS  /tmp/ccNImEOL.s 			page 6


 282 004a 1C000000 		.4byte	.LVL4
 283 004e 24000000 		.4byte	.LVL5
 284 0052 0100     		.2byte	0x1
 285 0054 51       		.byte	0x51
 286 0055 24000000 		.4byte	.LVL5
 287 0059 2A000000 		.4byte	.LVL7
 288 005d 0500     		.2byte	0x5
 289 005f 72       		.byte	0x72
 290 0060 00       		.sleb128 0
 291 0061 34       		.byte	0x34
 292 0062 24       		.byte	0x24
 293 0063 9F       		.byte	0x9f
 294 0064 2A000000 		.4byte	.LVL7
 295 0068 34000000 		.4byte	.LVL8
 296 006c 0100     		.2byte	0x1
 297 006e 52       		.byte	0x52
 298 006f 40000000 		.4byte	.LVL9
 299 0073 50000000 		.4byte	.LVL10
 300 0077 0200     		.2byte	0x2
 301 0079 30       		.byte	0x30
 302 007a 9F       		.byte	0x9f
 303 007b 00000000 		.4byte	0x0
 304 007f 00000000 		.4byte	0x0
 305              	.LLST3:
 306 0083 00000000 		.4byte	.LVL2
 307 0087 16000000 		.4byte	.LVL3
 308 008b 0200     		.2byte	0x2
 309 008d 30       		.byte	0x30
 310 008e 9F       		.byte	0x9f
 311 008f 16000000 		.4byte	.LVL3
 312 0093 26000000 		.4byte	.LVL6
 313 0097 0500     		.2byte	0x5
 314 0099 34       		.byte	0x34
 315 009a 73       		.byte	0x73
 316 009b 00       		.sleb128 0
 317 009c 1C       		.byte	0x1c
 318 009d 9F       		.byte	0x9f
 319 009e 40000000 		.4byte	.LVL9
 320 00a2 50000000 		.4byte	.LVL10
 321 00a6 0200     		.2byte	0x2
 322 00a8 30       		.byte	0x30
 323 00a9 9F       		.byte	0x9f
 324 00aa 00000000 		.4byte	0x0
 325 00ae 00000000 		.4byte	0x0
 326              	.LLST4:
 327 00b2 00000000 		.4byte	.LVL2
 328 00b6 16000000 		.4byte	.LVL3
 329 00ba 0200     		.2byte	0x2
 330 00bc 3F       		.byte	0x3f
 331 00bd 9F       		.byte	0x9f
 332 00be 16000000 		.4byte	.LVL3
 333 00c2 26000000 		.4byte	.LVL6
 334 00c6 0500     		.2byte	0x5
 335 00c8 3F       		.byte	0x3f
 336 00c9 73       		.byte	0x73
 337 00ca 00       		.sleb128 0
 338 00cb 25       		.byte	0x25
ARM GAS  /tmp/ccNImEOL.s 			page 7


 339 00cc 9F       		.byte	0x9f
 340 00cd 40000000 		.4byte	.LVL9
 341 00d1 50000000 		.4byte	.LVL10
 342 00d5 0200     		.2byte	0x2
 343 00d7 3F       		.byte	0x3f
 344 00d8 9F       		.byte	0x9f
 345 00d9 00000000 		.4byte	0x0
 346 00dd 00000000 		.4byte	0x0
 347              	.LLST5:
 348 00e1 00000000 		.4byte	.LVL11
 349 00e5 04000000 		.4byte	.LVL12
 350 00e9 0100     		.2byte	0x1
 351 00eb 51       		.byte	0x51
 352 00ec 00000000 		.4byte	0x0
 353 00f0 00000000 		.4byte	0x0
 354              	.LLST6:
 355 00f4 00000000 		.4byte	.LVL13
 356 00f8 08000000 		.4byte	.LVL14
 357 00fc 0100     		.2byte	0x1
 358 00fe 50       		.byte	0x50
 359 00ff 0A000000 		.4byte	.LVL15
 360 0103 10000000 		.4byte	.LVL16
 361 0107 0100     		.2byte	0x1
 362 0109 50       		.byte	0x50
 363 010a 00000000 		.4byte	0x0
 364 010e 00000000 		.4byte	0x0
 365              		.file 2 "/home/z80/programs/code-sourcery/2011.03-42/bin/../lib/gcc/arm-none-eabi/4.5.2/../../../.
 366              		.file 3 "../chibios/os/ports/common/ARMCMx/CMSIS/include/core_cm3.h"
 367              		.file 4 "../chibios/os/hal/platforms/STM32F1xx/stm32f10x.h"
 368              		.file 5 "misc.h"
 369              		.section	.debug_info
 370 0000 92050000 		.4byte	0x592
 371 0004 0200     		.2byte	0x2
 372 0006 00000000 		.4byte	.Ldebug_abbrev0
 373 000a 04       		.byte	0x4
 374 000b 01       		.uleb128 0x1
 375 000c 9A020000 		.4byte	.LASF68
 376 0010 01       		.byte	0x1
 377 0011 08010000 		.4byte	.LASF69
 378 0015 E4020000 		.4byte	.LASF70
 379 0019 00000000 		.4byte	0x0
 380 001d 00000000 		.4byte	0x0
 381 0021 00000000 		.4byte	.Ldebug_ranges0+0x0
 382 0025 00000000 		.4byte	.Ldebug_line0
 383 0029 02       		.uleb128 0x2
 384 002a 01       		.byte	0x1
 385 002b 06       		.byte	0x6
 386 002c 45010000 		.4byte	.LASF0
 387 0030 03       		.uleb128 0x3
 388 0031 A2000000 		.4byte	.LASF4
 389 0035 02       		.byte	0x2
 390 0036 2A       		.byte	0x2a
 391 0037 3B000000 		.4byte	0x3b
 392 003b 02       		.uleb128 0x2
 393 003c 01       		.byte	0x1
 394 003d 08       		.byte	0x8
 395 003e 14010000 		.4byte	.LASF1
ARM GAS  /tmp/ccNImEOL.s 			page 8


 396 0042 02       		.uleb128 0x2
 397 0043 02       		.byte	0x2
 398 0044 05       		.byte	0x5
 399 0045 63000000 		.4byte	.LASF2
 400 0049 02       		.uleb128 0x2
 401 004a 02       		.byte	0x2
 402 004b 07       		.byte	0x7
 403 004c B9010000 		.4byte	.LASF3
 404 0050 03       		.uleb128 0x3
 405 0051 D8010000 		.4byte	.LASF5
 406 0055 02       		.byte	0x2
 407 0056 4F       		.byte	0x4f
 408 0057 5B000000 		.4byte	0x5b
 409 005b 02       		.uleb128 0x2
 410 005c 04       		.byte	0x4
 411 005d 05       		.byte	0x5
 412 005e FF000000 		.4byte	.LASF6
 413 0062 03       		.uleb128 0x3
 414 0063 68010000 		.4byte	.LASF7
 415 0067 02       		.byte	0x2
 416 0068 50       		.byte	0x50
 417 0069 6D000000 		.4byte	0x6d
 418 006d 02       		.uleb128 0x2
 419 006e 04       		.byte	0x4
 420 006f 07       		.byte	0x7
 421 0070 56020000 		.4byte	.LASF8
 422 0074 02       		.uleb128 0x2
 423 0075 08       		.byte	0x8
 424 0076 05       		.byte	0x5
 425 0077 E1000000 		.4byte	.LASF9
 426 007b 02       		.uleb128 0x2
 427 007c 08       		.byte	0x8
 428 007d 07       		.byte	0x7
 429 007e 51010000 		.4byte	.LASF10
 430 0082 04       		.uleb128 0x4
 431 0083 04       		.byte	0x4
 432 0084 05       		.byte	0x5
 433 0085 696E7400 		.ascii	"int\000"
 434 0089 02       		.uleb128 0x2
 435 008a 04       		.byte	0x4
 436 008b 07       		.byte	0x7
 437 008c 71010000 		.4byte	.LASF11
 438 0090 05       		.uleb128 0x5
 439 0091 040E     		.2byte	0xe04
 440 0093 03       		.byte	0x3
 441 0094 1201     		.2byte	0x112
 442 0096 68010000 		.4byte	0x168
 443 009a 06       		.uleb128 0x6
 444 009b 29020000 		.4byte	.LASF12
 445 009f 03       		.byte	0x3
 446 00a0 1401     		.2byte	0x114
 447 00a2 78010000 		.4byte	0x178
 448 00a6 02       		.byte	0x2
 449 00a7 23       		.byte	0x23
 450 00a8 00       		.uleb128 0x0
 451 00a9 06       		.uleb128 0x6
 452 00aa 98000000 		.4byte	.LASF13
ARM GAS  /tmp/ccNImEOL.s 			page 9


 453 00ae 03       		.byte	0x3
 454 00af 1501     		.2byte	0x115
 455 00b1 7D010000 		.4byte	0x17d
 456 00b5 02       		.byte	0x2
 457 00b6 23       		.byte	0x23
 458 00b7 20       		.uleb128 0x20
 459 00b8 06       		.uleb128 0x6
 460 00b9 1F020000 		.4byte	.LASF14
 461 00bd 03       		.byte	0x3
 462 00be 1601     		.2byte	0x116
 463 00c0 8D010000 		.4byte	0x18d
 464 00c4 03       		.byte	0x3
 465 00c5 23       		.byte	0x23
 466 00c6 8001     		.uleb128 0x80
 467 00c8 06       		.uleb128 0x6
 468 00c9 D8000000 		.4byte	.LASF15
 469 00cd 03       		.byte	0x3
 470 00ce 1701     		.2byte	0x117
 471 00d0 7D010000 		.4byte	0x17d
 472 00d4 03       		.byte	0x3
 473 00d5 23       		.byte	0x23
 474 00d6 A001     		.uleb128 0xa0
 475 00d8 06       		.uleb128 0x6
 476 00d9 E5010000 		.4byte	.LASF16
 477 00dd 03       		.byte	0x3
 478 00de 1801     		.2byte	0x118
 479 00e0 92010000 		.4byte	0x192
 480 00e4 03       		.byte	0x3
 481 00e5 23       		.byte	0x23
 482 00e6 8002     		.uleb128 0x100
 483 00e8 06       		.uleb128 0x6
 484 00e9 2E020000 		.4byte	.LASF17
 485 00ed 03       		.byte	0x3
 486 00ee 1901     		.2byte	0x119
 487 00f0 7D010000 		.4byte	0x17d
 488 00f4 03       		.byte	0x3
 489 00f5 23       		.byte	0x23
 490 00f6 A002     		.uleb128 0x120
 491 00f8 06       		.uleb128 0x6
 492 00f9 40010000 		.4byte	.LASF18
 493 00fd 03       		.byte	0x3
 494 00fe 1A01     		.2byte	0x11a
 495 0100 97010000 		.4byte	0x197
 496 0104 03       		.byte	0x3
 497 0105 23       		.byte	0x23
 498 0106 8003     		.uleb128 0x180
 499 0108 06       		.uleb128 0x6
 500 0109 38020000 		.4byte	.LASF19
 501 010d 03       		.byte	0x3
 502 010e 1B01     		.2byte	0x11b
 503 0110 7D010000 		.4byte	0x17d
 504 0114 03       		.byte	0x3
 505 0115 23       		.byte	0x23
 506 0116 A003     		.uleb128 0x1a0
 507 0118 06       		.uleb128 0x6
 508 0119 00000000 		.4byte	.LASF20
 509 011d 03       		.byte	0x3
ARM GAS  /tmp/ccNImEOL.s 			page 10


 510 011e 1C01     		.2byte	0x11c
 511 0120 9C010000 		.4byte	0x19c
 512 0124 03       		.byte	0x3
 513 0125 23       		.byte	0x23
 514 0126 8004     		.uleb128 0x200
 515 0128 06       		.uleb128 0x6
 516 0129 42020000 		.4byte	.LASF21
 517 012d 03       		.byte	0x3
 518 012e 1D01     		.2byte	0x11d
 519 0130 A1010000 		.4byte	0x1a1
 520 0134 03       		.byte	0x3
 521 0135 23       		.byte	0x23
 522 0136 A004     		.uleb128 0x220
 523 0138 07       		.uleb128 0x7
 524 0139 495000   		.ascii	"IP\000"
 525 013c 03       		.byte	0x3
 526 013d 1E01     		.2byte	0x11e
 527 013f C1010000 		.4byte	0x1c1
 528 0143 03       		.byte	0x3
 529 0144 23       		.byte	0x23
 530 0145 8006     		.uleb128 0x300
 531 0147 06       		.uleb128 0x6
 532 0148 4C020000 		.4byte	.LASF22
 533 014c 03       		.byte	0x3
 534 014d 1F01     		.2byte	0x11f
 535 014f C6010000 		.4byte	0x1c6
 536 0153 03       		.byte	0x3
 537 0154 23       		.byte	0x23
 538 0155 F007     		.uleb128 0x3f0
 539 0157 06       		.uleb128 0x6
 540 0158 C6000000 		.4byte	.LASF23
 541 015c 03       		.byte	0x3
 542 015d 2001     		.2byte	0x120
 543 015f D7010000 		.4byte	0x1d7
 544 0163 03       		.byte	0x3
 545 0164 23       		.byte	0x23
 546 0165 801C     		.uleb128 0xe00
 547 0167 00       		.byte	0x0
 548 0168 08       		.uleb128 0x8
 549 0169 62000000 		.4byte	0x62
 550 016d 78010000 		.4byte	0x178
 551 0171 09       		.uleb128 0x9
 552 0172 89000000 		.4byte	0x89
 553 0176 07       		.byte	0x7
 554 0177 00       		.byte	0x0
 555 0178 0A       		.uleb128 0xa
 556 0179 68010000 		.4byte	0x168
 557 017d 08       		.uleb128 0x8
 558 017e 62000000 		.4byte	0x62
 559 0182 8D010000 		.4byte	0x18d
 560 0186 09       		.uleb128 0x9
 561 0187 89000000 		.4byte	0x89
 562 018b 17       		.byte	0x17
 563 018c 00       		.byte	0x0
 564 018d 0A       		.uleb128 0xa
 565 018e 68010000 		.4byte	0x168
 566 0192 0A       		.uleb128 0xa
ARM GAS  /tmp/ccNImEOL.s 			page 11


 567 0193 68010000 		.4byte	0x168
 568 0197 0A       		.uleb128 0xa
 569 0198 68010000 		.4byte	0x168
 570 019c 0A       		.uleb128 0xa
 571 019d 68010000 		.4byte	0x168
 572 01a1 08       		.uleb128 0x8
 573 01a2 62000000 		.4byte	0x62
 574 01a6 B1010000 		.4byte	0x1b1
 575 01aa 09       		.uleb128 0x9
 576 01ab 89000000 		.4byte	0x89
 577 01af 37       		.byte	0x37
 578 01b0 00       		.byte	0x0
 579 01b1 08       		.uleb128 0x8
 580 01b2 30000000 		.4byte	0x30
 581 01b6 C1010000 		.4byte	0x1c1
 582 01ba 09       		.uleb128 0x9
 583 01bb 89000000 		.4byte	0x89
 584 01bf EF       		.byte	0xef
 585 01c0 00       		.byte	0x0
 586 01c1 0A       		.uleb128 0xa
 587 01c2 B1010000 		.4byte	0x1b1
 588 01c6 08       		.uleb128 0x8
 589 01c7 62000000 		.4byte	0x62
 590 01cb D7010000 		.4byte	0x1d7
 591 01cf 0B       		.uleb128 0xb
 592 01d0 89000000 		.4byte	0x89
 593 01d4 8302     		.2byte	0x283
 594 01d6 00       		.byte	0x0
 595 01d7 0A       		.uleb128 0xa
 596 01d8 62000000 		.4byte	0x62
 597 01dc 0C       		.uleb128 0xc
 598 01dd 36010000 		.4byte	.LASF24
 599 01e1 03       		.byte	0x3
 600 01e2 2101     		.2byte	0x121
 601 01e4 90000000 		.4byte	0x90
 602 01e8 0D       		.uleb128 0xd
 603 01e9 8C       		.byte	0x8c
 604 01ea 03       		.byte	0x3
 605 01eb 3201     		.2byte	0x132
 606 01ed 2E030000 		.4byte	0x32e
 607 01f1 06       		.uleb128 0x6
 608 01f2 92000000 		.4byte	.LASF25
 609 01f6 03       		.byte	0x3
 610 01f7 3401     		.2byte	0x134
 611 01f9 2E030000 		.4byte	0x32e
 612 01fd 02       		.byte	0x2
 613 01fe 23       		.byte	0x23
 614 01ff 00       		.uleb128 0x0
 615 0200 06       		.uleb128 0x6
 616 0201 D3000000 		.4byte	.LASF26
 617 0205 03       		.byte	0x3
 618 0206 3501     		.2byte	0x135
 619 0208 D7010000 		.4byte	0x1d7
 620 020c 02       		.byte	0x2
 621 020d 23       		.byte	0x23
 622 020e 04       		.uleb128 0x4
 623 020f 06       		.uleb128 0x6
ARM GAS  /tmp/ccNImEOL.s 			page 12


 624 0210 F5000000 		.4byte	.LASF27
 625 0214 03       		.byte	0x3
 626 0215 3601     		.2byte	0x136
 627 0217 D7010000 		.4byte	0x1d7
 628 021b 02       		.byte	0x2
 629 021c 23       		.byte	0x23
 630 021d 08       		.uleb128 0x8
 631 021e 06       		.uleb128 0x6
 632 021f 22010000 		.4byte	.LASF28
 633 0223 03       		.byte	0x3
 634 0224 3701     		.2byte	0x137
 635 0226 D7010000 		.4byte	0x1d7
 636 022a 02       		.byte	0x2
 637 022b 23       		.byte	0x23
 638 022c 0C       		.uleb128 0xc
 639 022d 07       		.uleb128 0x7
 640 022e 53435200 		.ascii	"SCR\000"
 641 0232 03       		.byte	0x3
 642 0233 3801     		.2byte	0x138
 643 0235 D7010000 		.4byte	0x1d7
 644 0239 02       		.byte	0x2
 645 023a 23       		.byte	0x23
 646 023b 10       		.uleb128 0x10
 647 023c 07       		.uleb128 0x7
 648 023d 43435200 		.ascii	"CCR\000"
 649 0241 03       		.byte	0x3
 650 0242 3901     		.2byte	0x139
 651 0244 D7010000 		.4byte	0x1d7
 652 0248 02       		.byte	0x2
 653 0249 23       		.byte	0x23
 654 024a 14       		.uleb128 0x14
 655 024b 07       		.uleb128 0x7
 656 024c 53485000 		.ascii	"SHP\000"
 657 0250 03       		.byte	0x3
 658 0251 3A01     		.2byte	0x13a
 659 0253 43030000 		.4byte	0x343
 660 0257 02       		.byte	0x2
 661 0258 23       		.byte	0x23
 662 0259 18       		.uleb128 0x18
 663 025a 06       		.uleb128 0x6
 664 025b 7E010000 		.4byte	.LASF29
 665 025f 03       		.byte	0x3
 666 0260 3B01     		.2byte	0x13b
 667 0262 D7010000 		.4byte	0x1d7
 668 0266 02       		.byte	0x2
 669 0267 23       		.byte	0x23
 670 0268 24       		.uleb128 0x24
 671 0269 06       		.uleb128 0x6
 672 026a 0F010000 		.4byte	.LASF30
 673 026e 03       		.byte	0x3
 674 026f 3C01     		.2byte	0x13c
 675 0271 D7010000 		.4byte	0x1d7
 676 0275 02       		.byte	0x2
 677 0276 23       		.byte	0x23
 678 0277 28       		.uleb128 0x28
 679 0278 06       		.uleb128 0x6
 680 0279 1A020000 		.4byte	.LASF31
ARM GAS  /tmp/ccNImEOL.s 			page 13


 681 027d 03       		.byte	0x3
 682 027e 3D01     		.2byte	0x13d
 683 0280 D7010000 		.4byte	0x1d7
 684 0284 02       		.byte	0x2
 685 0285 23       		.byte	0x23
 686 0286 2C       		.uleb128 0x2c
 687 0287 06       		.uleb128 0x6
 688 0288 EA010000 		.4byte	.LASF32
 689 028c 03       		.byte	0x3
 690 028d 3E01     		.2byte	0x13e
 691 028f D7010000 		.4byte	0x1d7
 692 0293 02       		.byte	0x2
 693 0294 23       		.byte	0x23
 694 0295 30       		.uleb128 0x30
 695 0296 06       		.uleb128 0x6
 696 0297 84010000 		.4byte	.LASF33
 697 029b 03       		.byte	0x3
 698 029c 3F01     		.2byte	0x13f
 699 029e D7010000 		.4byte	0x1d7
 700 02a2 02       		.byte	0x2
 701 02a3 23       		.byte	0x23
 702 02a4 34       		.uleb128 0x34
 703 02a5 06       		.uleb128 0x6
 704 02a6 FA000000 		.4byte	.LASF34
 705 02aa 03       		.byte	0x3
 706 02ab 4001     		.2byte	0x140
 707 02ad D7010000 		.4byte	0x1d7
 708 02b1 02       		.byte	0x2
 709 02b2 23       		.byte	0x23
 710 02b3 38       		.uleb128 0x38
 711 02b4 06       		.uleb128 0x6
 712 02b5 B8020000 		.4byte	.LASF35
 713 02b9 03       		.byte	0x3
 714 02ba 4101     		.2byte	0x141
 715 02bc D7010000 		.4byte	0x1d7
 716 02c0 02       		.byte	0x2
 717 02c1 23       		.byte	0x23
 718 02c2 3C       		.uleb128 0x3c
 719 02c3 07       		.uleb128 0x7
 720 02c4 50465200 		.ascii	"PFR\000"
 721 02c8 03       		.byte	0x3
 722 02c9 4201     		.2byte	0x142
 723 02cb 58030000 		.4byte	0x358
 724 02cf 02       		.byte	0x2
 725 02d0 23       		.byte	0x23
 726 02d1 40       		.uleb128 0x40
 727 02d2 07       		.uleb128 0x7
 728 02d3 44465200 		.ascii	"DFR\000"
 729 02d7 03       		.byte	0x3
 730 02d8 4301     		.2byte	0x143
 731 02da 2E030000 		.4byte	0x32e
 732 02de 02       		.byte	0x2
 733 02df 23       		.byte	0x23
 734 02e0 48       		.uleb128 0x48
 735 02e1 07       		.uleb128 0x7
 736 02e2 41445200 		.ascii	"ADR\000"
 737 02e6 03       		.byte	0x3
ARM GAS  /tmp/ccNImEOL.s 			page 14


 738 02e7 4401     		.2byte	0x144
 739 02e9 2E030000 		.4byte	0x32e
 740 02ed 02       		.byte	0x2
 741 02ee 23       		.byte	0x23
 742 02ef 4C       		.uleb128 0x4c
 743 02f0 06       		.uleb128 0x6
 744 02f1 24020000 		.4byte	.LASF36
 745 02f5 03       		.byte	0x3
 746 02f6 4501     		.2byte	0x145
 747 02f8 72030000 		.4byte	0x372
 748 02fc 02       		.byte	0x2
 749 02fd 23       		.byte	0x23
 750 02fe 50       		.uleb128 0x50
 751 02ff 06       		.uleb128 0x6
 752 0300 E0010000 		.4byte	.LASF37
 753 0304 03       		.byte	0x3
 754 0305 4601     		.2byte	0x146
 755 0307 8C030000 		.4byte	0x38c
 756 030b 02       		.byte	0x2
 757 030c 23       		.byte	0x23
 758 030d 60       		.uleb128 0x60
 759 030e 06       		.uleb128 0x6
 760 030f 98000000 		.4byte	.LASF13
 761 0313 03       		.byte	0x3
 762 0314 4701     		.2byte	0x147
 763 0316 7C030000 		.4byte	0x37c
 764 031a 02       		.byte	0x2
 765 031b 23       		.byte	0x23
 766 031c 74       		.uleb128 0x74
 767 031d 06       		.uleb128 0x6
 768 031e D7020000 		.4byte	.LASF38
 769 0322 03       		.byte	0x3
 770 0323 4801     		.2byte	0x148
 771 0325 D7010000 		.4byte	0x1d7
 772 0329 03       		.byte	0x3
 773 032a 23       		.byte	0x23
 774 032b 8801     		.uleb128 0x88
 775 032d 00       		.byte	0x0
 776 032e 0E       		.uleb128 0xe
 777 032f D7010000 		.4byte	0x1d7
 778 0333 08       		.uleb128 0x8
 779 0334 30000000 		.4byte	0x30
 780 0338 43030000 		.4byte	0x343
 781 033c 09       		.uleb128 0x9
 782 033d 89000000 		.4byte	0x89
 783 0341 0B       		.byte	0xb
 784 0342 00       		.byte	0x0
 785 0343 0A       		.uleb128 0xa
 786 0344 33030000 		.4byte	0x333
 787 0348 08       		.uleb128 0x8
 788 0349 62000000 		.4byte	0x62
 789 034d 58030000 		.4byte	0x358
 790 0351 09       		.uleb128 0x9
 791 0352 89000000 		.4byte	0x89
 792 0356 01       		.byte	0x1
 793 0357 00       		.byte	0x0
 794 0358 0E       		.uleb128 0xe
ARM GAS  /tmp/ccNImEOL.s 			page 15


 795 0359 5D030000 		.4byte	0x35d
 796 035d 0A       		.uleb128 0xa
 797 035e 48030000 		.4byte	0x348
 798 0362 08       		.uleb128 0x8
 799 0363 62000000 		.4byte	0x62
 800 0367 72030000 		.4byte	0x372
 801 036b 09       		.uleb128 0x9
 802 036c 89000000 		.4byte	0x89
 803 0370 03       		.byte	0x3
 804 0371 00       		.byte	0x0
 805 0372 0E       		.uleb128 0xe
 806 0373 77030000 		.4byte	0x377
 807 0377 0A       		.uleb128 0xa
 808 0378 62030000 		.4byte	0x362
 809 037c 08       		.uleb128 0x8
 810 037d 62000000 		.4byte	0x62
 811 0381 8C030000 		.4byte	0x38c
 812 0385 09       		.uleb128 0x9
 813 0386 89000000 		.4byte	0x89
 814 038a 04       		.byte	0x4
 815 038b 00       		.byte	0x0
 816 038c 0E       		.uleb128 0xe
 817 038d 91030000 		.4byte	0x391
 818 0391 0A       		.uleb128 0xa
 819 0392 7C030000 		.4byte	0x37c
 820 0396 0C       		.uleb128 0xc
 821 0397 28010000 		.4byte	.LASF39
 822 039b 03       		.byte	0x3
 823 039c 4901     		.2byte	0x149
 824 039e E8010000 		.4byte	0x1e8
 825 03a2 0D       		.uleb128 0xd
 826 03a3 10       		.byte	0x10
 827 03a4 03       		.byte	0x3
 828 03a5 3802     		.2byte	0x238
 829 03a7 E8030000 		.4byte	0x3e8
 830 03ab 06       		.uleb128 0x6
 831 03ac 31010000 		.4byte	.LASF40
 832 03b0 03       		.byte	0x3
 833 03b1 3A02     		.2byte	0x23a
 834 03b3 D7010000 		.4byte	0x1d7
 835 03b7 02       		.byte	0x2
 836 03b8 23       		.byte	0x23
 837 03b9 00       		.uleb128 0x0
 838 03ba 06       		.uleb128 0x6
 839 03bb B3020000 		.4byte	.LASF41
 840 03bf 03       		.byte	0x3
 841 03c0 3B02     		.2byte	0x23b
 842 03c2 D7010000 		.4byte	0x1d7
 843 03c6 02       		.byte	0x2
 844 03c7 23       		.byte	0x23
 845 03c8 04       		.uleb128 0x4
 846 03c9 07       		.uleb128 0x7
 847 03ca 56414C00 		.ascii	"VAL\000"
 848 03ce 03       		.byte	0x3
 849 03cf 3C02     		.2byte	0x23c
 850 03d1 D7010000 		.4byte	0x1d7
 851 03d5 02       		.byte	0x2
ARM GAS  /tmp/ccNImEOL.s 			page 16


 852 03d6 23       		.byte	0x23
 853 03d7 08       		.uleb128 0x8
 854 03d8 06       		.uleb128 0x6
 855 03d9 EF000000 		.4byte	.LASF42
 856 03dd 03       		.byte	0x3
 857 03de 3D02     		.2byte	0x23d
 858 03e0 2E030000 		.4byte	0x32e
 859 03e4 02       		.byte	0x2
 860 03e5 23       		.byte	0x23
 861 03e6 0C       		.uleb128 0xc
 862 03e7 00       		.byte	0x0
 863 03e8 0C       		.uleb128 0xc
 864 03e9 AC010000 		.4byte	.LASF43
 865 03ed 03       		.byte	0x3
 866 03ee 3E02     		.2byte	0x23e
 867 03f0 A2030000 		.4byte	0x3a2
 868 03f4 0A       		.uleb128 0xa
 869 03f5 50000000 		.4byte	0x50
 870 03f9 0F       		.uleb128 0xf
 871 03fa 01       		.byte	0x1
 872 03fb 04       		.byte	0x4
 873 03fc 1802     		.2byte	0x218
 874 03fe 0F040000 		.4byte	0x40f
 875 0402 10       		.uleb128 0x10
 876 0403 CB000000 		.4byte	.LASF44
 877 0407 00       		.sleb128 0
 878 0408 10       		.uleb128 0x10
 879 0409 DD020000 		.4byte	.LASF45
 880 040d 01       		.sleb128 1
 881 040e 00       		.byte	0x0
 882 040f 0C       		.uleb128 0xc
 883 0410 8A020000 		.4byte	.LASF46
 884 0414 04       		.byte	0x4
 885 0415 1802     		.2byte	0x218
 886 0417 F9030000 		.4byte	0x3f9
 887 041b 11       		.uleb128 0x11
 888 041c 04       		.byte	0x4
 889 041d 05       		.byte	0x5
 890 041e 32       		.byte	0x32
 891 041f 5C040000 		.4byte	0x45c
 892 0423 12       		.uleb128 0x12
 893 0424 EF010000 		.4byte	.LASF47
 894 0428 05       		.byte	0x5
 895 0429 34       		.byte	0x34
 896 042a 30000000 		.4byte	0x30
 897 042e 02       		.byte	0x2
 898 042f 23       		.byte	0x23
 899 0430 00       		.uleb128 0x0
 900 0431 12       		.uleb128 0x12
 901 0432 68020000 		.4byte	.LASF48
 902 0436 05       		.byte	0x5
 903 0437 39       		.byte	0x39
 904 0438 30000000 		.4byte	0x30
 905 043c 02       		.byte	0x2
 906 043d 23       		.byte	0x23
 907 043e 01       		.uleb128 0x1
 908 043f 12       		.uleb128 0x12
ARM GAS  /tmp/ccNImEOL.s 			page 17


 909 0440 FF010000 		.4byte	.LASF49
 910 0444 05       		.byte	0x5
 911 0445 3D       		.byte	0x3d
 912 0446 30000000 		.4byte	0x30
 913 044a 02       		.byte	0x2
 914 044b 23       		.byte	0x23
 915 044c 02       		.uleb128 0x2
 916 044d 12       		.uleb128 0x12
 917 044e 16000000 		.4byte	.LASF50
 918 0452 05       		.byte	0x5
 919 0453 41       		.byte	0x41
 920 0454 0F040000 		.4byte	0x40f
 921 0458 02       		.byte	0x2
 922 0459 23       		.byte	0x23
 923 045a 03       		.uleb128 0x3
 924 045b 00       		.byte	0x0
 925 045c 03       		.uleb128 0x3
 926 045d 05000000 		.4byte	.LASF51
 927 0461 05       		.byte	0x5
 928 0462 44       		.byte	0x44
 929 0463 1B040000 		.4byte	0x41b
 930 0467 13       		.uleb128 0x13
 931 0468 01       		.byte	0x1
 932 0469 1A030000 		.4byte	.LASF52
 933 046d 01       		.byte	0x1
 934 046e 60       		.byte	0x60
 935 046f 01       		.byte	0x1
 936 0470 00000000 		.4byte	.LFB55
 937 0474 14000000 		.4byte	.LFE55
 938 0478 02       		.byte	0x2
 939 0479 7D       		.byte	0x7d
 940 047a 00       		.sleb128 0
 941 047b 8F040000 		.4byte	0x48f
 942 047f 14       		.uleb128 0x14
 943 0480 AA000000 		.4byte	.LASF54
 944 0484 01       		.byte	0x1
 945 0485 60       		.byte	0x60
 946 0486 62000000 		.4byte	0x62
 947 048a 00000000 		.4byte	.LLST0
 948 048e 00       		.byte	0x0
 949 048f 15       		.uleb128 0x15
 950 0490 01       		.byte	0x1
 951 0491 81000000 		.4byte	.LASF53
 952 0495 01       		.byte	0x1
 953 0496 70       		.byte	0x70
 954 0497 01       		.byte	0x1
 955 0498 00000000 		.4byte	.LFB56
 956 049c 60000000 		.4byte	.LFE56
 957 04a0 13000000 		.4byte	.LLST1
 958 04a4 E3040000 		.4byte	0x4e3
 959 04a8 16       		.uleb128 0x16
 960 04a9 3B000000 		.4byte	.LASF55
 961 04ad 01       		.byte	0x1
 962 04ae 70       		.byte	0x70
 963 04af E3040000 		.4byte	0x4e3
 964 04b3 01       		.byte	0x1
 965 04b4 50       		.byte	0x50
ARM GAS  /tmp/ccNImEOL.s 			page 18


 966 04b5 17       		.uleb128 0x17
 967 04b6 CC010000 		.4byte	.LASF56
 968 04ba 01       		.byte	0x1
 969 04bb 72       		.byte	0x72
 970 04bc 62000000 		.4byte	0x62
 971 04c0 33000000 		.4byte	.LLST2
 972 04c4 17       		.uleb128 0x17
 973 04c5 8B000000 		.4byte	.LASF57
 974 04c9 01       		.byte	0x1
 975 04ca 72       		.byte	0x72
 976 04cb 62000000 		.4byte	0x62
 977 04cf 83000000 		.4byte	.LLST3
 978 04d3 17       		.uleb128 0x17
 979 04d4 8A010000 		.4byte	.LASF58
 980 04d8 01       		.byte	0x1
 981 04d9 72       		.byte	0x72
 982 04da 62000000 		.4byte	0x62
 983 04de B2000000 		.4byte	.LLST4
 984 04e2 00       		.byte	0x0
 985 04e3 18       		.uleb128 0x18
 986 04e4 04       		.byte	0x4
 987 04e5 5C040000 		.4byte	0x45c
 988 04e9 13       		.uleb128 0x13
 989 04ea 01       		.byte	0x1
 990 04eb 6D000000 		.4byte	.LASF59
 991 04ef 01       		.byte	0x1
 992 04f0 9C       		.byte	0x9c
 993 04f1 01       		.byte	0x1
 994 04f2 00000000 		.4byte	.LFB57
 995 04f6 14000000 		.4byte	.LFE57
 996 04fa 02       		.byte	0x2
 997 04fb 7D       		.byte	0x7d
 998 04fc 00       		.sleb128 0
 999 04fd 1E050000 		.4byte	0x51e
 1000 0501 16       		.uleb128 0x16
 1001 0502 A6020000 		.4byte	.LASF60
 1002 0506 01       		.byte	0x1
 1003 0507 9C       		.byte	0x9c
 1004 0508 62000000 		.4byte	0x62
 1005 050c 01       		.byte	0x1
 1006 050d 50       		.byte	0x50
 1007 050e 14       		.uleb128 0x14
 1008 050f A5010000 		.4byte	.LASF61
 1009 0513 01       		.byte	0x1
 1010 0514 9C       		.byte	0x9c
 1011 0515 62000000 		.4byte	0x62
 1012 0519 E1000000 		.4byte	.LLST5
 1013 051d 00       		.byte	0x0
 1014 051e 13       		.uleb128 0x13
 1015 051f 01       		.byte	0x1
 1016 0520 91010000 		.4byte	.LASF62
 1017 0524 01       		.byte	0x1
 1018 0525 AF       		.byte	0xaf
 1019 0526 01       		.byte	0x1
 1020 0527 00000000 		.4byte	.LFB58
 1021 052b 18000000 		.4byte	.LFE58
 1022 052f 02       		.byte	0x2
ARM GAS  /tmp/ccNImEOL.s 			page 19


 1023 0530 7D       		.byte	0x7d
 1024 0531 00       		.sleb128 0
 1025 0532 53050000 		.4byte	0x553
 1026 0536 14       		.uleb128 0x14
 1027 0537 BD020000 		.4byte	.LASF63
 1028 053b 01       		.byte	0x1
 1029 053c AF       		.byte	0xaf
 1030 053d 30000000 		.4byte	0x30
 1031 0541 F4000000 		.4byte	.LLST6
 1032 0545 16       		.uleb128 0x16
 1033 0546 BD000000 		.4byte	.LASF64
 1034 054a 01       		.byte	0x1
 1035 054b AF       		.byte	0xaf
 1036 054c 0F040000 		.4byte	0x40f
 1037 0550 01       		.byte	0x1
 1038 0551 51       		.byte	0x51
 1039 0552 00       		.byte	0x0
 1040 0553 13       		.uleb128 0x13
 1041 0554 01       		.byte	0x1
 1042 0555 4B000000 		.4byte	.LASF65
 1043 0559 01       		.byte	0x1
 1044 055a C7       		.byte	0xc7
 1045 055b 01       		.byte	0x1
 1046 055c 00000000 		.4byte	.LFB59
 1047 0560 18000000 		.4byte	.LFE59
 1048 0564 02       		.byte	0x2
 1049 0565 7D       		.byte	0x7d
 1050 0566 00       		.sleb128 0
 1051 0567 79050000 		.4byte	0x579
 1052 056b 16       		.uleb128 0x16
 1053 056c 29000000 		.4byte	.LASF66
 1054 0570 01       		.byte	0x1
 1055 0571 C7       		.byte	0xc7
 1056 0572 62000000 		.4byte	0x62
 1057 0576 01       		.byte	0x1
 1058 0577 50       		.byte	0x50
 1059 0578 00       		.byte	0x0
 1060 0579 19       		.uleb128 0x19
 1061 057a CA020000 		.4byte	.LASF67
 1062 057e 03       		.byte	0x3
 1063 057f 9404     		.2byte	0x494
 1064 0581 F4030000 		.4byte	0x3f4
 1065 0585 01       		.byte	0x1
 1066 0586 01       		.byte	0x1
 1067 0587 19       		.uleb128 0x19
 1068 0588 CA020000 		.4byte	.LASF67
 1069 058c 03       		.byte	0x3
 1070 058d 9404     		.2byte	0x494
 1071 058f F4030000 		.4byte	0x3f4
 1072 0593 01       		.byte	0x1
 1073 0594 01       		.byte	0x1
 1074 0595 00       		.byte	0x0
 1075              		.section	.debug_abbrev
 1076 0000 01       		.uleb128 0x1
 1077 0001 11       		.uleb128 0x11
 1078 0002 01       		.byte	0x1
 1079 0003 25       		.uleb128 0x25
ARM GAS  /tmp/ccNImEOL.s 			page 20


 1080 0004 0E       		.uleb128 0xe
 1081 0005 13       		.uleb128 0x13
 1082 0006 0B       		.uleb128 0xb
 1083 0007 03       		.uleb128 0x3
 1084 0008 0E       		.uleb128 0xe
 1085 0009 1B       		.uleb128 0x1b
 1086 000a 0E       		.uleb128 0xe
 1087 000b 11       		.uleb128 0x11
 1088 000c 01       		.uleb128 0x1
 1089 000d 52       		.uleb128 0x52
 1090 000e 01       		.uleb128 0x1
 1091 000f 55       		.uleb128 0x55
 1092 0010 06       		.uleb128 0x6
 1093 0011 10       		.uleb128 0x10
 1094 0012 06       		.uleb128 0x6
 1095 0013 00       		.byte	0x0
 1096 0014 00       		.byte	0x0
 1097 0015 02       		.uleb128 0x2
 1098 0016 24       		.uleb128 0x24
 1099 0017 00       		.byte	0x0
 1100 0018 0B       		.uleb128 0xb
 1101 0019 0B       		.uleb128 0xb
 1102 001a 3E       		.uleb128 0x3e
 1103 001b 0B       		.uleb128 0xb
 1104 001c 03       		.uleb128 0x3
 1105 001d 0E       		.uleb128 0xe
 1106 001e 00       		.byte	0x0
 1107 001f 00       		.byte	0x0
 1108 0020 03       		.uleb128 0x3
 1109 0021 16       		.uleb128 0x16
 1110 0022 00       		.byte	0x0
 1111 0023 03       		.uleb128 0x3
 1112 0024 0E       		.uleb128 0xe
 1113 0025 3A       		.uleb128 0x3a
 1114 0026 0B       		.uleb128 0xb
 1115 0027 3B       		.uleb128 0x3b
 1116 0028 0B       		.uleb128 0xb
 1117 0029 49       		.uleb128 0x49
 1118 002a 13       		.uleb128 0x13
 1119 002b 00       		.byte	0x0
 1120 002c 00       		.byte	0x0
 1121 002d 04       		.uleb128 0x4
 1122 002e 24       		.uleb128 0x24
 1123 002f 00       		.byte	0x0
 1124 0030 0B       		.uleb128 0xb
 1125 0031 0B       		.uleb128 0xb
 1126 0032 3E       		.uleb128 0x3e
 1127 0033 0B       		.uleb128 0xb
 1128 0034 03       		.uleb128 0x3
 1129 0035 08       		.uleb128 0x8
 1130 0036 00       		.byte	0x0
 1131 0037 00       		.byte	0x0
 1132 0038 05       		.uleb128 0x5
 1133 0039 13       		.uleb128 0x13
 1134 003a 01       		.byte	0x1
 1135 003b 0B       		.uleb128 0xb
 1136 003c 05       		.uleb128 0x5
ARM GAS  /tmp/ccNImEOL.s 			page 21


 1137 003d 3A       		.uleb128 0x3a
 1138 003e 0B       		.uleb128 0xb
 1139 003f 3B       		.uleb128 0x3b
 1140 0040 05       		.uleb128 0x5
 1141 0041 01       		.uleb128 0x1
 1142 0042 13       		.uleb128 0x13
 1143 0043 00       		.byte	0x0
 1144 0044 00       		.byte	0x0
 1145 0045 06       		.uleb128 0x6
 1146 0046 0D       		.uleb128 0xd
 1147 0047 00       		.byte	0x0
 1148 0048 03       		.uleb128 0x3
 1149 0049 0E       		.uleb128 0xe
 1150 004a 3A       		.uleb128 0x3a
 1151 004b 0B       		.uleb128 0xb
 1152 004c 3B       		.uleb128 0x3b
 1153 004d 05       		.uleb128 0x5
 1154 004e 49       		.uleb128 0x49
 1155 004f 13       		.uleb128 0x13
 1156 0050 38       		.uleb128 0x38
 1157 0051 0A       		.uleb128 0xa
 1158 0052 00       		.byte	0x0
 1159 0053 00       		.byte	0x0
 1160 0054 07       		.uleb128 0x7
 1161 0055 0D       		.uleb128 0xd
 1162 0056 00       		.byte	0x0
 1163 0057 03       		.uleb128 0x3
 1164 0058 08       		.uleb128 0x8
 1165 0059 3A       		.uleb128 0x3a
 1166 005a 0B       		.uleb128 0xb
 1167 005b 3B       		.uleb128 0x3b
 1168 005c 05       		.uleb128 0x5
 1169 005d 49       		.uleb128 0x49
 1170 005e 13       		.uleb128 0x13
 1171 005f 38       		.uleb128 0x38
 1172 0060 0A       		.uleb128 0xa
 1173 0061 00       		.byte	0x0
 1174 0062 00       		.byte	0x0
 1175 0063 08       		.uleb128 0x8
 1176 0064 01       		.uleb128 0x1
 1177 0065 01       		.byte	0x1
 1178 0066 49       		.uleb128 0x49
 1179 0067 13       		.uleb128 0x13
 1180 0068 01       		.uleb128 0x1
 1181 0069 13       		.uleb128 0x13
 1182 006a 00       		.byte	0x0
 1183 006b 00       		.byte	0x0
 1184 006c 09       		.uleb128 0x9
 1185 006d 21       		.uleb128 0x21
 1186 006e 00       		.byte	0x0
 1187 006f 49       		.uleb128 0x49
 1188 0070 13       		.uleb128 0x13
 1189 0071 2F       		.uleb128 0x2f
 1190 0072 0B       		.uleb128 0xb
 1191 0073 00       		.byte	0x0
 1192 0074 00       		.byte	0x0
 1193 0075 0A       		.uleb128 0xa
ARM GAS  /tmp/ccNImEOL.s 			page 22


 1194 0076 35       		.uleb128 0x35
 1195 0077 00       		.byte	0x0
 1196 0078 49       		.uleb128 0x49
 1197 0079 13       		.uleb128 0x13
 1198 007a 00       		.byte	0x0
 1199 007b 00       		.byte	0x0
 1200 007c 0B       		.uleb128 0xb
 1201 007d 21       		.uleb128 0x21
 1202 007e 00       		.byte	0x0
 1203 007f 49       		.uleb128 0x49
 1204 0080 13       		.uleb128 0x13
 1205 0081 2F       		.uleb128 0x2f
 1206 0082 05       		.uleb128 0x5
 1207 0083 00       		.byte	0x0
 1208 0084 00       		.byte	0x0
 1209 0085 0C       		.uleb128 0xc
 1210 0086 16       		.uleb128 0x16
 1211 0087 00       		.byte	0x0
 1212 0088 03       		.uleb128 0x3
 1213 0089 0E       		.uleb128 0xe
 1214 008a 3A       		.uleb128 0x3a
 1215 008b 0B       		.uleb128 0xb
 1216 008c 3B       		.uleb128 0x3b
 1217 008d 05       		.uleb128 0x5
 1218 008e 49       		.uleb128 0x49
 1219 008f 13       		.uleb128 0x13
 1220 0090 00       		.byte	0x0
 1221 0091 00       		.byte	0x0
 1222 0092 0D       		.uleb128 0xd
 1223 0093 13       		.uleb128 0x13
 1224 0094 01       		.byte	0x1
 1225 0095 0B       		.uleb128 0xb
 1226 0096 0B       		.uleb128 0xb
 1227 0097 3A       		.uleb128 0x3a
 1228 0098 0B       		.uleb128 0xb
 1229 0099 3B       		.uleb128 0x3b
 1230 009a 05       		.uleb128 0x5
 1231 009b 01       		.uleb128 0x1
 1232 009c 13       		.uleb128 0x13
 1233 009d 00       		.byte	0x0
 1234 009e 00       		.byte	0x0
 1235 009f 0E       		.uleb128 0xe
 1236 00a0 26       		.uleb128 0x26
 1237 00a1 00       		.byte	0x0
 1238 00a2 49       		.uleb128 0x49
 1239 00a3 13       		.uleb128 0x13
 1240 00a4 00       		.byte	0x0
 1241 00a5 00       		.byte	0x0
 1242 00a6 0F       		.uleb128 0xf
 1243 00a7 04       		.uleb128 0x4
 1244 00a8 01       		.byte	0x1
 1245 00a9 0B       		.uleb128 0xb
 1246 00aa 0B       		.uleb128 0xb
 1247 00ab 3A       		.uleb128 0x3a
 1248 00ac 0B       		.uleb128 0xb
 1249 00ad 3B       		.uleb128 0x3b
 1250 00ae 05       		.uleb128 0x5
ARM GAS  /tmp/ccNImEOL.s 			page 23


 1251 00af 01       		.uleb128 0x1
 1252 00b0 13       		.uleb128 0x13
 1253 00b1 00       		.byte	0x0
 1254 00b2 00       		.byte	0x0
 1255 00b3 10       		.uleb128 0x10
 1256 00b4 28       		.uleb128 0x28
 1257 00b5 00       		.byte	0x0
 1258 00b6 03       		.uleb128 0x3
 1259 00b7 0E       		.uleb128 0xe
 1260 00b8 1C       		.uleb128 0x1c
 1261 00b9 0D       		.uleb128 0xd
 1262 00ba 00       		.byte	0x0
 1263 00bb 00       		.byte	0x0
 1264 00bc 11       		.uleb128 0x11
 1265 00bd 13       		.uleb128 0x13
 1266 00be 01       		.byte	0x1
 1267 00bf 0B       		.uleb128 0xb
 1268 00c0 0B       		.uleb128 0xb
 1269 00c1 3A       		.uleb128 0x3a
 1270 00c2 0B       		.uleb128 0xb
 1271 00c3 3B       		.uleb128 0x3b
 1272 00c4 0B       		.uleb128 0xb
 1273 00c5 01       		.uleb128 0x1
 1274 00c6 13       		.uleb128 0x13
 1275 00c7 00       		.byte	0x0
 1276 00c8 00       		.byte	0x0
 1277 00c9 12       		.uleb128 0x12
 1278 00ca 0D       		.uleb128 0xd
 1279 00cb 00       		.byte	0x0
 1280 00cc 03       		.uleb128 0x3
 1281 00cd 0E       		.uleb128 0xe
 1282 00ce 3A       		.uleb128 0x3a
 1283 00cf 0B       		.uleb128 0xb
 1284 00d0 3B       		.uleb128 0x3b
 1285 00d1 0B       		.uleb128 0xb
 1286 00d2 49       		.uleb128 0x49
 1287 00d3 13       		.uleb128 0x13
 1288 00d4 38       		.uleb128 0x38
 1289 00d5 0A       		.uleb128 0xa
 1290 00d6 00       		.byte	0x0
 1291 00d7 00       		.byte	0x0
 1292 00d8 13       		.uleb128 0x13
 1293 00d9 2E       		.uleb128 0x2e
 1294 00da 01       		.byte	0x1
 1295 00db 3F       		.uleb128 0x3f
 1296 00dc 0C       		.uleb128 0xc
 1297 00dd 03       		.uleb128 0x3
 1298 00de 0E       		.uleb128 0xe
 1299 00df 3A       		.uleb128 0x3a
 1300 00e0 0B       		.uleb128 0xb
 1301 00e1 3B       		.uleb128 0x3b
 1302 00e2 0B       		.uleb128 0xb
 1303 00e3 27       		.uleb128 0x27
 1304 00e4 0C       		.uleb128 0xc
 1305 00e5 11       		.uleb128 0x11
 1306 00e6 01       		.uleb128 0x1
 1307 00e7 12       		.uleb128 0x12
ARM GAS  /tmp/ccNImEOL.s 			page 24


 1308 00e8 01       		.uleb128 0x1
 1309 00e9 40       		.uleb128 0x40
 1310 00ea 0A       		.uleb128 0xa
 1311 00eb 01       		.uleb128 0x1
 1312 00ec 13       		.uleb128 0x13
 1313 00ed 00       		.byte	0x0
 1314 00ee 00       		.byte	0x0
 1315 00ef 14       		.uleb128 0x14
 1316 00f0 05       		.uleb128 0x5
 1317 00f1 00       		.byte	0x0
 1318 00f2 03       		.uleb128 0x3
 1319 00f3 0E       		.uleb128 0xe
 1320 00f4 3A       		.uleb128 0x3a
 1321 00f5 0B       		.uleb128 0xb
 1322 00f6 3B       		.uleb128 0x3b
 1323 00f7 0B       		.uleb128 0xb
 1324 00f8 49       		.uleb128 0x49
 1325 00f9 13       		.uleb128 0x13
 1326 00fa 02       		.uleb128 0x2
 1327 00fb 06       		.uleb128 0x6
 1328 00fc 00       		.byte	0x0
 1329 00fd 00       		.byte	0x0
 1330 00fe 15       		.uleb128 0x15
 1331 00ff 2E       		.uleb128 0x2e
 1332 0100 01       		.byte	0x1
 1333 0101 3F       		.uleb128 0x3f
 1334 0102 0C       		.uleb128 0xc
 1335 0103 03       		.uleb128 0x3
 1336 0104 0E       		.uleb128 0xe
 1337 0105 3A       		.uleb128 0x3a
 1338 0106 0B       		.uleb128 0xb
 1339 0107 3B       		.uleb128 0x3b
 1340 0108 0B       		.uleb128 0xb
 1341 0109 27       		.uleb128 0x27
 1342 010a 0C       		.uleb128 0xc
 1343 010b 11       		.uleb128 0x11
 1344 010c 01       		.uleb128 0x1
 1345 010d 12       		.uleb128 0x12
 1346 010e 01       		.uleb128 0x1
 1347 010f 40       		.uleb128 0x40
 1348 0110 06       		.uleb128 0x6
 1349 0111 01       		.uleb128 0x1
 1350 0112 13       		.uleb128 0x13
 1351 0113 00       		.byte	0x0
 1352 0114 00       		.byte	0x0
 1353 0115 16       		.uleb128 0x16
 1354 0116 05       		.uleb128 0x5
 1355 0117 00       		.byte	0x0
 1356 0118 03       		.uleb128 0x3
 1357 0119 0E       		.uleb128 0xe
 1358 011a 3A       		.uleb128 0x3a
 1359 011b 0B       		.uleb128 0xb
 1360 011c 3B       		.uleb128 0x3b
 1361 011d 0B       		.uleb128 0xb
 1362 011e 49       		.uleb128 0x49
 1363 011f 13       		.uleb128 0x13
 1364 0120 02       		.uleb128 0x2
ARM GAS  /tmp/ccNImEOL.s 			page 25


 1365 0121 0A       		.uleb128 0xa
 1366 0122 00       		.byte	0x0
 1367 0123 00       		.byte	0x0
 1368 0124 17       		.uleb128 0x17
 1369 0125 34       		.uleb128 0x34
 1370 0126 00       		.byte	0x0
 1371 0127 03       		.uleb128 0x3
 1372 0128 0E       		.uleb128 0xe
 1373 0129 3A       		.uleb128 0x3a
 1374 012a 0B       		.uleb128 0xb
 1375 012b 3B       		.uleb128 0x3b
 1376 012c 0B       		.uleb128 0xb
 1377 012d 49       		.uleb128 0x49
 1378 012e 13       		.uleb128 0x13
 1379 012f 02       		.uleb128 0x2
 1380 0130 06       		.uleb128 0x6
 1381 0131 00       		.byte	0x0
 1382 0132 00       		.byte	0x0
 1383 0133 18       		.uleb128 0x18
 1384 0134 0F       		.uleb128 0xf
 1385 0135 00       		.byte	0x0
 1386 0136 0B       		.uleb128 0xb
 1387 0137 0B       		.uleb128 0xb
 1388 0138 49       		.uleb128 0x49
 1389 0139 13       		.uleb128 0x13
 1390 013a 00       		.byte	0x0
 1391 013b 00       		.byte	0x0
 1392 013c 19       		.uleb128 0x19
 1393 013d 34       		.uleb128 0x34
 1394 013e 00       		.byte	0x0
 1395 013f 03       		.uleb128 0x3
 1396 0140 0E       		.uleb128 0xe
 1397 0141 3A       		.uleb128 0x3a
 1398 0142 0B       		.uleb128 0xb
 1399 0143 3B       		.uleb128 0x3b
 1400 0144 05       		.uleb128 0x5
 1401 0145 49       		.uleb128 0x49
 1402 0146 13       		.uleb128 0x13
 1403 0147 3F       		.uleb128 0x3f
 1404 0148 0C       		.uleb128 0xc
 1405 0149 3C       		.uleb128 0x3c
 1406 014a 0C       		.uleb128 0xc
 1407 014b 00       		.byte	0x0
 1408 014c 00       		.byte	0x0
 1409 014d 00       		.byte	0x0
 1410              		.section	.debug_pubnames,"",%progbits
 1411 0000 85000000 		.4byte	0x85
 1412 0004 0200     		.2byte	0x2
 1413 0006 00000000 		.4byte	.Ldebug_info0
 1414 000a 96050000 		.4byte	0x596
 1415 000e 67040000 		.4byte	0x467
 1416 0012 4E564943 		.ascii	"NVIC_PriorityGroupConfig\000"
 1416      5F507269 
 1416      6F726974 
 1416      7947726F 
 1416      7570436F 
 1417 002b 8F040000 		.4byte	0x48f
ARM GAS  /tmp/ccNImEOL.s 			page 26


 1418 002f 4E564943 		.ascii	"NVIC_Init\000"
 1418      5F496E69 
 1418      7400
 1419 0039 E9040000 		.4byte	0x4e9
 1420 003d 4E564943 		.ascii	"NVIC_SetVectorTable\000"
 1420      5F536574 
 1420      56656374 
 1420      6F725461 
 1420      626C6500 
 1421 0051 1E050000 		.4byte	0x51e
 1422 0055 4E564943 		.ascii	"NVIC_SystemLPConfig\000"
 1422      5F537973 
 1422      74656D4C 
 1422      50436F6E 
 1422      66696700 
 1423 0069 53050000 		.4byte	0x553
 1424 006d 53797354 		.ascii	"SysTick_CLKSourceConfig\000"
 1424      69636B5F 
 1424      434C4B53 
 1424      6F757263 
 1424      65436F6E 
 1425 0085 00000000 		.4byte	0x0
 1426              		.section	.debug_pubtypes,"",%progbits
 1427 0000 88000000 		.4byte	0x88
 1428 0004 0200     		.2byte	0x2
 1429 0006 00000000 		.4byte	.Ldebug_info0
 1430 000a 96050000 		.4byte	0x596
 1431 000e 30000000 		.4byte	0x30
 1432 0012 75696E74 		.ascii	"uint8_t\000"
 1432      385F7400 
 1433 001a 50000000 		.4byte	0x50
 1434 001e 696E7433 		.ascii	"int32_t\000"
 1434      325F7400 
 1435 0026 62000000 		.4byte	0x62
 1436 002a 75696E74 		.ascii	"uint32_t\000"
 1436      33325F74 
 1436      00
 1437 0033 DC010000 		.4byte	0x1dc
 1438 0037 4E564943 		.ascii	"NVIC_Type\000"
 1438      5F547970 
 1438      6500
 1439 0041 96030000 		.4byte	0x396
 1440 0045 5343425F 		.ascii	"SCB_Type\000"
 1440      54797065 
 1440      00
 1441 004e E8030000 		.4byte	0x3e8
 1442 0052 53797354 		.ascii	"SysTick_Type\000"
 1442      69636B5F 
 1442      54797065 
 1442      00
 1443 005f 0F040000 		.4byte	0x40f
 1444 0063 46756E63 		.ascii	"FunctionalState\000"
 1444      74696F6E 
 1444      616C5374 
 1444      61746500 
 1445 0073 5C040000 		.4byte	0x45c
 1446 0077 4E564943 		.ascii	"NVIC_InitTypeDef\000"
ARM GAS  /tmp/ccNImEOL.s 			page 27


 1446      5F496E69 
 1446      74547970 
 1446      65446566 
 1446      00
 1447 0088 00000000 		.4byte	0x0
 1448              		.section	.debug_aranges,"",%progbits
 1449 0000 3C000000 		.4byte	0x3c
 1450 0004 0200     		.2byte	0x2
 1451 0006 00000000 		.4byte	.Ldebug_info0
 1452 000a 04       		.byte	0x4
 1453 000b 00       		.byte	0x0
 1454 000c 0000     		.2byte	0x0
 1455 000e 0000     		.2byte	0x0
 1456 0010 00000000 		.4byte	.LFB55
 1457 0014 14000000 		.4byte	.LFE55-.LFB55
 1458 0018 00000000 		.4byte	.LFB56
 1459 001c 60000000 		.4byte	.LFE56-.LFB56
 1460 0020 00000000 		.4byte	.LFB57
 1461 0024 14000000 		.4byte	.LFE57-.LFB57
 1462 0028 00000000 		.4byte	.LFB58
 1463 002c 18000000 		.4byte	.LFE58-.LFB58
 1464 0030 00000000 		.4byte	.LFB59
 1465 0034 18000000 		.4byte	.LFE59-.LFB59
 1466 0038 00000000 		.4byte	0x0
 1467 003c 00000000 		.4byte	0x0
 1468              		.section	.debug_ranges,"",%progbits
 1469              	.Ldebug_ranges0:
 1470 0000 00000000 		.4byte	.LFB55
 1471 0004 14000000 		.4byte	.LFE55
 1472 0008 00000000 		.4byte	.LFB56
 1473 000c 60000000 		.4byte	.LFE56
 1474 0010 00000000 		.4byte	.LFB57
 1475 0014 14000000 		.4byte	.LFE57
 1476 0018 00000000 		.4byte	.LFB58
 1477 001c 18000000 		.4byte	.LFE58
 1478 0020 00000000 		.4byte	.LFB59
 1479 0024 18000000 		.4byte	.LFE59
 1480 0028 00000000 		.4byte	0x0
 1481 002c 00000000 		.4byte	0x0
 1482              		.section	.debug_str,"MS",%progbits,1
 1483              	.LASF20:
 1484 0000 49414252 		.ascii	"IABR\000"
 1484      00
 1485              	.LASF51:
 1486 0005 4E564943 		.ascii	"NVIC_InitTypeDef\000"
 1486      5F496E69 
 1486      74547970 
 1486      65446566 
 1486      00
 1487              	.LASF50:
 1488 0016 4E564943 		.ascii	"NVIC_IRQChannelCmd\000"
 1488      5F495251 
 1488      4368616E 
 1488      6E656C43 
 1488      6D6400
 1489              	.LASF66:
 1490 0029 53797354 		.ascii	"SysTick_CLKSource\000"
ARM GAS  /tmp/ccNImEOL.s 			page 28


 1490      69636B5F 
 1490      434C4B53 
 1490      6F757263 
 1490      6500
 1491              	.LASF55:
 1492 003b 4E564943 		.ascii	"NVIC_InitStruct\000"
 1492      5F496E69 
 1492      74537472 
 1492      75637400 
 1493              	.LASF65:
 1494 004b 53797354 		.ascii	"SysTick_CLKSourceConfig\000"
 1494      69636B5F 
 1494      434C4B53 
 1494      6F757263 
 1494      65436F6E 
 1495              	.LASF2:
 1496 0063 73686F72 		.ascii	"short int\000"
 1496      7420696E 
 1496      7400
 1497              	.LASF59:
 1498 006d 4E564943 		.ascii	"NVIC_SetVectorTable\000"
 1498      5F536574 
 1498      56656374 
 1498      6F725461 
 1498      626C6500 
 1499              	.LASF53:
 1500 0081 4E564943 		.ascii	"NVIC_Init\000"
 1500      5F496E69 
 1500      7400
 1501              	.LASF57:
 1502 008b 746D7070 		.ascii	"tmppre\000"
 1502      726500
 1503              	.LASF25:
 1504 0092 43505549 		.ascii	"CPUID\000"
 1504      4400
 1505              	.LASF13:
 1506 0098 52455345 		.ascii	"RESERVED0\000"
 1506      52564544 
 1506      3000
 1507              	.LASF4:
 1508 00a2 75696E74 		.ascii	"uint8_t\000"
 1508      385F7400 
 1509              	.LASF54:
 1510 00aa 4E564943 		.ascii	"NVIC_PriorityGroup\000"
 1510      5F507269 
 1510      6F726974 
 1510      7947726F 
 1510      757000
 1511              	.LASF64:
 1512 00bd 4E657753 		.ascii	"NewState\000"
 1512      74617465 
 1512      00
 1513              	.LASF23:
 1514 00c6 53544952 		.ascii	"STIR\000"
 1514      00
 1515              	.LASF44:
 1516 00cb 44495341 		.ascii	"DISABLE\000"
ARM GAS  /tmp/ccNImEOL.s 			page 29


 1516      424C4500 
 1517              	.LASF26:
 1518 00d3 49435352 		.ascii	"ICSR\000"
 1518      00
 1519              	.LASF15:
 1520 00d8 52534552 		.ascii	"RSERVED1\000"
 1520      56454431 
 1520      00
 1521              	.LASF9:
 1522 00e1 6C6F6E67 		.ascii	"long long int\000"
 1522      206C6F6E 
 1522      6720696E 
 1522      7400
 1523              	.LASF42:
 1524 00ef 43414C49 		.ascii	"CALIB\000"
 1524      4200
 1525              	.LASF27:
 1526 00f5 56544F52 		.ascii	"VTOR\000"
 1526      00
 1527              	.LASF34:
 1528 00fa 42464152 		.ascii	"BFAR\000"
 1528      00
 1529              	.LASF6:
 1530 00ff 6C6F6E67 		.ascii	"long int\000"
 1530      20696E74 
 1530      00
 1531              	.LASF69:
 1532 0108 6D697363 		.ascii	"misc.c\000"
 1532      2E6300
 1533              	.LASF30:
 1534 010f 43465352 		.ascii	"CFSR\000"
 1534      00
 1535              	.LASF1:
 1536 0114 756E7369 		.ascii	"unsigned char\000"
 1536      676E6564 
 1536      20636861 
 1536      7200
 1537              	.LASF28:
 1538 0122 41495243 		.ascii	"AIRCR\000"
 1538      5200
 1539              	.LASF39:
 1540 0128 5343425F 		.ascii	"SCB_Type\000"
 1540      54797065 
 1540      00
 1541              	.LASF40:
 1542 0131 4354524C 		.ascii	"CTRL\000"
 1542      00
 1543              	.LASF24:
 1544 0136 4E564943 		.ascii	"NVIC_Type\000"
 1544      5F547970 
 1544      6500
 1545              	.LASF18:
 1546 0140 49435052 		.ascii	"ICPR\000"
 1546      00
 1547              	.LASF0:
 1548 0145 7369676E 		.ascii	"signed char\000"
 1548      65642063 
ARM GAS  /tmp/ccNImEOL.s 			page 30


 1548      68617200 
 1549              	.LASF10:
 1550 0151 6C6F6E67 		.ascii	"long long unsigned int\000"
 1550      206C6F6E 
 1550      6720756E 
 1550      7369676E 
 1550      65642069 
 1551              	.LASF7:
 1552 0168 75696E74 		.ascii	"uint32_t\000"
 1552      33325F74 
 1552      00
 1553              	.LASF11:
 1554 0171 756E7369 		.ascii	"unsigned int\000"
 1554      676E6564 
 1554      20696E74 
 1554      00
 1555              	.LASF29:
 1556 017e 53484353 		.ascii	"SHCSR\000"
 1556      5200
 1557              	.LASF33:
 1558 0184 4D4D4641 		.ascii	"MMFAR\000"
 1558      5200
 1559              	.LASF58:
 1560 018a 746D7073 		.ascii	"tmpsub\000"
 1560      756200
 1561              	.LASF62:
 1562 0191 4E564943 		.ascii	"NVIC_SystemLPConfig\000"
 1562      5F537973 
 1562      74656D4C 
 1562      50436F6E 
 1562      66696700 
 1563              	.LASF61:
 1564 01a5 4F666673 		.ascii	"Offset\000"
 1564      657400
 1565              	.LASF43:
 1566 01ac 53797354 		.ascii	"SysTick_Type\000"
 1566      69636B5F 
 1566      54797065 
 1566      00
 1567              	.LASF3:
 1568 01b9 73686F72 		.ascii	"short unsigned int\000"
 1568      7420756E 
 1568      7369676E 
 1568      65642069 
 1568      6E7400
 1569              	.LASF56:
 1570 01cc 746D7070 		.ascii	"tmppriority\000"
 1570      72696F72 
 1570      69747900 
 1571              	.LASF5:
 1572 01d8 696E7433 		.ascii	"int32_t\000"
 1572      325F7400 
 1573              	.LASF37:
 1574 01e0 49534152 		.ascii	"ISAR\000"
 1574      00
 1575              	.LASF16:
 1576 01e5 49535052 		.ascii	"ISPR\000"
ARM GAS  /tmp/ccNImEOL.s 			page 31


 1576      00
 1577              	.LASF32:
 1578 01ea 44465352 		.ascii	"DFSR\000"
 1578      00
 1579              	.LASF47:
 1580 01ef 4E564943 		.ascii	"NVIC_IRQChannel\000"
 1580      5F495251 
 1580      4368616E 
 1580      6E656C00 
 1581              	.LASF49:
 1582 01ff 4E564943 		.ascii	"NVIC_IRQChannelSubPriority\000"
 1582      5F495251 
 1582      4368616E 
 1582      6E656C53 
 1582      75625072 
 1583              	.LASF31:
 1584 021a 48465352 		.ascii	"HFSR\000"
 1584      00
 1585              	.LASF14:
 1586 021f 49434552 		.ascii	"ICER\000"
 1586      00
 1587              	.LASF36:
 1588 0224 4D4D4652 		.ascii	"MMFR\000"
 1588      00
 1589              	.LASF12:
 1590 0229 49534552 		.ascii	"ISER\000"
 1590      00
 1591              	.LASF17:
 1592 022e 52455345 		.ascii	"RESERVED2\000"
 1592      52564544 
 1592      3200
 1593              	.LASF19:
 1594 0238 52455345 		.ascii	"RESERVED3\000"
 1594      52564544 
 1594      3300
 1595              	.LASF21:
 1596 0242 52455345 		.ascii	"RESERVED4\000"
 1596      52564544 
 1596      3400
 1597              	.LASF22:
 1598 024c 52455345 		.ascii	"RESERVED5\000"
 1598      52564544 
 1598      3500
 1599              	.LASF8:
 1600 0256 6C6F6E67 		.ascii	"long unsigned int\000"
 1600      20756E73 
 1600      69676E65 
 1600      6420696E 
 1600      7400
 1601              	.LASF48:
 1602 0268 4E564943 		.ascii	"NVIC_IRQChannelPreemptionPriority\000"
 1602      5F495251 
 1602      4368616E 
 1602      6E656C50 
 1602      7265656D 
 1603              	.LASF46:
 1604 028a 46756E63 		.ascii	"FunctionalState\000"
ARM GAS  /tmp/ccNImEOL.s 			page 32


 1604      74696F6E 
 1604      616C5374 
 1604      61746500 
 1605              	.LASF68:
 1606 029a 474E5520 		.ascii	"GNU C 4.5.2\000"
 1606      4320342E 
 1606      352E3200 
 1607              	.LASF60:
 1608 02a6 4E564943 		.ascii	"NVIC_VectTab\000"
 1608      5F566563 
 1608      74546162 
 1608      00
 1609              	.LASF41:
 1610 02b3 4C4F4144 		.ascii	"LOAD\000"
 1610      00
 1611              	.LASF35:
 1612 02b8 41465352 		.ascii	"AFSR\000"
 1612      00
 1613              	.LASF63:
 1614 02bd 4C6F7750 		.ascii	"LowPowerMode\000"
 1614      6F776572 
 1614      4D6F6465 
 1614      00
 1615              	.LASF67:
 1616 02ca 49544D5F 		.ascii	"ITM_RxBuffer\000"
 1616      52784275 
 1616      66666572 
 1616      00
 1617              	.LASF38:
 1618 02d7 43504143 		.ascii	"CPACR\000"
 1618      5200
 1619              	.LASF45:
 1620 02dd 454E4142 		.ascii	"ENABLE\000"
 1620      4C4500
 1621              	.LASF70:
 1622 02e4 2F686F6D 		.ascii	"/home/z80/projects/dfu.git/firmware-pawn-dev/firmwa"
 1622      652F7A38 
 1622      302F7072 
 1622      6F6A6563 
 1622      74732F64 
 1623 0317 726500   		.ascii	"re\000"
 1624              	.LASF52:
 1625 031a 4E564943 		.ascii	"NVIC_PriorityGroupConfig\000"
 1625      5F507269 
 1625      6F726974 
 1625      7947726F 
 1625      7570436F 
 1626              		.ident	"GCC: (Sourcery G++ Lite 2011.03-42) 4.5.2"
ARM GAS  /tmp/ccNImEOL.s 			page 33


DEFINED SYMBOLS
                            *ABS*:00000000 misc.c
     /tmp/ccNImEOL.s:24     .text.NVIC_PriorityGroupConfig:00000000 $t
     /tmp/ccNImEOL.s:29     .text.NVIC_PriorityGroupConfig:00000000 NVIC_PriorityGroupConfig
     /tmp/ccNImEOL.s:49     .text.NVIC_PriorityGroupConfig:00000010 $d
     /tmp/ccNImEOL.s:54     .text.NVIC_Init:00000000 $t
     /tmp/ccNImEOL.s:59     .text.NVIC_Init:00000000 NVIC_Init
     /tmp/ccNImEOL.s:143    .text.NVIC_Init:00000058 $d
     /tmp/ccNImEOL.s:149    .text.NVIC_SetVectorTable:00000000 $t
     /tmp/ccNImEOL.s:154    .text.NVIC_SetVectorTable:00000000 NVIC_SetVectorTable
     /tmp/ccNImEOL.s:174    .text.NVIC_SetVectorTable:00000010 $d
     /tmp/ccNImEOL.s:179    .text.NVIC_SystemLPConfig:00000000 $t
     /tmp/ccNImEOL.s:184    .text.NVIC_SystemLPConfig:00000000 NVIC_SystemLPConfig
     /tmp/ccNImEOL.s:212    .text.NVIC_SystemLPConfig:00000014 $d
     /tmp/ccNImEOL.s:217    .text.SysTick_CLKSourceConfig:00000000 $t
     /tmp/ccNImEOL.s:222    .text.SysTick_CLKSourceConfig:00000000 SysTick_CLKSourceConfig
     /tmp/ccNImEOL.s:244    .text.SysTick_CLKSourceConfig:00000014 $d
                     .debug_frame:00000010 $d

NO UNDEFINED SYMBOLS
