ARM GAS  /tmp/ccNImEOL.s 			page 1


   1              		.syntax unified
   2              		.cpu cortex-m3
   3              		.fpu softvfp
   4              		.eabi_attribute 20, 1
   5              		.eabi_attribute 21, 1
   6              		.eabi_attribute 23, 3
   7              		.eabi_attribute 24, 1
   8              		.eabi_attribute 25, 1
   9              		.eabi_attribute 26, 1
  10              		.eabi_attribute 30, 4
  11              		.eabi_attribute 18, 4
  12              		.thumb
  13              		.file	"misc.c"
  20 0000 91010000 		.text
  20      02001701 
  20      00000201 
  20      FB0E0D00 
  20      01010101 
  21              	.Ltext0:
  22              		.cfi_sections	.debug_frame
  23              		.section	.text.NVIC_PriorityGroupConfig,"ax",%progbits
  24              		.align	1
  25              		.global	NVIC_PriorityGroupConfig
  26              		.thumb
  27              		.thumb_func
  28              		.type	NVIC_PriorityGroupConfig, %function
  29              	NVIC_PriorityGroupConfig:
  30              	.LFB55:
  31              		.file 1 "misc.c"
  32              		.loc 1 97 0
  33              		.cfi_startproc
  34              		@ args = 0, pretend = 0, frame = 0
  35              		@ frame_needed = 0, uses_anonymous_args = 0
  36              		@ link register save eliminated.
  37              	.LVL0:
  38              		.loc 1 102 0
  39 0000 40F0BE60 		orr	r0, r0, #99614720
  40              	.LVL1:
  41 0004 024B     		ldr	r3, .L2
  42 0006 40F42020 		orr	r0, r0, #655360
  43 000a D860     		str	r0, [r3, #12]
  44              		.loc 1 103 0
  45 000c 7047     		bx	lr
  46              	.L3:
  47 000e 00BF     		.align	2
  48              	.L2:
  49 0010 00ED00E0 		.word	-536810240
  50              		.cfi_endproc
  51              	.LFE55:
  52              		.size	NVIC_PriorityGroupConfig, .-NVIC_PriorityGroupConfig
  53              		.section	.text.NVIC_Init,"ax",%progbits
ARM GAS  /tmp/ccNImEOL.s 			page 2


  54              		.align	1
  55              		.global	NVIC_Init
  56              		.thumb
  57              		.thumb_func
  58              		.type	NVIC_Init, %function
  59              	NVIC_Init:
  60              	.LFB56:
  61              		.loc 1 113 0
  62              		.cfi_startproc
  63              		@ args = 0, pretend = 0, frame = 0
  64              		@ frame_needed = 0, uses_anonymous_args = 0
  65              	.LVL2:
  66              		.loc 1 121 0
  67 0000 C378     		ldrb	r3, [r0, #3]	@ zero_extendqisi2
  68              		.loc 1 113 0
  69 0002 10B5     		push	{r4, lr}
  70              	.LCFI0:
  71              		.cfi_def_cfa_offset 8
  72              		.loc 1 121 0
  73 0004 E3B1     		cbz	r3, .L5
  74              		.cfi_offset 14, -4
  75              		.cfi_offset 4, -8
  76              		.loc 1 124 0
  77 0006 144B     		ldr	r3, .L8
  78              		.loc 1 128 0
  79 0008 4178     		ldrb	r1, [r0, #1]	@ zero_extendqisi2
  80              		.loc 1 124 0
  81 000a DB68     		ldr	r3, [r3, #12]
  82              		.loc 1 129 0
  83 000c 8478     		ldrb	r4, [r0, #2]	@ zero_extendqisi2
  84              		.loc 1 124 0
  85 000e DB43     		mvns	r3, r3
  86 0010 03F4E063 		and	r3, r3, #1792
  87 0014 1B0A     		lsrs	r3, r3, #8
  88              	.LVL3:
  89              		.loc 1 125 0
  90 0016 C3F10402 		rsb	r2, r3, #4
  91              		.loc 1 128 0
  92 001a 9140     		lsls	r1, r1, r2
  93              	.LVL4:
  94              		.loc 1 126 0
  95 001c 0F22     		movs	r2, #15
  96 001e DA40     		lsrs	r2, r2, r3
  97              		.loc 1 129 0
  98 0020 2240     		ands	r2, r2, r4
  99 0022 0A43     		orrs	r2, r2, r1
 100              	.LVL5:
 101              		.loc 1 132 0
 102 0024 0D4B     		ldr	r3, .L8+4
 103              	.LVL6:
 104 0026 0178     		ldrb	r1, [r0, #0]	@ zero_extendqisi2
 105              		.loc 1 130 0
 106 0028 1201     		lsls	r2, r2, #4
 107              	.LVL7:
 108              		.loc 1 132 0
 109 002a CB18     		adds	r3, r1, r3
 110 002c 83F80023 		strb	r2, [r3, #768]
ARM GAS  /tmp/ccNImEOL.s 			page 3


 111              		.loc 1 135 0
 112 0030 0378     		ldrb	r3, [r0, #0]	@ zero_extendqisi2
 113              		.loc 1 136 0
 114 0032 0122     		movs	r2, #1
 115              	.LVL8:
 116              		.loc 1 135 0
 117 0034 5909     		lsrs	r1, r3, #5
 118              		.loc 1 136 0
 119 0036 03F01F03 		and	r3, r3, #31
 120 003a 12FA03F3 		lsls	r3, r2, r3
 121 003e 07E0     		b	.L7
 122              	.LVL9:
 123              	.L5:
 124              		.loc 1 141 0
 125 0040 0378     		ldrb	r3, [r0, #0]	@ zero_extendqisi2
 126              		.loc 1 142 0
 127 0042 0122     		movs	r2, #1
 128              		.loc 1 141 0
 129 0044 5909     		lsrs	r1, r3, #5
 130              		.loc 1 142 0
 131 0046 03F01F03 		and	r3, r3, #31
 132 004a 12FA03F3 		lsls	r3, r2, r3
 133              		.loc 1 141 0
 134 004e 2031     		adds	r1, r1, #32
 135              	.LVL10:
 136              	.L7:
 137 0050 024A     		ldr	r2, .L8+4
 138 0052 42F82130 		str	r3, [r2, r1, lsl #2]
 139 0056 10BD     		pop	{r4, pc}
 140              	.L9:
 141              		.align	2
 142              	.L8:
 143 0058 00ED00E0 		.word	-536810240
 144 005c 00E100E0 		.word	-536813312
 145              		.cfi_endproc
 146              	.LFE56:
 147              		.size	NVIC_Init, .-NVIC_Init
 148              		.section	.text.NVIC_SetVectorTable,"ax",%progbits
 149              		.align	1
 150              		.global	NVIC_SetVectorTable
 151              		.thumb
 152              		.thumb_func
 153              		.type	NVIC_SetVectorTable, %function
 154              	NVIC_SetVectorTable:
 155              	.LFB57:
 156              		.loc 1 157 0
 157              		.cfi_startproc
 158              		@ args = 0, pretend = 0, frame = 0
 159              		@ frame_needed = 0, uses_anonymous_args = 0
 160              		@ link register save eliminated.
 161              	.LVL11:
 162              		.loc 1 162 0
 163 0000 21F06041 		bic	r1, r1, #-536870912
 164              	.LVL12:
 165 0004 21F07F01 		bic	r1, r1, #127
 166 0008 014B     		ldr	r3, .L11
 167 000a 0143     		orrs	r1, r1, r0
ARM GAS  /tmp/ccNImEOL.s 			page 4


 168 000c 9960     		str	r1, [r3, #8]
 169              		.loc 1 163 0
 170 000e 7047     		bx	lr
 171              	.L12:
 172              		.align	2
 173              	.L11:
 174 0010 00ED00E0 		.word	-536810240
 175              		.cfi_endproc
 176              	.LFE57:
 177              		.size	NVIC_SetVectorTable, .-NVIC_SetVectorTable
 178              		.section	.text.NVIC_SystemLPConfig,"ax",%progbits
 179              		.align	1
 180              		.global	NVIC_SystemLPConfig
 181              		.thumb
 182              		.thumb_func
 183              		.type	NVIC_SystemLPConfig, %function
 184              	NVIC_SystemLPConfig:
 185              	.LFB58:
 186              		.loc 1 176 0
 187              		.cfi_startproc
 188              		@ args = 0, pretend = 0, frame = 0
 189              		@ frame_needed = 0, uses_anonymous_args = 0
 190              		@ link register save eliminated.
 191              	.LVL13:
 192 0000 044B     		ldr	r3, .L17
 193              		.loc 1 181 0
 194 0002 11B1     		cbz	r1, .L14
 195              		.loc 1 183 0
 196 0004 1A69     		ldr	r2, [r3, #16]
 197 0006 1043     		orrs	r0, r0, r2
 198              	.LVL14:
 199 0008 02E0     		b	.L16
 200              	.LVL15:
 201              	.L14:
 202              		.loc 1 187 0
 203 000a 1A69     		ldr	r2, [r3, #16]
 204 000c 22EA0000 		bic	r0, r2, r0
 205              	.LVL16:
 206              	.L16:
 207 0010 1861     		str	r0, [r3, #16]
 208 0012 7047     		bx	lr
 209              	.L18:
 210              		.align	2
 211              	.L17:
 212 0014 00ED00E0 		.word	-536810240
 213              		.cfi_endproc
 214              	.LFE58:
 215              		.size	NVIC_SystemLPConfig, .-NVIC_SystemLPConfig
 216              		.section	.text.SysTick_CLKSourceConfig,"ax",%progbits
 217              		.align	1
 218              		.global	SysTick_CLKSourceConfig
 219              		.thumb
 220              		.thumb_func
 221              		.type	SysTick_CLKSourceConfig, %function
 222              	SysTick_CLKSourceConfig:
 223              	.LFB59:
 224              		.loc 1 200 0
ARM GAS  /tmp/ccNImEOL.s 			page 5


 225              		.cfi_startproc
 226              		@ args = 0, pretend = 0, frame = 0
 227              		@ frame_needed = 0, uses_anonymous_args = 0
 228              		@ link register save eliminated.
 229              	.LVL17:
 230 0000 044B     		ldr	r3, .L23
 231              		.loc 1 203 0
 232 0002 0428     		cmp	r0, #4
 233              		.loc 1 205 0
 234 0004 1A68     		ldr	r2, [r3, #0]
 235 0006 0CBF     		ite	eq
 236 0008 42F00402 		orreq	r2, r2, #4
 237              		.loc 1 209 0
 238 000c 22F00402 		bicne	r2, r2, #4
 239 0010 1A60     		str	r2, [r3, #0]
 240 0012 7047     		bx	lr
 241              	.L24:
 242              		.align	2
 243              	.L23:
 244 0014 10E000E0 		.word	-536813552
 245              		.cfi_endproc
 246              	.LFE59:
 247              		.size	SysTick_CLKSourceConfig, .-SysTick_CLKSourceConfig
 248              		.text
 249              	.Letext0: