ARM GAS  /tmp/ccM74u58.s 			page 1


   1              		.syntax unified
   2              		.cpu cortex-m3
   3              		.fpu softvfp
   4              		.eabi_attribute 20, 1
   5              		.eabi_attribute 21, 1
   6              		.eabi_attribute 23, 3
   7              		.eabi_attribute 24, 1
   8              		.eabi_attribute 25, 1
   9              		.eabi_attribute 26, 1
  10              		.eabi_attribute 30, 4
  11              		.eabi_attribute 18, 4
  12              		.thumb
  13              		.file	"pal.c"
  14              		.section	.debug_abbrev,"",%progbits
  15              	.Ldebug_abbrev0:
  16              		.section	.debug_info,"",%progbits
  17              	.Ldebug_info0:
  18              		.section	.debug_line,"",%progbits
  19              	.Ldebug_line0:
  20 0000 E1010000 		.text
  20      02007B01 
  20      00000201 
  20      FB0E0D00 
  20      01010101 
  21              	.Ltext0:
  22              		.cfi_sections	.debug_frame
  23              		.section	.text.palReadBus,"ax",%progbits
  24              		.align	1
  25              		.global	palReadBus
  26              		.thumb
  27              		.thumb_func
  28              		.type	palReadBus, %function
  29              	palReadBus:
  30              	.LFB55:
  31              		.file 1 "../chibios/os/hal/src/pal.c"
  32              		.loc 1 76 0
  33              		.cfi_startproc
  34              		@ args = 0, pretend = 0, frame = 0
  35              		@ frame_needed = 0, uses_anonymous_args = 0
  36              	.LVL0:
  37 0000 10B5     		push	{r4, lr}
  38              	.LCFI0:
  39              		.cfi_def_cfa_offset 8
  40              		.loc 1 78 0
  41 0002 0446     		mov	r4, r0
  42              		.cfi_offset 14, -4
  43              		.cfi_offset 4, -8
  44 0004 10B1     		cbz	r0, .L2
  45              		.loc 1 78 0 is_stmt 0 discriminator 2
  46 0006 8368     		ldr	r3, [r0, #8]
  47 0008 0F2B     		cmp	r3, #15
  48 000a 02D9     		bls	.L3
  49              	.L2:
  50              		.loc 1 78 0 discriminator 1
  51 000c 0448     		ldr	r0, .L4
  52              	.LVL1:
  53 000e FFF7FEFF 		bl	chDbgPanic
ARM GAS  /tmp/ccM74u58.s 			page 2


  54              	.L3:
  55              		.loc 1 81 0 is_stmt 1
  56 0012 2368     		ldr	r3, [r4, #0]
  57 0014 9868     		ldr	r0, [r3, #8]
  58 0016 A368     		ldr	r3, [r4, #8]
  59 0018 D840     		lsrs	r0, r0, r3
  60 001a 6368     		ldr	r3, [r4, #4]
  61              		.loc 1 82 0
  62 001c 1840     		ands	r0, r0, r3
  63 001e 10BD     		pop	{r4, pc}
  64              	.L5:
  65              		.align	2
  66              	.L4:
  67 0020 00000000 		.word	.LC0
  68              		.cfi_endproc
  69              	.LFE55:
  70              		.size	palReadBus, .-palReadBus
  71              		.section	.text.palWriteBus,"ax",%progbits
  72              		.align	1
  73              		.global	palWriteBus
  74              		.thumb
  75              		.thumb_func
  76              		.type	palWriteBus, %function
  77              	palWriteBus:
  78              	.LFB56:
  79              		.loc 1 101 0
  80              		.cfi_startproc
  81              		@ args = 0, pretend = 0, frame = 0
  82              		@ frame_needed = 0, uses_anonymous_args = 0
  83              	.LVL2:
  84 0000 38B5     		push	{r3, r4, r5, lr}
  85              	.LCFI1:
  86              		.cfi_def_cfa_offset 16
  87              		.loc 1 101 0
  88 0002 0D46     		mov	r5, r1
  89              		.cfi_offset 14, -4
  90              		.cfi_offset 5, -8
  91              		.cfi_offset 4, -12
  92              		.cfi_offset 3, -16
  93              		.loc 1 103 0
  94 0004 0446     		mov	r4, r0
  95 0006 10B1     		cbz	r0, .L7
  96              		.loc 1 103 0 is_stmt 0 discriminator 2
  97 0008 8368     		ldr	r3, [r0, #8]
  98 000a 0F2B     		cmp	r3, #15
  99 000c 02D9     		bls	.L8
 100              	.L7:
 101              		.loc 1 103 0 discriminator 1
 102 000e 0948     		ldr	r0, .L9
 103              	.LVL3:
 104 0010 FFF7FEFF 		bl	chDbgPanic
 105              	.LVL4:
 106              	.L8:
 107              		.loc 1 106 0 is_stmt 1
 108 0014 A368     		ldr	r3, [r4, #8]
 109 0016 6268     		ldr	r2, [r4, #4]
 110 0018 2168     		ldr	r1, [r4, #0]
ARM GAS  /tmp/ccM74u58.s 			page 3


 111 001a 03F11000 		add	r0, r3, #16
 112 001e 22EA0504 		bic	r4, r2, r5
 113              	.LVL5:
 114 0022 1540     		ands	r5, r5, r2
 115              	.LVL6:
 116 0024 14FA00F0 		lsls	r0, r4, r0
 117 0028 15FA03F3 		lsls	r3, r5, r3
 118 002c 40EA0303 		orr	r3, r0, r3
 119 0030 0B61     		str	r3, [r1, #16]
 120              		.loc 1 107 0
 121 0032 38BD     		pop	{r3, r4, r5, pc}
 122              	.L10:
 123              		.align	2
 124              	.L9:
 125 0034 0F000000 		.word	.LC1
 126              		.cfi_endproc
 127              	.LFE56:
 128              		.size	palWriteBus, .-palWriteBus
 129              		.section	.text.palSetBusMode,"ax",%progbits
 130              		.align	1
 131              		.global	palSetBusMode
 132              		.thumb
 133              		.thumb_func
 134              		.type	palSetBusMode, %function
 135              	palSetBusMode:
 136              	.LFB57:
 137              		.loc 1 124 0
 138              		.cfi_startproc
 139              		@ args = 0, pretend = 0, frame = 0
 140              		@ frame_needed = 0, uses_anonymous_args = 0
 141              	.LVL7:
 142 0000 70B5     		push	{r4, r5, r6, lr}
 143              	.LCFI2:
 144              		.cfi_def_cfa_offset 16
 145              		.loc 1 124 0
 146 0002 0C46     		mov	r4, r1
 147              		.cfi_offset 14, -4
 148              		.cfi_offset 6, -8
 149              		.cfi_offset 5, -12
 150              		.cfi_offset 4, -16
 151              		.loc 1 126 0
 152 0004 0546     		mov	r5, r0
 153 0006 10B1     		cbz	r0, .L12
 154              		.loc 1 126 0 is_stmt 0 discriminator 2
 155 0008 8368     		ldr	r3, [r0, #8]
 156 000a 0F2B     		cmp	r3, #15
 157 000c 02D9     		bls	.L13
 158              	.L12:
 159              		.loc 1 126 0 discriminator 1
 160 000e 0648     		ldr	r0, .L14
 161              	.LVL8:
 162 0010 FFF7FEFF 		bl	chDbgPanic
 163              	.LVL9:
 164              	.L13:
 165              		.loc 1 129 0 is_stmt 1
 166 0014 6968     		ldr	r1, [r5, #4]
 167 0016 AB68     		ldr	r3, [r5, #8]
ARM GAS  /tmp/ccM74u58.s 			page 4


 168 0018 2868     		ldr	r0, [r5, #0]
 169 001a 9940     		lsls	r1, r1, r3
 170 001c 2246     		mov	r2, r4
 171              		.loc 1 130 0
 172 001e BDE87040 		pop	{r4, r5, r6, lr}
 173              		.loc 1 129 0
 174 0022 FFF7FEBF 		b	_pal_lld_setgroupmode
 175              	.L15:
 176 0026 00BF     		.align	2
 177              	.L14:
 178 0028 1F000000 		.word	.LC2
 179              		.cfi_endproc
 180              	.LFE57:
 181              		.size	palSetBusMode, .-palSetBusMode
 182              		.section	.rodata.str1.1,"aMS",%progbits,1
 183              	.LC0:
 184 0000 2270616C 		.ascii	"\"palReadBus\"()\000"
 184      52656164 
 184      42757322 
 184      282900
 185              	.LC1:
 186 000f 2270616C 		.ascii	"\"palWriteBus\"()\000"
 186      57726974 
 186      65427573 
 186      22282900 
 187              	.LC2:
 188 001f 2270616C 		.ascii	"\"palSetBusMode\"()\000"
 188      53657442 
 188      75734D6F 
 188      64652228 
 188      2900
 189              		.text
 190              	.Letext0:
 191              		.section	.debug_loc,"",%progbits
 192              	.Ldebug_loc0:
 193              	.LLST0:
 194 0000 00000000 		.4byte	.LFB55
 195 0004 02000000 		.4byte	.LCFI0
 196 0008 0200     		.2byte	0x2
 197 000a 7D       		.byte	0x7d
 198 000b 00       		.sleb128 0
 199 000c 02000000 		.4byte	.LCFI0
 200 0010 24000000 		.4byte	.LFE55
 201 0014 0200     		.2byte	0x2
 202 0016 7D       		.byte	0x7d
 203 0017 08       		.sleb128 8
 204 0018 00000000 		.4byte	0x0
 205 001c 00000000 		.4byte	0x0
 206              	.LLST1:
 207 0020 00000000 		.4byte	.LVL0
 208 0024 0E000000 		.4byte	.LVL1
 209 0028 0100     		.2byte	0x1
 210 002a 50       		.byte	0x50
 211 002b 0E000000 		.4byte	.LVL1
 212 002f 24000000 		.4byte	.LFE55
 213 0033 0100     		.2byte	0x1
 214 0035 54       		.byte	0x54
ARM GAS  /tmp/ccM74u58.s 			page 5


 215 0036 00000000 		.4byte	0x0
 216 003a 00000000 		.4byte	0x0
 217              	.LLST2:
 218 003e 00000000 		.4byte	.LFB56
 219 0042 02000000 		.4byte	.LCFI1
 220 0046 0200     		.2byte	0x2
 221 0048 7D       		.byte	0x7d
 222 0049 00       		.sleb128 0
 223 004a 02000000 		.4byte	.LCFI1
 224 004e 38000000 		.4byte	.LFE56
 225 0052 0200     		.2byte	0x2
 226 0054 7D       		.byte	0x7d
 227 0055 10       		.sleb128 16
 228 0056 00000000 		.4byte	0x0
 229 005a 00000000 		.4byte	0x0
 230              	.LLST3:
 231 005e 00000000 		.4byte	.LVL2
 232 0062 10000000 		.4byte	.LVL3
 233 0066 0100     		.2byte	0x1
 234 0068 50       		.byte	0x50
 235 0069 10000000 		.4byte	.LVL3
 236 006d 22000000 		.4byte	.LVL5
 237 0071 0100     		.2byte	0x1
 238 0073 54       		.byte	0x54
 239 0074 00000000 		.4byte	0x0
 240 0078 00000000 		.4byte	0x0
 241              	.LLST4:
 242 007c 00000000 		.4byte	.LVL2
 243 0080 13000000 		.4byte	.LVL4-1
 244 0084 0100     		.2byte	0x1
 245 0086 51       		.byte	0x51
 246 0087 13000000 		.4byte	.LVL4-1
 247 008b 24000000 		.4byte	.LVL6
 248 008f 0100     		.2byte	0x1
 249 0091 55       		.byte	0x55
 250 0092 00000000 		.4byte	0x0
 251 0096 00000000 		.4byte	0x0
 252              	.LLST5:
 253 009a 00000000 		.4byte	.LFB57
 254 009e 02000000 		.4byte	.LCFI2
 255 00a2 0200     		.2byte	0x2
 256 00a4 7D       		.byte	0x7d
 257 00a5 00       		.sleb128 0
 258 00a6 02000000 		.4byte	.LCFI2
 259 00aa 2C000000 		.4byte	.LFE57
 260 00ae 0200     		.2byte	0x2
 261 00b0 7D       		.byte	0x7d
 262 00b1 10       		.sleb128 16
 263 00b2 00000000 		.4byte	0x0
 264 00b6 00000000 		.4byte	0x0
 265              	.LLST6:
 266 00ba 00000000 		.4byte	.LVL7
 267 00be 10000000 		.4byte	.LVL8
 268 00c2 0100     		.2byte	0x1
 269 00c4 50       		.byte	0x50
 270 00c5 10000000 		.4byte	.LVL8
 271 00c9 2C000000 		.4byte	.LFE57
ARM GAS  /tmp/ccM74u58.s 			page 6


 272 00cd 0100     		.2byte	0x1
 273 00cf 55       		.byte	0x55
 274 00d0 00000000 		.4byte	0x0
 275 00d4 00000000 		.4byte	0x0
 276              	.LLST7:
 277 00d8 00000000 		.4byte	.LVL7
 278 00dc 13000000 		.4byte	.LVL9-1
 279 00e0 0100     		.2byte	0x1
 280 00e2 51       		.byte	0x51
 281 00e3 13000000 		.4byte	.LVL9-1
 282 00e7 2C000000 		.4byte	.LFE57
 283 00eb 0100     		.2byte	0x1
 284 00ed 54       		.byte	0x54
 285 00ee 00000000 		.4byte	0x0
 286 00f2 00000000 		.4byte	0x0
 287              		.file 2 "/home/z80/programs/code-sourcery/2011.03-42/bin/../lib/gcc/arm-none-eabi/4.5.2/../../../.
 288              		.file 3 "../chibios/os/hal/platforms/STM32F1xx/stm32f10x.h"
 289              		.file 4 "../chibios/os/hal/platforms/STM32/GPIOv1/pal_lld.h"
 290              		.file 5 "../chibios/os/hal/include/pal.h"
 291              		.file 6 "../chibios/os/ports/common/ARMCMx/CMSIS/include/core_cm3.h"
 292              		.section	.debug_info
 293 0000 41020000 		.4byte	0x241
 294 0004 0200     		.2byte	0x2
 295 0006 00000000 		.4byte	.Ldebug_abbrev0
 296 000a 04       		.byte	0x4
 297 000b 01       		.uleb128 0x1
 298 000c 05000000 		.4byte	.LASF28
 299 0010 01       		.byte	0x1
 300 0011 9A000000 		.4byte	.LASF29
 301 0015 28010000 		.4byte	.LASF30
 302 0019 00000000 		.4byte	0x0
 303 001d 00000000 		.4byte	0x0
 304 0021 00000000 		.4byte	.Ldebug_ranges0+0x0
 305 0025 00000000 		.4byte	.Ldebug_line0
 306 0029 02       		.uleb128 0x2
 307 002a 04       		.byte	0x4
 308 002b 05       		.byte	0x5
 309 002c 696E7400 		.ascii	"int\000"
 310 0030 03       		.uleb128 0x3
 311 0031 04       		.byte	0x4
 312 0032 07       		.byte	0x7
 313 0033 B6000000 		.4byte	.LASF0
 314 0037 03       		.uleb128 0x3
 315 0038 01       		.byte	0x1
 316 0039 06       		.byte	0x6
 317 003a 69010000 		.4byte	.LASF1
 318 003e 03       		.uleb128 0x3
 319 003f 01       		.byte	0x1
 320 0040 08       		.byte	0x8
 321 0041 5A000000 		.4byte	.LASF2
 322 0045 03       		.uleb128 0x3
 323 0046 02       		.byte	0x2
 324 0047 05       		.byte	0x5
 325 0048 01010000 		.4byte	.LASF3
 326 004c 03       		.uleb128 0x3
 327 004d 02       		.byte	0x2
 328 004e 07       		.byte	0x7
ARM GAS  /tmp/ccM74u58.s 			page 7


 329 004f 7A000000 		.4byte	.LASF4
 330 0053 04       		.uleb128 0x4
 331 0054 DA000000 		.4byte	.LASF6
 332 0058 02       		.byte	0x2
 333 0059 4F       		.byte	0x4f
 334 005a 5E000000 		.4byte	0x5e
 335 005e 03       		.uleb128 0x3
 336 005f 04       		.byte	0x4
 337 0060 05       		.byte	0x5
 338 0061 1F010000 		.4byte	.LASF5
 339 0065 04       		.uleb128 0x4
 340 0066 16010000 		.4byte	.LASF7
 341 006a 02       		.byte	0x2
 342 006b 50       		.byte	0x50
 343 006c 70000000 		.4byte	0x70
 344 0070 03       		.uleb128 0x3
 345 0071 04       		.byte	0x4
 346 0072 07       		.byte	0x7
 347 0073 68000000 		.4byte	.LASF8
 348 0077 03       		.uleb128 0x3
 349 0078 08       		.byte	0x8
 350 0079 05       		.byte	0x5
 351 007a E2000000 		.4byte	.LASF9
 352 007e 03       		.uleb128 0x3
 353 007f 08       		.byte	0x8
 354 0080 07       		.byte	0x7
 355 0081 75010000 		.4byte	.LASF10
 356 0085 04       		.uleb128 0x4
 357 0086 11000000 		.4byte	.LASF11
 358 008a 02       		.byte	0x2
 359 008b A0       		.byte	0xa0
 360 008c 30000000 		.4byte	0x30
 361 0090 05       		.uleb128 0x5
 362 0091 65000000 		.4byte	0x65
 363 0095 03       		.uleb128 0x3
 364 0096 01       		.byte	0x1
 365 0097 08       		.byte	0x8
 366 0098 D0000000 		.4byte	.LASF12
 367 009c 05       		.uleb128 0x5
 368 009d 53000000 		.4byte	0x53
 369 00a1 06       		.uleb128 0x6
 370 00a2 1C       		.byte	0x1c
 371 00a3 03       		.byte	0x3
 372 00a4 F803     		.2byte	0x3f8
 373 00a6 14010000 		.4byte	0x114
 374 00aa 07       		.uleb128 0x7
 375 00ab 43524C00 		.ascii	"CRL\000"
 376 00af 03       		.byte	0x3
 377 00b0 FA03     		.2byte	0x3fa
 378 00b2 90000000 		.4byte	0x90
 379 00b6 02       		.byte	0x2
 380 00b7 23       		.byte	0x23
 381 00b8 00       		.uleb128 0x0
 382 00b9 07       		.uleb128 0x7
 383 00ba 43524800 		.ascii	"CRH\000"
 384 00be 03       		.byte	0x3
 385 00bf FB03     		.2byte	0x3fb
ARM GAS  /tmp/ccM74u58.s 			page 8


 386 00c1 90000000 		.4byte	0x90
 387 00c5 02       		.byte	0x2
 388 00c6 23       		.byte	0x23
 389 00c7 04       		.uleb128 0x4
 390 00c8 07       		.uleb128 0x7
 391 00c9 49445200 		.ascii	"IDR\000"
 392 00cd 03       		.byte	0x3
 393 00ce FC03     		.2byte	0x3fc
 394 00d0 90000000 		.4byte	0x90
 395 00d4 02       		.byte	0x2
 396 00d5 23       		.byte	0x23
 397 00d6 08       		.uleb128 0x8
 398 00d7 07       		.uleb128 0x7
 399 00d8 4F445200 		.ascii	"ODR\000"
 400 00dc 03       		.byte	0x3
 401 00dd FD03     		.2byte	0x3fd
 402 00df 90000000 		.4byte	0x90
 403 00e3 02       		.byte	0x2
 404 00e4 23       		.byte	0x23
 405 00e5 0C       		.uleb128 0xc
 406 00e6 08       		.uleb128 0x8
 407 00e7 1E000000 		.4byte	.LASF13
 408 00eb 03       		.byte	0x3
 409 00ec FE03     		.2byte	0x3fe
 410 00ee 90000000 		.4byte	0x90
 411 00f2 02       		.byte	0x2
 412 00f3 23       		.byte	0x23
 413 00f4 10       		.uleb128 0x10
 414 00f5 07       		.uleb128 0x7
 415 00f6 42525200 		.ascii	"BRR\000"
 416 00fa 03       		.byte	0x3
 417 00fb FF03     		.2byte	0x3ff
 418 00fd 90000000 		.4byte	0x90
 419 0101 02       		.byte	0x2
 420 0102 23       		.byte	0x23
 421 0103 14       		.uleb128 0x14
 422 0104 08       		.uleb128 0x8
 423 0105 00000000 		.4byte	.LASF14
 424 0109 03       		.byte	0x3
 425 010a 0004     		.2byte	0x400
 426 010c 90000000 		.4byte	0x90
 427 0110 02       		.byte	0x2
 428 0111 23       		.byte	0x23
 429 0112 18       		.uleb128 0x18
 430 0113 00       		.byte	0x0
 431 0114 09       		.uleb128 0x9
 432 0115 C3000000 		.4byte	.LASF15
 433 0119 03       		.byte	0x3
 434 011a 0104     		.2byte	0x401
 435 011c A1000000 		.4byte	0xa1
 436 0120 04       		.uleb128 0x4
 437 0121 44000000 		.4byte	.LASF16
 438 0125 04       		.byte	0x4
 439 0126 78       		.byte	0x78
 440 0127 65000000 		.4byte	0x65
 441 012b 04       		.uleb128 0x4
 442 012c 51000000 		.4byte	.LASF17
ARM GAS  /tmp/ccM74u58.s 			page 9


 443 0130 04       		.byte	0x4
 444 0131 7D       		.byte	0x7d
 445 0132 65000000 		.4byte	0x65
 446 0136 04       		.uleb128 0x4
 447 0137 0B010000 		.4byte	.LASF18
 448 013b 04       		.byte	0x4
 449 013c 85       		.byte	0x85
 450 013d 41010000 		.4byte	0x141
 451 0141 0A       		.uleb128 0xa
 452 0142 04       		.byte	0x4
 453 0143 14010000 		.4byte	0x114
 454 0147 0B       		.uleb128 0xb
 455 0148 0C       		.byte	0xc
 456 0149 05       		.byte	0x5
 457 014a 85       		.byte	0x85
 458 014b 7A010000 		.4byte	0x17a
 459 014f 0C       		.uleb128 0xc
 460 0150 3D000000 		.4byte	.LASF19
 461 0154 05       		.byte	0x5
 462 0155 89       		.byte	0x89
 463 0156 36010000 		.4byte	0x136
 464 015a 02       		.byte	0x2
 465 015b 23       		.byte	0x23
 466 015c 00       		.uleb128 0x0
 467 015d 0C       		.uleb128 0xc
 468 015e F0000000 		.4byte	.LASF20
 469 0162 05       		.byte	0x5
 470 0163 8F       		.byte	0x8f
 471 0164 20010000 		.4byte	0x120
 472 0168 02       		.byte	0x2
 473 0169 23       		.byte	0x23
 474 016a 04       		.uleb128 0x4
 475 016b 0C       		.uleb128 0xc
 476 016c FA000000 		.4byte	.LASF21
 477 0170 05       		.byte	0x5
 478 0171 93       		.byte	0x93
 479 0172 85000000 		.4byte	0x85
 480 0176 02       		.byte	0x2
 481 0177 23       		.byte	0x23
 482 0178 08       		.uleb128 0x8
 483 0179 00       		.byte	0x0
 484 017a 04       		.uleb128 0x4
 485 017b 8C010000 		.4byte	.LASF22
 486 017f 05       		.byte	0x5
 487 0180 94       		.byte	0x94
 488 0181 47010000 		.4byte	0x147
 489 0185 0D       		.uleb128 0xd
 490 0186 01       		.byte	0x1
 491 0187 5E010000 		.4byte	.LASF31
 492 018b 01       		.byte	0x1
 493 018c 4C       		.byte	0x4c
 494 018d 01       		.byte	0x1
 495 018e 20010000 		.4byte	0x120
 496 0192 00000000 		.4byte	.LFB55
 497 0196 24000000 		.4byte	.LFE55
 498 019a 00000000 		.4byte	.LLST0
 499 019e B2010000 		.4byte	0x1b2
ARM GAS  /tmp/ccM74u58.s 			page 10


 500 01a2 0E       		.uleb128 0xe
 501 01a3 62757300 		.ascii	"bus\000"
 502 01a7 01       		.byte	0x1
 503 01a8 4C       		.byte	0x4c
 504 01a9 B2010000 		.4byte	0x1b2
 505 01ad 20000000 		.4byte	.LLST1
 506 01b1 00       		.byte	0x0
 507 01b2 0A       		.uleb128 0xa
 508 01b3 04       		.byte	0x4
 509 01b4 7A010000 		.4byte	0x17a
 510 01b8 0F       		.uleb128 0xf
 511 01b9 01       		.byte	0x1
 512 01ba 23000000 		.4byte	.LASF24
 513 01be 01       		.byte	0x1
 514 01bf 65       		.byte	0x65
 515 01c0 01       		.byte	0x1
 516 01c1 00000000 		.4byte	.LFB56
 517 01c5 38000000 		.4byte	.LFE56
 518 01c9 3E000000 		.4byte	.LLST2
 519 01cd F0010000 		.4byte	0x1f0
 520 01d1 0E       		.uleb128 0xe
 521 01d2 62757300 		.ascii	"bus\000"
 522 01d6 01       		.byte	0x1
 523 01d7 65       		.byte	0x65
 524 01d8 B2010000 		.4byte	0x1b2
 525 01dc 5E000000 		.4byte	.LLST3
 526 01e0 10       		.uleb128 0x10
 527 01e1 F5000000 		.4byte	.LASF23
 528 01e5 01       		.byte	0x1
 529 01e6 65       		.byte	0x65
 530 01e7 20010000 		.4byte	0x120
 531 01eb 7C000000 		.4byte	.LLST4
 532 01ef 00       		.byte	0x0
 533 01f0 0F       		.uleb128 0xf
 534 01f1 01       		.byte	0x1
 535 01f2 2F000000 		.4byte	.LASF25
 536 01f6 01       		.byte	0x1
 537 01f7 7C       		.byte	0x7c
 538 01f8 01       		.byte	0x1
 539 01f9 00000000 		.4byte	.LFB57
 540 01fd 2C000000 		.4byte	.LFE57
 541 0201 9A000000 		.4byte	.LLST5
 542 0205 28020000 		.4byte	0x228
 543 0209 0E       		.uleb128 0xe
 544 020a 62757300 		.ascii	"bus\000"
 545 020e 01       		.byte	0x1
 546 020f 7C       		.byte	0x7c
 547 0210 B2010000 		.4byte	0x1b2
 548 0214 BA000000 		.4byte	.LLST6
 549 0218 10       		.uleb128 0x10
 550 0219 D5000000 		.4byte	.LASF26
 551 021d 01       		.byte	0x1
 552 021e 7C       		.byte	0x7c
 553 021f 2B010000 		.4byte	0x12b
 554 0223 D8000000 		.4byte	.LLST7
 555 0227 00       		.byte	0x0
 556 0228 11       		.uleb128 0x11
ARM GAS  /tmp/ccM74u58.s 			page 11


 557 0229 8D000000 		.4byte	.LASF27
 558 022d 06       		.byte	0x6
 559 022e 9404     		.2byte	0x494
 560 0230 9C000000 		.4byte	0x9c
 561 0234 01       		.byte	0x1
 562 0235 01       		.byte	0x1
 563 0236 11       		.uleb128 0x11
 564 0237 8D000000 		.4byte	.LASF27
 565 023b 06       		.byte	0x6
 566 023c 9404     		.2byte	0x494
 567 023e 9C000000 		.4byte	0x9c
 568 0242 01       		.byte	0x1
 569 0243 01       		.byte	0x1
 570 0244 00       		.byte	0x0
 571              		.section	.debug_abbrev
 572 0000 01       		.uleb128 0x1
 573 0001 11       		.uleb128 0x11
 574 0002 01       		.byte	0x1
 575 0003 25       		.uleb128 0x25
 576 0004 0E       		.uleb128 0xe
 577 0005 13       		.uleb128 0x13
 578 0006 0B       		.uleb128 0xb
 579 0007 03       		.uleb128 0x3
 580 0008 0E       		.uleb128 0xe
 581 0009 1B       		.uleb128 0x1b
 582 000a 0E       		.uleb128 0xe
 583 000b 11       		.uleb128 0x11
 584 000c 01       		.uleb128 0x1
 585 000d 52       		.uleb128 0x52
 586 000e 01       		.uleb128 0x1
 587 000f 55       		.uleb128 0x55
 588 0010 06       		.uleb128 0x6
 589 0011 10       		.uleb128 0x10
 590 0012 06       		.uleb128 0x6
 591 0013 00       		.byte	0x0
 592 0014 00       		.byte	0x0
 593 0015 02       		.uleb128 0x2
 594 0016 24       		.uleb128 0x24
 595 0017 00       		.byte	0x0
 596 0018 0B       		.uleb128 0xb
 597 0019 0B       		.uleb128 0xb
 598 001a 3E       		.uleb128 0x3e
 599 001b 0B       		.uleb128 0xb
 600 001c 03       		.uleb128 0x3
 601 001d 08       		.uleb128 0x8
 602 001e 00       		.byte	0x0
 603 001f 00       		.byte	0x0
 604 0020 03       		.uleb128 0x3
 605 0021 24       		.uleb128 0x24
 606 0022 00       		.byte	0x0
 607 0023 0B       		.uleb128 0xb
 608 0024 0B       		.uleb128 0xb
 609 0025 3E       		.uleb128 0x3e
 610 0026 0B       		.uleb128 0xb
 611 0027 03       		.uleb128 0x3
 612 0028 0E       		.uleb128 0xe
 613 0029 00       		.byte	0x0
ARM GAS  /tmp/ccM74u58.s 			page 12


 614 002a 00       		.byte	0x0
 615 002b 04       		.uleb128 0x4
 616 002c 16       		.uleb128 0x16
 617 002d 00       		.byte	0x0
 618 002e 03       		.uleb128 0x3
 619 002f 0E       		.uleb128 0xe
 620 0030 3A       		.uleb128 0x3a
 621 0031 0B       		.uleb128 0xb
 622 0032 3B       		.uleb128 0x3b
 623 0033 0B       		.uleb128 0xb
 624 0034 49       		.uleb128 0x49
 625 0035 13       		.uleb128 0x13
 626 0036 00       		.byte	0x0
 627 0037 00       		.byte	0x0
 628 0038 05       		.uleb128 0x5
 629 0039 35       		.uleb128 0x35
 630 003a 00       		.byte	0x0
 631 003b 49       		.uleb128 0x49
 632 003c 13       		.uleb128 0x13
 633 003d 00       		.byte	0x0
 634 003e 00       		.byte	0x0
 635 003f 06       		.uleb128 0x6
 636 0040 13       		.uleb128 0x13
 637 0041 01       		.byte	0x1
 638 0042 0B       		.uleb128 0xb
 639 0043 0B       		.uleb128 0xb
 640 0044 3A       		.uleb128 0x3a
 641 0045 0B       		.uleb128 0xb
 642 0046 3B       		.uleb128 0x3b
 643 0047 05       		.uleb128 0x5
 644 0048 01       		.uleb128 0x1
 645 0049 13       		.uleb128 0x13
 646 004a 00       		.byte	0x0
 647 004b 00       		.byte	0x0
 648 004c 07       		.uleb128 0x7
 649 004d 0D       		.uleb128 0xd
 650 004e 00       		.byte	0x0
 651 004f 03       		.uleb128 0x3
 652 0050 08       		.uleb128 0x8
 653 0051 3A       		.uleb128 0x3a
 654 0052 0B       		.uleb128 0xb
 655 0053 3B       		.uleb128 0x3b
 656 0054 05       		.uleb128 0x5
 657 0055 49       		.uleb128 0x49
 658 0056 13       		.uleb128 0x13
 659 0057 38       		.uleb128 0x38
 660 0058 0A       		.uleb128 0xa
 661 0059 00       		.byte	0x0
 662 005a 00       		.byte	0x0
 663 005b 08       		.uleb128 0x8
 664 005c 0D       		.uleb128 0xd
 665 005d 00       		.byte	0x0
 666 005e 03       		.uleb128 0x3
 667 005f 0E       		.uleb128 0xe
 668 0060 3A       		.uleb128 0x3a
 669 0061 0B       		.uleb128 0xb
 670 0062 3B       		.uleb128 0x3b
ARM GAS  /tmp/ccM74u58.s 			page 13


 671 0063 05       		.uleb128 0x5
 672 0064 49       		.uleb128 0x49
 673 0065 13       		.uleb128 0x13
 674 0066 38       		.uleb128 0x38
 675 0067 0A       		.uleb128 0xa
 676 0068 00       		.byte	0x0
 677 0069 00       		.byte	0x0
 678 006a 09       		.uleb128 0x9
 679 006b 16       		.uleb128 0x16
 680 006c 00       		.byte	0x0
 681 006d 03       		.uleb128 0x3
 682 006e 0E       		.uleb128 0xe
 683 006f 3A       		.uleb128 0x3a
 684 0070 0B       		.uleb128 0xb
 685 0071 3B       		.uleb128 0x3b
 686 0072 05       		.uleb128 0x5
 687 0073 49       		.uleb128 0x49
 688 0074 13       		.uleb128 0x13
 689 0075 00       		.byte	0x0
 690 0076 00       		.byte	0x0
 691 0077 0A       		.uleb128 0xa
 692 0078 0F       		.uleb128 0xf
 693 0079 00       		.byte	0x0
 694 007a 0B       		.uleb128 0xb
 695 007b 0B       		.uleb128 0xb
 696 007c 49       		.uleb128 0x49
 697 007d 13       		.uleb128 0x13
 698 007e 00       		.byte	0x0
 699 007f 00       		.byte	0x0
 700 0080 0B       		.uleb128 0xb
 701 0081 13       		.uleb128 0x13
 702 0082 01       		.byte	0x1
 703 0083 0B       		.uleb128 0xb
 704 0084 0B       		.uleb128 0xb
 705 0085 3A       		.uleb128 0x3a
 706 0086 0B       		.uleb128 0xb
 707 0087 3B       		.uleb128 0x3b
 708 0088 0B       		.uleb128 0xb
 709 0089 01       		.uleb128 0x1
 710 008a 13       		.uleb128 0x13
 711 008b 00       		.byte	0x0
 712 008c 00       		.byte	0x0
 713 008d 0C       		.uleb128 0xc
 714 008e 0D       		.uleb128 0xd
 715 008f 00       		.byte	0x0
 716 0090 03       		.uleb128 0x3
 717 0091 0E       		.uleb128 0xe
 718 0092 3A       		.uleb128 0x3a
 719 0093 0B       		.uleb128 0xb
 720 0094 3B       		.uleb128 0x3b
 721 0095 0B       		.uleb128 0xb
 722 0096 49       		.uleb128 0x49
 723 0097 13       		.uleb128 0x13
 724 0098 38       		.uleb128 0x38
 725 0099 0A       		.uleb128 0xa
 726 009a 00       		.byte	0x0
 727 009b 00       		.byte	0x0
ARM GAS  /tmp/ccM74u58.s 			page 14


 728 009c 0D       		.uleb128 0xd
 729 009d 2E       		.uleb128 0x2e
 730 009e 01       		.byte	0x1
 731 009f 3F       		.uleb128 0x3f
 732 00a0 0C       		.uleb128 0xc
 733 00a1 03       		.uleb128 0x3
 734 00a2 0E       		.uleb128 0xe
 735 00a3 3A       		.uleb128 0x3a
 736 00a4 0B       		.uleb128 0xb
 737 00a5 3B       		.uleb128 0x3b
 738 00a6 0B       		.uleb128 0xb
 739 00a7 27       		.uleb128 0x27
 740 00a8 0C       		.uleb128 0xc
 741 00a9 49       		.uleb128 0x49
 742 00aa 13       		.uleb128 0x13
 743 00ab 11       		.uleb128 0x11
 744 00ac 01       		.uleb128 0x1
 745 00ad 12       		.uleb128 0x12
 746 00ae 01       		.uleb128 0x1
 747 00af 40       		.uleb128 0x40
 748 00b0 06       		.uleb128 0x6
 749 00b1 01       		.uleb128 0x1
 750 00b2 13       		.uleb128 0x13
 751 00b3 00       		.byte	0x0
 752 00b4 00       		.byte	0x0
 753 00b5 0E       		.uleb128 0xe
 754 00b6 05       		.uleb128 0x5
 755 00b7 00       		.byte	0x0
 756 00b8 03       		.uleb128 0x3
 757 00b9 08       		.uleb128 0x8
 758 00ba 3A       		.uleb128 0x3a
 759 00bb 0B       		.uleb128 0xb
 760 00bc 3B       		.uleb128 0x3b
 761 00bd 0B       		.uleb128 0xb
 762 00be 49       		.uleb128 0x49
 763 00bf 13       		.uleb128 0x13
 764 00c0 02       		.uleb128 0x2
 765 00c1 06       		.uleb128 0x6
 766 00c2 00       		.byte	0x0
 767 00c3 00       		.byte	0x0
 768 00c4 0F       		.uleb128 0xf
 769 00c5 2E       		.uleb128 0x2e
 770 00c6 01       		.byte	0x1
 771 00c7 3F       		.uleb128 0x3f
 772 00c8 0C       		.uleb128 0xc
 773 00c9 03       		.uleb128 0x3
 774 00ca 0E       		.uleb128 0xe
 775 00cb 3A       		.uleb128 0x3a
 776 00cc 0B       		.uleb128 0xb
 777 00cd 3B       		.uleb128 0x3b
 778 00ce 0B       		.uleb128 0xb
 779 00cf 27       		.uleb128 0x27
 780 00d0 0C       		.uleb128 0xc
 781 00d1 11       		.uleb128 0x11
 782 00d2 01       		.uleb128 0x1
 783 00d3 12       		.uleb128 0x12
 784 00d4 01       		.uleb128 0x1
ARM GAS  /tmp/ccM74u58.s 			page 15


 785 00d5 40       		.uleb128 0x40
 786 00d6 06       		.uleb128 0x6
 787 00d7 01       		.uleb128 0x1
 788 00d8 13       		.uleb128 0x13
 789 00d9 00       		.byte	0x0
 790 00da 00       		.byte	0x0
 791 00db 10       		.uleb128 0x10
 792 00dc 05       		.uleb128 0x5
 793 00dd 00       		.byte	0x0
 794 00de 03       		.uleb128 0x3
 795 00df 0E       		.uleb128 0xe
 796 00e0 3A       		.uleb128 0x3a
 797 00e1 0B       		.uleb128 0xb
 798 00e2 3B       		.uleb128 0x3b
 799 00e3 0B       		.uleb128 0xb
 800 00e4 49       		.uleb128 0x49
 801 00e5 13       		.uleb128 0x13
 802 00e6 02       		.uleb128 0x2
 803 00e7 06       		.uleb128 0x6
 804 00e8 00       		.byte	0x0
 805 00e9 00       		.byte	0x0
 806 00ea 11       		.uleb128 0x11
 807 00eb 34       		.uleb128 0x34
 808 00ec 00       		.byte	0x0
 809 00ed 03       		.uleb128 0x3
 810 00ee 0E       		.uleb128 0xe
 811 00ef 3A       		.uleb128 0x3a
 812 00f0 0B       		.uleb128 0xb
 813 00f1 3B       		.uleb128 0x3b
 814 00f2 05       		.uleb128 0x5
 815 00f3 49       		.uleb128 0x49
 816 00f4 13       		.uleb128 0x13
 817 00f5 3F       		.uleb128 0x3f
 818 00f6 0C       		.uleb128 0xc
 819 00f7 3C       		.uleb128 0x3c
 820 00f8 0C       		.uleb128 0xc
 821 00f9 00       		.byte	0x0
 822 00fa 00       		.byte	0x0
 823 00fb 00       		.byte	0x0
 824              		.section	.debug_pubnames,"",%progbits
 825 0000 3F000000 		.4byte	0x3f
 826 0004 0200     		.2byte	0x2
 827 0006 00000000 		.4byte	.Ldebug_info0
 828 000a 45020000 		.4byte	0x245
 829 000e 85010000 		.4byte	0x185
 830 0012 70616C52 		.ascii	"palReadBus\000"
 830      65616442 
 830      757300
 831 001d B8010000 		.4byte	0x1b8
 832 0021 70616C57 		.ascii	"palWriteBus\000"
 832      72697465 
 832      42757300 
 833 002d F0010000 		.4byte	0x1f0
 834 0031 70616C53 		.ascii	"palSetBusMode\000"
 834      65744275 
 834      734D6F64 
 834      6500
ARM GAS  /tmp/ccM74u58.s 			page 16


 835 003f 00000000 		.4byte	0x0
 836              		.section	.debug_pubtypes,"",%progbits
 837 0000 80000000 		.4byte	0x80
 838 0004 0200     		.2byte	0x2
 839 0006 00000000 		.4byte	.Ldebug_info0
 840 000a 45020000 		.4byte	0x245
 841 000e 53000000 		.4byte	0x53
 842 0012 696E7433 		.ascii	"int32_t\000"
 842      325F7400 
 843 001a 65000000 		.4byte	0x65
 844 001e 75696E74 		.ascii	"uint32_t\000"
 844      33325F74 
 844      00
 845 0027 85000000 		.4byte	0x85
 846 002b 75696E74 		.ascii	"uint_fast8_t\000"
 846      5F666173 
 846      74385F74 
 846      00
 847 0038 14010000 		.4byte	0x114
 848 003c 4750494F 		.ascii	"GPIO_TypeDef\000"
 848      5F547970 
 848      65446566 
 848      00
 849 0049 20010000 		.4byte	0x120
 850 004d 696F706F 		.ascii	"ioportmask_t\000"
 850      72746D61 
 850      736B5F74 
 850      00
 851 005a 2B010000 		.4byte	0x12b
 852 005e 696F6D6F 		.ascii	"iomode_t\000"
 852      64655F74 
 852      00
 853 0067 36010000 		.4byte	0x136
 854 006b 696F706F 		.ascii	"ioportid_t\000"
 854      72746964 
 854      5F7400
 855 0076 7A010000 		.4byte	0x17a
 856 007a 494F4275 		.ascii	"IOBus\000"
 856      7300
 857 0080 00000000 		.4byte	0x0
 858              		.section	.debug_aranges,"",%progbits
 859 0000 2C000000 		.4byte	0x2c
 860 0004 0200     		.2byte	0x2
 861 0006 00000000 		.4byte	.Ldebug_info0
 862 000a 04       		.byte	0x4
 863 000b 00       		.byte	0x0
 864 000c 0000     		.2byte	0x0
 865 000e 0000     		.2byte	0x0
 866 0010 00000000 		.4byte	.LFB55
 867 0014 24000000 		.4byte	.LFE55-.LFB55
 868 0018 00000000 		.4byte	.LFB56
 869 001c 38000000 		.4byte	.LFE56-.LFB56
 870 0020 00000000 		.4byte	.LFB57
 871 0024 2C000000 		.4byte	.LFE57-.LFB57
 872 0028 00000000 		.4byte	0x0
 873 002c 00000000 		.4byte	0x0
 874              		.section	.debug_ranges,"",%progbits
ARM GAS  /tmp/ccM74u58.s 			page 17


 875              	.Ldebug_ranges0:
 876 0000 00000000 		.4byte	.LFB55
 877 0004 24000000 		.4byte	.LFE55
 878 0008 00000000 		.4byte	.LFB56
 879 000c 38000000 		.4byte	.LFE56
 880 0010 00000000 		.4byte	.LFB57
 881 0014 2C000000 		.4byte	.LFE57
 882 0018 00000000 		.4byte	0x0
 883 001c 00000000 		.4byte	0x0
 884              		.section	.debug_str,"MS",%progbits,1
 885              	.LASF14:
 886 0000 4C434B52 		.ascii	"LCKR\000"
 886      00
 887              	.LASF28:
 888 0005 474E5520 		.ascii	"GNU C 4.5.2\000"
 888      4320342E 
 888      352E3200 
 889              	.LASF11:
 890 0011 75696E74 		.ascii	"uint_fast8_t\000"
 890      5F666173 
 890      74385F74 
 890      00
 891              	.LASF13:
 892 001e 42535252 		.ascii	"BSRR\000"
 892      00
 893              	.LASF24:
 894 0023 70616C57 		.ascii	"palWriteBus\000"
 894      72697465 
 894      42757300 
 895              	.LASF25:
 896 002f 70616C53 		.ascii	"palSetBusMode\000"
 896      65744275 
 896      734D6F64 
 896      6500
 897              	.LASF19:
 898 003d 706F7274 		.ascii	"portid\000"
 898      696400
 899              	.LASF16:
 900 0044 696F706F 		.ascii	"ioportmask_t\000"
 900      72746D61 
 900      736B5F74 
 900      00
 901              	.LASF17:
 902 0051 696F6D6F 		.ascii	"iomode_t\000"
 902      64655F74 
 902      00
 903              	.LASF2:
 904 005a 756E7369 		.ascii	"unsigned char\000"
 904      676E6564 
 904      20636861 
 904      7200
 905              	.LASF8:
 906 0068 6C6F6E67 		.ascii	"long unsigned int\000"
 906      20756E73 
 906      69676E65 
 906      6420696E 
 906      7400
ARM GAS  /tmp/ccM74u58.s 			page 18


 907              	.LASF4:
 908 007a 73686F72 		.ascii	"short unsigned int\000"
 908      7420756E 
 908      7369676E 
 908      65642069 
 908      6E7400
 909              	.LASF27:
 910 008d 49544D5F 		.ascii	"ITM_RxBuffer\000"
 910      52784275 
 910      66666572 
 910      00
 911              	.LASF29:
 912 009a 2E2E2F63 		.ascii	"../chibios/os/hal/src/pal.c\000"
 912      68696269 
 912      6F732F6F 
 912      732F6861 
 912      6C2F7372 
 913              	.LASF0:
 914 00b6 756E7369 		.ascii	"unsigned int\000"
 914      676E6564 
 914      20696E74 
 914      00
 915              	.LASF15:
 916 00c3 4750494F 		.ascii	"GPIO_TypeDef\000"
 916      5F547970 
 916      65446566 
 916      00
 917              	.LASF12:
 918 00d0 63686172 		.ascii	"char\000"
 918      00
 919              	.LASF26:
 920 00d5 6D6F6465 		.ascii	"mode\000"
 920      00
 921              	.LASF6:
 922 00da 696E7433 		.ascii	"int32_t\000"
 922      325F7400 
 923              	.LASF9:
 924 00e2 6C6F6E67 		.ascii	"long long int\000"
 924      206C6F6E 
 924      6720696E 
 924      7400
 925              	.LASF20:
 926 00f0 6D61736B 		.ascii	"mask\000"
 926      00
 927              	.LASF23:
 928 00f5 62697473 		.ascii	"bits\000"
 928      00
 929              	.LASF21:
 930 00fa 6F666673 		.ascii	"offset\000"
 930      657400
 931              	.LASF3:
 932 0101 73686F72 		.ascii	"short int\000"
 932      7420696E 
 932      7400
 933              	.LASF18:
 934 010b 696F706F 		.ascii	"ioportid_t\000"
 934      72746964 
ARM GAS  /tmp/ccM74u58.s 			page 19


 934      5F7400
 935              	.LASF7:
 936 0116 75696E74 		.ascii	"uint32_t\000"
 936      33325F74 
 936      00
 937              	.LASF5:
 938 011f 6C6F6E67 		.ascii	"long int\000"
 938      20696E74 
 938      00
 939              	.LASF30:
 940 0128 2F686F6D 		.ascii	"/home/z80/projects/dfu.git/firmware-pawn-dev/firmwa"
 940      652F7A38 
 940      302F7072 
 940      6F6A6563 
 940      74732F64 
 941 015b 726500   		.ascii	"re\000"
 942              	.LASF31:
 943 015e 70616C52 		.ascii	"palReadBus\000"
 943      65616442 
 943      757300
 944              	.LASF1:
 945 0169 7369676E 		.ascii	"signed char\000"
 945      65642063 
 945      68617200 
 946              	.LASF10:
 947 0175 6C6F6E67 		.ascii	"long long unsigned int\000"
 947      206C6F6E 
 947      6720756E 
 947      7369676E 
 947      65642069 
 948              	.LASF22:
 949 018c 494F4275 		.ascii	"IOBus\000"
 949      7300
 950              		.ident	"GCC: (Sourcery G++ Lite 2011.03-42) 4.5.2"
ARM GAS  /tmp/ccM74u58.s 			page 20


DEFINED SYMBOLS
                            *ABS*:00000000 pal.c
     /tmp/ccM74u58.s:24     .text.palReadBus:00000000 $t
     /tmp/ccM74u58.s:29     .text.palReadBus:00000000 palReadBus
     /tmp/ccM74u58.s:67     .text.palReadBus:00000020 $d
     /tmp/ccM74u58.s:72     .text.palWriteBus:00000000 $t
     /tmp/ccM74u58.s:77     .text.palWriteBus:00000000 palWriteBus
     /tmp/ccM74u58.s:125    .text.palWriteBus:00000034 $d
     /tmp/ccM74u58.s:130    .text.palSetBusMode:00000000 $t
     /tmp/ccM74u58.s:135    .text.palSetBusMode:00000000 palSetBusMode
     /tmp/ccM74u58.s:178    .text.palSetBusMode:00000028 $d
                     .debug_frame:00000010 $d

UNDEFINED SYMBOLS
chDbgPanic
_pal_lld_setgroupmode
