ARM GAS  /tmp/ccM74u58.s 			page 1


   1              		.syntax unified
   2              		.cpu cortex-m3
   3              		.fpu softvfp
   4              		.eabi_attribute 20, 1
   5              		.eabi_attribute 21, 1
   6              		.eabi_attribute 23, 3
   7              		.eabi_attribute 24, 1
   8              		.eabi_attribute 25, 1
   9              		.eabi_attribute 26, 1
  10              		.eabi_attribute 30, 4
  11              		.eabi_attribute 18, 4
  12              		.thumb
  13              		.file	"pal.c"
  20 0000 E1010000 		.text
  20      02007B01 
  20      00000201 
  20      FB0E0D00 
  20      01010101 
  21              	.Ltext0:
  22              		.cfi_sections	.debug_frame
  23              		.section	.text.palReadBus,"ax",%progbits
  24              		.align	1
  25              		.global	palReadBus
  26              		.thumb
  27              		.thumb_func
  28              		.type	palReadBus, %function
  29              	palReadBus:
  30              	.LFB55:
  31              		.file 1 "../chibios/os/hal/src/pal.c"
  32              		.loc 1 76 0
  33              		.cfi_startproc
  34              		@ args = 0, pretend = 0, frame = 0
  35              		@ frame_needed = 0, uses_anonymous_args = 0
  36              	.LVL0:
  37 0000 10B5     		push	{r4, lr}
  38              	.LCFI0:
  39              		.cfi_def_cfa_offset 8
  40              		.loc 1 78 0
  41 0002 0446     		mov	r4, r0
  42              		.cfi_offset 14, -4
  43              		.cfi_offset 4, -8
  44 0004 10B1     		cbz	r0, .L2
  45              		.loc 1 78 0 is_stmt 0 discriminator 2
  46 0006 8368     		ldr	r3, [r0, #8]
  47 0008 0F2B     		cmp	r3, #15
  48 000a 02D9     		bls	.L3
  49              	.L2:
  50              		.loc 1 78 0 discriminator 1
  51 000c 0448     		ldr	r0, .L4
  52              	.LVL1:
  53 000e FFF7FEFF 		bl	chDbgPanic
ARM GAS  /tmp/ccM74u58.s 			page 2


  54              	.L3:
  55              		.loc 1 81 0 is_stmt 1
  56 0012 2368     		ldr	r3, [r4, #0]
  57 0014 9868     		ldr	r0, [r3, #8]
  58 0016 A368     		ldr	r3, [r4, #8]
  59 0018 D840     		lsrs	r0, r0, r3
  60 001a 6368     		ldr	r3, [r4, #4]
  61              		.loc 1 82 0
  62 001c 1840     		ands	r0, r0, r3
  63 001e 10BD     		pop	{r4, pc}
  64              	.L5:
  65              		.align	2
  66              	.L4:
  67 0020 00000000 		.word	.LC0
  68              		.cfi_endproc
  69              	.LFE55:
  70              		.size	palReadBus, .-palReadBus
  71              		.section	.text.palWriteBus,"ax",%progbits
  72              		.align	1
  73              		.global	palWriteBus
  74              		.thumb
  75              		.thumb_func
  76              		.type	palWriteBus, %function
  77              	palWriteBus:
  78              	.LFB56:
  79              		.loc 1 101 0
  80              		.cfi_startproc
  81              		@ args = 0, pretend = 0, frame = 0
  82              		@ frame_needed = 0, uses_anonymous_args = 0
  83              	.LVL2:
  84 0000 38B5     		push	{r3, r4, r5, lr}
  85              	.LCFI1:
  86              		.cfi_def_cfa_offset 16
  87              		.loc 1 101 0
  88 0002 0D46     		mov	r5, r1
  89              		.cfi_offset 14, -4
  90              		.cfi_offset 5, -8
  91              		.cfi_offset 4, -12
  92              		.cfi_offset 3, -16
  93              		.loc 1 103 0
  94 0004 0446     		mov	r4, r0
  95 0006 10B1     		cbz	r0, .L7
  96              		.loc 1 103 0 is_stmt 0 discriminator 2
  97 0008 8368     		ldr	r3, [r0, #8]
  98 000a 0F2B     		cmp	r3, #15
  99 000c 02D9     		bls	.L8
 100              	.L7:
 101              		.loc 1 103 0 discriminator 1
 102 000e 0948     		ldr	r0, .L9
 103              	.LVL3:
 104 0010 FFF7FEFF 		bl	chDbgPanic
 105              	.LVL4:
 106              	.L8:
 107              		.loc 1 106 0 is_stmt 1
 108 0014 A368     		ldr	r3, [r4, #8]
 109 0016 6268     		ldr	r2, [r4, #4]
 110 0018 2168     		ldr	r1, [r4, #0]
ARM GAS  /tmp/ccM74u58.s 			page 3


 111 001a 03F11000 		add	r0, r3, #16
 112 001e 22EA0504 		bic	r4, r2, r5
 113              	.LVL5:
 114 0022 1540     		ands	r5, r5, r2
 115              	.LVL6:
 116 0024 14FA00F0 		lsls	r0, r4, r0
 117 0028 15FA03F3 		lsls	r3, r5, r3
 118 002c 40EA0303 		orr	r3, r0, r3
 119 0030 0B61     		str	r3, [r1, #16]
 120              		.loc 1 107 0
 121 0032 38BD     		pop	{r3, r4, r5, pc}
 122              	.L10:
 123              		.align	2
 124              	.L9:
 125 0034 0F000000 		.word	.LC1
 126              		.cfi_endproc
 127              	.LFE56:
 128              		.size	palWriteBus, .-palWriteBus
 129              		.section	.text.palSetBusMode,"ax",%progbits
 130              		.align	1
 131              		.global	palSetBusMode
 132              		.thumb
 133              		.thumb_func
 134              		.type	palSetBusMode, %function
 135              	palSetBusMode:
 136              	.LFB57:
 137              		.loc 1 124 0
 138              		.cfi_startproc
 139              		@ args = 0, pretend = 0, frame = 0
 140              		@ frame_needed = 0, uses_anonymous_args = 0
 141              	.LVL7:
 142 0000 70B5     		push	{r4, r5, r6, lr}
 143              	.LCFI2:
 144              		.cfi_def_cfa_offset 16
 145              		.loc 1 124 0
 146 0002 0C46     		mov	r4, r1
 147              		.cfi_offset 14, -4
 148              		.cfi_offset 6, -8
 149              		.cfi_offset 5, -12
 150              		.cfi_offset 4, -16
 151              		.loc 1 126 0
 152 0004 0546     		mov	r5, r0
 153 0006 10B1     		cbz	r0, .L12
 154              		.loc 1 126 0 is_stmt 0 discriminator 2
 155 0008 8368     		ldr	r3, [r0, #8]
 156 000a 0F2B     		cmp	r3, #15
 157 000c 02D9     		bls	.L13
 158              	.L12:
 159              		.loc 1 126 0 discriminator 1
 160 000e 0648     		ldr	r0, .L14
 161              	.LVL8:
 162 0010 FFF7FEFF 		bl	chDbgPanic
 163              	.LVL9:
 164              	.L13:
 165              		.loc 1 129 0 is_stmt 1
 166 0014 6968     		ldr	r1, [r5, #4]
 167 0016 AB68     		ldr	r3, [r5, #8]
ARM GAS  /tmp/ccM74u58.s 			page 4


 168 0018 2868     		ldr	r0, [r5, #0]
 169 001a 9940     		lsls	r1, r1, r3
 170 001c 2246     		mov	r2, r4
 171              		.loc 1 130 0
 172 001e BDE87040 		pop	{r4, r5, r6, lr}
 173              		.loc 1 129 0
 174 0022 FFF7FEBF 		b	_pal_lld_setgroupmode
 175              	.L15:
 176 0026 00BF     		.align	2
 177              	.L14:
 178 0028 1F000000 		.word	.LC2
 179              		.cfi_endproc
 180              	.LFE57:
 181              		.size	palSetBusMode, .-palSetBusMode
 182              		.section	.rodata.str1.1,"aMS",%progbits,1
 183              	.LC0:
 184 0000 2270616C 		.ascii	"\"palReadBus\"()\000"
 184      52656164 
 184      42757322 
 184      282900
 185              	.LC1:
 186 000f 2270616C 		.ascii	"\"palWriteBus\"()\000"
 186      57726974 
 186      65427573 
 186      22282900 
 187              	.LC2:
 188 001f 2270616C 		.ascii	"\"palSetBusMode\"()\000"
 188      53657442 
 188      75734D6F 
 188      64652228 
 188      2900
 189              		.text
 190              	.Letext0: