ARM GAS  /tmp/ccXStSe5.s 			page 1


   1              		.syntax unified
   2              		.cpu cortex-m3
   3              		.fpu softvfp
   4              		.eabi_attribute 20, 1
   5              		.eabi_attribute 21, 1
   6              		.eabi_attribute 23, 3
   7              		.eabi_attribute 24, 1
   8              		.eabi_attribute 25, 1
   9              		.eabi_attribute 26, 1
  10              		.eabi_attribute 30, 4
  11              		.eabi_attribute 18, 4
  12              		.thumb
  13              		.file	"pawn_ctrl.c"
  20 0000 51030000 		.text
  20      0200A501 
  20      00000201 
  20      FB0E0D00 
  20      01010101 
  21              	.Ltext0:
  22              		.cfi_sections	.debug_frame
  23              		.section	.text.aux_Monitor,"ax",%progbits
  24              		.align	1
  25              		.global	aux_Monitor
  26              		.thumb
  27              		.thumb_func
  28              		.type	aux_Monitor, %function
  29              	aux_Monitor:
  30              	.LFB55:
  31              		.file 1 "pawn/pawn_ctrl.c"
  32              		.loc 1 32 0
  33              		.cfi_startproc
  34              		@ args = 0, pretend = 0, frame = 0
  35              		@ frame_needed = 0, uses_anonymous_args = 0
  36              		@ link register save eliminated.
  37              	.LVL0:
  38              		.loc 1 35 0
  39 0000 0120     		movs	r0, #1
  40              	.LVL1:
  41 0002 7047     		bx	lr
  42              		.cfi_endproc
  43              	.LFE55:
  44              		.size	aux_Monitor, .-aux_Monitor
  45              		.section	.text.n_io,"ax",%progbits
  46              		.align	1
  47              		.thumb
  48              		.thumb_func
  49              		.type	n_io, %function
  50              	n_io:
  51              	.LFB57:
  52              		.loc 1 70 0
  53              		.cfi_startproc
ARM GAS  /tmp/ccXStSe5.s 			page 2


  54              		@ args = 0, pretend = 0, frame = 0
  55              		@ frame_needed = 0, uses_anonymous_args = 0
  56              		@ link register save eliminated.
  57              	.LVL2:
  58              		.loc 1 74 0
  59 0000 4B68     		ldr	r3, [r1, #4]
  60 0002 024A     		ldr	r2, .L3
  61 0004 D318     		adds	r3, r2, r3
  62              		.loc 1 75 0
  63 0006 93F88408 		ldrb	r0, [r3, #2180]	@ zero_extendqisi2
  64              	.LVL3:
  65 000a 7047     		bx	lr
  66              	.L4:
  67              		.align	2
  68              	.L3:
  69 000c 00000000 		.word	.LANCHOR0
  70              		.cfi_endproc
  71              	.LFE57:
  72              		.size	n_io, .-n_io
  73              		.section	.text.n_setIo,"ax",%progbits
  74              		.align	1
  75              		.thumb
  76              		.thumb_func
  77              		.type	n_setIo, %function
  78              	n_setIo:
  79              	.LFB58:
  80              		.loc 1 78 0
  81              		.cfi_startproc
  82              		@ args = 0, pretend = 0, frame = 0
  83              		@ frame_needed = 0, uses_anonymous_args = 0
  84              		@ link register save eliminated.
  85              	.LVL4:
  86              		.loc 1 81 0
  87 0000 0B79     		ldrb	r3, [r1, #4]	@ zero_extendqisi2
  88              		.loc 1 82 0
  89 0002 034A     		ldr	r2, .L6
  90              		.loc 1 84 0
  91 0004 0020     		movs	r0, #0
  92              	.LVL5:
  93              		.loc 1 82 0
  94 0006 D318     		adds	r3, r2, r3
  95 0008 8A68     		ldr	r2, [r1, #8]
  96 000a 83F88428 		strb	r2, [r3, #2180]
  97              		.loc 1 84 0
  98 000e 7047     		bx	lr
  99              	.L7:
 100              		.align	2
 101              	.L6:
 102 0010 00000000 		.word	.LANCHOR0
 103              		.cfi_endproc
 104              	.LFE58:
 105              		.size	n_setIo, .-n_setIo
 106              		.section	.text.execThread,"ax",%progbits
 107              		.align	1
 108              		.thumb
 109              		.thumb_func
 110              		.type	execThread, %function
ARM GAS  /tmp/ccXStSe5.s 			page 3


 111              	execThread:
 112              	.LFB70:
 113              		.loc 1 212 0
 114              		.cfi_startproc
 115              		@ args = 0, pretend = 0, frame = 0
 116              		@ frame_needed = 0, uses_anonymous_args = 0
 117              	.LVL6:
 118              		.loc 1 214 0
 119 0000 244B     		ldr	r3, .L14
 120 0002 254A     		ldr	r2, .L14+4
 121 0004 DB69     		ldr	r3, [r3, #28]
 122              		.loc 1 212 0
 123 0006 70B5     		push	{r4, r5, r6, lr}
 124              	.LCFI0:
 125              		.cfi_def_cfa_offset 16
 126              		.loc 1 214 0
 127 0008 9A61     		str	r2, [r3, #24]
 128              	.LVL7:
 129              	.L13:
 130              		.loc 1 217 0 discriminator 1
 131 000a 2448     		ldr	r0, .L14+8
 132              		.cfi_offset 14, -4
 133              		.cfi_offset 6, -8
 134              		.cfi_offset 5, -12
 135              		.cfi_offset 4, -16
 136 000c FFF7FEFF 		bl	chSemWait
 137              	.LVL8:
 138              	.LBB4:
 139              	.LBB5:
 140              		.loc 1 39 0 discriminator 1
 141              	@ 39 "pawn/pawn_ctrl.c" 1
 142 0010 FFF7FEFF 		bl      _port_lock
 143              	@ 0 "" 2
 144              		.loc 1 40 0 discriminator 1
 145              		.thumb
 146 0014 224C     		ldr	r4, .L14+12
 147 0016 0025     		movs	r5, #0
 148              		.loc 1 39 0 discriminator 1
 149 0018 FFF7FEFF 		bl	dbg_check_lock
 150              		.loc 1 40 0 discriminator 1
 151 001c 84F87850 		strb	r5, [r4, #120]
 152              		.loc 1 41 0 discriminator 1
 153 0020 FFF7FEFF 		bl	dbg_check_unlock
 154              	@ 41 "pawn/pawn_ctrl.c" 1
 155 0024 FFF7FEFF 		bl      _port_unlock
 156              	@ 0 "" 2
 157              	.LVL9:
 158              		.thumb
 159 0028 2346     		mov	r3, r4
 160              	.LVL10:
 161              	.L9:
 162              		.loc 1 45 0
 163 002a 0022     		movs	r2, #0
 164 002c 5A55     		strb	r2, [r3, r5]
 165              		.loc 1 44 0
 166 002e 0135     		adds	r5, r5, #1
 167              	.LVL11:
ARM GAS  /tmp/ccXStSe5.s 			page 4


 168 0030 782D     		cmp	r5, #120
 169              		.loc 1 45 0
 170 0032 1B4C     		ldr	r4, .L14+12
 171              		.loc 1 44 0
 172 0034 F9D1     		bne	.L9
 173              		.loc 1 46 0
 174 0036 04F18403 		add	r3, r4, #132
 175              		.loc 1 48 0
 176 003a 2046     		mov	r0, r4
 177 003c 1949     		ldr	r1, .L14+16
 178              		.loc 1 46 0
 179 003e A360     		str	r3, [r4, #8]
 180              	.LVL12:
 181              		.loc 1 48 0
 182 0040 FFF7FEFF 		bl	amx_Init
 183 0044 0546     		mov	r5, r0
 184              	.LVL13:
 185 0046 E067     		str	r0, [r4, #124]
 186              		.loc 1 49 0
 187 0048 0028     		cmp	r0, #0
 188 004a DED1     		bne	.L13
 189              		.loc 1 53 0
 190              	@ 53 "pawn/pawn_ctrl.c" 1
 191 004c FFF7FEFF 		bl      _port_lock
 192              	@ 0 "" 2
 193              		.thumb
 194 0050 FFF7FEFF 		bl	dbg_check_lock
 195              		.loc 1 54 0
 196 0054 0123     		movs	r3, #1
 197 0056 84F87830 		strb	r3, [r4, #120]
 198              		.loc 1 55 0
 199 005a FFF7FEFF 		bl	dbg_check_unlock
 200              	@ 55 "pawn/pawn_ctrl.c" 1
 201 005e FFF7FEFF 		bl      _port_unlock
 202              	@ 0 "" 2
 203              		.loc 1 57 0
 204              		.thumb
 205 0062 114E     		ldr	r6, .L14+20
 206 0064 4FF0FF32 		mov	r2, #-1
 207 0068 3146     		mov	r1, r6
 208 006a 2046     		mov	r0, r4
 209 006c FFF7FEFF 		bl	amx_Exec
 210              		.loc 1 58 0
 211 0070 3368     		ldr	r3, [r6, #0]
 212              		.loc 1 57 0
 213 0072 C4F88000 		str	r0, [r4, #128]
 214              		.loc 1 59 0
 215 0076 2046     		mov	r0, r4
 216              		.loc 1 58 0
 217 0078 E367     		str	r3, [r4, #124]
 218              		.loc 1 59 0
 219 007a FFF7FEFF 		bl	amx_Cleanup
 220              		.loc 1 61 0
 221              	@ 61 "pawn/pawn_ctrl.c" 1
 222 007e FFF7FEFF 		bl      _port_lock
 223              	@ 0 "" 2
 224              		.thumb
ARM GAS  /tmp/ccXStSe5.s 			page 5


 225 0082 FFF7FEFF 		bl	dbg_check_lock
 226              		.loc 1 62 0
 227 0086 84F87850 		strb	r5, [r4, #120]
 228              		.loc 1 63 0
 229 008a FFF7FEFF 		bl	dbg_check_unlock
 230              	@ 63 "pawn/pawn_ctrl.c" 1
 231 008e FFF7FEFF 		bl      _port_unlock
 232              	@ 0 "" 2
 233              		.thumb
 234 0092 BAE7     		b	.L13
 235              	.L15:
 236              		.align	2
 237              	.L14:
 238 0094 00000000 		.word	rlist
 239 0098 00000000 		.word	.LC0
 240 009c 00000000 		.word	.LANCHOR1
 241 00a0 00000000 		.word	.LANCHOR0
 242 00a4 00A00008 		.word	134258688
 243 00a8 00000000 		.word	.LANCHOR2
 244              	.LBE5:
 245              	.LBE4:
 246              		.cfi_endproc
 247              	.LFE70:
 248              		.size	execThread, .-execThread
 249              		.section	.text.pawnInit,"ax",%progbits
 250              		.align	1
 251              		.global	pawnInit
 252              		.thumb
 253              		.thumb_func
 254              		.type	pawnInit, %function
 255              	pawnInit:
 256              	.LFB59:
 257              		.loc 1 117 0
 258              		.cfi_startproc
 259              		@ args = 0, pretend = 0, frame = 0
 260              		@ frame_needed = 0, uses_anonymous_args = 0
 261 0000 07B5     		push	{r0, r1, r2, lr}
 262              	.LCFI1:
 263              		.cfi_def_cfa_offset 16
 264              		.loc 1 119 0
 265 0002 0021     		movs	r1, #0
 266              		.cfi_offset 14, -4
 267              		.cfi_offset 2, -8
 268              		.cfi_offset 1, -12
 269              		.cfi_offset 0, -16
 270 0004 0648     		ldr	r0, .L17
 271 0006 FFF7FEFF 		bl	chSemInit
 272              		.loc 1 121 0
 273 000a 0023     		movs	r3, #0
 274 000c 0093     		str	r3, [sp, #0]
 275 000e 4FF40B61 		mov	r1, #2224
 276 0012 4022     		movs	r2, #64
 277 0014 034B     		ldr	r3, .L17+4
 278 0016 0448     		ldr	r0, .L17+8
 279 0018 FFF7FEFF 		bl	chThdCreateStatic
 280              		.loc 1 122 0
 281 001c 0EBD     		pop	{r1, r2, r3, pc}
ARM GAS  /tmp/ccXStSe5.s 			page 6


 282              	.L18:
 283 001e 00BF     		.align	2
 284              	.L17:
 285 0020 00000000 		.word	.LANCHOR1
 286 0024 00000000 		.word	execThread
 287 0028 00000000 		.word	.LANCHOR3
 288              		.cfi_endproc
 289              	.LFE59:
 290              		.size	pawnInit, .-pawnInit
 291              		.section	.text.pawnSetIo,"ax",%progbits
 292              		.align	1
 293              		.global	pawnSetIo
 294              		.thumb
 295              		.thumb_func
 296              		.type	pawnSetIo, %function
 297              	pawnSetIo:
 298              	.LFB60:
 299              		.loc 1 125 0
 300              		.cfi_startproc
 301              		@ args = 0, pretend = 0, frame = 0
 302              		@ frame_needed = 0, uses_anonymous_args = 0
 303              	.LVL14:
 304 0000 10B5     		push	{r4, lr}
 305              	.LCFI2:
 306              		.cfi_def_cfa_offset 8
 307              		.loc 1 127 0
 308 0002 0023     		movs	r3, #0
 309 0004 06E0     		b	.L20
 310              		.cfi_offset 14, -4
 311              		.cfi_offset 4, -8
 312              	.LVL15:
 313              	.L21:
 314              		.loc 1 124 0 discriminator 2
 315 0006 054A     		ldr	r2, .L22
 316              		.loc 1 128 0 discriminator 2
 317 0008 11F8014B 		ldrb	r4, [r1], #1	@ zero_extendqisi2
 318              		.loc 1 124 0 discriminator 2
 319 000c D218     		adds	r2, r2, r3
 320              		.loc 1 128 0 discriminator 2
 321 000e 82F88448 		strb	r4, [r2, #2180]
 322 0012 0133     		adds	r3, r3, #1
 323              	.L20:
 324              		.loc 1 127 0 discriminator 1
 325 0014 DAB2     		uxtb	r2, r3
 326 0016 8242     		cmp	r2, r0
 327 0018 F5D3     		bcc	.L21
 328              		.loc 1 129 0
 329 001a 10BD     		pop	{r4, pc}
 330              	.L23:
 331              		.align	2
 332              	.L22:
 333 001c 00000000 		.word	.LANCHOR0
 334              		.cfi_endproc
 335              	.LFE60:
 336              		.size	pawnSetIo, .-pawnSetIo
 337              		.section	.text.pawnIo,"ax",%progbits
 338              		.align	1
ARM GAS  /tmp/ccXStSe5.s 			page 7


 339              		.global	pawnIo
 340              		.thumb
 341              		.thumb_func
 342              		.type	pawnIo, %function
 343              	pawnIo:
 344              	.LFB61:
 345              		.loc 1 132 0
 346              		.cfi_startproc
 347              		@ args = 0, pretend = 0, frame = 0
 348              		@ frame_needed = 0, uses_anonymous_args = 0
 349              		@ link register save eliminated.
 350              	.LVL16:
 351              		.loc 1 134 0
 352 0000 0023     		movs	r3, #0
 353 0002 05E0     		b	.L25
 354              	.LVL17:
 355              	.L26:
 356              		.loc 1 131 0 discriminator 2
 357 0004 044A     		ldr	r2, .L27
 358 0006 D218     		adds	r2, r2, r3
 359              		.loc 1 135 0 discriminator 2
 360 0008 92F88428 		ldrb	r2, [r2, #2180]	@ zero_extendqisi2
 361 000c CA54     		strb	r2, [r1, r3]
 362 000e 0133     		adds	r3, r3, #1
 363              	.L25:
 364              		.loc 1 134 0 discriminator 1
 365 0010 DAB2     		uxtb	r2, r3
 366 0012 8242     		cmp	r2, r0
 367 0014 F6D3     		bcc	.L26
 368              		.loc 1 136 0
 369 0016 7047     		bx	lr
 370              	.L28:
 371              		.align	2
 372              	.L27:
 373 0018 00000000 		.word	.LANCHOR0
 374              		.cfi_endproc
 375              	.LFE61:
 376              		.size	pawnIo, .-pawnIo
 377              		.section	.text.pawnSetMem,"ax",%progbits
 378              		.align	1
 379              		.global	pawnSetMem
 380              		.thumb
 381              		.thumb_func
 382              		.type	pawnSetMem, %function
 383              	pawnSetMem:
 384              	.LFB62:
 385              		.loc 1 139 0
 386              		.cfi_startproc
 387              		@ args = 0, pretend = 0, frame = 0
 388              		@ frame_needed = 0, uses_anonymous_args = 0
 389              	.LVL18:
 390              		.loc 1 138 0
 391 0000 064B     		ldr	r3, .L32
 392              		.loc 1 139 0
 393 0002 10B5     		push	{r4, lr}
 394              	.LCFI3:
 395              		.cfi_def_cfa_offset 8
ARM GAS  /tmp/ccXStSe5.s 			page 8


 396              		.loc 1 138 0
 397 0004 CB18     		adds	r3, r1, r3
 398              		.loc 1 142 0
 399 0006 0024     		movs	r4, #0
 400              		.cfi_offset 14, -4
 401              		.cfi_offset 4, -8
 402 0008 03E0     		b	.L30
 403              	.LVL19:
 404              	.L31:
 405              		.loc 1 143 0 discriminator 2
 406 000a 115D     		ldrb	r1, [r2, r4]	@ zero_extendqisi2
 407 000c 0134     		adds	r4, r4, #1
 408 000e 03F8011F 		strb	r1, [r3, #1]!
 409              	.L30:
 410              		.loc 1 142 0 discriminator 1
 411 0012 A1B2     		uxth	r1, r4
 412 0014 8142     		cmp	r1, r0
 413 0016 F8D3     		bcc	.L31
 414              		.loc 1 144 0
 415 0018 10BD     		pop	{r4, pc}
 416              	.L33:
 417 001a 00BF     		.align	2
 418              	.L32:
 419 001c 83000000 		.word	.LANCHOR0+131
 420              		.cfi_endproc
 421              	.LFE62:
 422              		.size	pawnSetMem, .-pawnSetMem
 423              		.section	.text.pawnMem,"ax",%progbits
 424              		.align	1
 425              		.global	pawnMem
 426              		.thumb
 427              		.thumb_func
 428              		.type	pawnMem, %function
 429              	pawnMem:
 430              	.LFB63:
 431              		.loc 1 147 0
 432              		.cfi_startproc
 433              		@ args = 0, pretend = 0, frame = 0
 434              		@ frame_needed = 0, uses_anonymous_args = 0
 435              		@ link register save eliminated.
 436              	.LVL20:
 437              		.loc 1 148 0
 438 0000 024B     		ldr	r3, .L35
 439              		.loc 1 149 0
 440 0002 1B18     		adds	r3, r3, r0
 441              		.loc 1 150 0
 442 0004 93F88400 		ldrb	r0, [r3, #132]	@ zero_extendqisi2
 443              	.LVL21:
 444 0008 7047     		bx	lr
 445              	.L36:
 446 000a 00BF     		.align	2
 447              	.L35:
 448 000c 00000000 		.word	.LANCHOR0
 449              		.cfi_endproc
 450              	.LFE63:
 451              		.size	pawnMem, .-pawnMem
 452              		.section	.text.pawnWriteFlash,"ax",%progbits
ARM GAS  /tmp/ccXStSe5.s 			page 9


 453              		.align	1
 454              		.global	pawnWriteFlash
 455              		.thumb
 456              		.thumb_func
 457              		.type	pawnWriteFlash, %function
 458              	pawnWriteFlash:
 459              	.LFB64:
 460              		.loc 1 153 0
 461              		.cfi_startproc
 462              		@ args = 0, pretend = 0, frame = 0
 463              		@ frame_needed = 0, uses_anonymous_args = 0
 464              	.LVL22:
 465 0000 F8B5     		push	{r3, r4, r5, r6, r7, lr}
 466              	.LCFI4:
 467              		.cfi_def_cfa_offset 24
 468              		.loc 1 153 0
 469 0002 0646     		mov	r6, r0
 470              		.cfi_offset 14, -4
 471              		.cfi_offset 7, -8
 472              		.cfi_offset 6, -12
 473              		.cfi_offset 5, -16
 474              		.cfi_offset 4, -20
 475              		.cfi_offset 3, -24
 476              		.loc 1 155 0
 477 0004 06F50036 		add	r6, r6, #131072
 478 0008 2836     		adds	r6, r6, #40
 479 000a B602     		lsls	r6, r6, #10
 480              		.loc 1 154 0
 481 000c FFF7FEFF 		bl	FLASH_Unlock
 482              	.LVL23:
 483              		.loc 1 156 0
 484 0010 3046     		mov	r0, r6
 485 0012 FFF7FEFF 		bl	FLASH_ErasePage
 486              		.loc 1 157 0
 487 0016 0428     		cmp	r0, #4
 488              		.loc 1 156 0
 489 0018 0446     		mov	r4, r0
 490              	.LVL24:
 491              		.loc 1 157 0
 492 001a 03D0     		beq	.L38
 493              		.loc 1 159 0
 494 001c FFF7FEFF 		bl	FLASH_Lock
 495              	.LVL25:
 496              		.loc 1 160 0
 497 0020 2046     		mov	r0, r4
 498 0022 F8BD     		pop	{r3, r4, r5, r6, r7, pc}
 499              	.L38:
 500 0024 0B4D     		ldr	r5, .L42
 501              		.loc 1 157 0
 502 0026 0024     		movs	r4, #0
 503              	.LVL26:
 504              	.L41:
 505              		.loc 1 167 0
 506 0028 A019     		adds	r0, r4, r6
 507 002a 55F8041F 		ldr	r1, [r5, #4]!
 508 002e FFF7FEFF 		bl	FLASH_ProgramWord
 509              		.loc 1 168 0
ARM GAS  /tmp/ccXStSe5.s 			page 10


 510 0032 0428     		cmp	r0, #4
 511              		.loc 1 167 0
 512 0034 0746     		mov	r7, r0
 513              	.LVL27:
 514              		.loc 1 168 0
 515 0036 05D0     		beq	.L40
 516              		.loc 1 170 0
 517 0038 FFF7FEFF 		bl	FLASH_Lock
 518              	.LVL28:
 519              		.loc 1 171 0
 520 003c 07F10A00 		add	r0, r7, #10
 521 0040 80B2     		uxth	r0, r0
 522 0042 F8BD     		pop	{r3, r4, r5, r6, r7, pc}
 523              	.L40:
 524 0044 0434     		adds	r4, r4, #4
 525              		.loc 1 164 0
 526 0046 B4F5006F 		cmp	r4, #2048
 527 004a EDD1     		bne	.L41
 528              		.loc 1 175 0
 529 004c FFF7FEFF 		bl	FLASH_Lock
 530              		.loc 1 176 0
 531 0050 0020     		movs	r0, #0
 532              		.loc 1 177 0
 533 0052 F8BD     		pop	{r3, r4, r5, r6, r7, pc}
 534              	.L43:
 535              		.align	2
 536              	.L42:
 537 0054 80000000 		.word	.LANCHOR0+128
 538              		.cfi_endproc
 539              	.LFE64:
 540              		.size	pawnWriteFlash, .-pawnWriteFlash
 541              		.section	.text.pawnRun,"ax",%progbits
 542              		.align	1
 543              		.global	pawnRun
 544              		.thumb
 545              		.thumb_func
 546              		.type	pawnRun, %function
 547              	pawnRun:
 548              	.LFB65:
 549              		.loc 1 180 0
 550              		.cfi_startproc
 551              		@ args = 0, pretend = 0, frame = 0
 552              		@ frame_needed = 0, uses_anonymous_args = 0
 553 0000 08B5     		push	{r3, lr}
 554              	.LCFI5:
 555              		.cfi_def_cfa_offset 8
 556              		.loc 1 181 0
 557              	@ 181 "pawn/pawn_ctrl.c" 1
 558 0002 FFF7FEFF 		bl      _port_lock
 559              	@ 0 "" 2
 560              		.thumb
 561              		.cfi_offset 14, -4
 562              		.cfi_offset 3, -8
 563 0006 FFF7FEFF 		bl	dbg_check_lock
 564 000a 0648     		ldr	r0, .L46
 565 000c 8368     		ldr	r3, [r0, #8]
 566 000e 002B     		cmp	r3, #0
ARM GAS  /tmp/ccXStSe5.s 			page 11


 567 0010 01DC     		bgt	.L45
 568              		.loc 1 181 0 is_stmt 0 discriminator 1
 569 0012 FFF7FEFF 		bl	chSemSignalI
 570              	.L45:
 571              		.loc 1 181 0 discriminator 2
 572 0016 FFF7FEFF 		bl	chSchRescheduleS
 573 001a FFF7FEFF 		bl	dbg_check_unlock
 574              	@ 181 "pawn/pawn_ctrl.c" 1
 575 001e FFF7FEFF 		bl      _port_unlock
 576              	@ 0 "" 2
 577              		.loc 1 182 0 is_stmt 1 discriminator 2
 578              		.thumb
 579 0022 08BD     		pop	{r3, pc}
 580              	.L47:
 581              		.align	2
 582              	.L46:
 583 0024 00000000 		.word	.LANCHOR1
 584              		.cfi_endproc
 585              	.LFE65:
 586              		.size	pawnRun, .-pawnRun
 587              		.section	.text.pawnIsRunning,"ax",%progbits
 588              		.align	1
 589              		.global	pawnIsRunning
 590              		.thumb
 591              		.thumb_func
 592              		.type	pawnIsRunning, %function
 593              	pawnIsRunning:
 594              	.LFB66:
 595              		.loc 1 185 0
 596              		.cfi_startproc
 597              		@ args = 0, pretend = 0, frame = 0
 598              		@ frame_needed = 0, uses_anonymous_args = 0
 599 0000 10B5     		push	{r4, lr}
 600              	.LCFI6:
 601              		.cfi_def_cfa_offset 8
 602              		.loc 1 186 0
 603              	@ 186 "pawn/pawn_ctrl.c" 1
 604 0002 FFF7FEFF 		bl      _port_lock
 605              	@ 0 "" 2
 606              		.thumb
 607              		.cfi_offset 14, -4
 608              		.cfi_offset 4, -8
 609 0006 FFF7FEFF 		bl	dbg_check_lock
 610              		.loc 1 187 0
 611 000a 044B     		ldr	r3, .L49
 612 000c 93F87840 		ldrb	r4, [r3, #120]	@ zero_extendqisi2
 613              	.LVL29:
 614              		.loc 1 188 0
 615 0010 FFF7FEFF 		bl	dbg_check_unlock
 616              	@ 188 "pawn/pawn_ctrl.c" 1
 617 0014 FFF7FEFF 		bl      _port_unlock
 618              	@ 0 "" 2
 619              		.loc 1 190 0
 620              		.thumb
 621 0018 2046     		mov	r0, r4
 622 001a 10BD     		pop	{r4, pc}
 623              	.L50:
ARM GAS  /tmp/ccXStSe5.s 			page 12


 624              		.align	2
 625              	.L49:
 626 001c 00000000 		.word	.LANCHOR0
 627              		.cfi_endproc
 628              	.LFE66:
 629              		.size	pawnIsRunning, .-pawnIsRunning
 630              		.section	.text.pawnStop,"ax",%progbits
 631              		.align	1
 632              		.global	pawnStop
 633              		.thumb
 634              		.thumb_func
 635              		.type	pawnStop, %function
 636              	pawnStop:
 637              	.LFB67:
 638              		.loc 1 193 0
 639              		.cfi_startproc
 640              		@ args = 0, pretend = 0, frame = 0
 641              		@ frame_needed = 0, uses_anonymous_args = 0
 642 0000 08B5     		push	{r3, lr}
 643              	.LCFI7:
 644              		.cfi_def_cfa_offset 8
 645              		.loc 1 194 0
 646              	@ 194 "pawn/pawn_ctrl.c" 1
 647 0002 FFF7FEFF 		bl      _port_lock
 648              	@ 0 "" 2
 649              		.thumb
 650              		.cfi_offset 14, -4
 651              		.cfi_offset 3, -8
 652 0006 FFF7FEFF 		bl	dbg_check_lock
 653              		.loc 1 195 0
 654 000a 0449     		ldr	r1, .L52
 655 000c 0448     		ldr	r0, .L52+4
 656 000e FFF7FEFF 		bl	amx_SetDebugHook
 657              		.loc 1 196 0
 658 0012 FFF7FEFF 		bl	dbg_check_unlock
 659              	@ 196 "pawn/pawn_ctrl.c" 1
 660 0016 FFF7FEFF 		bl      _port_unlock
 661              	@ 0 "" 2
 662              		.loc 1 197 0
 663              		.thumb
 664 001a 08BD     		pop	{r3, pc}
 665              	.L53:
 666              		.align	2
 667              	.L52:
 668 001c 00000000 		.word	aux_Monitor
 669 0020 00000000 		.word	.LANCHOR0
 670              		.cfi_endproc
 671              	.LFE67:
 672              		.size	pawnStop, .-pawnStop
 673              		.section	.text.pawnResult,"ax",%progbits
 674              		.align	1
 675              		.global	pawnResult
 676              		.thumb
 677              		.thumb_func
 678              		.type	pawnResult, %function
 679              	pawnResult:
 680              	.LFB68:
ARM GAS  /tmp/ccXStSe5.s 			page 13


 681              		.loc 1 200 0
 682              		.cfi_startproc
 683              		@ args = 0, pretend = 0, frame = 0
 684              		@ frame_needed = 0, uses_anonymous_args = 0
 685              		@ link register save eliminated.
 686              		.loc 1 202 0
 687 0000 014B     		ldr	r3, .L55
 688 0002 D86F     		ldr	r0, [r3, #124]
 689 0004 7047     		bx	lr
 690              	.L56:
 691 0006 00BF     		.align	2
 692              	.L55:
 693 0008 00000000 		.word	.LANCHOR0
 694              		.cfi_endproc
 695              	.LFE68:
 696              		.size	pawnResult, .-pawnResult
 697              		.section	.text.pawnError,"ax",%progbits
 698              		.align	1
 699              		.global	pawnError
 700              		.thumb
 701              		.thumb_func
 702              		.type	pawnError, %function
 703              	pawnError:
 704              	.LFB69:
 705              		.loc 1 205 0
 706              		.cfi_startproc
 707              		@ args = 0, pretend = 0, frame = 0
 708              		@ frame_needed = 0, uses_anonymous_args = 0
 709              		@ link register save eliminated.
 710              		.loc 1 207 0
 711 0000 014B     		ldr	r3, .L58
 712 0002 D3F88000 		ldr	r0, [r3, #128]
 713 0006 7047     		bx	lr
 714              	.L59:
 715              		.align	2
 716              	.L58:
 717 0008 00000000 		.word	.LANCHOR0
 718              		.cfi_endproc
 719              	.LFE69:
 720              		.size	pawnError, .-pawnError
 721              		.global	g_nativetable
 722              		.global	g_pawn
 723              		.section	.bss.semaphore,"aw",%nobits
 724              		.align	2
 725              		.set	.LANCHOR1,. + 0
 726              		.type	semaphore, %object
 727              		.size	semaphore, 12
 728              	semaphore:
 729 0000 00000000 		.space	12
 729      00000000 
 729      00000000 
 730              		.section	.bss.waExec,"aw",%nobits
 731              		.align	3
 732              		.set	.LANCHOR3,. + 0
 733              		.type	waExec, %object
 734              		.size	waExec, 2224
 735              	waExec:
ARM GAS  /tmp/ccXStSe5.s 			page 14


 736 0000 00000000 		.space	2224
 736      00000000 
 736      00000000 
 736      00000000 
 736      00000000 
 737              		.section	.rodata.str1.1,"aMS",%progbits,1
 738              	.LC0:
 739 0000 6500     		.ascii	"e\000"
 740              		.section	.bss.ret.6607,"aw",%nobits
 741              		.align	2
 742              		.set	.LANCHOR2,. + 0
 743              		.type	ret.6607, %object
 744              		.size	ret.6607, 4
 745              	ret.6607:
 746 0000 00000000 		.space	4
 747              		.section	.bss.g_pawn,"aw",%nobits
 748              		.align	2
 749              		.set	.LANCHOR0,. + 0
 750              		.type	g_pawn, %object
 751              		.size	g_pawn, 2188
 752              	g_pawn:
 753 0000 00000000 		.space	2188
 753      00000000 
 753      00000000 
 753      00000000 
 753      00000000 
 754              		.section	.rodata.g_nativetable,"a",%progbits
 755              		.align	2
 756              		.type	g_nativetable, %object
 757              		.size	g_nativetable, 8
 758              	g_nativetable:
 759 0000 00000000 		.word	n_io
 760 0004 00000000 		.word	n_setIo
 761              		.text
 762              	.Letext0: