ARM GAS  /tmp/ccn989SS.s 			page 1


   1              		.syntax unified
   2              		.cpu cortex-m3
   3              		.fpu softvfp
   4              		.eabi_attribute 20, 1
   5              		.eabi_attribute 21, 1
   6              		.eabi_attribute 23, 3
   7              		.eabi_attribute 24, 1
   8              		.eabi_attribute 25, 1
   9              		.eabi_attribute 26, 1
  10              		.eabi_attribute 30, 4
  11              		.eabi_attribute 18, 4
  12              		.thumb
  13              		.file	"rtc.c"
  20 0000 07020000 		.text
  20      02004501 
  20      00000201 
  20      FB0E0D00 
  20      01010101 
  21              	.Ltext0:
  22              		.cfi_sections	.debug_frame
  23              		.section	.text.rtcInit,"ax",%progbits
  24              		.align	1
  25              		.global	rtcInit
  26              		.thumb
  27              		.thumb_func
  28              		.type	rtcInit, %function
  29              	rtcInit:
  30              	.LFB55:
  31              		.file 1 "../chibios/os/hal/src/rtc.c"
  32              		.loc 1 72 0
  33              		.cfi_startproc
  34              		@ args = 0, pretend = 0, frame = 0
  35              		@ frame_needed = 0, uses_anonymous_args = 0
  36              		@ link register save eliminated.
  37              		.loc 1 75 0
  38              		.loc 1 74 0
  39 0000 FFF7FEBF 		b	rtc_lld_init
  40              		.cfi_endproc
  41              	.LFE55:
  42              		.size	rtcInit, .-rtcInit
  43              		.section	.text.rtcSetTime,"ax",%progbits
  44              		.align	1
  45              		.global	rtcSetTime
  46              		.thumb
  47              		.thumb_func
  48              		.type	rtcSetTime, %function
  49              	rtcSetTime:
  50              	.LFB56:
  51              		.loc 1 85 0
  52              		.cfi_startproc
  53              		@ args = 0, pretend = 0, frame = 0
ARM GAS  /tmp/ccn989SS.s 			page 2


  54              		@ frame_needed = 0, uses_anonymous_args = 0
  55              	.LVL0:
  56 0000 38B5     		push	{r3, r4, r5, lr}
  57              	.LCFI0:
  58              		.cfi_def_cfa_offset 16
  59              		.loc 1 85 0
  60 0002 0C46     		mov	r4, r1
  61              		.cfi_offset 14, -4
  62              		.cfi_offset 5, -8
  63              		.cfi_offset 4, -12
  64              		.cfi_offset 3, -16
  65              		.loc 1 87 0
  66 0004 0546     		mov	r5, r0
  67 0006 00B1     		cbz	r0, .L3
  68              		.loc 1 87 0 is_stmt 0 discriminator 2
  69 0008 11B9     		cbnz	r1, .L4
  70              	.L3:
  71              		.loc 1 87 0 discriminator 1
  72 000a 0848     		ldr	r0, .L5
  73              	.LVL1:
  74 000c FFF7FEFF 		bl	chDbgPanic
  75              	.LVL2:
  76              	.L4:
  77              		.loc 1 89 0 is_stmt 1
  78              	@ 89 "../chibios/os/hal/src/rtc.c" 1
  79 0010 FFF7FEFF 		bl      _port_lock
  80              	@ 0 "" 2
  81              		.thumb
  82 0014 FFF7FEFF 		bl	dbg_check_lock
  83              		.loc 1 90 0
  84 0018 2846     		mov	r0, r5
  85 001a 2146     		mov	r1, r4
  86 001c FFF7FEFF 		bl	rtc_lld_set_time
  87              		.loc 1 91 0
  88 0020 FFF7FEFF 		bl	dbg_check_unlock
  89              	@ 91 "../chibios/os/hal/src/rtc.c" 1
  90 0024 FFF7FEFF 		bl      _port_unlock
  91              	@ 0 "" 2
  92              		.loc 1 92 0
  93              		.thumb
  94 0028 38BD     		pop	{r3, r4, r5, pc}
  95              	.L6:
  96 002a 00BF     		.align	2
  97              	.L5:
  98 002c 00000000 		.word	.LC0
  99              		.cfi_endproc
 100              	.LFE56:
 101              		.size	rtcSetTime, .-rtcSetTime
 102              		.section	.text.rtcGetTime,"ax",%progbits
 103              		.align	1
 104              		.global	rtcGetTime
 105              		.thumb
 106              		.thumb_func
 107              		.type	rtcGetTime, %function
 108              	rtcGetTime:
 109              	.LFB57:
 110              		.loc 1 102 0
ARM GAS  /tmp/ccn989SS.s 			page 3


 111              		.cfi_startproc
 112              		@ args = 0, pretend = 0, frame = 0
 113              		@ frame_needed = 0, uses_anonymous_args = 0
 114              	.LVL3:
 115 0000 38B5     		push	{r3, r4, r5, lr}
 116              	.LCFI1:
 117              		.cfi_def_cfa_offset 16
 118              		.loc 1 102 0
 119 0002 0C46     		mov	r4, r1
 120              		.cfi_offset 14, -4
 121              		.cfi_offset 5, -8
 122              		.cfi_offset 4, -12
 123              		.cfi_offset 3, -16
 124              		.loc 1 104 0
 125 0004 0546     		mov	r5, r0
 126 0006 00B1     		cbz	r0, .L8
 127              		.loc 1 104 0 is_stmt 0 discriminator 2
 128 0008 11B9     		cbnz	r1, .L9
 129              	.L8:
 130              		.loc 1 104 0 discriminator 1
 131 000a 0848     		ldr	r0, .L10
 132              	.LVL4:
 133 000c FFF7FEFF 		bl	chDbgPanic
 134              	.LVL5:
 135              	.L9:
 136              		.loc 1 106 0 is_stmt 1
 137              	@ 106 "../chibios/os/hal/src/rtc.c" 1
 138 0010 FFF7FEFF 		bl      _port_lock
 139              	@ 0 "" 2
 140              		.thumb
 141 0014 FFF7FEFF 		bl	dbg_check_lock
 142              		.loc 1 107 0
 143 0018 2846     		mov	r0, r5
 144 001a 2146     		mov	r1, r4
 145 001c FFF7FEFF 		bl	rtc_lld_get_time
 146              		.loc 1 108 0
 147 0020 FFF7FEFF 		bl	dbg_check_unlock
 148              	@ 108 "../chibios/os/hal/src/rtc.c" 1
 149 0024 FFF7FEFF 		bl      _port_unlock
 150              	@ 0 "" 2
 151              		.loc 1 109 0
 152              		.thumb
 153 0028 38BD     		pop	{r3, r4, r5, pc}
 154              	.L11:
 155 002a 00BF     		.align	2
 156              	.L10:
 157 002c 0F000000 		.word	.LC1
 158              		.cfi_endproc
 159              	.LFE57:
 160              		.size	rtcGetTime, .-rtcGetTime
 161              		.section	.text.rtcSetAlarm,"ax",%progbits
 162              		.align	1
 163              		.global	rtcSetAlarm
 164              		.thumb
 165              		.thumb_func
 166              		.type	rtcSetAlarm, %function
 167              	rtcSetAlarm:
ARM GAS  /tmp/ccn989SS.s 			page 4


 168              	.LFB58:
 169              		.loc 1 123 0
 170              		.cfi_startproc
 171              		@ args = 0, pretend = 0, frame = 0
 172              		@ frame_needed = 0, uses_anonymous_args = 0
 173              	.LVL6:
 174 0000 70B5     		push	{r4, r5, r6, lr}
 175              	.LCFI2:
 176              		.cfi_def_cfa_offset 16
 177              		.loc 1 123 0
 178 0002 0C46     		mov	r4, r1
 179              		.cfi_offset 14, -4
 180              		.cfi_offset 6, -8
 181              		.cfi_offset 5, -12
 182              		.cfi_offset 4, -16
 183 0004 1546     		mov	r5, r2
 184              		.loc 1 125 0
 185 0006 0646     		mov	r6, r0
 186 0008 00B1     		cbz	r0, .L13
 187              		.loc 1 125 0 is_stmt 0 discriminator 2
 188 000a 11B1     		cbz	r1, .L14
 189              	.L13:
 190              		.loc 1 125 0 discriminator 1
 191 000c 0848     		ldr	r0, .L15
 192              	.LVL7:
 193 000e FFF7FEFF 		bl	chDbgPanic
 194              	.LVL8:
 195              	.L14:
 196              		.loc 1 127 0 is_stmt 1
 197              	@ 127 "../chibios/os/hal/src/rtc.c" 1
 198 0012 FFF7FEFF 		bl      _port_lock
 199              	@ 0 "" 2
 200              		.thumb
 201 0016 FFF7FEFF 		bl	dbg_check_lock
 202              		.loc 1 128 0
 203 001a 3046     		mov	r0, r6
 204 001c 2146     		mov	r1, r4
 205 001e 2A46     		mov	r2, r5
 206 0020 FFF7FEFF 		bl	rtc_lld_set_alarm
 207              		.loc 1 129 0
 208 0024 FFF7FEFF 		bl	dbg_check_unlock
 209              	@ 129 "../chibios/os/hal/src/rtc.c" 1
 210 0028 FFF7FEFF 		bl      _port_unlock
 211              	@ 0 "" 2
 212              		.loc 1 130 0
 213              		.thumb
 214 002c 70BD     		pop	{r4, r5, r6, pc}
 215              	.L16:
 216 002e 00BF     		.align	2
 217              	.L15:
 218 0030 1E000000 		.word	.LC2
 219              		.cfi_endproc
 220              	.LFE58:
 221              		.size	rtcSetAlarm, .-rtcSetAlarm
 222              		.section	.text.rtcGetAlarm,"ax",%progbits
 223              		.align	1
 224              		.global	rtcGetAlarm
ARM GAS  /tmp/ccn989SS.s 			page 5


 225              		.thumb
 226              		.thumb_func
 227              		.type	rtcGetAlarm, %function
 228              	rtcGetAlarm:
 229              	.LFB59:
 230              		.loc 1 145 0
 231              		.cfi_startproc
 232              		@ args = 0, pretend = 0, frame = 0
 233              		@ frame_needed = 0, uses_anonymous_args = 0
 234              	.LVL9:
 235 0000 70B5     		push	{r4, r5, r6, lr}
 236              	.LCFI3:
 237              		.cfi_def_cfa_offset 16
 238              		.loc 1 145 0
 239 0002 0D46     		mov	r5, r1
 240              		.cfi_offset 14, -4
 241              		.cfi_offset 6, -8
 242              		.cfi_offset 5, -12
 243              		.cfi_offset 4, -16
 244 0004 1446     		mov	r4, r2
 245              		.loc 1 147 0
 246 0006 0646     		mov	r6, r0
 247 0008 08B1     		cbz	r0, .L18
 248              		.loc 1 147 0 is_stmt 0 discriminator 2
 249 000a 01B9     		cbnz	r1, .L18
 250              		.loc 1 147 0 discriminator 3
 251 000c 12B9     		cbnz	r2, .L19
 252              	.L18:
 253              		.loc 1 147 0 discriminator 1
 254 000e 0848     		ldr	r0, .L20
 255              	.LVL10:
 256 0010 FFF7FEFF 		bl	chDbgPanic
 257              	.LVL11:
 258              	.L19:
 259              		.loc 1 150 0 is_stmt 1
 260              	@ 150 "../chibios/os/hal/src/rtc.c" 1
 261 0014 FFF7FEFF 		bl      _port_lock
 262              	@ 0 "" 2
 263              		.thumb
 264 0018 FFF7FEFF 		bl	dbg_check_lock
 265              		.loc 1 151 0
 266 001c 3046     		mov	r0, r6
 267 001e 2946     		mov	r1, r5
 268 0020 2246     		mov	r2, r4
 269 0022 FFF7FEFF 		bl	rtc_lld_get_alarm
 270              		.loc 1 152 0
 271 0026 FFF7FEFF 		bl	dbg_check_unlock
 272              	@ 152 "../chibios/os/hal/src/rtc.c" 1
 273 002a FFF7FEFF 		bl      _port_unlock
 274              	@ 0 "" 2
 275              		.loc 1 153 0
 276              		.thumb
 277 002e 70BD     		pop	{r4, r5, r6, pc}
 278              	.L21:
 279              		.align	2
 280              	.L20:
 281 0030 2E000000 		.word	.LC3
ARM GAS  /tmp/ccn989SS.s 			page 6


 282              		.cfi_endproc
 283              	.LFE59:
 284              		.size	rtcGetAlarm, .-rtcGetAlarm
 285              		.section	.text.rtcSetCallback,"ax",%progbits
 286              		.align	1
 287              		.global	rtcSetCallback
 288              		.thumb
 289              		.thumb_func
 290              		.type	rtcSetCallback, %function
 291              	rtcSetCallback:
 292              	.LFB60:
 293              		.loc 1 167 0
 294              		.cfi_startproc
 295              		@ args = 0, pretend = 0, frame = 0
 296              		@ frame_needed = 0, uses_anonymous_args = 0
 297              	.LVL12:
 298 0000 38B5     		push	{r3, r4, r5, lr}
 299              	.LCFI4:
 300              		.cfi_def_cfa_offset 16
 301              		.loc 1 167 0
 302 0002 0D46     		mov	r5, r1
 303              		.cfi_offset 14, -4
 304              		.cfi_offset 5, -8
 305              		.cfi_offset 4, -12
 306              		.cfi_offset 3, -16
 307              		.loc 1 169 0
 308 0004 0446     		mov	r4, r0
 309 0006 10B9     		cbnz	r0, .L23
 310              		.loc 1 169 0 is_stmt 0 discriminator 1
 311 0008 0748     		ldr	r0, .L24
 312              	.LVL13:
 313 000a FFF7FEFF 		bl	chDbgPanic
 314              	.LVL14:
 315              	.L23:
 316              		.loc 1 171 0 is_stmt 1
 317              	@ 171 "../chibios/os/hal/src/rtc.c" 1
 318 000e FFF7FEFF 		bl      _port_lock
 319              	@ 0 "" 2
 320              		.thumb
 321 0012 FFF7FEFF 		bl	dbg_check_lock
 322              		.loc 1 172 0
 323 0016 2046     		mov	r0, r4
 324 0018 2946     		mov	r1, r5
 325 001a FFF7FEFF 		bl	rtc_lld_set_callback
 326              		.loc 1 173 0
 327 001e FFF7FEFF 		bl	dbg_check_unlock
 328              	@ 173 "../chibios/os/hal/src/rtc.c" 1
 329 0022 FFF7FEFF 		bl      _port_unlock
 330              	@ 0 "" 2
 331              		.loc 1 174 0
 332              		.thumb
 333 0026 38BD     		pop	{r3, r4, r5, pc}
 334              	.L25:
 335              		.align	2
 336              	.L24:
 337 0028 3E000000 		.word	.LC4
 338              		.cfi_endproc
ARM GAS  /tmp/ccn989SS.s 			page 7


 339              	.LFE60:
 340              		.size	rtcSetCallback, .-rtcSetCallback
 341              		.section	.rodata.str1.1,"aMS",%progbits,1
 342              	.LC0:
 343 0000 22727463 		.ascii	"\"rtcSetTime\"()\000"
 343      53657454 
 343      696D6522 
 343      282900
 344              	.LC1:
 345 000f 22727463 		.ascii	"\"rtcGetTime\"()\000"
 345      47657454 
 345      696D6522 
 345      282900
 346              	.LC2:
 347 001e 22727463 		.ascii	"\"rtcSetAlarm\"()\000"
 347      53657441 
 347      6C61726D 
 347      22282900 
 348              	.LC3:
 349 002e 22727463 		.ascii	"\"rtcGetAlarm\"()\000"
 349      47657441 
 349      6C61726D 
 349      22282900 
 350              	.LC4:
 351 003e 22727463 		.ascii	"\"rtcSetCallback\"()\000"
 351      53657443 
 351      616C6C62 
 351      61636B22 
 351      282900
 352              		.text
 353              	.Letext0: