ARM GAS  /tmp/cchua6zK.s 			page 1


   1              		.syntax unified
   2              		.cpu cortex-m3
   3              		.fpu softvfp
   4              		.eabi_attribute 20, 1
   5              		.eabi_attribute 21, 1
   6              		.eabi_attribute 23, 3
   7              		.eabi_attribute 24, 1
   8              		.eabi_attribute 25, 1
   9              		.eabi_attribute 26, 1
  10              		.eabi_attribute 30, 4
  11              		.eabi_attribute 18, 4
  12              		.thumb
  13              		.file	"serial_usb.c"
  20 0000 69040000 		.text
  20      02007402 
  20      00000201 
  20      FB0E0D00 
  20      01010101 
  21              	.Ltext0:
  22              		.cfi_sections	.debug_frame
  23              		.section	.text.putwouldblock,"ax",%progbits
  24              		.align	1
  25              		.thumb
  26              		.thumb_func
  27              		.type	putwouldblock, %function
  28              	putwouldblock:
  29              	.LFB57:
  30              		.file 1 "../chibios/os/hal/src/serial_usb.c"
  31              		.loc 1 83 0
  32              		.cfi_startproc
  33              		@ args = 0, pretend = 0, frame = 0
  34              		@ frame_needed = 0, uses_anonymous_args = 0
  35              		@ link register save eliminated.
  36              	.LVL0:
  37              		.loc 1 85 0
  38 0000 806B     		ldr	r0, [r0, #56]
  39              	.LVL1:
  40              		.loc 1 86 0
  41 0002 D0F10100 		rsbs	r0, r0, #1
  42 0006 38BF     		it	cc
  43 0008 0020     		movcc	r0, #0
  44 000a 7047     		bx	lr
  45              		.cfi_endproc
  46              	.LFE57:
  47              		.size	putwouldblock, .-putwouldblock
  48              		.section	.text.getwouldblock,"ax",%progbits
  49              		.align	1
  50              		.thumb
  51              		.thumb_func
  52              		.type	getwouldblock, %function
  53              	getwouldblock:
ARM GAS  /tmp/cchua6zK.s 			page 2


  54              	.LFB58:
  55              		.loc 1 88 0
  56              		.cfi_startproc
  57              		@ args = 0, pretend = 0, frame = 0
  58              		@ frame_needed = 0, uses_anonymous_args = 0
  59              		@ link register save eliminated.
  60              	.LVL2:
  61              		.loc 1 90 0
  62 0000 8069     		ldr	r0, [r0, #24]
  63              	.LVL3:
  64              		.loc 1 91 0
  65 0002 D0F10100 		rsbs	r0, r0, #1
  66 0006 38BF     		it	cc
  67 0008 0020     		movcc	r0, #0
  68 000a 7047     		bx	lr
  69              		.cfi_endproc
  70              	.LFE58:
  71              		.size	getwouldblock, .-getwouldblock
  72              		.section	.text.getflags,"ax",%progbits
  73              		.align	1
  74              		.thumb
  75              		.thumb_func
  76              		.type	getflags, %function
  77              	getflags:
  78              	.LFB63:
  79              		.loc 1 113 0
  80              		.cfi_startproc
  81              		@ args = 0, pretend = 0, frame = 0
  82              		@ frame_needed = 0, uses_anonymous_args = 0
  83              	.LVL4:
  84 0000 38B5     		push	{r3, r4, r5, lr}
  85              	.LCFI0:
  86              		.cfi_def_cfa_offset 16
  87              		.loc 1 113 0
  88 0002 0446     		mov	r4, r0
  89              		.cfi_offset 14, -4
  90              		.cfi_offset 5, -8
  91              		.cfi_offset 4, -12
  92              		.cfi_offset 3, -16
  93              		.loc 1 114 0
  94              	@ 114 "../chibios/os/hal/src/serial_usb.c" 1
  95 0004 FFF7FEFF 		bl      _port_lock
  96              	@ 0 "" 2
  97              		.thumb
  98 0008 FFF7FEFF 		bl	dbg_check_lock
  99              	.LVL5:
 100 000c 0023     		movs	r3, #0
 101 000e A568     		ldr	r5, [r4, #8]
 102              	.LVL6:
 103 0010 A360     		str	r3, [r4, #8]
 104 0012 FFF7FEFF 		bl	dbg_check_unlock
 105              	.LVL7:
 106              	@ 114 "../chibios/os/hal/src/serial_usb.c" 1
 107 0016 FFF7FEFF 		bl      _port_unlock
 108              	@ 0 "" 2
 109              		.loc 1 115 0
 110              		.thumb
ARM GAS  /tmp/cchua6zK.s 			page 3


 111 001a 2846     		mov	r0, r5
 112 001c 38BD     		pop	{r3, r4, r5, pc}
 113              		.cfi_endproc
 114              	.LFE63:
 115              		.size	getflags, .-getflags
 116              		.section	.text.onotify,"ax",%progbits
 117              		.align	1
 118              		.thumb
 119              		.thumb_func
 120              		.type	onotify, %function
 121              	onotify:
 122              	.LFB65:
 123              		.loc 1 154 0
 124              		.cfi_startproc
 125              		@ args = 0, pretend = 0, frame = 0
 126              		@ frame_needed = 0, uses_anonymous_args = 0
 127              	.LVL8:
 128 0000 2DE9F041 		push	{r4, r5, r6, r7, r8, lr}
 129              	.LCFI1:
 130              		.cfi_def_cfa_offset 24
 131              		.loc 1 155 0
 132 0004 8469     		ldr	r4, [r0, #24]
 133              		.cfi_offset 14, -4
 134              		.cfi_offset 8, -8
 135              		.cfi_offset 7, -12
 136              		.cfi_offset 6, -16
 137              		.cfi_offset 5, -20
 138              		.cfi_offset 4, -24
 139              	.LVL9:
 140              		.loc 1 161 0
 141 0006 D4F8D030 		ldr	r3, [r4, #208]
 142              		.loc 1 160 0
 143 000a D4F84080 		ldr	r8, [r4, #64]
 144              		.loc 1 161 0
 145 000e 1B68     		ldr	r3, [r3, #0]
 146              		.loc 1 160 0
 147 0010 E76B     		ldr	r7, [r4, #60]
 148              		.loc 1 161 0
 149 0012 9D89     		ldrh	r5, [r3, #12]
 150              		.loc 1 160 0
 151 0014 A66B     		ldr	r6, [r4, #56]
 152              		.loc 1 161 0
 153 0016 15F00205 		ands	r5, r5, #2
 154 001a 30D1     		bne	.L4
 155              	.LVL10:
 156              		.loc 1 162 0
 157 001c FFF7FEFF 		bl	dbg_check_unlock
 158              	.LVL11:
 159              	@ 162 "../chibios/os/hal/src/serial_usb.c" 1
 160 0020 FFF7FEFF 		bl      _port_unlock
 161              	@ 0 "" 2
 162              		.loc 1 165 0
 163              		.thumb
 164 0024 D4F8D020 		ldr	r2, [r4, #208]
 165              		.loc 1 160 0
 166 0028 C7EB0803 		rsb	r3, r7, r8
 167              		.loc 1 165 0
ARM GAS  /tmp/cchua6zK.s 			page 4


 168 002c 1068     		ldr	r0, [r2, #0]
 169 002e 0121     		movs	r1, #1
 170 0030 E26B     		ldr	r2, [r4, #60]
 171 0032 9B1B     		subs	r3, r3, r6
 172 0034 FFF7FEFF 		bl	usb_lld_write_packet_buffer
 173              		.loc 1 168 0
 174              	@ 168 "../chibios/os/hal/src/serial_usb.c" 1
 175 0038 FFF7FEFF 		bl      _port_lock
 176              	@ 0 "" 2
 177              		.thumb
 178 003c FFF7FEFF 		bl	dbg_check_lock
 179              		.loc 1 169 0
 180 0040 D4F8D030 		ldr	r3, [r4, #208]
 181 0044 0121     		movs	r1, #1
 182 0046 1868     		ldr	r0, [r3, #0]
 183 0048 FFF7FEFF 		bl	usbStartTransmitI
 184              		.loc 1 170 0
 185 004c A368     		ldr	r3, [r4, #8]
 186 004e 201D     		adds	r0, r4, #4
 187 0050 43F00803 		orr	r3, r3, #8
 188 0054 A360     		str	r3, [r4, #8]
 189 0056 2946     		mov	r1, r5
 190 0058 FFF7FEFF 		bl	chEvtBroadcastFlagsI
 191              		.loc 1 171 0
 192 005c E36B     		ldr	r3, [r4, #60]
 193              		.loc 1 172 0
 194 005e 226C     		ldr	r2, [r4, #64]
 195              		.loc 1 171 0
 196 0060 6364     		str	r3, [r4, #68]
 197              		.loc 1 172 0
 198 0062 D31A     		subs	r3, r2, r3
 199 0064 A363     		str	r3, [r4, #56]
 200              		.loc 1 173 0
 201 0066 05E0     		b	.L6
 202              	.L7:
 203              		.loc 1 174 0
 204 0068 FFF7FEFF 		bl	fifo_remove
 205 006c FFF7FEFF 		bl	chSchReadyI
 206 0070 0023     		movs	r3, #0
 207 0072 8362     		str	r3, [r0, #40]
 208              	.L6:
 209              		.loc 1 173 0 discriminator 1
 210 0074 236B     		ldr	r3, [r4, #48]
 211 0076 04F13000 		add	r0, r4, #48
 212 007a 8342     		cmp	r3, r0
 213 007c F4D1     		bne	.L7
 214              	.L4:
 215 007e BDE8F081 		pop	{r4, r5, r6, r7, r8, pc}
 216              		.cfi_endproc
 217              	.LFE65:
 218              		.size	onotify, .-onotify
 219              		.section	.text.inotify,"ax",%progbits
 220              		.align	1
 221              		.thumb
 222              		.thumb_func
 223              		.type	inotify, %function
 224              	inotify:
ARM GAS  /tmp/cchua6zK.s 			page 5


 225              	.LFB64:
 226              		.loc 1 126 0
 227              		.cfi_startproc
 228              		@ args = 0, pretend = 0, frame = 0
 229              		@ frame_needed = 0, uses_anonymous_args = 0
 230              	.LVL12:
 231 0000 70B5     		push	{r4, r5, r6, lr}
 232              	.LCFI2:
 233              		.cfi_def_cfa_offset 16
 234              		.loc 1 127 0
 235 0002 4469     		ldr	r4, [r0, #20]
 236              		.cfi_offset 14, -4
 237              		.cfi_offset 6, -8
 238              		.cfi_offset 5, -12
 239              		.cfi_offset 4, -16
 240              	.LVL13:
 241              		.loc 1 131 0
 242 0004 D4F8D030 		ldr	r3, [r4, #208]
 243 0008 1B68     		ldr	r3, [r3, #0]
 244 000a DB89     		ldrh	r3, [r3, #14]
 245 000c 13F0080F 		tst	r3, #8
 246 0010 2FD1     		bne	.L8
 247              	.LVL14:
 248              		.loc 1 131 0 is_stmt 0 discriminator 1
 249 0012 A569     		ldr	r5, [r4, #24]
 250 0014 6DBB     		cbnz	r5, .L8
 251              	.LBB2:
 252              		.loc 1 133 0 is_stmt 1
 253 0016 FFF7FEFF 		bl	dbg_check_unlock
 254              	.LVL15:
 255              	@ 133 "../chibios/os/hal/src/serial_usb.c" 1
 256 001a FFF7FEFF 		bl      _port_unlock
 257              	@ 0 "" 2
 258              		.loc 1 136 0
 259              		.thumb
 260 001e D4F8D030 		ldr	r3, [r4, #208]
 261 0022 0321     		movs	r1, #3
 262 0024 1868     		ldr	r0, [r3, #0]
 263 0026 E269     		ldr	r2, [r4, #28]
 264 0028 4023     		movs	r3, #64
 265 002a FFF7FEFF 		bl	usb_lld_read_packet_buffer
 266 002e 0646     		mov	r6, r0
 267              	.LVL16:
 268              		.loc 1 141 0
 269              	@ 141 "../chibios/os/hal/src/serial_usb.c" 1
 270 0030 FFF7FEFF 		bl      _port_lock
 271              	@ 0 "" 2
 272              		.thumb
 273 0034 FFF7FEFF 		bl	dbg_check_lock
 274              	.LVL17:
 275              		.loc 1 142 0
 276 0038 D4F8D030 		ldr	r3, [r4, #208]
 277 003c 0321     		movs	r1, #3
 278 003e 1868     		ldr	r0, [r3, #0]
 279 0040 FFF7FEFF 		bl	usbStartReceiveI
 280              		.loc 1 143 0
 281 0044 A368     		ldr	r3, [r4, #8]
ARM GAS  /tmp/cchua6zK.s 			page 6


 282 0046 201D     		adds	r0, r4, #4
 283 0048 43F00403 		orr	r3, r3, #4
 284 004c A360     		str	r3, [r4, #8]
 285 004e 2946     		mov	r1, r5
 286 0050 FFF7FEFF 		bl	chEvtBroadcastFlagsI
 287              		.loc 1 144 0
 288 0054 E369     		ldr	r3, [r4, #28]
 289              		.loc 1 145 0
 290 0056 A661     		str	r6, [r4, #24]
 291              		.loc 1 144 0
 292 0058 A362     		str	r3, [r4, #40]
 293              		.loc 1 146 0
 294 005a 05E0     		b	.L10
 295              	.L11:
 296              		.loc 1 147 0
 297 005c FFF7FEFF 		bl	fifo_remove
 298 0060 FFF7FEFF 		bl	chSchReadyI
 299 0064 0023     		movs	r3, #0
 300 0066 8362     		str	r3, [r0, #40]
 301              	.L10:
 302              		.loc 1 146 0 discriminator 1
 303 0068 2369     		ldr	r3, [r4, #16]
 304 006a 04F11000 		add	r0, r4, #16
 305 006e 8342     		cmp	r3, r0
 306 0070 F4D1     		bne	.L11
 307              	.LVL18:
 308              	.L8:
 309 0072 70BD     		pop	{r4, r5, r6, pc}
 310              	.LBE2:
 311              		.cfi_endproc
 312              	.LFE64:
 313              		.size	inotify, .-inotify
 314              		.section	.text.readt,"ax",%progbits
 315              		.align	1
 316              		.thumb
 317              		.thumb_func
 318              		.type	readt, %function
 319              	readt:
 320              	.LFB62:
 321              		.loc 1 108 0
 322              		.cfi_startproc
 323              		@ args = 0, pretend = 0, frame = 0
 324              		@ frame_needed = 0, uses_anonymous_args = 0
 325              		@ link register save eliminated.
 326              	.LVL19:
 327              		.loc 1 110 0
 328 0000 1030     		adds	r0, r0, #16
 329              	.LVL20:
 330              		.loc 1 111 0
 331              		.loc 1 110 0
 332 0002 FFF7FEBF 		b	chIQReadTimeout
 333              		.cfi_endproc
 334              	.LFE62:
 335              		.size	readt, .-readt
 336              		.section	.text.reads,"ax",%progbits
 337              		.align	1
 338              		.thumb
ARM GAS  /tmp/cchua6zK.s 			page 7


 339              		.thumb_func
 340              		.type	reads, %function
 341              	reads:
 342              	.LFB56:
 343              		.loc 1 77 0
 344              		.cfi_startproc
 345              		@ args = 0, pretend = 0, frame = 0
 346              		@ frame_needed = 0, uses_anonymous_args = 0
 347              		@ link register save eliminated.
 348              	.LVL21:
 349              		.loc 1 79 0
 350 0000 1030     		adds	r0, r0, #16
 351              	.LVL22:
 352 0002 4FF0FF33 		mov	r3, #-1
 353              		.loc 1 81 0
 354              		.loc 1 79 0
 355 0006 FFF7FEBF 		b	chIQReadTimeout
 356              		.cfi_endproc
 357              	.LFE56:
 358              		.size	reads, .-reads
 359              		.section	.text.writet,"ax",%progbits
 360              		.align	1
 361              		.thumb
 362              		.thumb_func
 363              		.type	writet, %function
 364              	writet:
 365              	.LFB61:
 366              		.loc 1 103 0
 367              		.cfi_startproc
 368              		@ args = 0, pretend = 0, frame = 0
 369              		@ frame_needed = 0, uses_anonymous_args = 0
 370              		@ link register save eliminated.
 371              	.LVL23:
 372              		.loc 1 105 0
 373 0000 3030     		adds	r0, r0, #48
 374              	.LVL24:
 375              		.loc 1 106 0
 376              		.loc 1 105 0
 377 0002 FFF7FEBF 		b	chOQWriteTimeout
 378              		.cfi_endproc
 379              	.LFE61:
 380              		.size	writet, .-writet
 381              		.section	.text.writes,"ax",%progbits
 382              		.align	1
 383              		.thumb
 384              		.thumb_func
 385              		.type	writes, %function
 386              	writes:
 387              	.LFB55:
 388              		.loc 1 71 0
 389              		.cfi_startproc
 390              		@ args = 0, pretend = 0, frame = 0
 391              		@ frame_needed = 0, uses_anonymous_args = 0
 392              		@ link register save eliminated.
 393              	.LVL25:
 394              		.loc 1 73 0
 395 0000 3030     		adds	r0, r0, #48
ARM GAS  /tmp/cchua6zK.s 			page 8


 396              	.LVL26:
 397 0002 4FF0FF33 		mov	r3, #-1
 398              		.loc 1 75 0
 399              		.loc 1 73 0
 400 0006 FFF7FEBF 		b	chOQWriteTimeout
 401              		.cfi_endproc
 402              	.LFE55:
 403              		.size	writes, .-writes
 404              		.section	.text.gett,"ax",%progbits
 405              		.align	1
 406              		.thumb
 407              		.thumb_func
 408              		.type	gett, %function
 409              	gett:
 410              	.LFB60:
 411              		.loc 1 98 0
 412              		.cfi_startproc
 413              		@ args = 0, pretend = 0, frame = 0
 414              		@ frame_needed = 0, uses_anonymous_args = 0
 415              		@ link register save eliminated.
 416              	.LVL27:
 417              		.loc 1 100 0
 418 0000 1030     		adds	r0, r0, #16
 419              	.LVL28:
 420              		.loc 1 101 0
 421              		.loc 1 100 0
 422 0002 FFF7FEBF 		b	chIQGetTimeout
 423              		.cfi_endproc
 424              	.LFE60:
 425              		.size	gett, .-gett
 426              		.section	.text.putt,"ax",%progbits
 427              		.align	1
 428              		.thumb
 429              		.thumb_func
 430              		.type	putt, %function
 431              	putt:
 432              	.LFB59:
 433              		.loc 1 93 0
 434              		.cfi_startproc
 435              		@ args = 0, pretend = 0, frame = 0
 436              		@ frame_needed = 0, uses_anonymous_args = 0
 437              		@ link register save eliminated.
 438              	.LVL29:
 439              		.loc 1 95 0
 440 0000 3030     		adds	r0, r0, #48
 441              	.LVL30:
 442              		.loc 1 96 0
 443              		.loc 1 95 0
 444 0002 FFF7FEBF 		b	chOQPutTimeout
 445              		.cfi_endproc
 446              	.LFE59:
 447              		.size	putt, .-putt
 448              		.section	.text.sduInit,"ax",%progbits
 449              		.align	1
 450              		.global	sduInit
 451              		.thumb
 452              		.thumb_func
ARM GAS  /tmp/cchua6zK.s 			page 9


 453              		.type	sduInit, %function
 454              	sduInit:
 455              	.LFB66:
 456              		.loc 1 189 0
 457              		.cfi_startproc
 458              		@ args = 0, pretend = 0, frame = 0
 459              		@ frame_needed = 0, uses_anonymous_args = 0
 460              		@ link register save eliminated.
 461              		.loc 1 190 0
 462 0000 7047     		bx	lr
 463              		.cfi_endproc
 464              	.LFE66:
 465              		.size	sduInit, .-sduInit
 466              		.section	.text.sduObjectInit,"ax",%progbits
 467              		.align	1
 468              		.global	sduObjectInit
 469              		.thumb
 470              		.thumb_func
 471              		.type	sduObjectInit, %function
 472              	sduObjectInit:
 473              	.LFB67:
 474              		.loc 1 201 0
 475              		.cfi_startproc
 476              		@ args = 0, pretend = 0, frame = 0
 477              		@ frame_needed = 0, uses_anonymous_args = 0
 478              	.LVL31:
 479              		.loc 1 203 0
 480 0000 0E4A     		ldr	r2, .L20
 481 0002 0346     		mov	r3, r0
 482              		.loc 1 201 0
 483 0004 10B5     		push	{r4, lr}
 484              	.LCFI3:
 485              		.cfi_def_cfa_offset 8
 486              		.loc 1 203 0
 487 0006 43F8042B 		str	r2, [r3], #4
 488              		.loc 1 204 0
 489 000a 4360     		str	r3, [r0, #4]
 490              		.loc 1 205 0
 491 000c 0023     		movs	r3, #0
 492              		.loc 1 201 0
 493 000e 0446     		mov	r4, r0
 494              		.cfi_offset 14, -4
 495              		.cfi_offset 4, -8
 496              		.loc 1 205 0
 497 0010 8360     		str	r3, [r0, #8]
 498              		.loc 1 206 0
 499 0012 0133     		adds	r3, r3, #1
 500 0014 0373     		strb	r3, [r0, #12]
 501              		.loc 1 207 0
 502 0016 04F15001 		add	r1, r4, #80
 503 001a 1030     		adds	r0, r0, #16
 504              	.LVL32:
 505 001c 4022     		movs	r2, #64
 506 001e 084B     		ldr	r3, .L20+4
 507 0020 FFF7FEFF 		bl	chIQInit
 508              		.loc 1 208 0
 509 0024 04F13000 		add	r0, r4, #48
ARM GAS  /tmp/cchua6zK.s 			page 10


 510 0028 04F19001 		add	r1, r4, #144
 511 002c 4022     		movs	r2, #64
 512 002e 054B     		ldr	r3, .L20+8
 513 0030 FFF7FEFF 		bl	chOQInit
 514              		.loc 1 211 0
 515 0034 6462     		str	r4, [r4, #36]
 516              		.loc 1 212 0
 517 0036 A464     		str	r4, [r4, #72]
 518              		.loc 1 213 0
 519 0038 10BD     		pop	{r4, pc}
 520              	.L21:
 521 003a 00BF     		.align	2
 522              	.L20:
 523 003c 00000000 		.word	.LANCHOR0
 524 0040 00000000 		.word	inotify
 525 0044 00000000 		.word	onotify
 526              		.cfi_endproc
 527              	.LFE67:
 528              		.size	sduObjectInit, .-sduObjectInit
 529              		.section	.text.sduStart,"ax",%progbits
 530              		.align	1
 531              		.global	sduStart
 532              		.thumb
 533              		.thumb_func
 534              		.type	sduStart, %function
 535              	sduStart:
 536              	.LFB68:
 537              		.loc 1 223 0
 538              		.cfi_startproc
 539              		@ args = 0, pretend = 0, frame = 0
 540              		@ frame_needed = 0, uses_anonymous_args = 0
 541              	.LVL33:
 542 0000 70B5     		push	{r4, r5, r6, lr}
 543              	.LCFI4:
 544              		.cfi_def_cfa_offset 16
 545              		.loc 1 223 0
 546 0002 0E46     		mov	r6, r1
 547              		.cfi_offset 14, -4
 548              		.cfi_offset 6, -8
 549              		.cfi_offset 5, -12
 550              		.cfi_offset 4, -16
 551              		.loc 1 225 0
 552 0004 0446     		mov	r4, r0
 553 0006 10B9     		cbnz	r0, .L23
 554              		.loc 1 225 0 is_stmt 0 discriminator 1
 555 0008 1048     		ldr	r0, .L25
 556              	.LVL34:
 557 000a FFF7FEFF 		bl	chDbgPanic
 558              	.LVL35:
 559              	.L23:
 560              		.loc 1 227 0 is_stmt 1
 561              	@ 227 "../chibios/os/hal/src/serial_usb.c" 1
 562 000e FFF7FEFF 		bl      _port_lock
 563              	@ 0 "" 2
 564              		.thumb
 565 0012 FFF7FEFF 		bl	dbg_check_lock
 566              		.loc 1 228 0
ARM GAS  /tmp/cchua6zK.s 			page 11


 567 0016 237B     		ldrb	r3, [r4, #12]	@ zero_extendqisi2
 568 0018 013B     		subs	r3, r3, #1
 569 001a DBB2     		uxtb	r3, r3
 570 001c 012B     		cmp	r3, #1
 571 001e 02D9     		bls	.L24
 572              		.loc 1 228 0 is_stmt 0 discriminator 1
 573 0020 0B48     		ldr	r0, .L25+4
 574 0022 FFF7FEFF 		bl	chDbgPanic
 575              	.L24:
 576              		.loc 1 232 0 is_stmt 1
 577 0026 3546     		mov	r5, r6
 578 0028 55F8043B 		ldr	r3, [r5], #4
 579              		.loc 1 231 0
 580 002c C4F8D060 		str	r6, [r4, #208]
 581              		.loc 1 232 0
 582 0030 9C60     		str	r4, [r3, #8]
 583              		.loc 1 233 0
 584 0032 0223     		movs	r3, #2
 585 0034 2373     		strb	r3, [r4, #12]
 586              		.loc 1 234 0
 587 0036 FFF7FEFF 		bl	dbg_check_unlock
 588              	@ 234 "../chibios/os/hal/src/serial_usb.c" 1
 589 003a FFF7FEFF 		bl      _port_unlock
 590              	@ 0 "" 2
 591              		.loc 1 235 0
 592              		.thumb
 593 003e 3068     		ldr	r0, [r6, #0]
 594 0040 2946     		mov	r1, r5
 595              		.loc 1 236 0
 596 0042 BDE87040 		pop	{r4, r5, r6, lr}
 597              		.loc 1 235 0
 598 0046 FFF7FEBF 		b	usbStart
 599              	.L26:
 600 004a 00BF     		.align	2
 601              	.L25:
 602 004c 00000000 		.word	.LC0
 603 0050 0D000000 		.word	.LC1
 604              		.cfi_endproc
 605              	.LFE68:
 606              		.size	sduStart, .-sduStart
 607              		.section	.text.sduStop,"ax",%progbits
 608              		.align	1
 609              		.global	sduStop
 610              		.thumb
 611              		.thumb_func
 612              		.type	sduStop, %function
 613              	sduStop:
 614              	.LFB69:
 615              		.loc 1 247 0
 616              		.cfi_startproc
 617              		@ args = 0, pretend = 0, frame = 0
 618              		@ frame_needed = 0, uses_anonymous_args = 0
 619              	.LVL36:
 620 0000 10B5     		push	{r4, lr}
 621              	.LCFI5:
 622              		.cfi_def_cfa_offset 8
 623              		.loc 1 249 0
ARM GAS  /tmp/cchua6zK.s 			page 12


 624 0002 0446     		mov	r4, r0
 625              		.cfi_offset 14, -4
 626              		.cfi_offset 4, -8
 627 0004 10B9     		cbnz	r0, .L28
 628              		.loc 1 249 0 is_stmt 0 discriminator 1
 629 0006 0E48     		ldr	r0, .L30
 630              	.LVL37:
 631 0008 FFF7FEFF 		bl	chDbgPanic
 632              	.L28:
 633              		.loc 1 251 0 is_stmt 1
 634              	@ 251 "../chibios/os/hal/src/serial_usb.c" 1
 635 000c FFF7FEFF 		bl      _port_lock
 636              	@ 0 "" 2
 637              		.thumb
 638 0010 FFF7FEFF 		bl	dbg_check_lock
 639              		.loc 1 252 0
 640 0014 237B     		ldrb	r3, [r4, #12]	@ zero_extendqisi2
 641 0016 013B     		subs	r3, r3, #1
 642 0018 DBB2     		uxtb	r3, r3
 643 001a 012B     		cmp	r3, #1
 644 001c 02D9     		bls	.L29
 645              		.loc 1 252 0 is_stmt 0 discriminator 1
 646 001e 0948     		ldr	r0, .L30+4
 647 0020 FFF7FEFF 		bl	chDbgPanic
 648              	.L29:
 649              		.loc 1 255 0 is_stmt 1
 650 0024 0123     		movs	r3, #1
 651 0026 2373     		strb	r3, [r4, #12]
 652              		.loc 1 256 0
 653 0028 FFF7FEFF 		bl	dbg_check_unlock
 654              	@ 256 "../chibios/os/hal/src/serial_usb.c" 1
 655 002c FFF7FEFF 		bl      _port_unlock
 656              	@ 0 "" 2
 657              		.loc 1 257 0
 658              		.thumb
 659 0030 D4F8D030 		ldr	r3, [r4, #208]
 660 0034 1868     		ldr	r0, [r3, #0]
 661              		.loc 1 258 0
 662 0036 BDE81040 		pop	{r4, lr}
 663              		.loc 1 257 0
 664 003a FFF7FEBF 		b	usbStop
 665              	.L31:
 666 003e 00BF     		.align	2
 667              	.L30:
 668 0040 1C000000 		.word	.LC2
 669 0044 27000000 		.word	.LC3
 670              		.cfi_endproc
 671              	.LFE69:
 672              		.size	sduStop, .-sduStop
 673              		.section	.text.sduRequestsHook,"ax",%progbits
 674              		.align	1
 675              		.global	sduRequestsHook
 676              		.thumb
 677              		.thumb_func
 678              		.type	sduRequestsHook, %function
 679              	sduRequestsHook:
 680              	.LFB70:
ARM GAS  /tmp/cchua6zK.s 			page 13


 681              		.loc 1 275 0
 682              		.cfi_startproc
 683              		@ args = 0, pretend = 0, frame = 0
 684              		@ frame_needed = 0, uses_anonymous_args = 0
 685              		@ link register save eliminated.
 686              	.LVL38:
 687              		.loc 1 277 0
 688 0000 90F84030 		ldrb	r3, [r0, #64]	@ zero_extendqisi2
 689 0004 03F06003 		and	r3, r3, #96
 690 0008 202B     		cmp	r3, #32
 691 000a 1AD1     		bne	.L37
 692              		.loc 1 278 0
 693 000c 90F84120 		ldrb	r2, [r0, #65]	@ zero_extendqisi2
 694 0010 212A     		cmp	r2, #33
 695 0012 06D0     		beq	.L35
 696 0014 222A     		cmp	r2, #34
 697 0016 A3F12003 		sub	r3, r3, #32
 698 001a 0DD0     		beq	.L36
 699 001c 202A     		cmp	r2, #32
 700 001e 12D1     		bne	.L39
 701 0020 05E0     		b	.L41
 702              	.L35:
 703              		.loc 1 280 0
 704 0022 0A4B     		ldr	r3, .L42
 705 0024 4363     		str	r3, [r0, #52]
 706 0026 0723     		movs	r3, #7
 707 0028 8363     		str	r3, [r0, #56]
 708 002a 073B     		subs	r3, r3, #7
 709 002c 06E0     		b	.L40
 710              	.L41:
 711              		.loc 1 283 0
 712 002e 074A     		ldr	r2, .L42
 713 0030 4263     		str	r2, [r0, #52]
 714 0032 0722     		movs	r2, #7
 715 0034 8263     		str	r2, [r0, #56]
 716 0036 01E0     		b	.L40
 717              	.L36:
 718              		.loc 1 287 0
 719 0038 4363     		str	r3, [r0, #52]
 720 003a 8363     		str	r3, [r0, #56]
 721              	.L40:
 722 003c C363     		str	r3, [r0, #60]
 723              		.loc 1 288 0
 724 003e 0120     		movs	r0, #1
 725              	.LVL39:
 726 0040 7047     		bx	lr
 727              	.LVL40:
 728              	.L37:
 729              		.loc 1 293 0
 730 0042 0020     		movs	r0, #0
 731              	.LVL41:
 732 0044 7047     		bx	lr
 733              	.LVL42:
 734              	.L39:
 735              		.loc 1 290 0
 736 0046 1846     		mov	r0, r3
 737              	.LVL43:
ARM GAS  /tmp/cchua6zK.s 			page 14


 738              		.loc 1 294 0
 739 0048 7047     		bx	lr
 740              	.L43:
 741 004a 00BF     		.align	2
 742              	.L42:
 743 004c 00000000 		.word	.LANCHOR1
 744              		.cfi_endproc
 745              	.LFE70:
 746              		.size	sduRequestsHook, .-sduRequestsHook
 747              		.section	.text.sduDataTransmitted,"ax",%progbits
 748              		.align	1
 749              		.global	sduDataTransmitted
 750              		.thumb
 751              		.thumb_func
 752              		.type	sduDataTransmitted, %function
 753              	sduDataTransmitted:
 754              	.LFB71:
 755              		.loc 1 304 0
 756              		.cfi_startproc
 757              		@ args = 0, pretend = 0, frame = 0
 758              		@ frame_needed = 0, uses_anonymous_args = 0
 759              	.LVL44:
 760 0000 F8B5     		push	{r3, r4, r5, r6, r7, lr}
 761              	.LCFI6:
 762              		.cfi_def_cfa_offset 24
 763              		.loc 1 305 0
 764 0002 8468     		ldr	r4, [r0, #8]
 765              		.cfi_offset 14, -4
 766              		.cfi_offset 7, -8
 767              		.cfi_offset 6, -12
 768              		.cfi_offset 5, -16
 769              		.cfi_offset 4, -20
 770              		.cfi_offset 3, -24
 771              	.LVL45:
 772              		.loc 1 304 0
 773 0004 0546     		mov	r5, r0
 774 0006 0E46     		mov	r6, r1
 775              		.loc 1 308 0
 776              	@ 308 "../chibios/os/hal/src/serial_usb.c" 1
 777 0008 FFF7FEFF 		bl      _port_lock
 778              	@ 0 "" 2
 779              		.thumb
 780 000c FFF7FEFF 		bl	dbg_check_lock_from_isr
 781              	.LVL46:
 782              		.loc 1 311 0
 783 0010 E36B     		ldr	r3, [r4, #60]
 784 0012 276C     		ldr	r7, [r4, #64]
 785 0014 FF1A     		subs	r7, r7, r3
 786 0016 A36B     		ldr	r3, [r4, #56]
 787              	.LVL47:
 788              		.loc 1 312 0
 789 0018 FF1A     		subs	r7, r7, r3
 790              	.LVL48:
 791 001a 2AD0     		beq	.L45
 792              		.loc 1 315 0
 793 001c FFF7FEFF 		bl	dbg_check_unlock_from_isr
 794              	@ 315 "../chibios/os/hal/src/serial_usb.c" 1
ARM GAS  /tmp/cchua6zK.s 			page 15


 795 0020 FFF7FEFF 		bl      _port_unlock
 796              	@ 0 "" 2
 797              		.loc 1 318 0
 798              		.thumb
 799 0024 2846     		mov	r0, r5
 800 0026 3146     		mov	r1, r6
 801 0028 E26B     		ldr	r2, [r4, #60]
 802 002a 3B46     		mov	r3, r7
 803 002c FFF7FEFF 		bl	usb_lld_write_packet_buffer
 804              		.loc 1 320 0
 805              	@ 320 "../chibios/os/hal/src/serial_usb.c" 1
 806 0030 FFF7FEFF 		bl      _port_lock
 807              	@ 0 "" 2
 808              		.thumb
 809 0034 FFF7FEFF 		bl	dbg_check_lock_from_isr
 810              		.loc 1 321 0
 811 0038 3146     		mov	r1, r6
 812 003a 2846     		mov	r0, r5
 813 003c FFF7FEFF 		bl	usbStartTransmitI
 814              		.loc 1 322 0
 815 0040 A368     		ldr	r3, [r4, #8]
 816 0042 201D     		adds	r0, r4, #4
 817 0044 43F00803 		orr	r3, r3, #8
 818 0048 A360     		str	r3, [r4, #8]
 819 004a 0021     		movs	r1, #0
 820 004c FFF7FEFF 		bl	chEvtBroadcastFlagsI
 821              		.loc 1 323 0
 822 0050 E36B     		ldr	r3, [r4, #60]
 823              		.loc 1 324 0
 824 0052 226C     		ldr	r2, [r4, #64]
 825              		.loc 1 323 0
 826 0054 6364     		str	r3, [r4, #68]
 827              		.loc 1 324 0
 828 0056 D31A     		subs	r3, r2, r3
 829 0058 A363     		str	r3, [r4, #56]
 830              		.loc 1 325 0
 831 005a 05E0     		b	.L46
 832              	.L47:
 833              		.loc 1 326 0
 834 005c FFF7FEFF 		bl	fifo_remove
 835 0060 FFF7FEFF 		bl	chSchReadyI
 836 0064 0023     		movs	r3, #0
 837 0066 8362     		str	r3, [r0, #40]
 838              	.L46:
 839              		.loc 1 325 0 discriminator 1
 840 0068 236B     		ldr	r3, [r4, #48]
 841 006a 04F13000 		add	r0, r4, #48
 842 006e 8342     		cmp	r3, r0
 843 0070 F4D1     		bne	.L47
 844              	.L45:
 845              		.loc 1 328 0
 846 0072 FFF7FEFF 		bl	dbg_check_unlock_from_isr
 847              	@ 328 "../chibios/os/hal/src/serial_usb.c" 1
 848 0076 FFF7FEFF 		bl      _port_unlock
 849              	@ 0 "" 2
 850              		.loc 1 329 0
 851              		.thumb
ARM GAS  /tmp/cchua6zK.s 			page 16


 852 007a F8BD     		pop	{r3, r4, r5, r6, r7, pc}
 853              		.cfi_endproc
 854              	.LFE71:
 855              		.size	sduDataTransmitted, .-sduDataTransmitted
 856              		.section	.text.sduDataReceived,"ax",%progbits
 857              		.align	1
 858              		.global	sduDataReceived
 859              		.thumb
 860              		.thumb_func
 861              		.type	sduDataReceived, %function
 862              	sduDataReceived:
 863              	.LFB72:
 864              		.loc 1 339 0
 865              		.cfi_startproc
 866              		@ args = 0, pretend = 0, frame = 0
 867              		@ frame_needed = 0, uses_anonymous_args = 0
 868              	.LVL49:
 869 0000 2DE9F041 		push	{r4, r5, r6, r7, r8, lr}
 870              	.LCFI7:
 871              		.cfi_def_cfa_offset 24
 872              		.loc 1 340 0
 873 0004 8468     		ldr	r4, [r0, #8]
 874              		.cfi_offset 14, -4
 875              		.cfi_offset 8, -8
 876              		.cfi_offset 7, -12
 877              		.cfi_offset 6, -16
 878              		.cfi_offset 5, -20
 879              		.cfi_offset 4, -24
 880              	.LVL50:
 881              		.loc 1 339 0
 882 0006 0546     		mov	r5, r0
 883 0008 0F46     		mov	r7, r1
 884              		.loc 1 342 0
 885              	@ 342 "../chibios/os/hal/src/serial_usb.c" 1
 886 000a FFF7FEFF 		bl      _port_lock
 887              	@ 0 "" 2
 888              		.thumb
 889 000e FFF7FEFF 		bl	dbg_check_lock_from_isr
 890              	.LVL51:
 891              		.loc 1 345 0
 892 0012 A669     		ldr	r6, [r4, #24]
 893 0014 56BB     		cbnz	r6, .L49
 894              	.LBB3:
 895              		.loc 1 350 0
 896 0016 FFF7FEFF 		bl	dbg_check_unlock_from_isr
 897              	@ 350 "../chibios/os/hal/src/serial_usb.c" 1
 898 001a FFF7FEFF 		bl      _port_unlock
 899              	@ 0 "" 2
 900              		.loc 1 353 0
 901              		.thumb
 902 001e 4023     		movs	r3, #64
 903 0020 2846     		mov	r0, r5
 904 0022 3946     		mov	r1, r7
 905 0024 E269     		ldr	r2, [r4, #28]
 906 0026 FFF7FEFF 		bl	usb_lld_read_packet_buffer
 907 002a 8046     		mov	r8, r0
 908              	.LVL52:
ARM GAS  /tmp/cchua6zK.s 			page 17


 909              		.loc 1 356 0
 910              	@ 356 "../chibios/os/hal/src/serial_usb.c" 1
 911 002c FFF7FEFF 		bl      _port_lock
 912              	@ 0 "" 2
 913              		.thumb
 914 0030 FFF7FEFF 		bl	dbg_check_lock_from_isr
 915              	.LVL53:
 916              		.loc 1 357 0
 917 0034 3946     		mov	r1, r7
 918 0036 2846     		mov	r0, r5
 919 0038 FFF7FEFF 		bl	usbStartReceiveI
 920              		.loc 1 358 0
 921 003c A368     		ldr	r3, [r4, #8]
 922 003e 201D     		adds	r0, r4, #4
 923 0040 43F00403 		orr	r3, r3, #4
 924 0044 A360     		str	r3, [r4, #8]
 925 0046 3146     		mov	r1, r6
 926 0048 FFF7FEFF 		bl	chEvtBroadcastFlagsI
 927              		.loc 1 359 0
 928 004c E369     		ldr	r3, [r4, #28]
 929              		.loc 1 360 0
 930 004e C4F81880 		str	r8, [r4, #24]
 931              		.loc 1 359 0
 932 0052 A362     		str	r3, [r4, #40]
 933              		.loc 1 361 0
 934 0054 05E0     		b	.L50
 935              	.L51:
 936              		.loc 1 362 0
 937 0056 FFF7FEFF 		bl	fifo_remove
 938 005a FFF7FEFF 		bl	chSchReadyI
 939 005e 0023     		movs	r3, #0
 940 0060 8362     		str	r3, [r0, #40]
 941              	.L50:
 942              		.loc 1 361 0 discriminator 1
 943 0062 2369     		ldr	r3, [r4, #16]
 944 0064 04F11000 		add	r0, r4, #16
 945 0068 8342     		cmp	r3, r0
 946 006a F4D1     		bne	.L51
 947              	.LVL54:
 948              	.L49:
 949              	.LBE3:
 950              		.loc 1 364 0
 951 006c FFF7FEFF 		bl	dbg_check_unlock_from_isr
 952              	@ 364 "../chibios/os/hal/src/serial_usb.c" 1
 953 0070 FFF7FEFF 		bl      _port_unlock
 954              	@ 0 "" 2
 955              		.loc 1 365 0
 956              		.thumb
 957 0074 BDE8F081 		pop	{r4, r5, r6, r7, r8, pc}
 958              		.cfi_endproc
 959              	.LFE72:
 960              		.size	sduDataReceived, .-sduDataReceived
 961              		.section	.text.sduInterruptTransmitted,"ax",%progbits
 962              		.align	1
 963              		.global	sduInterruptTransmitted
 964              		.thumb
 965              		.thumb_func
ARM GAS  /tmp/cchua6zK.s 			page 18


 966              		.type	sduInterruptTransmitted, %function
 967              	sduInterruptTransmitted:
 968              	.LFB73:
 969              		.loc 1 375 0
 970              		.cfi_startproc
 971              		@ args = 0, pretend = 0, frame = 0
 972              		@ frame_needed = 0, uses_anonymous_args = 0
 973              		@ link register save eliminated.
 974              	.LVL55:
 975              		.loc 1 379 0
 976 0000 7047     		bx	lr
 977              		.cfi_endproc
 978              	.LFE73:
 979              		.size	sduInterruptTransmitted, .-sduInterruptTransmitted
 980              		.section	.rodata.str1.1,"aMS",%progbits,1
 981              	.LC0:
 982 0000 22736475 		.ascii	"\"sduStart\"()\000"
 982      53746172 
 982      74222829 
 982      00
 983              	.LC1:
 984 000d 73647553 		.ascii	"sduStart(), #1\000"
 984      74617274 
 984      28292C20 
 984      233100
 985              	.LC2:
 986 001c 22736453 		.ascii	"\"sdStop\"()\000"
 986      746F7022 
 986      282900
 987              	.LC3:
 988 0027 73647553 		.ascii	"sduStop(), #1\000"
 988      746F7028 
 988      292C2023 
 988      3100
 989              		.section	.rodata.vmt,"a",%progbits
 990              		.align	2
 991              		.set	.LANCHOR0,. + 0
 992              		.type	vmt, %object
 993              		.size	vmt, 36
 994              	vmt:
 995 0000 00000000 		.word	writes
 996 0004 00000000 		.word	reads
 997 0008 00000000 		.word	putwouldblock
 998 000c 00000000 		.word	getwouldblock
 999 0010 00000000 		.word	putt
 1000 0014 00000000 		.word	gett
 1001 0018 00000000 		.word	writet
 1002 001c 00000000 		.word	readt
 1003 0020 00000000 		.word	getflags
 1004              		.section	.data.linecoding,"aw",%progbits
 1005              		.set	.LANCHOR1,. + 0
 1006              		.type	linecoding, %object
 1007              		.size	linecoding, 7
 1008              	linecoding:
 1009 0000 00       		.byte	0
 1010 0001 96       		.byte	-106
 1011 0002 00       		.byte	0
ARM GAS  /tmp/cchua6zK.s 			page 19


 1012 0003 00       		.byte	0
 1013 0004 00       		.byte	0
 1014 0005 00       		.byte	0
 1015 0006 08       		.byte	8
 1016              		.text
 1017              	.Letext0: