ARM GAS  /tmp/cchua6zK.s 			page 1


   1              		.syntax unified
   2              		.cpu cortex-m3
   3              		.fpu softvfp
   4              		.eabi_attribute 20, 1
   5              		.eabi_attribute 21, 1
   6              		.eabi_attribute 23, 3
   7              		.eabi_attribute 24, 1
   8              		.eabi_attribute 25, 1
   9              		.eabi_attribute 26, 1
  10              		.eabi_attribute 30, 4
  11              		.eabi_attribute 18, 4
  12              		.thumb
  13              		.file	"serial_usb.c"
  14              		.section	.debug_abbrev,"",%progbits
  15              	.Ldebug_abbrev0:
  16              		.section	.debug_info,"",%progbits
  17              	.Ldebug_info0:
  18              		.section	.debug_line,"",%progbits
  19              	.Ldebug_line0:
  20 0000 69040000 		.text
  20      02007402 
  20      00000201 
  20      FB0E0D00 
  20      01010101 
  21              	.Ltext0:
  22              		.cfi_sections	.debug_frame
  23              		.section	.text.putwouldblock,"ax",%progbits
  24              		.align	1
  25              		.thumb
  26              		.thumb_func
  27              		.type	putwouldblock, %function
  28              	putwouldblock:
  29              	.LFB57:
  30              		.file 1 "../chibios/os/hal/src/serial_usb.c"
  31              		.loc 1 83 0
  32              		.cfi_startproc
  33              		@ args = 0, pretend = 0, frame = 0
  34              		@ frame_needed = 0, uses_anonymous_args = 0
  35              		@ link register save eliminated.
  36              	.LVL0:
  37              		.loc 1 85 0
  38 0000 806B     		ldr	r0, [r0, #56]
  39              	.LVL1:
  40              		.loc 1 86 0
  41 0002 D0F10100 		rsbs	r0, r0, #1
  42 0006 38BF     		it	cc
  43 0008 0020     		movcc	r0, #0
  44 000a 7047     		bx	lr
  45              		.cfi_endproc
  46              	.LFE57:
  47              		.size	putwouldblock, .-putwouldblock
  48              		.section	.text.getwouldblock,"ax",%progbits
  49              		.align	1
  50              		.thumb
  51              		.thumb_func
  52              		.type	getwouldblock, %function
  53              	getwouldblock:
ARM GAS  /tmp/cchua6zK.s 			page 2


  54              	.LFB58:
  55              		.loc 1 88 0
  56              		.cfi_startproc
  57              		@ args = 0, pretend = 0, frame = 0
  58              		@ frame_needed = 0, uses_anonymous_args = 0
  59              		@ link register save eliminated.
  60              	.LVL2:
  61              		.loc 1 90 0
  62 0000 8069     		ldr	r0, [r0, #24]
  63              	.LVL3:
  64              		.loc 1 91 0
  65 0002 D0F10100 		rsbs	r0, r0, #1
  66 0006 38BF     		it	cc
  67 0008 0020     		movcc	r0, #0
  68 000a 7047     		bx	lr
  69              		.cfi_endproc
  70              	.LFE58:
  71              		.size	getwouldblock, .-getwouldblock
  72              		.section	.text.getflags,"ax",%progbits
  73              		.align	1
  74              		.thumb
  75              		.thumb_func
  76              		.type	getflags, %function
  77              	getflags:
  78              	.LFB63:
  79              		.loc 1 113 0
  80              		.cfi_startproc
  81              		@ args = 0, pretend = 0, frame = 0
  82              		@ frame_needed = 0, uses_anonymous_args = 0
  83              	.LVL4:
  84 0000 38B5     		push	{r3, r4, r5, lr}
  85              	.LCFI0:
  86              		.cfi_def_cfa_offset 16
  87              		.loc 1 113 0
  88 0002 0446     		mov	r4, r0
  89              		.cfi_offset 14, -4
  90              		.cfi_offset 5, -8
  91              		.cfi_offset 4, -12
  92              		.cfi_offset 3, -16
  93              		.loc 1 114 0
  94              	@ 114 "../chibios/os/hal/src/serial_usb.c" 1
  95 0004 FFF7FEFF 		bl      _port_lock
  96              	@ 0 "" 2
  97              		.thumb
  98 0008 FFF7FEFF 		bl	dbg_check_lock
  99              	.LVL5:
 100 000c 0023     		movs	r3, #0
 101 000e A568     		ldr	r5, [r4, #8]
 102              	.LVL6:
 103 0010 A360     		str	r3, [r4, #8]
 104 0012 FFF7FEFF 		bl	dbg_check_unlock
 105              	.LVL7:
 106              	@ 114 "../chibios/os/hal/src/serial_usb.c" 1
 107 0016 FFF7FEFF 		bl      _port_unlock
 108              	@ 0 "" 2
 109              		.loc 1 115 0
 110              		.thumb
ARM GAS  /tmp/cchua6zK.s 			page 3


 111 001a 2846     		mov	r0, r5
 112 001c 38BD     		pop	{r3, r4, r5, pc}
 113              		.cfi_endproc
 114              	.LFE63:
 115              		.size	getflags, .-getflags
 116              		.section	.text.onotify,"ax",%progbits
 117              		.align	1
 118              		.thumb
 119              		.thumb_func
 120              		.type	onotify, %function
 121              	onotify:
 122              	.LFB65:
 123              		.loc 1 154 0
 124              		.cfi_startproc
 125              		@ args = 0, pretend = 0, frame = 0
 126              		@ frame_needed = 0, uses_anonymous_args = 0
 127              	.LVL8:
 128 0000 2DE9F041 		push	{r4, r5, r6, r7, r8, lr}
 129              	.LCFI1:
 130              		.cfi_def_cfa_offset 24
 131              		.loc 1 155 0
 132 0004 8469     		ldr	r4, [r0, #24]
 133              		.cfi_offset 14, -4
 134              		.cfi_offset 8, -8
 135              		.cfi_offset 7, -12
 136              		.cfi_offset 6, -16
 137              		.cfi_offset 5, -20
 138              		.cfi_offset 4, -24
 139              	.LVL9:
 140              		.loc 1 161 0
 141 0006 D4F8D030 		ldr	r3, [r4, #208]
 142              		.loc 1 160 0
 143 000a D4F84080 		ldr	r8, [r4, #64]
 144              		.loc 1 161 0
 145 000e 1B68     		ldr	r3, [r3, #0]
 146              		.loc 1 160 0
 147 0010 E76B     		ldr	r7, [r4, #60]
 148              		.loc 1 161 0
 149 0012 9D89     		ldrh	r5, [r3, #12]
 150              		.loc 1 160 0
 151 0014 A66B     		ldr	r6, [r4, #56]
 152              		.loc 1 161 0
 153 0016 15F00205 		ands	r5, r5, #2
 154 001a 30D1     		bne	.L4
 155              	.LVL10:
 156              		.loc 1 162 0
 157 001c FFF7FEFF 		bl	dbg_check_unlock
 158              	.LVL11:
 159              	@ 162 "../chibios/os/hal/src/serial_usb.c" 1
 160 0020 FFF7FEFF 		bl      _port_unlock
 161              	@ 0 "" 2
 162              		.loc 1 165 0
 163              		.thumb
 164 0024 D4F8D020 		ldr	r2, [r4, #208]
 165              		.loc 1 160 0
 166 0028 C7EB0803 		rsb	r3, r7, r8
 167              		.loc 1 165 0
ARM GAS  /tmp/cchua6zK.s 			page 4


 168 002c 1068     		ldr	r0, [r2, #0]
 169 002e 0121     		movs	r1, #1
 170 0030 E26B     		ldr	r2, [r4, #60]
 171 0032 9B1B     		subs	r3, r3, r6
 172 0034 FFF7FEFF 		bl	usb_lld_write_packet_buffer
 173              		.loc 1 168 0
 174              	@ 168 "../chibios/os/hal/src/serial_usb.c" 1
 175 0038 FFF7FEFF 		bl      _port_lock
 176              	@ 0 "" 2
 177              		.thumb
 178 003c FFF7FEFF 		bl	dbg_check_lock
 179              		.loc 1 169 0
 180 0040 D4F8D030 		ldr	r3, [r4, #208]
 181 0044 0121     		movs	r1, #1
 182 0046 1868     		ldr	r0, [r3, #0]
 183 0048 FFF7FEFF 		bl	usbStartTransmitI
 184              		.loc 1 170 0
 185 004c A368     		ldr	r3, [r4, #8]
 186 004e 201D     		adds	r0, r4, #4
 187 0050 43F00803 		orr	r3, r3, #8
 188 0054 A360     		str	r3, [r4, #8]
 189 0056 2946     		mov	r1, r5
 190 0058 FFF7FEFF 		bl	chEvtBroadcastFlagsI
 191              		.loc 1 171 0
 192 005c E36B     		ldr	r3, [r4, #60]
 193              		.loc 1 172 0
 194 005e 226C     		ldr	r2, [r4, #64]
 195              		.loc 1 171 0
 196 0060 6364     		str	r3, [r4, #68]
 197              		.loc 1 172 0
 198 0062 D31A     		subs	r3, r2, r3
 199 0064 A363     		str	r3, [r4, #56]
 200              		.loc 1 173 0
 201 0066 05E0     		b	.L6
 202              	.L7:
 203              		.loc 1 174 0
 204 0068 FFF7FEFF 		bl	fifo_remove
 205 006c FFF7FEFF 		bl	chSchReadyI
 206 0070 0023     		movs	r3, #0
 207 0072 8362     		str	r3, [r0, #40]
 208              	.L6:
 209              		.loc 1 173 0 discriminator 1
 210 0074 236B     		ldr	r3, [r4, #48]
 211 0076 04F13000 		add	r0, r4, #48
 212 007a 8342     		cmp	r3, r0
 213 007c F4D1     		bne	.L7
 214              	.L4:
 215 007e BDE8F081 		pop	{r4, r5, r6, r7, r8, pc}
 216              		.cfi_endproc
 217              	.LFE65:
 218              		.size	onotify, .-onotify
 219              		.section	.text.inotify,"ax",%progbits
 220              		.align	1
 221              		.thumb
 222              		.thumb_func
 223              		.type	inotify, %function
 224              	inotify:
ARM GAS  /tmp/cchua6zK.s 			page 5


 225              	.LFB64:
 226              		.loc 1 126 0
 227              		.cfi_startproc
 228              		@ args = 0, pretend = 0, frame = 0
 229              		@ frame_needed = 0, uses_anonymous_args = 0
 230              	.LVL12:
 231 0000 70B5     		push	{r4, r5, r6, lr}
 232              	.LCFI2:
 233              		.cfi_def_cfa_offset 16
 234              		.loc 1 127 0
 235 0002 4469     		ldr	r4, [r0, #20]
 236              		.cfi_offset 14, -4
 237              		.cfi_offset 6, -8
 238              		.cfi_offset 5, -12
 239              		.cfi_offset 4, -16
 240              	.LVL13:
 241              		.loc 1 131 0
 242 0004 D4F8D030 		ldr	r3, [r4, #208]
 243 0008 1B68     		ldr	r3, [r3, #0]
 244 000a DB89     		ldrh	r3, [r3, #14]
 245 000c 13F0080F 		tst	r3, #8
 246 0010 2FD1     		bne	.L8
 247              	.LVL14:
 248              		.loc 1 131 0 is_stmt 0 discriminator 1
 249 0012 A569     		ldr	r5, [r4, #24]
 250 0014 6DBB     		cbnz	r5, .L8
 251              	.LBB2:
 252              		.loc 1 133 0 is_stmt 1
 253 0016 FFF7FEFF 		bl	dbg_check_unlock
 254              	.LVL15:
 255              	@ 133 "../chibios/os/hal/src/serial_usb.c" 1
 256 001a FFF7FEFF 		bl      _port_unlock
 257              	@ 0 "" 2
 258              		.loc 1 136 0
 259              		.thumb
 260 001e D4F8D030 		ldr	r3, [r4, #208]
 261 0022 0321     		movs	r1, #3
 262 0024 1868     		ldr	r0, [r3, #0]
 263 0026 E269     		ldr	r2, [r4, #28]
 264 0028 4023     		movs	r3, #64
 265 002a FFF7FEFF 		bl	usb_lld_read_packet_buffer
 266 002e 0646     		mov	r6, r0
 267              	.LVL16:
 268              		.loc 1 141 0
 269              	@ 141 "../chibios/os/hal/src/serial_usb.c" 1
 270 0030 FFF7FEFF 		bl      _port_lock
 271              	@ 0 "" 2
 272              		.thumb
 273 0034 FFF7FEFF 		bl	dbg_check_lock
 274              	.LVL17:
 275              		.loc 1 142 0
 276 0038 D4F8D030 		ldr	r3, [r4, #208]
 277 003c 0321     		movs	r1, #3
 278 003e 1868     		ldr	r0, [r3, #0]
 279 0040 FFF7FEFF 		bl	usbStartReceiveI
 280              		.loc 1 143 0
 281 0044 A368     		ldr	r3, [r4, #8]
ARM GAS  /tmp/cchua6zK.s 			page 6


 282 0046 201D     		adds	r0, r4, #4
 283 0048 43F00403 		orr	r3, r3, #4
 284 004c A360     		str	r3, [r4, #8]
 285 004e 2946     		mov	r1, r5
 286 0050 FFF7FEFF 		bl	chEvtBroadcastFlagsI
 287              		.loc 1 144 0
 288 0054 E369     		ldr	r3, [r4, #28]
 289              		.loc 1 145 0
 290 0056 A661     		str	r6, [r4, #24]
 291              		.loc 1 144 0
 292 0058 A362     		str	r3, [r4, #40]
 293              		.loc 1 146 0
 294 005a 05E0     		b	.L10
 295              	.L11:
 296              		.loc 1 147 0
 297 005c FFF7FEFF 		bl	fifo_remove
 298 0060 FFF7FEFF 		bl	chSchReadyI
 299 0064 0023     		movs	r3, #0
 300 0066 8362     		str	r3, [r0, #40]
 301              	.L10:
 302              		.loc 1 146 0 discriminator 1
 303 0068 2369     		ldr	r3, [r4, #16]
 304 006a 04F11000 		add	r0, r4, #16
 305 006e 8342     		cmp	r3, r0
 306 0070 F4D1     		bne	.L11
 307              	.LVL18:
 308              	.L8:
 309 0072 70BD     		pop	{r4, r5, r6, pc}
 310              	.LBE2:
 311              		.cfi_endproc
 312              	.LFE64:
 313              		.size	inotify, .-inotify
 314              		.section	.text.readt,"ax",%progbits
 315              		.align	1
 316              		.thumb
 317              		.thumb_func
 318              		.type	readt, %function
 319              	readt:
 320              	.LFB62:
 321              		.loc 1 108 0
 322              		.cfi_startproc
 323              		@ args = 0, pretend = 0, frame = 0
 324              		@ frame_needed = 0, uses_anonymous_args = 0
 325              		@ link register save eliminated.
 326              	.LVL19:
 327              		.loc 1 110 0
 328 0000 1030     		adds	r0, r0, #16
 329              	.LVL20:
 330              		.loc 1 111 0
 331              		.loc 1 110 0
 332 0002 FFF7FEBF 		b	chIQReadTimeout
 333              		.cfi_endproc
 334              	.LFE62:
 335              		.size	readt, .-readt
 336              		.section	.text.reads,"ax",%progbits
 337              		.align	1
 338              		.thumb
ARM GAS  /tmp/cchua6zK.s 			page 7


 339              		.thumb_func
 340              		.type	reads, %function
 341              	reads:
 342              	.LFB56:
 343              		.loc 1 77 0
 344              		.cfi_startproc
 345              		@ args = 0, pretend = 0, frame = 0
 346              		@ frame_needed = 0, uses_anonymous_args = 0
 347              		@ link register save eliminated.
 348              	.LVL21:
 349              		.loc 1 79 0
 350 0000 1030     		adds	r0, r0, #16
 351              	.LVL22:
 352 0002 4FF0FF33 		mov	r3, #-1
 353              		.loc 1 81 0
 354              		.loc 1 79 0
 355 0006 FFF7FEBF 		b	chIQReadTimeout
 356              		.cfi_endproc
 357              	.LFE56:
 358              		.size	reads, .-reads
 359              		.section	.text.writet,"ax",%progbits
 360              		.align	1
 361              		.thumb
 362              		.thumb_func
 363              		.type	writet, %function
 364              	writet:
 365              	.LFB61:
 366              		.loc 1 103 0
 367              		.cfi_startproc
 368              		@ args = 0, pretend = 0, frame = 0
 369              		@ frame_needed = 0, uses_anonymous_args = 0
 370              		@ link register save eliminated.
 371              	.LVL23:
 372              		.loc 1 105 0
 373 0000 3030     		adds	r0, r0, #48
 374              	.LVL24:
 375              		.loc 1 106 0
 376              		.loc 1 105 0
 377 0002 FFF7FEBF 		b	chOQWriteTimeout
 378              		.cfi_endproc
 379              	.LFE61:
 380              		.size	writet, .-writet
 381              		.section	.text.writes,"ax",%progbits
 382              		.align	1
 383              		.thumb
 384              		.thumb_func
 385              		.type	writes, %function
 386              	writes:
 387              	.LFB55:
 388              		.loc 1 71 0
 389              		.cfi_startproc
 390              		@ args = 0, pretend = 0, frame = 0
 391              		@ frame_needed = 0, uses_anonymous_args = 0
 392              		@ link register save eliminated.
 393              	.LVL25:
 394              		.loc 1 73 0
 395 0000 3030     		adds	r0, r0, #48
ARM GAS  /tmp/cchua6zK.s 			page 8


 396              	.LVL26:
 397 0002 4FF0FF33 		mov	r3, #-1
 398              		.loc 1 75 0
 399              		.loc 1 73 0
 400 0006 FFF7FEBF 		b	chOQWriteTimeout
 401              		.cfi_endproc
 402              	.LFE55:
 403              		.size	writes, .-writes
 404              		.section	.text.gett,"ax",%progbits
 405              		.align	1
 406              		.thumb
 407              		.thumb_func
 408              		.type	gett, %function
 409              	gett:
 410              	.LFB60:
 411              		.loc 1 98 0
 412              		.cfi_startproc
 413              		@ args = 0, pretend = 0, frame = 0
 414              		@ frame_needed = 0, uses_anonymous_args = 0
 415              		@ link register save eliminated.
 416              	.LVL27:
 417              		.loc 1 100 0
 418 0000 1030     		adds	r0, r0, #16
 419              	.LVL28:
 420              		.loc 1 101 0
 421              		.loc 1 100 0
 422 0002 FFF7FEBF 		b	chIQGetTimeout
 423              		.cfi_endproc
 424              	.LFE60:
 425              		.size	gett, .-gett
 426              		.section	.text.putt,"ax",%progbits
 427              		.align	1
 428              		.thumb
 429              		.thumb_func
 430              		.type	putt, %function
 431              	putt:
 432              	.LFB59:
 433              		.loc 1 93 0
 434              		.cfi_startproc
 435              		@ args = 0, pretend = 0, frame = 0
 436              		@ frame_needed = 0, uses_anonymous_args = 0
 437              		@ link register save eliminated.
 438              	.LVL29:
 439              		.loc 1 95 0
 440 0000 3030     		adds	r0, r0, #48
 441              	.LVL30:
 442              		.loc 1 96 0
 443              		.loc 1 95 0
 444 0002 FFF7FEBF 		b	chOQPutTimeout
 445              		.cfi_endproc
 446              	.LFE59:
 447              		.size	putt, .-putt
 448              		.section	.text.sduInit,"ax",%progbits
 449              		.align	1
 450              		.global	sduInit
 451              		.thumb
 452              		.thumb_func
ARM GAS  /tmp/cchua6zK.s 			page 9


 453              		.type	sduInit, %function
 454              	sduInit:
 455              	.LFB66:
 456              		.loc 1 189 0
 457              		.cfi_startproc
 458              		@ args = 0, pretend = 0, frame = 0
 459              		@ frame_needed = 0, uses_anonymous_args = 0
 460              		@ link register save eliminated.
 461              		.loc 1 190 0
 462 0000 7047     		bx	lr
 463              		.cfi_endproc
 464              	.LFE66:
 465              		.size	sduInit, .-sduInit
 466              		.section	.text.sduObjectInit,"ax",%progbits
 467              		.align	1
 468              		.global	sduObjectInit
 469              		.thumb
 470              		.thumb_func
 471              		.type	sduObjectInit, %function
 472              	sduObjectInit:
 473              	.LFB67:
 474              		.loc 1 201 0
 475              		.cfi_startproc
 476              		@ args = 0, pretend = 0, frame = 0
 477              		@ frame_needed = 0, uses_anonymous_args = 0
 478              	.LVL31:
 479              		.loc 1 203 0
 480 0000 0E4A     		ldr	r2, .L20
 481 0002 0346     		mov	r3, r0
 482              		.loc 1 201 0
 483 0004 10B5     		push	{r4, lr}
 484              	.LCFI3:
 485              		.cfi_def_cfa_offset 8
 486              		.loc 1 203 0
 487 0006 43F8042B 		str	r2, [r3], #4
 488              		.loc 1 204 0
 489 000a 4360     		str	r3, [r0, #4]
 490              		.loc 1 205 0
 491 000c 0023     		movs	r3, #0
 492              		.loc 1 201 0
 493 000e 0446     		mov	r4, r0
 494              		.cfi_offset 14, -4
 495              		.cfi_offset 4, -8
 496              		.loc 1 205 0
 497 0010 8360     		str	r3, [r0, #8]
 498              		.loc 1 206 0
 499 0012 0133     		adds	r3, r3, #1
 500 0014 0373     		strb	r3, [r0, #12]
 501              		.loc 1 207 0
 502 0016 04F15001 		add	r1, r4, #80
 503 001a 1030     		adds	r0, r0, #16
 504              	.LVL32:
 505 001c 4022     		movs	r2, #64
 506 001e 084B     		ldr	r3, .L20+4
 507 0020 FFF7FEFF 		bl	chIQInit
 508              		.loc 1 208 0
 509 0024 04F13000 		add	r0, r4, #48
ARM GAS  /tmp/cchua6zK.s 			page 10


 510 0028 04F19001 		add	r1, r4, #144
 511 002c 4022     		movs	r2, #64
 512 002e 054B     		ldr	r3, .L20+8
 513 0030 FFF7FEFF 		bl	chOQInit
 514              		.loc 1 211 0
 515 0034 6462     		str	r4, [r4, #36]
 516              		.loc 1 212 0
 517 0036 A464     		str	r4, [r4, #72]
 518              		.loc 1 213 0
 519 0038 10BD     		pop	{r4, pc}
 520              	.L21:
 521 003a 00BF     		.align	2
 522              	.L20:
 523 003c 00000000 		.word	.LANCHOR0
 524 0040 00000000 		.word	inotify
 525 0044 00000000 		.word	onotify
 526              		.cfi_endproc
 527              	.LFE67:
 528              		.size	sduObjectInit, .-sduObjectInit
 529              		.section	.text.sduStart,"ax",%progbits
 530              		.align	1
 531              		.global	sduStart
 532              		.thumb
 533              		.thumb_func
 534              		.type	sduStart, %function
 535              	sduStart:
 536              	.LFB68:
 537              		.loc 1 223 0
 538              		.cfi_startproc
 539              		@ args = 0, pretend = 0, frame = 0
 540              		@ frame_needed = 0, uses_anonymous_args = 0
 541              	.LVL33:
 542 0000 70B5     		push	{r4, r5, r6, lr}
 543              	.LCFI4:
 544              		.cfi_def_cfa_offset 16
 545              		.loc 1 223 0
 546 0002 0E46     		mov	r6, r1
 547              		.cfi_offset 14, -4
 548              		.cfi_offset 6, -8
 549              		.cfi_offset 5, -12
 550              		.cfi_offset 4, -16
 551              		.loc 1 225 0
 552 0004 0446     		mov	r4, r0
 553 0006 10B9     		cbnz	r0, .L23
 554              		.loc 1 225 0 is_stmt 0 discriminator 1
 555 0008 1048     		ldr	r0, .L25
 556              	.LVL34:
 557 000a FFF7FEFF 		bl	chDbgPanic
 558              	.LVL35:
 559              	.L23:
 560              		.loc 1 227 0 is_stmt 1
 561              	@ 227 "../chibios/os/hal/src/serial_usb.c" 1
 562 000e FFF7FEFF 		bl      _port_lock
 563              	@ 0 "" 2
 564              		.thumb
 565 0012 FFF7FEFF 		bl	dbg_check_lock
 566              		.loc 1 228 0
ARM GAS  /tmp/cchua6zK.s 			page 11


 567 0016 237B     		ldrb	r3, [r4, #12]	@ zero_extendqisi2
 568 0018 013B     		subs	r3, r3, #1
 569 001a DBB2     		uxtb	r3, r3
 570 001c 012B     		cmp	r3, #1
 571 001e 02D9     		bls	.L24
 572              		.loc 1 228 0 is_stmt 0 discriminator 1
 573 0020 0B48     		ldr	r0, .L25+4
 574 0022 FFF7FEFF 		bl	chDbgPanic
 575              	.L24:
 576              		.loc 1 232 0 is_stmt 1
 577 0026 3546     		mov	r5, r6
 578 0028 55F8043B 		ldr	r3, [r5], #4
 579              		.loc 1 231 0
 580 002c C4F8D060 		str	r6, [r4, #208]
 581              		.loc 1 232 0
 582 0030 9C60     		str	r4, [r3, #8]
 583              		.loc 1 233 0
 584 0032 0223     		movs	r3, #2
 585 0034 2373     		strb	r3, [r4, #12]
 586              		.loc 1 234 0
 587 0036 FFF7FEFF 		bl	dbg_check_unlock
 588              	@ 234 "../chibios/os/hal/src/serial_usb.c" 1
 589 003a FFF7FEFF 		bl      _port_unlock
 590              	@ 0 "" 2
 591              		.loc 1 235 0
 592              		.thumb
 593 003e 3068     		ldr	r0, [r6, #0]
 594 0040 2946     		mov	r1, r5
 595              		.loc 1 236 0
 596 0042 BDE87040 		pop	{r4, r5, r6, lr}
 597              		.loc 1 235 0
 598 0046 FFF7FEBF 		b	usbStart
 599              	.L26:
 600 004a 00BF     		.align	2
 601              	.L25:
 602 004c 00000000 		.word	.LC0
 603 0050 0D000000 		.word	.LC1
 604              		.cfi_endproc
 605              	.LFE68:
 606              		.size	sduStart, .-sduStart
 607              		.section	.text.sduStop,"ax",%progbits
 608              		.align	1
 609              		.global	sduStop
 610              		.thumb
 611              		.thumb_func
 612              		.type	sduStop, %function
 613              	sduStop:
 614              	.LFB69:
 615              		.loc 1 247 0
 616              		.cfi_startproc
 617              		@ args = 0, pretend = 0, frame = 0
 618              		@ frame_needed = 0, uses_anonymous_args = 0
 619              	.LVL36:
 620 0000 10B5     		push	{r4, lr}
 621              	.LCFI5:
 622              		.cfi_def_cfa_offset 8
 623              		.loc 1 249 0
ARM GAS  /tmp/cchua6zK.s 			page 12


 624 0002 0446     		mov	r4, r0
 625              		.cfi_offset 14, -4
 626              		.cfi_offset 4, -8
 627 0004 10B9     		cbnz	r0, .L28
 628              		.loc 1 249 0 is_stmt 0 discriminator 1
 629 0006 0E48     		ldr	r0, .L30
 630              	.LVL37:
 631 0008 FFF7FEFF 		bl	chDbgPanic
 632              	.L28:
 633              		.loc 1 251 0 is_stmt 1
 634              	@ 251 "../chibios/os/hal/src/serial_usb.c" 1
 635 000c FFF7FEFF 		bl      _port_lock
 636              	@ 0 "" 2
 637              		.thumb
 638 0010 FFF7FEFF 		bl	dbg_check_lock
 639              		.loc 1 252 0
 640 0014 237B     		ldrb	r3, [r4, #12]	@ zero_extendqisi2
 641 0016 013B     		subs	r3, r3, #1
 642 0018 DBB2     		uxtb	r3, r3
 643 001a 012B     		cmp	r3, #1
 644 001c 02D9     		bls	.L29
 645              		.loc 1 252 0 is_stmt 0 discriminator 1
 646 001e 0948     		ldr	r0, .L30+4
 647 0020 FFF7FEFF 		bl	chDbgPanic
 648              	.L29:
 649              		.loc 1 255 0 is_stmt 1
 650 0024 0123     		movs	r3, #1
 651 0026 2373     		strb	r3, [r4, #12]
 652              		.loc 1 256 0
 653 0028 FFF7FEFF 		bl	dbg_check_unlock
 654              	@ 256 "../chibios/os/hal/src/serial_usb.c" 1
 655 002c FFF7FEFF 		bl      _port_unlock
 656              	@ 0 "" 2
 657              		.loc 1 257 0
 658              		.thumb
 659 0030 D4F8D030 		ldr	r3, [r4, #208]
 660 0034 1868     		ldr	r0, [r3, #0]
 661              		.loc 1 258 0
 662 0036 BDE81040 		pop	{r4, lr}
 663              		.loc 1 257 0
 664 003a FFF7FEBF 		b	usbStop
 665              	.L31:
 666 003e 00BF     		.align	2
 667              	.L30:
 668 0040 1C000000 		.word	.LC2
 669 0044 27000000 		.word	.LC3
 670              		.cfi_endproc
 671              	.LFE69:
 672              		.size	sduStop, .-sduStop
 673              		.section	.text.sduRequestsHook,"ax",%progbits
 674              		.align	1
 675              		.global	sduRequestsHook
 676              		.thumb
 677              		.thumb_func
 678              		.type	sduRequestsHook, %function
 679              	sduRequestsHook:
 680              	.LFB70:
ARM GAS  /tmp/cchua6zK.s 			page 13


 681              		.loc 1 275 0
 682              		.cfi_startproc
 683              		@ args = 0, pretend = 0, frame = 0
 684              		@ frame_needed = 0, uses_anonymous_args = 0
 685              		@ link register save eliminated.
 686              	.LVL38:
 687              		.loc 1 277 0
 688 0000 90F84030 		ldrb	r3, [r0, #64]	@ zero_extendqisi2
 689 0004 03F06003 		and	r3, r3, #96
 690 0008 202B     		cmp	r3, #32
 691 000a 1AD1     		bne	.L37
 692              		.loc 1 278 0
 693 000c 90F84120 		ldrb	r2, [r0, #65]	@ zero_extendqisi2
 694 0010 212A     		cmp	r2, #33
 695 0012 06D0     		beq	.L35
 696 0014 222A     		cmp	r2, #34
 697 0016 A3F12003 		sub	r3, r3, #32
 698 001a 0DD0     		beq	.L36
 699 001c 202A     		cmp	r2, #32
 700 001e 12D1     		bne	.L39
 701 0020 05E0     		b	.L41
 702              	.L35:
 703              		.loc 1 280 0
 704 0022 0A4B     		ldr	r3, .L42
 705 0024 4363     		str	r3, [r0, #52]
 706 0026 0723     		movs	r3, #7
 707 0028 8363     		str	r3, [r0, #56]
 708 002a 073B     		subs	r3, r3, #7
 709 002c 06E0     		b	.L40
 710              	.L41:
 711              		.loc 1 283 0
 712 002e 074A     		ldr	r2, .L42
 713 0030 4263     		str	r2, [r0, #52]
 714 0032 0722     		movs	r2, #7
 715 0034 8263     		str	r2, [r0, #56]
 716 0036 01E0     		b	.L40
 717              	.L36:
 718              		.loc 1 287 0
 719 0038 4363     		str	r3, [r0, #52]
 720 003a 8363     		str	r3, [r0, #56]
 721              	.L40:
 722 003c C363     		str	r3, [r0, #60]
 723              		.loc 1 288 0
 724 003e 0120     		movs	r0, #1
 725              	.LVL39:
 726 0040 7047     		bx	lr
 727              	.LVL40:
 728              	.L37:
 729              		.loc 1 293 0
 730 0042 0020     		movs	r0, #0
 731              	.LVL41:
 732 0044 7047     		bx	lr
 733              	.LVL42:
 734              	.L39:
 735              		.loc 1 290 0
 736 0046 1846     		mov	r0, r3
 737              	.LVL43:
ARM GAS  /tmp/cchua6zK.s 			page 14


 738              		.loc 1 294 0
 739 0048 7047     		bx	lr
 740              	.L43:
 741 004a 00BF     		.align	2
 742              	.L42:
 743 004c 00000000 		.word	.LANCHOR1
 744              		.cfi_endproc
 745              	.LFE70:
 746              		.size	sduRequestsHook, .-sduRequestsHook
 747              		.section	.text.sduDataTransmitted,"ax",%progbits
 748              		.align	1
 749              		.global	sduDataTransmitted
 750              		.thumb
 751              		.thumb_func
 752              		.type	sduDataTransmitted, %function
 753              	sduDataTransmitted:
 754              	.LFB71:
 755              		.loc 1 304 0
 756              		.cfi_startproc
 757              		@ args = 0, pretend = 0, frame = 0
 758              		@ frame_needed = 0, uses_anonymous_args = 0
 759              	.LVL44:
 760 0000 F8B5     		push	{r3, r4, r5, r6, r7, lr}
 761              	.LCFI6:
 762              		.cfi_def_cfa_offset 24
 763              		.loc 1 305 0
 764 0002 8468     		ldr	r4, [r0, #8]
 765              		.cfi_offset 14, -4
 766              		.cfi_offset 7, -8
 767              		.cfi_offset 6, -12
 768              		.cfi_offset 5, -16
 769              		.cfi_offset 4, -20
 770              		.cfi_offset 3, -24
 771              	.LVL45:
 772              		.loc 1 304 0
 773 0004 0546     		mov	r5, r0
 774 0006 0E46     		mov	r6, r1
 775              		.loc 1 308 0
 776              	@ 308 "../chibios/os/hal/src/serial_usb.c" 1
 777 0008 FFF7FEFF 		bl      _port_lock
 778              	@ 0 "" 2
 779              		.thumb
 780 000c FFF7FEFF 		bl	dbg_check_lock_from_isr
 781              	.LVL46:
 782              		.loc 1 311 0
 783 0010 E36B     		ldr	r3, [r4, #60]
 784 0012 276C     		ldr	r7, [r4, #64]
 785 0014 FF1A     		subs	r7, r7, r3
 786 0016 A36B     		ldr	r3, [r4, #56]
 787              	.LVL47:
 788              		.loc 1 312 0
 789 0018 FF1A     		subs	r7, r7, r3
 790              	.LVL48:
 791 001a 2AD0     		beq	.L45
 792              		.loc 1 315 0
 793 001c FFF7FEFF 		bl	dbg_check_unlock_from_isr
 794              	@ 315 "../chibios/os/hal/src/serial_usb.c" 1
ARM GAS  /tmp/cchua6zK.s 			page 15


 795 0020 FFF7FEFF 		bl      _port_unlock
 796              	@ 0 "" 2
 797              		.loc 1 318 0
 798              		.thumb
 799 0024 2846     		mov	r0, r5
 800 0026 3146     		mov	r1, r6
 801 0028 E26B     		ldr	r2, [r4, #60]
 802 002a 3B46     		mov	r3, r7
 803 002c FFF7FEFF 		bl	usb_lld_write_packet_buffer
 804              		.loc 1 320 0
 805              	@ 320 "../chibios/os/hal/src/serial_usb.c" 1
 806 0030 FFF7FEFF 		bl      _port_lock
 807              	@ 0 "" 2
 808              		.thumb
 809 0034 FFF7FEFF 		bl	dbg_check_lock_from_isr
 810              		.loc 1 321 0
 811 0038 3146     		mov	r1, r6
 812 003a 2846     		mov	r0, r5
 813 003c FFF7FEFF 		bl	usbStartTransmitI
 814              		.loc 1 322 0
 815 0040 A368     		ldr	r3, [r4, #8]
 816 0042 201D     		adds	r0, r4, #4
 817 0044 43F00803 		orr	r3, r3, #8
 818 0048 A360     		str	r3, [r4, #8]
 819 004a 0021     		movs	r1, #0
 820 004c FFF7FEFF 		bl	chEvtBroadcastFlagsI
 821              		.loc 1 323 0
 822 0050 E36B     		ldr	r3, [r4, #60]
 823              		.loc 1 324 0
 824 0052 226C     		ldr	r2, [r4, #64]
 825              		.loc 1 323 0
 826 0054 6364     		str	r3, [r4, #68]
 827              		.loc 1 324 0
 828 0056 D31A     		subs	r3, r2, r3
 829 0058 A363     		str	r3, [r4, #56]
 830              		.loc 1 325 0
 831 005a 05E0     		b	.L46
 832              	.L47:
 833              		.loc 1 326 0
 834 005c FFF7FEFF 		bl	fifo_remove
 835 0060 FFF7FEFF 		bl	chSchReadyI
 836 0064 0023     		movs	r3, #0
 837 0066 8362     		str	r3, [r0, #40]
 838              	.L46:
 839              		.loc 1 325 0 discriminator 1
 840 0068 236B     		ldr	r3, [r4, #48]
 841 006a 04F13000 		add	r0, r4, #48
 842 006e 8342     		cmp	r3, r0
 843 0070 F4D1     		bne	.L47
 844              	.L45:
 845              		.loc 1 328 0
 846 0072 FFF7FEFF 		bl	dbg_check_unlock_from_isr
 847              	@ 328 "../chibios/os/hal/src/serial_usb.c" 1
 848 0076 FFF7FEFF 		bl      _port_unlock
 849              	@ 0 "" 2
 850              		.loc 1 329 0
 851              		.thumb
ARM GAS  /tmp/cchua6zK.s 			page 16


 852 007a F8BD     		pop	{r3, r4, r5, r6, r7, pc}
 853              		.cfi_endproc
 854              	.LFE71:
 855              		.size	sduDataTransmitted, .-sduDataTransmitted
 856              		.section	.text.sduDataReceived,"ax",%progbits
 857              		.align	1
 858              		.global	sduDataReceived
 859              		.thumb
 860              		.thumb_func
 861              		.type	sduDataReceived, %function
 862              	sduDataReceived:
 863              	.LFB72:
 864              		.loc 1 339 0
 865              		.cfi_startproc
 866              		@ args = 0, pretend = 0, frame = 0
 867              		@ frame_needed = 0, uses_anonymous_args = 0
 868              	.LVL49:
 869 0000 2DE9F041 		push	{r4, r5, r6, r7, r8, lr}
 870              	.LCFI7:
 871              		.cfi_def_cfa_offset 24
 872              		.loc 1 340 0
 873 0004 8468     		ldr	r4, [r0, #8]
 874              		.cfi_offset 14, -4
 875              		.cfi_offset 8, -8
 876              		.cfi_offset 7, -12
 877              		.cfi_offset 6, -16
 878              		.cfi_offset 5, -20
 879              		.cfi_offset 4, -24
 880              	.LVL50:
 881              		.loc 1 339 0
 882 0006 0546     		mov	r5, r0
 883 0008 0F46     		mov	r7, r1
 884              		.loc 1 342 0
 885              	@ 342 "../chibios/os/hal/src/serial_usb.c" 1
 886 000a FFF7FEFF 		bl      _port_lock
 887              	@ 0 "" 2
 888              		.thumb
 889 000e FFF7FEFF 		bl	dbg_check_lock_from_isr
 890              	.LVL51:
 891              		.loc 1 345 0
 892 0012 A669     		ldr	r6, [r4, #24]
 893 0014 56BB     		cbnz	r6, .L49
 894              	.LBB3:
 895              		.loc 1 350 0
 896 0016 FFF7FEFF 		bl	dbg_check_unlock_from_isr
 897              	@ 350 "../chibios/os/hal/src/serial_usb.c" 1
 898 001a FFF7FEFF 		bl      _port_unlock
 899              	@ 0 "" 2
 900              		.loc 1 353 0
 901              		.thumb
 902 001e 4023     		movs	r3, #64
 903 0020 2846     		mov	r0, r5
 904 0022 3946     		mov	r1, r7
 905 0024 E269     		ldr	r2, [r4, #28]
 906 0026 FFF7FEFF 		bl	usb_lld_read_packet_buffer
 907 002a 8046     		mov	r8, r0
 908              	.LVL52:
ARM GAS  /tmp/cchua6zK.s 			page 17


 909              		.loc 1 356 0
 910              	@ 356 "../chibios/os/hal/src/serial_usb.c" 1
 911 002c FFF7FEFF 		bl      _port_lock
 912              	@ 0 "" 2
 913              		.thumb
 914 0030 FFF7FEFF 		bl	dbg_check_lock_from_isr
 915              	.LVL53:
 916              		.loc 1 357 0
 917 0034 3946     		mov	r1, r7
 918 0036 2846     		mov	r0, r5
 919 0038 FFF7FEFF 		bl	usbStartReceiveI
 920              		.loc 1 358 0
 921 003c A368     		ldr	r3, [r4, #8]
 922 003e 201D     		adds	r0, r4, #4
 923 0040 43F00403 		orr	r3, r3, #4
 924 0044 A360     		str	r3, [r4, #8]
 925 0046 3146     		mov	r1, r6
 926 0048 FFF7FEFF 		bl	chEvtBroadcastFlagsI
 927              		.loc 1 359 0
 928 004c E369     		ldr	r3, [r4, #28]
 929              		.loc 1 360 0
 930 004e C4F81880 		str	r8, [r4, #24]
 931              		.loc 1 359 0
 932 0052 A362     		str	r3, [r4, #40]
 933              		.loc 1 361 0
 934 0054 05E0     		b	.L50
 935              	.L51:
 936              		.loc 1 362 0
 937 0056 FFF7FEFF 		bl	fifo_remove
 938 005a FFF7FEFF 		bl	chSchReadyI
 939 005e 0023     		movs	r3, #0
 940 0060 8362     		str	r3, [r0, #40]
 941              	.L50:
 942              		.loc 1 361 0 discriminator 1
 943 0062 2369     		ldr	r3, [r4, #16]
 944 0064 04F11000 		add	r0, r4, #16
 945 0068 8342     		cmp	r3, r0
 946 006a F4D1     		bne	.L51
 947              	.LVL54:
 948              	.L49:
 949              	.LBE3:
 950              		.loc 1 364 0
 951 006c FFF7FEFF 		bl	dbg_check_unlock_from_isr
 952              	@ 364 "../chibios/os/hal/src/serial_usb.c" 1
 953 0070 FFF7FEFF 		bl      _port_unlock
 954              	@ 0 "" 2
 955              		.loc 1 365 0
 956              		.thumb
 957 0074 BDE8F081 		pop	{r4, r5, r6, r7, r8, pc}
 958              		.cfi_endproc
 959              	.LFE72:
 960              		.size	sduDataReceived, .-sduDataReceived
 961              		.section	.text.sduInterruptTransmitted,"ax",%progbits
 962              		.align	1
 963              		.global	sduInterruptTransmitted
 964              		.thumb
 965              		.thumb_func
ARM GAS  /tmp/cchua6zK.s 			page 18


 966              		.type	sduInterruptTransmitted, %function
 967              	sduInterruptTransmitted:
 968              	.LFB73:
 969              		.loc 1 375 0
 970              		.cfi_startproc
 971              		@ args = 0, pretend = 0, frame = 0
 972              		@ frame_needed = 0, uses_anonymous_args = 0
 973              		@ link register save eliminated.
 974              	.LVL55:
 975              		.loc 1 379 0
 976 0000 7047     		bx	lr
 977              		.cfi_endproc
 978              	.LFE73:
 979              		.size	sduInterruptTransmitted, .-sduInterruptTransmitted
 980              		.section	.rodata.str1.1,"aMS",%progbits,1
 981              	.LC0:
 982 0000 22736475 		.ascii	"\"sduStart\"()\000"
 982      53746172 
 982      74222829 
 982      00
 983              	.LC1:
 984 000d 73647553 		.ascii	"sduStart(), #1\000"
 984      74617274 
 984      28292C20 
 984      233100
 985              	.LC2:
 986 001c 22736453 		.ascii	"\"sdStop\"()\000"
 986      746F7022 
 986      282900
 987              	.LC3:
 988 0027 73647553 		.ascii	"sduStop(), #1\000"
 988      746F7028 
 988      292C2023 
 988      3100
 989              		.section	.rodata.vmt,"a",%progbits
 990              		.align	2
 991              		.set	.LANCHOR0,. + 0
 992              		.type	vmt, %object
 993              		.size	vmt, 36
 994              	vmt:
 995 0000 00000000 		.word	writes
 996 0004 00000000 		.word	reads
 997 0008 00000000 		.word	putwouldblock
 998 000c 00000000 		.word	getwouldblock
 999 0010 00000000 		.word	putt
 1000 0014 00000000 		.word	gett
 1001 0018 00000000 		.word	writet
 1002 001c 00000000 		.word	readt
 1003 0020 00000000 		.word	getflags
 1004              		.section	.data.linecoding,"aw",%progbits
 1005              		.set	.LANCHOR1,. + 0
 1006              		.type	linecoding, %object
 1007              		.size	linecoding, 7
 1008              	linecoding:
 1009 0000 00       		.byte	0
 1010 0001 96       		.byte	-106
 1011 0002 00       		.byte	0
ARM GAS  /tmp/cchua6zK.s 			page 19


 1012 0003 00       		.byte	0
 1013 0004 00       		.byte	0
 1014 0005 00       		.byte	0
 1015 0006 08       		.byte	8
 1016              		.text
 1017              	.Letext0:
 1018              		.section	.debug_loc,"",%progbits
 1019              	.Ldebug_loc0:
 1020              	.LLST0:
 1021 0000 00000000 		.4byte	.LVL0
 1022 0004 02000000 		.4byte	.LVL1
 1023 0008 0100     		.2byte	0x1
 1024 000a 50       		.byte	0x50
 1025 000b 00000000 		.4byte	0x0
 1026 000f 00000000 		.4byte	0x0
 1027              	.LLST1:
 1028 0013 00000000 		.4byte	.LVL2
 1029 0017 02000000 		.4byte	.LVL3
 1030 001b 0100     		.2byte	0x1
 1031 001d 50       		.byte	0x50
 1032 001e 00000000 		.4byte	0x0
 1033 0022 00000000 		.4byte	0x0
 1034              	.LLST2:
 1035 0026 00000000 		.4byte	.LFB63
 1036 002a 02000000 		.4byte	.LCFI0
 1037 002e 0200     		.2byte	0x2
 1038 0030 7D       		.byte	0x7d
 1039 0031 00       		.sleb128 0
 1040 0032 02000000 		.4byte	.LCFI0
 1041 0036 1E000000 		.4byte	.LFE63
 1042 003a 0200     		.2byte	0x2
 1043 003c 7D       		.byte	0x7d
 1044 003d 10       		.sleb128 16
 1045 003e 00000000 		.4byte	0x0
 1046 0042 00000000 		.4byte	0x0
 1047              	.LLST3:
 1048 0046 00000000 		.4byte	.LVL4
 1049 004a 0B000000 		.4byte	.LVL5-1
 1050 004e 0100     		.2byte	0x1
 1051 0050 50       		.byte	0x50
 1052 0051 0B000000 		.4byte	.LVL5-1
 1053 0055 1E000000 		.4byte	.LFE63
 1054 0059 0100     		.2byte	0x1
 1055 005b 54       		.byte	0x54
 1056 005c 00000000 		.4byte	0x0
 1057 0060 00000000 		.4byte	0x0
 1058              	.LLST4:
 1059 0064 10000000 		.4byte	.LVL6
 1060 0068 15000000 		.4byte	.LVL7-1
 1061 006c 0200     		.2byte	0x2
 1062 006e 74       		.byte	0x74
 1063 006f 08       		.sleb128 8
 1064 0070 15000000 		.4byte	.LVL7-1
 1065 0074 1E000000 		.4byte	.LFE63
 1066 0078 0100     		.2byte	0x1
 1067 007a 55       		.byte	0x55
 1068 007b 00000000 		.4byte	0x0
ARM GAS  /tmp/cchua6zK.s 			page 20


 1069 007f 00000000 		.4byte	0x0
 1070              	.LLST5:
 1071 0083 00000000 		.4byte	.LFB65
 1072 0087 04000000 		.4byte	.LCFI1
 1073 008b 0200     		.2byte	0x2
 1074 008d 7D       		.byte	0x7d
 1075 008e 00       		.sleb128 0
 1076 008f 04000000 		.4byte	.LCFI1
 1077 0093 82000000 		.4byte	.LFE65
 1078 0097 0200     		.2byte	0x2
 1079 0099 7D       		.byte	0x7d
 1080 009a 18       		.sleb128 24
 1081 009b 00000000 		.4byte	0x0
 1082 009f 00000000 		.4byte	0x0
 1083              	.LLST6:
 1084 00a3 00000000 		.4byte	.LVL8
 1085 00a7 1F000000 		.4byte	.LVL11-1
 1086 00ab 0100     		.2byte	0x1
 1087 00ad 50       		.byte	0x50
 1088 00ae 00000000 		.4byte	0x0
 1089 00b2 00000000 		.4byte	0x0
 1090              	.LLST7:
 1091 00b6 06000000 		.4byte	.LVL9
 1092 00ba 1F000000 		.4byte	.LVL11-1
 1093 00be 0200     		.2byte	0x2
 1094 00c0 70       		.byte	0x70
 1095 00c1 18       		.sleb128 24
 1096 00c2 1F000000 		.4byte	.LVL11-1
 1097 00c6 82000000 		.4byte	.LFE65
 1098 00ca 0100     		.2byte	0x1
 1099 00cc 54       		.byte	0x54
 1100 00cd 00000000 		.4byte	0x0
 1101 00d1 00000000 		.4byte	0x0
 1102              	.LLST8:
 1103 00d5 00000000 		.4byte	.LFB64
 1104 00d9 02000000 		.4byte	.LCFI2
 1105 00dd 0200     		.2byte	0x2
 1106 00df 7D       		.byte	0x7d
 1107 00e0 00       		.sleb128 0
 1108 00e1 02000000 		.4byte	.LCFI2
 1109 00e5 74000000 		.4byte	.LFE64
 1110 00e9 0200     		.2byte	0x2
 1111 00eb 7D       		.byte	0x7d
 1112 00ec 10       		.sleb128 16
 1113 00ed 00000000 		.4byte	0x0
 1114 00f1 00000000 		.4byte	0x0
 1115              	.LLST9:
 1116 00f5 00000000 		.4byte	.LVL12
 1117 00f9 12000000 		.4byte	.LVL14
 1118 00fd 0100     		.2byte	0x1
 1119 00ff 50       		.byte	0x50
 1120 0100 00000000 		.4byte	0x0
 1121 0104 00000000 		.4byte	0x0
 1122              	.LLST10:
 1123 0108 04000000 		.4byte	.LVL13
 1124 010c 19000000 		.4byte	.LVL15-1
 1125 0110 0200     		.2byte	0x2
ARM GAS  /tmp/cchua6zK.s 			page 21


 1126 0112 70       		.byte	0x70
 1127 0113 14       		.sleb128 20
 1128 0114 19000000 		.4byte	.LVL15-1
 1129 0118 74000000 		.4byte	.LFE64
 1130 011c 0100     		.2byte	0x1
 1131 011e 54       		.byte	0x54
 1132 011f 00000000 		.4byte	0x0
 1133 0123 00000000 		.4byte	0x0
 1134              	.LLST11:
 1135 0127 30000000 		.4byte	.LVL16
 1136 012b 37000000 		.4byte	.LVL17-1
 1137 012f 0100     		.2byte	0x1
 1138 0131 50       		.byte	0x50
 1139 0132 37000000 		.4byte	.LVL17-1
 1140 0136 72000000 		.4byte	.LVL18
 1141 013a 0100     		.2byte	0x1
 1142 013c 56       		.byte	0x56
 1143 013d 00000000 		.4byte	0x0
 1144 0141 00000000 		.4byte	0x0
 1145              	.LLST12:
 1146 0145 00000000 		.4byte	.LVL19
 1147 0149 02000000 		.4byte	.LVL20
 1148 014d 0100     		.2byte	0x1
 1149 014f 50       		.byte	0x50
 1150 0150 02000000 		.4byte	.LVL20
 1151 0154 06000000 		.4byte	.LFE62
 1152 0158 0300     		.2byte	0x3
 1153 015a 70       		.byte	0x70
 1154 015b 70       		.sleb128 -16
 1155 015c 9F       		.byte	0x9f
 1156 015d 00000000 		.4byte	0x0
 1157 0161 00000000 		.4byte	0x0
 1158              	.LLST13:
 1159 0165 00000000 		.4byte	.LVL21
 1160 0169 02000000 		.4byte	.LVL22
 1161 016d 0100     		.2byte	0x1
 1162 016f 50       		.byte	0x50
 1163 0170 02000000 		.4byte	.LVL22
 1164 0174 0A000000 		.4byte	.LFE56
 1165 0178 0300     		.2byte	0x3
 1166 017a 70       		.byte	0x70
 1167 017b 70       		.sleb128 -16
 1168 017c 9F       		.byte	0x9f
 1169 017d 00000000 		.4byte	0x0
 1170 0181 00000000 		.4byte	0x0
 1171              	.LLST14:
 1172 0185 00000000 		.4byte	.LVL23
 1173 0189 02000000 		.4byte	.LVL24
 1174 018d 0100     		.2byte	0x1
 1175 018f 50       		.byte	0x50
 1176 0190 02000000 		.4byte	.LVL24
 1177 0194 06000000 		.4byte	.LFE61
 1178 0198 0300     		.2byte	0x3
 1179 019a 70       		.byte	0x70
 1180 019b 50       		.sleb128 -48
 1181 019c 9F       		.byte	0x9f
 1182 019d 00000000 		.4byte	0x0
ARM GAS  /tmp/cchua6zK.s 			page 22


 1183 01a1 00000000 		.4byte	0x0
 1184              	.LLST15:
 1185 01a5 00000000 		.4byte	.LVL25
 1186 01a9 02000000 		.4byte	.LVL26
 1187 01ad 0100     		.2byte	0x1
 1188 01af 50       		.byte	0x50
 1189 01b0 02000000 		.4byte	.LVL26
 1190 01b4 0A000000 		.4byte	.LFE55
 1191 01b8 0300     		.2byte	0x3
 1192 01ba 70       		.byte	0x70
 1193 01bb 50       		.sleb128 -48
 1194 01bc 9F       		.byte	0x9f
 1195 01bd 00000000 		.4byte	0x0
 1196 01c1 00000000 		.4byte	0x0
 1197              	.LLST16:
 1198 01c5 00000000 		.4byte	.LVL27
 1199 01c9 02000000 		.4byte	.LVL28
 1200 01cd 0100     		.2byte	0x1
 1201 01cf 50       		.byte	0x50
 1202 01d0 02000000 		.4byte	.LVL28
 1203 01d4 06000000 		.4byte	.LFE60
 1204 01d8 0300     		.2byte	0x3
 1205 01da 70       		.byte	0x70
 1206 01db 70       		.sleb128 -16
 1207 01dc 9F       		.byte	0x9f
 1208 01dd 00000000 		.4byte	0x0
 1209 01e1 00000000 		.4byte	0x0
 1210              	.LLST17:
 1211 01e5 00000000 		.4byte	.LVL29
 1212 01e9 02000000 		.4byte	.LVL30
 1213 01ed 0100     		.2byte	0x1
 1214 01ef 50       		.byte	0x50
 1215 01f0 02000000 		.4byte	.LVL30
 1216 01f4 06000000 		.4byte	.LFE59
 1217 01f8 0300     		.2byte	0x3
 1218 01fa 70       		.byte	0x70
 1219 01fb 50       		.sleb128 -48
 1220 01fc 9F       		.byte	0x9f
 1221 01fd 00000000 		.4byte	0x0
 1222 0201 00000000 		.4byte	0x0
 1223              	.LLST18:
 1224 0205 00000000 		.4byte	.LFB67
 1225 0209 06000000 		.4byte	.LCFI3
 1226 020d 0200     		.2byte	0x2
 1227 020f 7D       		.byte	0x7d
 1228 0210 00       		.sleb128 0
 1229 0211 06000000 		.4byte	.LCFI3
 1230 0215 48000000 		.4byte	.LFE67
 1231 0219 0200     		.2byte	0x2
 1232 021b 7D       		.byte	0x7d
 1233 021c 08       		.sleb128 8
 1234 021d 00000000 		.4byte	0x0
 1235 0221 00000000 		.4byte	0x0
 1236              	.LLST19:
 1237 0225 00000000 		.4byte	.LVL31
 1238 0229 1C000000 		.4byte	.LVL32
 1239 022d 0100     		.2byte	0x1
ARM GAS  /tmp/cchua6zK.s 			page 23


 1240 022f 50       		.byte	0x50
 1241 0230 1C000000 		.4byte	.LVL32
 1242 0234 48000000 		.4byte	.LFE67
 1243 0238 0100     		.2byte	0x1
 1244 023a 54       		.byte	0x54
 1245 023b 00000000 		.4byte	0x0
 1246 023f 00000000 		.4byte	0x0
 1247              	.LLST20:
 1248 0243 00000000 		.4byte	.LFB68
 1249 0247 02000000 		.4byte	.LCFI4
 1250 024b 0200     		.2byte	0x2
 1251 024d 7D       		.byte	0x7d
 1252 024e 00       		.sleb128 0
 1253 024f 02000000 		.4byte	.LCFI4
 1254 0253 54000000 		.4byte	.LFE68
 1255 0257 0200     		.2byte	0x2
 1256 0259 7D       		.byte	0x7d
 1257 025a 10       		.sleb128 16
 1258 025b 00000000 		.4byte	0x0
 1259 025f 00000000 		.4byte	0x0
 1260              	.LLST21:
 1261 0263 00000000 		.4byte	.LVL33
 1262 0267 0A000000 		.4byte	.LVL34
 1263 026b 0100     		.2byte	0x1
 1264 026d 50       		.byte	0x50
 1265 026e 0A000000 		.4byte	.LVL34
 1266 0272 54000000 		.4byte	.LFE68
 1267 0276 0100     		.2byte	0x1
 1268 0278 54       		.byte	0x54
 1269 0279 00000000 		.4byte	0x0
 1270 027d 00000000 		.4byte	0x0
 1271              	.LLST22:
 1272 0281 00000000 		.4byte	.LVL33
 1273 0285 0D000000 		.4byte	.LVL35-1
 1274 0289 0100     		.2byte	0x1
 1275 028b 51       		.byte	0x51
 1276 028c 0D000000 		.4byte	.LVL35-1
 1277 0290 54000000 		.4byte	.LFE68
 1278 0294 0100     		.2byte	0x1
 1279 0296 56       		.byte	0x56
 1280 0297 00000000 		.4byte	0x0
 1281 029b 00000000 		.4byte	0x0
 1282              	.LLST23:
 1283 029f 00000000 		.4byte	.LFB69
 1284 02a3 02000000 		.4byte	.LCFI5
 1285 02a7 0200     		.2byte	0x2
 1286 02a9 7D       		.byte	0x7d
 1287 02aa 00       		.sleb128 0
 1288 02ab 02000000 		.4byte	.LCFI5
 1289 02af 48000000 		.4byte	.LFE69
 1290 02b3 0200     		.2byte	0x2
 1291 02b5 7D       		.byte	0x7d
 1292 02b6 08       		.sleb128 8
 1293 02b7 00000000 		.4byte	0x0
 1294 02bb 00000000 		.4byte	0x0
 1295              	.LLST24:
 1296 02bf 00000000 		.4byte	.LVL36
ARM GAS  /tmp/cchua6zK.s 			page 24


 1297 02c3 08000000 		.4byte	.LVL37
 1298 02c7 0100     		.2byte	0x1
 1299 02c9 50       		.byte	0x50
 1300 02ca 08000000 		.4byte	.LVL37
 1301 02ce 48000000 		.4byte	.LFE69
 1302 02d2 0100     		.2byte	0x1
 1303 02d4 54       		.byte	0x54
 1304 02d5 00000000 		.4byte	0x0
 1305 02d9 00000000 		.4byte	0x0
 1306              	.LLST25:
 1307 02dd 00000000 		.4byte	.LVL38
 1308 02e1 40000000 		.4byte	.LVL39
 1309 02e5 0100     		.2byte	0x1
 1310 02e7 50       		.byte	0x50
 1311 02e8 42000000 		.4byte	.LVL40
 1312 02ec 44000000 		.4byte	.LVL41
 1313 02f0 0100     		.2byte	0x1
 1314 02f2 50       		.byte	0x50
 1315 02f3 46000000 		.4byte	.LVL42
 1316 02f7 48000000 		.4byte	.LVL43
 1317 02fb 0100     		.2byte	0x1
 1318 02fd 50       		.byte	0x50
 1319 02fe 00000000 		.4byte	0x0
 1320 0302 00000000 		.4byte	0x0
 1321              	.LLST26:
 1322 0306 00000000 		.4byte	.LFB71
 1323 030a 02000000 		.4byte	.LCFI6
 1324 030e 0200     		.2byte	0x2
 1325 0310 7D       		.byte	0x7d
 1326 0311 00       		.sleb128 0
 1327 0312 02000000 		.4byte	.LCFI6
 1328 0316 7C000000 		.4byte	.LFE71
 1329 031a 0200     		.2byte	0x2
 1330 031c 7D       		.byte	0x7d
 1331 031d 18       		.sleb128 24
 1332 031e 00000000 		.4byte	0x0
 1333 0322 00000000 		.4byte	0x0
 1334              	.LLST27:
 1335 0326 00000000 		.4byte	.LVL44
 1336 032a 0F000000 		.4byte	.LVL46-1
 1337 032e 0100     		.2byte	0x1
 1338 0330 50       		.byte	0x50
 1339 0331 0F000000 		.4byte	.LVL46-1
 1340 0335 7C000000 		.4byte	.LFE71
 1341 0339 0100     		.2byte	0x1
 1342 033b 55       		.byte	0x55
 1343 033c 00000000 		.4byte	0x0
 1344 0340 00000000 		.4byte	0x0
 1345              	.LLST28:
 1346 0344 00000000 		.4byte	.LVL44
 1347 0348 0F000000 		.4byte	.LVL46-1
 1348 034c 0100     		.2byte	0x1
 1349 034e 51       		.byte	0x51
 1350 034f 00000000 		.4byte	0x0
 1351 0353 00000000 		.4byte	0x0
 1352              	.LLST29:
 1353 0357 04000000 		.4byte	.LVL45
ARM GAS  /tmp/cchua6zK.s 			page 25


 1354 035b 0F000000 		.4byte	.LVL46-1
 1355 035f 0200     		.2byte	0x2
 1356 0361 70       		.byte	0x70
 1357 0362 08       		.sleb128 8
 1358 0363 0F000000 		.4byte	.LVL46-1
 1359 0367 7C000000 		.4byte	.LFE71
 1360 036b 0100     		.2byte	0x1
 1361 036d 54       		.byte	0x54
 1362 036e 00000000 		.4byte	0x0
 1363 0372 00000000 		.4byte	0x0
 1364              	.LLST30:
 1365 0376 18000000 		.4byte	.LVL47
 1366 037a 1A000000 		.4byte	.LVL48
 1367 037e 0700     		.2byte	0x7
 1368 0380 77       		.byte	0x77
 1369 0381 00       		.sleb128 0
 1370 0382 74       		.byte	0x74
 1371 0383 38       		.sleb128 56
 1372 0384 06       		.byte	0x6
 1373 0385 1C       		.byte	0x1c
 1374 0386 9F       		.byte	0x9f
 1375 0387 1A000000 		.4byte	.LVL48
 1376 038b 7C000000 		.4byte	.LFE71
 1377 038f 0100     		.2byte	0x1
 1378 0391 57       		.byte	0x57
 1379 0392 00000000 		.4byte	0x0
 1380 0396 00000000 		.4byte	0x0
 1381              	.LLST31:
 1382 039a 00000000 		.4byte	.LFB72
 1383 039e 04000000 		.4byte	.LCFI7
 1384 03a2 0200     		.2byte	0x2
 1385 03a4 7D       		.byte	0x7d
 1386 03a5 00       		.sleb128 0
 1387 03a6 04000000 		.4byte	.LCFI7
 1388 03aa 78000000 		.4byte	.LFE72
 1389 03ae 0200     		.2byte	0x2
 1390 03b0 7D       		.byte	0x7d
 1391 03b1 18       		.sleb128 24
 1392 03b2 00000000 		.4byte	0x0
 1393 03b6 00000000 		.4byte	0x0
 1394              	.LLST32:
 1395 03ba 00000000 		.4byte	.LVL49
 1396 03be 11000000 		.4byte	.LVL51-1
 1397 03c2 0100     		.2byte	0x1
 1398 03c4 50       		.byte	0x50
 1399 03c5 11000000 		.4byte	.LVL51-1
 1400 03c9 78000000 		.4byte	.LFE72
 1401 03cd 0100     		.2byte	0x1
 1402 03cf 55       		.byte	0x55
 1403 03d0 00000000 		.4byte	0x0
 1404 03d4 00000000 		.4byte	0x0
 1405              	.LLST33:
 1406 03d8 00000000 		.4byte	.LVL49
 1407 03dc 11000000 		.4byte	.LVL51-1
 1408 03e0 0100     		.2byte	0x1
 1409 03e2 51       		.byte	0x51
 1410 03e3 00000000 		.4byte	0x0
ARM GAS  /tmp/cchua6zK.s 			page 26


 1411 03e7 00000000 		.4byte	0x0
 1412              	.LLST34:
 1413 03eb 06000000 		.4byte	.LVL50
 1414 03ef 11000000 		.4byte	.LVL51-1
 1415 03f3 0200     		.2byte	0x2
 1416 03f5 70       		.byte	0x70
 1417 03f6 08       		.sleb128 8
 1418 03f7 11000000 		.4byte	.LVL51-1
 1419 03fb 78000000 		.4byte	.LFE72
 1420 03ff 0100     		.2byte	0x1
 1421 0401 54       		.byte	0x54
 1422 0402 00000000 		.4byte	0x0
 1423 0406 00000000 		.4byte	0x0
 1424              	.LLST35:
 1425 040a 2C000000 		.4byte	.LVL52
 1426 040e 33000000 		.4byte	.LVL53-1
 1427 0412 0100     		.2byte	0x1
 1428 0414 50       		.byte	0x50
 1429 0415 33000000 		.4byte	.LVL53-1
 1430 0419 6C000000 		.4byte	.LVL54
 1431 041d 0100     		.2byte	0x1
 1432 041f 58       		.byte	0x58
 1433 0420 00000000 		.4byte	0x0
 1434 0424 00000000 		.4byte	0x0
 1435              		.file 2 "/home/z80/programs/code-sourcery/2011.03-42/bin/../lib/gcc/arm-none-eabi/4.5.2/include/st
 1436              		.file 3 "/home/z80/programs/code-sourcery/2011.03-42/bin/../lib/gcc/arm-none-eabi/4.5.2/../../../.
 1437              		.file 4 "../chibios/os/ports/GCC/ARMCMx/chtypes.h"
 1438              		.file 5 "../chibios/os/kernel/include/chlists.h"
 1439              		.file 6 "../chibios/os/kernel/include/chthreads.h"
 1440              		.file 7 "../chibios/os/ports/GCC/ARMCMx/chcore_v7m.h"
 1441              		.file 8 "../chibios/os/kernel/include/chmtx.h"
 1442              		.file 9 "../chibios/os/kernel/include/chevents.h"
 1443              		.file 10 "../chibios/os/kernel/include/chqueues.h"
 1444              		.file 11 "../chibios/os/kernel/include/chioch.h"
 1445              		.file 12 "../chibios/os/hal/include/usb.h"
 1446              		.file 13 "../chibios/os/hal/platforms/STM32/USBv1/usb_lld.h"
 1447              		.file 14 "../chibios/os/hal/include/serial_usb.h"
 1448              		.file 15 "../chibios/os/hal/include/usb_cdc.h"
 1449              		.file 16 "../chibios/os/ports/common/ARMCMx/CMSIS/include/core_cm3.h"
 1450              		.section	.debug_info
 1451 0000 07120000 		.4byte	0x1207
 1452 0004 0200     		.2byte	0x2
 1453 0006 00000000 		.4byte	.Ldebug_abbrev0
 1454 000a 04       		.byte	0x4
 1455 000b 01       		.uleb128 0x1
 1456 000c ED070000 		.4byte	.LASF189
 1457 0010 01       		.byte	0x1
 1458 0011 E2050000 		.4byte	.LASF190
 1459 0015 FB020000 		.4byte	.LASF191
 1460 0019 00000000 		.4byte	0x0
 1461 001d 00000000 		.4byte	0x0
 1462 0021 00000000 		.4byte	.Ldebug_ranges0+0x0
 1463 0025 00000000 		.4byte	.Ldebug_line0
 1464 0029 02       		.uleb128 0x2
 1465 002a 04       		.byte	0x4
 1466 002b 05       		.byte	0x5
 1467 002c 696E7400 		.ascii	"int\000"
ARM GAS  /tmp/cchua6zK.s 			page 27


 1468 0030 03       		.uleb128 0x3
 1469 0031 29000000 		.4byte	.LASF2
 1470 0035 02       		.byte	0x2
 1471 0036 D3       		.byte	0xd3
 1472 0037 3B000000 		.4byte	0x3b
 1473 003b 04       		.uleb128 0x4
 1474 003c 04       		.byte	0x4
 1475 003d 07       		.byte	0x7
 1476 003e 74020000 		.4byte	.LASF0
 1477 0042 04       		.uleb128 0x4
 1478 0043 01       		.byte	0x1
 1479 0044 06       		.byte	0x6
 1480 0045 E5000000 		.4byte	.LASF1
 1481 0049 03       		.uleb128 0x3
 1482 004a B0070000 		.4byte	.LASF3
 1483 004e 03       		.byte	0x3
 1484 004f 2A       		.byte	0x2a
 1485 0050 54000000 		.4byte	0x54
 1486 0054 04       		.uleb128 0x4
 1487 0055 01       		.byte	0x1
 1488 0056 08       		.byte	0x8
 1489 0057 54050000 		.4byte	.LASF4
 1490 005b 04       		.uleb128 0x4
 1491 005c 02       		.byte	0x2
 1492 005d 05       		.byte	0x5
 1493 005e 9B050000 		.4byte	.LASF5
 1494 0062 03       		.uleb128 0x3
 1495 0063 8E030000 		.4byte	.LASF6
 1496 0067 03       		.byte	0x3
 1497 0068 36       		.byte	0x36
 1498 0069 6D000000 		.4byte	0x6d
 1499 006d 04       		.uleb128 0x4
 1500 006e 02       		.byte	0x2
 1501 006f 07       		.byte	0x7
 1502 0070 F1010000 		.4byte	.LASF7
 1503 0074 03       		.uleb128 0x3
 1504 0075 4C050000 		.4byte	.LASF8
 1505 0079 03       		.byte	0x3
 1506 007a 4F       		.byte	0x4f
 1507 007b 7F000000 		.4byte	0x7f
 1508 007f 04       		.uleb128 0x4
 1509 0080 04       		.byte	0x4
 1510 0081 05       		.byte	0x5
 1511 0082 4D010000 		.4byte	.LASF9
 1512 0086 03       		.uleb128 0x3
 1513 0087 31070000 		.4byte	.LASF10
 1514 008b 03       		.byte	0x3
 1515 008c 50       		.byte	0x50
 1516 008d 91000000 		.4byte	0x91
 1517 0091 04       		.uleb128 0x4
 1518 0092 04       		.byte	0x4
 1519 0093 07       		.byte	0x7
 1520 0094 4E060000 		.4byte	.LASF11
 1521 0098 04       		.uleb128 0x4
 1522 0099 08       		.byte	0x8
 1523 009a 05       		.byte	0x5
 1524 009b D7000000 		.4byte	.LASF12
ARM GAS  /tmp/cchua6zK.s 			page 28


 1525 009f 03       		.uleb128 0x3
 1526 00a0 4B000000 		.4byte	.LASF13
 1527 00a4 03       		.byte	0x3
 1528 00a5 78       		.byte	0x78
 1529 00a6 AA000000 		.4byte	0xaa
 1530 00aa 04       		.uleb128 0x4
 1531 00ab 08       		.byte	0x8
 1532 00ac 07       		.byte	0x7
 1533 00ad 89000000 		.4byte	.LASF14
 1534 00b1 03       		.uleb128 0x3
 1535 00b2 06050000 		.4byte	.LASF15
 1536 00b6 03       		.byte	0x3
 1537 00b7 A6       		.byte	0xa6
 1538 00b8 3B000000 		.4byte	0x3b
 1539 00bc 03       		.uleb128 0x3
 1540 00bd 0E010000 		.4byte	.LASF16
 1541 00c1 04       		.byte	0x4
 1542 00c2 2E       		.byte	0x2e
 1543 00c3 74000000 		.4byte	0x74
 1544 00c7 03       		.uleb128 0x3
 1545 00c8 86030000 		.4byte	.LASF17
 1546 00cc 04       		.byte	0x4
 1547 00cd 2F       		.byte	0x2f
 1548 00ce 49000000 		.4byte	0x49
 1549 00d2 03       		.uleb128 0x3
 1550 00d3 74010000 		.4byte	.LASF18
 1551 00d7 04       		.byte	0x4
 1552 00d8 30       		.byte	0x30
 1553 00d9 49000000 		.4byte	0x49
 1554 00dd 03       		.uleb128 0x3
 1555 00de FE040000 		.4byte	.LASF19
 1556 00e2 04       		.byte	0x4
 1557 00e3 31       		.byte	0x31
 1558 00e4 49000000 		.4byte	0x49
 1559 00e8 03       		.uleb128 0x3
 1560 00e9 2D050000 		.4byte	.LASF20
 1561 00ed 04       		.byte	0x4
 1562 00ee 32       		.byte	0x32
 1563 00ef 86000000 		.4byte	0x86
 1564 00f3 03       		.uleb128 0x3
 1565 00f4 48030000 		.4byte	.LASF21
 1566 00f8 04       		.byte	0x4
 1567 00f9 33       		.byte	0x33
 1568 00fa 74000000 		.4byte	0x74
 1569 00fe 03       		.uleb128 0x3
 1570 00ff A3030000 		.4byte	.LASF22
 1571 0103 04       		.byte	0x4
 1572 0104 35       		.byte	0x35
 1573 0105 86000000 		.4byte	0x86
 1574 0109 03       		.uleb128 0x3
 1575 010a 9C060000 		.4byte	.LASF23
 1576 010e 04       		.byte	0x4
 1577 010f 36       		.byte	0x36
 1578 0110 86000000 		.4byte	0x86
 1579 0114 03       		.uleb128 0x3
 1580 0115 2E020000 		.4byte	.LASF24
 1581 0119 05       		.byte	0x5
ARM GAS  /tmp/cchua6zK.s 			page 29


 1582 011a 2A       		.byte	0x2a
 1583 011b 1F010000 		.4byte	0x11f
 1584 011f 05       		.uleb128 0x5
 1585 0120 2E020000 		.4byte	.LASF24
 1586 0124 4C       		.byte	0x4c
 1587 0125 06       		.byte	0x6
 1588 0126 5E       		.byte	0x5e
 1589 0127 44020000 		.4byte	0x244
 1590 012b 06       		.uleb128 0x6
 1591 012c BC050000 		.4byte	.LASF25
 1592 0130 06       		.byte	0x6
 1593 0131 5F       		.byte	0x5f
 1594 0132 69020000 		.4byte	0x269
 1595 0136 02       		.byte	0x2
 1596 0137 23       		.byte	0x23
 1597 0138 00       		.uleb128 0x0
 1598 0139 06       		.uleb128 0x6
 1599 013a 26050000 		.4byte	.LASF26
 1600 013e 06       		.byte	0x6
 1601 013f 61       		.byte	0x61
 1602 0140 69020000 		.4byte	0x269
 1603 0144 02       		.byte	0x2
 1604 0145 23       		.byte	0x23
 1605 0146 04       		.uleb128 0x4
 1606 0147 06       		.uleb128 0x6
 1607 0148 BA000000 		.4byte	.LASF27
 1608 014c 06       		.byte	0x6
 1609 014d 63       		.byte	0x63
 1610 014e E8000000 		.4byte	0xe8
 1611 0152 02       		.byte	0x2
 1612 0153 23       		.byte	0x23
 1613 0154 08       		.uleb128 0x8
 1614 0155 06       		.uleb128 0x6
 1615 0156 31080000 		.4byte	.LASF28
 1616 015a 06       		.byte	0x6
 1617 015b 64       		.byte	0x64
 1618 015c 41030000 		.4byte	0x341
 1619 0160 02       		.byte	0x2
 1620 0161 23       		.byte	0x23
 1621 0162 0C       		.uleb128 0xc
 1622 0163 06       		.uleb128 0x6
 1623 0164 CE010000 		.4byte	.LASF29
 1624 0168 06       		.byte	0x6
 1625 0169 66       		.byte	0x66
 1626 016a 69020000 		.4byte	0x269
 1627 016e 02       		.byte	0x2
 1628 016f 23       		.byte	0x23
 1629 0170 10       		.uleb128 0x10
 1630 0171 06       		.uleb128 0x6
 1631 0172 AD050000 		.4byte	.LASF30
 1632 0176 06       		.byte	0x6
 1633 0177 67       		.byte	0x67
 1634 0178 69020000 		.4byte	0x269
 1635 017c 02       		.byte	0x2
 1636 017d 23       		.byte	0x23
 1637 017e 14       		.uleb128 0x14
 1638 017f 06       		.uleb128 0x6
ARM GAS  /tmp/cchua6zK.s 			page 30


 1639 0180 60070000 		.4byte	.LASF31
 1640 0184 06       		.byte	0x6
 1641 0185 6E       		.byte	0x6e
 1642 0186 54040000 		.4byte	0x454
 1643 018a 02       		.byte	0x2
 1644 018b 23       		.byte	0x23
 1645 018c 18       		.uleb128 0x18
 1646 018d 06       		.uleb128 0x6
 1647 018e C1040000 		.4byte	.LASF32
 1648 0192 06       		.byte	0x6
 1649 0193 74       		.byte	0x74
 1650 0194 66040000 		.4byte	0x466
 1651 0198 02       		.byte	0x2
 1652 0199 23       		.byte	0x23
 1653 019a 1C       		.uleb128 0x1c
 1654 019b 06       		.uleb128 0x6
 1655 019c 89050000 		.4byte	.LASF33
 1656 01a0 06       		.byte	0x6
 1657 01a1 79       		.byte	0x79
 1658 01a2 D2000000 		.4byte	0xd2
 1659 01a6 02       		.byte	0x2
 1660 01a7 23       		.byte	0x23
 1661 01a8 20       		.uleb128 0x20
 1662 01a9 06       		.uleb128 0x6
 1663 01aa C3050000 		.4byte	.LASF34
 1664 01ae 06       		.byte	0x6
 1665 01af 7D       		.byte	0x7d
 1666 01b0 C7000000 		.4byte	0xc7
 1667 01b4 02       		.byte	0x2
 1668 01b5 23       		.byte	0x23
 1669 01b6 21       		.uleb128 0x21
 1670 01b7 06       		.uleb128 0x6
 1671 01b8 84010000 		.4byte	.LASF35
 1672 01bc 06       		.byte	0x6
 1673 01bd 82       		.byte	0x82
 1674 01be DD000000 		.4byte	0xdd
 1675 01c2 02       		.byte	0x2
 1676 01c3 23       		.byte	0x23
 1677 01c4 22       		.uleb128 0x22
 1678 01c5 06       		.uleb128 0x6
 1679 01c6 BF010000 		.4byte	.LASF36
 1680 01ca 06       		.byte	0x6
 1681 01cb 89       		.byte	0x89
 1682 01cc 64030000 		.4byte	0x364
 1683 01d0 02       		.byte	0x2
 1684 01d1 23       		.byte	0x23
 1685 01d2 24       		.uleb128 0x24
 1686 01d3 07       		.uleb128 0x7
 1687 01d4 705F7500 		.ascii	"p_u\000"
 1688 01d8 06       		.byte	0x6
 1689 01d9 AE       		.byte	0xae
 1690 01da 1F040000 		.4byte	0x41f
 1691 01de 02       		.byte	0x2
 1692 01df 23       		.byte	0x23
 1693 01e0 28       		.uleb128 0x28
 1694 01e1 06       		.uleb128 0x6
 1695 01e2 37080000 		.4byte	.LASF37
ARM GAS  /tmp/cchua6zK.s 			page 31


 1696 01e6 06       		.byte	0x6
 1697 01e7 B3       		.byte	0xb3
 1698 01e8 91020000 		.4byte	0x291
 1699 01ec 02       		.byte	0x2
 1700 01ed 23       		.byte	0x23
 1701 01ee 2C       		.uleb128 0x2c
 1702 01ef 06       		.uleb128 0x6
 1703 01f0 C2020000 		.4byte	.LASF38
 1704 01f4 06       		.byte	0x6
 1705 01f5 B9       		.byte	0xb9
 1706 01f6 6F020000 		.4byte	0x26f
 1707 01fa 02       		.byte	0x2
 1708 01fb 23       		.byte	0x23
 1709 01fc 30       		.uleb128 0x30
 1710 01fd 06       		.uleb128 0x6
 1711 01fe 16070000 		.4byte	.LASF39
 1712 0202 06       		.byte	0x6
 1713 0203 BD       		.byte	0xbd
 1714 0204 F3000000 		.4byte	0xf3
 1715 0208 02       		.byte	0x2
 1716 0209 23       		.byte	0x23
 1717 020a 38       		.uleb128 0x38
 1718 020b 06       		.uleb128 0x6
 1719 020c 05060000 		.4byte	.LASF40
 1720 0210 06       		.byte	0x6
 1721 0211 C3       		.byte	0xc3
 1722 0212 FE000000 		.4byte	0xfe
 1723 0216 02       		.byte	0x2
 1724 0217 23       		.byte	0x23
 1725 0218 3C       		.uleb128 0x3c
 1726 0219 06       		.uleb128 0x6
 1727 021a 91050000 		.4byte	.LASF41
 1728 021e 06       		.byte	0x6
 1729 021f CA       		.byte	0xca
 1730 0220 6C040000 		.4byte	0x46c
 1731 0224 02       		.byte	0x2
 1732 0225 23       		.byte	0x23
 1733 0226 40       		.uleb128 0x40
 1734 0227 06       		.uleb128 0x6
 1735 0228 A6060000 		.4byte	.LASF42
 1736 022c 06       		.byte	0x6
 1737 022d CE       		.byte	0xce
 1738 022e E8000000 		.4byte	0xe8
 1739 0232 02       		.byte	0x2
 1740 0233 23       		.byte	0x23
 1741 0234 44       		.uleb128 0x44
 1742 0235 06       		.uleb128 0x6
 1743 0236 06010000 		.4byte	.LASF43
 1744 023a 06       		.byte	0x6
 1745 023b D4       		.byte	0xd4
 1746 023c A7020000 		.4byte	0x2a7
 1747 0240 02       		.byte	0x2
 1748 0241 23       		.byte	0x23
 1749 0242 48       		.uleb128 0x48
 1750 0243 00       		.byte	0x0
 1751 0244 08       		.uleb128 0x8
 1752 0245 08       		.byte	0x8
ARM GAS  /tmp/cchua6zK.s 			page 32


 1753 0246 05       		.byte	0x5
 1754 0247 61       		.byte	0x61
 1755 0248 69020000 		.4byte	0x269
 1756 024c 06       		.uleb128 0x6
 1757 024d BC050000 		.4byte	.LASF25
 1758 0251 05       		.byte	0x5
 1759 0252 62       		.byte	0x62
 1760 0253 69020000 		.4byte	0x269
 1761 0257 02       		.byte	0x2
 1762 0258 23       		.byte	0x23
 1763 0259 00       		.uleb128 0x0
 1764 025a 06       		.uleb128 0x6
 1765 025b 26050000 		.4byte	.LASF26
 1766 025f 05       		.byte	0x5
 1767 0260 64       		.byte	0x64
 1768 0261 69020000 		.4byte	0x269
 1769 0265 02       		.byte	0x2
 1770 0266 23       		.byte	0x23
 1771 0267 04       		.uleb128 0x4
 1772 0268 00       		.byte	0x0
 1773 0269 09       		.uleb128 0x9
 1774 026a 04       		.byte	0x4
 1775 026b 14010000 		.4byte	0x114
 1776 026f 03       		.uleb128 0x3
 1777 0270 A0040000 		.4byte	.LASF44
 1778 0274 05       		.byte	0x5
 1779 0275 66       		.byte	0x66
 1780 0276 44020000 		.4byte	0x244
 1781 027a 08       		.uleb128 0x8
 1782 027b 04       		.byte	0x4
 1783 027c 05       		.byte	0x5
 1784 027d 6B       		.byte	0x6b
 1785 027e 91020000 		.4byte	0x291
 1786 0282 06       		.uleb128 0x6
 1787 0283 BC050000 		.4byte	.LASF25
 1788 0287 05       		.byte	0x5
 1789 0288 6D       		.byte	0x6d
 1790 0289 69020000 		.4byte	0x269
 1791 028d 02       		.byte	0x2
 1792 028e 23       		.byte	0x23
 1793 028f 00       		.uleb128 0x0
 1794 0290 00       		.byte	0x0
 1795 0291 03       		.uleb128 0x3
 1796 0292 97030000 		.4byte	.LASF45
 1797 0296 05       		.byte	0x5
 1798 0297 70       		.byte	0x70
 1799 0298 7A020000 		.4byte	0x27a
 1800 029c 03       		.uleb128 0x3
 1801 029d 1B020000 		.4byte	.LASF46
 1802 02a1 07       		.byte	0x7
 1803 02a2 D7       		.byte	0xd7
 1804 02a3 A7020000 		.4byte	0x2a7
 1805 02a7 0A       		.uleb128 0xa
 1806 02a8 04       		.byte	0x4
 1807 02a9 03       		.uleb128 0x3
 1808 02aa DF030000 		.4byte	.LASF47
 1809 02ae 07       		.byte	0x7
ARM GAS  /tmp/cchua6zK.s 			page 33


 1810 02af DD       		.byte	0xdd
 1811 02b0 9F000000 		.4byte	0x9f
 1812 02b4 05       		.uleb128 0x5
 1813 02b5 1C070000 		.4byte	.LASF48
 1814 02b9 24       		.byte	0x24
 1815 02ba 07       		.byte	0x7
 1816 02bb FE       		.byte	0xfe
 1817 02bc 41030000 		.4byte	0x341
 1818 02c0 0B       		.uleb128 0xb
 1819 02c1 723400   		.ascii	"r4\000"
 1820 02c4 07       		.byte	0x7
 1821 02c5 1101     		.2byte	0x111
 1822 02c7 9C020000 		.4byte	0x29c
 1823 02cb 02       		.byte	0x2
 1824 02cc 23       		.byte	0x23
 1825 02cd 00       		.uleb128 0x0
 1826 02ce 0B       		.uleb128 0xb
 1827 02cf 723500   		.ascii	"r5\000"
 1828 02d2 07       		.byte	0x7
 1829 02d3 1201     		.2byte	0x112
 1830 02d5 9C020000 		.4byte	0x29c
 1831 02d9 02       		.byte	0x2
 1832 02da 23       		.byte	0x23
 1833 02db 04       		.uleb128 0x4
 1834 02dc 0B       		.uleb128 0xb
 1835 02dd 723600   		.ascii	"r6\000"
 1836 02e0 07       		.byte	0x7
 1837 02e1 1301     		.2byte	0x113
 1838 02e3 9C020000 		.4byte	0x29c
 1839 02e7 02       		.byte	0x2
 1840 02e8 23       		.byte	0x23
 1841 02e9 08       		.uleb128 0x8
 1842 02ea 0B       		.uleb128 0xb
 1843 02eb 723700   		.ascii	"r7\000"
 1844 02ee 07       		.byte	0x7
 1845 02ef 1401     		.2byte	0x114
 1846 02f1 9C020000 		.4byte	0x29c
 1847 02f5 02       		.byte	0x2
 1848 02f6 23       		.byte	0x23
 1849 02f7 0C       		.uleb128 0xc
 1850 02f8 0B       		.uleb128 0xb
 1851 02f9 723800   		.ascii	"r8\000"
 1852 02fc 07       		.byte	0x7
 1853 02fd 1501     		.2byte	0x115
 1854 02ff 9C020000 		.4byte	0x29c
 1855 0303 02       		.byte	0x2
 1856 0304 23       		.byte	0x23
 1857 0305 10       		.uleb128 0x10
 1858 0306 0B       		.uleb128 0xb
 1859 0307 723900   		.ascii	"r9\000"
 1860 030a 07       		.byte	0x7
 1861 030b 1601     		.2byte	0x116
 1862 030d 9C020000 		.4byte	0x29c
 1863 0311 02       		.byte	0x2
 1864 0312 23       		.byte	0x23
 1865 0313 14       		.uleb128 0x14
 1866 0314 0B       		.uleb128 0xb
ARM GAS  /tmp/cchua6zK.s 			page 34


 1867 0315 72313000 		.ascii	"r10\000"
 1868 0319 07       		.byte	0x7
 1869 031a 1701     		.2byte	0x117
 1870 031c 9C020000 		.4byte	0x29c
 1871 0320 02       		.byte	0x2
 1872 0321 23       		.byte	0x23
 1873 0322 18       		.uleb128 0x18
 1874 0323 0B       		.uleb128 0xb
 1875 0324 72313100 		.ascii	"r11\000"
 1876 0328 07       		.byte	0x7
 1877 0329 1801     		.2byte	0x118
 1878 032b 9C020000 		.4byte	0x29c
 1879 032f 02       		.byte	0x2
 1880 0330 23       		.byte	0x23
 1881 0331 1C       		.uleb128 0x1c
 1882 0332 0B       		.uleb128 0xb
 1883 0333 6C7200   		.ascii	"lr\000"
 1884 0336 07       		.byte	0x7
 1885 0337 1901     		.2byte	0x119
 1886 0339 9C020000 		.4byte	0x29c
 1887 033d 02       		.byte	0x2
 1888 033e 23       		.byte	0x23
 1889 033f 20       		.uleb128 0x20
 1890 0340 00       		.byte	0x0
 1891 0341 0C       		.uleb128 0xc
 1892 0342 0E070000 		.4byte	.LASF49
 1893 0346 04       		.byte	0x4
 1894 0347 07       		.byte	0x7
 1895 0348 2301     		.2byte	0x123
 1896 034a 5E030000 		.4byte	0x35e
 1897 034e 0B       		.uleb128 0xb
 1898 034f 72313300 		.ascii	"r13\000"
 1899 0353 07       		.byte	0x7
 1900 0354 2401     		.2byte	0x124
 1901 0356 5E030000 		.4byte	0x35e
 1902 035a 02       		.byte	0x2
 1903 035b 23       		.byte	0x23
 1904 035c 00       		.uleb128 0x0
 1905 035d 00       		.byte	0x0
 1906 035e 09       		.uleb128 0x9
 1907 035f 04       		.byte	0x4
 1908 0360 B4020000 		.4byte	0x2b4
 1909 0364 0D       		.uleb128 0xd
 1910 0365 09010000 		.4byte	0x109
 1911 0369 05       		.uleb128 0x5
 1912 036a 40040000 		.4byte	.LASF50
 1913 036e 10       		.byte	0x10
 1914 036f 08       		.byte	0x8
 1915 0370 2C       		.byte	0x2c
 1916 0371 A0030000 		.4byte	0x3a0
 1917 0375 06       		.uleb128 0x6
 1918 0376 15010000 		.4byte	.LASF51
 1919 037a 08       		.byte	0x8
 1920 037b 2D       		.byte	0x2d
 1921 037c 6F020000 		.4byte	0x26f
 1922 0380 02       		.byte	0x2
 1923 0381 23       		.byte	0x23
ARM GAS  /tmp/cchua6zK.s 			page 35


 1924 0382 00       		.uleb128 0x0
 1925 0383 06       		.uleb128 0x6
 1926 0384 1D080000 		.4byte	.LASF52
 1927 0388 08       		.byte	0x8
 1928 0389 2F       		.byte	0x2f
 1929 038a 69020000 		.4byte	0x269
 1930 038e 02       		.byte	0x2
 1931 038f 23       		.byte	0x23
 1932 0390 08       		.uleb128 0x8
 1933 0391 06       		.uleb128 0x6
 1934 0392 95060000 		.4byte	.LASF53
 1935 0396 08       		.byte	0x8
 1936 0397 31       		.byte	0x31
 1937 0398 A0030000 		.4byte	0x3a0
 1938 039c 02       		.byte	0x2
 1939 039d 23       		.byte	0x23
 1940 039e 0C       		.uleb128 0xc
 1941 039f 00       		.byte	0x0
 1942 03a0 09       		.uleb128 0x9
 1943 03a1 04       		.byte	0x4
 1944 03a2 69030000 		.4byte	0x369
 1945 03a6 03       		.uleb128 0x3
 1946 03a7 40040000 		.4byte	.LASF50
 1947 03ab 08       		.byte	0x8
 1948 03ac 33       		.byte	0x33
 1949 03ad 69030000 		.4byte	0x369
 1950 03b1 03       		.uleb128 0x3
 1951 03b2 D8070000 		.4byte	.LASF54
 1952 03b6 09       		.byte	0x9
 1953 03b7 29       		.byte	0x29
 1954 03b8 BC030000 		.4byte	0x3bc
 1955 03bc 05       		.uleb128 0x5
 1956 03bd D8070000 		.4byte	.LASF54
 1957 03c1 0C       		.byte	0xc
 1958 03c2 09       		.byte	0x9
 1959 03c3 2E       		.byte	0x2e
 1960 03c4 F3030000 		.4byte	0x3f3
 1961 03c8 06       		.uleb128 0x6
 1962 03c9 55030000 		.4byte	.LASF55
 1963 03cd 09       		.byte	0x9
 1964 03ce 2F       		.byte	0x2f
 1965 03cf F3030000 		.4byte	0x3f3
 1966 03d3 02       		.byte	0x2
 1967 03d4 23       		.byte	0x23
 1968 03d5 00       		.uleb128 0x0
 1969 03d6 06       		.uleb128 0x6
 1970 03d7 6B000000 		.4byte	.LASF56
 1971 03db 09       		.byte	0x9
 1972 03dc 32       		.byte	0x32
 1973 03dd 69020000 		.4byte	0x269
 1974 03e1 02       		.byte	0x2
 1975 03e2 23       		.byte	0x23
 1976 03e3 04       		.uleb128 0x4
 1977 03e4 06       		.uleb128 0x6
 1978 03e5 6B040000 		.4byte	.LASF57
 1979 03e9 09       		.byte	0x9
 1980 03ea 34       		.byte	0x34
ARM GAS  /tmp/cchua6zK.s 			page 36


 1981 03eb FE000000 		.4byte	0xfe
 1982 03ef 02       		.byte	0x2
 1983 03f0 23       		.byte	0x23
 1984 03f1 08       		.uleb128 0x8
 1985 03f2 00       		.byte	0x0
 1986 03f3 09       		.uleb128 0x9
 1987 03f4 04       		.byte	0x4
 1988 03f5 B1030000 		.4byte	0x3b1
 1989 03f9 05       		.uleb128 0x5
 1990 03fa 35020000 		.4byte	.LASF58
 1991 03fe 04       		.byte	0x4
 1992 03ff 09       		.byte	0x9
 1993 0400 3C       		.byte	0x3c
 1994 0401 14040000 		.4byte	0x414
 1995 0405 06       		.uleb128 0x6
 1996 0406 67070000 		.4byte	.LASF59
 1997 040a 09       		.byte	0x9
 1998 040b 3D       		.byte	0x3d
 1999 040c F3030000 		.4byte	0x3f3
 2000 0410 02       		.byte	0x2
 2001 0411 23       		.byte	0x23
 2002 0412 00       		.uleb128 0x0
 2003 0413 00       		.byte	0x0
 2004 0414 03       		.uleb128 0x3
 2005 0415 35020000 		.4byte	.LASF58
 2006 0419 09       		.byte	0x9
 2007 041a 40       		.byte	0x40
 2008 041b F9030000 		.4byte	0x3f9
 2009 041f 0E       		.uleb128 0xe
 2010 0420 04       		.byte	0x4
 2011 0421 06       		.byte	0x6
 2012 0422 90       		.byte	0x90
 2013 0423 54040000 		.4byte	0x454
 2014 0427 0F       		.uleb128 0xf
 2015 0428 3B000000 		.4byte	.LASF60
 2016 042c 06       		.byte	0x6
 2017 042d 97       		.byte	0x97
 2018 042e F3000000 		.4byte	0xf3
 2019 0432 0F       		.uleb128 0xf
 2020 0433 A0000000 		.4byte	.LASF61
 2021 0437 06       		.byte	0x6
 2022 0438 9E       		.byte	0x9e
 2023 0439 F3000000 		.4byte	0xf3
 2024 043d 0F       		.uleb128 0xf
 2025 043e E6070000 		.4byte	.LASF62
 2026 0442 06       		.byte	0x6
 2027 0443 A5       		.byte	0xa5
 2028 0444 A7020000 		.4byte	0x2a7
 2029 0448 0F       		.uleb128 0xf
 2030 0449 B5050000 		.4byte	.LASF63
 2031 044d 06       		.byte	0x6
 2032 044e AC       		.byte	0xac
 2033 044f FE000000 		.4byte	0xfe
 2034 0453 00       		.byte	0x0
 2035 0454 09       		.uleb128 0x9
 2036 0455 04       		.byte	0x4
 2037 0456 5A040000 		.4byte	0x45a
ARM GAS  /tmp/cchua6zK.s 			page 37


 2038 045a 10       		.uleb128 0x10
 2039 045b 5F040000 		.4byte	0x45f
 2040 045f 04       		.uleb128 0x4
 2041 0460 01       		.byte	0x1
 2042 0461 08       		.byte	0x8
 2043 0462 6E060000 		.4byte	.LASF64
 2044 0466 09       		.uleb128 0x9
 2045 0467 04       		.byte	0x4
 2046 0468 A9020000 		.4byte	0x2a9
 2047 046c 09       		.uleb128 0x9
 2048 046d 04       		.byte	0x4
 2049 046e A6030000 		.4byte	0x3a6
 2050 0472 03       		.uleb128 0x3
 2051 0473 D6010000 		.4byte	.LASF65
 2052 0477 0A       		.byte	0xa
 2053 0478 37       		.byte	0x37
 2054 0479 7D040000 		.4byte	0x47d
 2055 047d 05       		.uleb128 0x5
 2056 047e D6010000 		.4byte	.LASF65
 2057 0482 20       		.byte	0x20
 2058 0483 0A       		.byte	0xa
 2059 0484 45       		.byte	0x45
 2060 0485 EC040000 		.4byte	0x4ec
 2061 0489 06       		.uleb128 0x6
 2062 048a CD000000 		.4byte	.LASF66
 2063 048e 0A       		.byte	0xa
 2064 048f 46       		.byte	0x46
 2065 0490 6F020000 		.4byte	0x26f
 2066 0494 02       		.byte	0x2
 2067 0495 23       		.byte	0x23
 2068 0496 00       		.uleb128 0x0
 2069 0497 06       		.uleb128 0x6
 2070 0498 36040000 		.4byte	.LASF67
 2071 049c 0A       		.byte	0xa
 2072 049d 47       		.byte	0x47
 2073 049e 30000000 		.4byte	0x30
 2074 04a2 02       		.byte	0x2
 2075 04a3 23       		.byte	0x23
 2076 04a4 08       		.uleb128 0x8
 2077 04a5 06       		.uleb128 0x6
 2078 04a6 9D010000 		.4byte	.LASF68
 2079 04aa 0A       		.byte	0xa
 2080 04ab 48       		.byte	0x48
 2081 04ac 0F050000 		.4byte	0x50f
 2082 04b0 02       		.byte	0x2
 2083 04b1 23       		.byte	0x23
 2084 04b2 0C       		.uleb128 0xc
 2085 04b3 06       		.uleb128 0x6
 2086 04b4 5A070000 		.4byte	.LASF69
 2087 04b8 0A       		.byte	0xa
 2088 04b9 49       		.byte	0x49
 2089 04ba 0F050000 		.4byte	0x50f
 2090 04be 02       		.byte	0x2
 2091 04bf 23       		.byte	0x23
 2092 04c0 10       		.uleb128 0x10
 2093 04c1 06       		.uleb128 0x6
 2094 04c2 B7010000 		.4byte	.LASF70
ARM GAS  /tmp/cchua6zK.s 			page 38


 2095 04c6 0A       		.byte	0xa
 2096 04c7 4B       		.byte	0x4b
 2097 04c8 0F050000 		.4byte	0x50f
 2098 04cc 02       		.byte	0x2
 2099 04cd 23       		.byte	0x23
 2100 04ce 14       		.uleb128 0x14
 2101 04cf 06       		.uleb128 0x6
 2102 04d0 35050000 		.4byte	.LASF71
 2103 04d4 0A       		.byte	0xa
 2104 04d5 4C       		.byte	0x4c
 2105 04d6 0F050000 		.4byte	0x50f
 2106 04da 02       		.byte	0x2
 2107 04db 23       		.byte	0x23
 2108 04dc 18       		.uleb128 0x18
 2109 04dd 06       		.uleb128 0x6
 2110 04de 76070000 		.4byte	.LASF72
 2111 04e2 0A       		.byte	0xa
 2112 04e3 4D       		.byte	0x4d
 2113 04e4 EC040000 		.4byte	0x4ec
 2114 04e8 02       		.byte	0x2
 2115 04e9 23       		.byte	0x23
 2116 04ea 1C       		.uleb128 0x1c
 2117 04eb 00       		.byte	0x0
 2118 04ec 03       		.uleb128 0x3
 2119 04ed C4030000 		.4byte	.LASF73
 2120 04f1 0A       		.byte	0xa
 2121 04f2 3A       		.byte	0x3a
 2122 04f3 F7040000 		.4byte	0x4f7
 2123 04f7 09       		.uleb128 0x9
 2124 04f8 04       		.byte	0x4
 2125 04f9 FD040000 		.4byte	0x4fd
 2126 04fd 11       		.uleb128 0x11
 2127 04fe 01       		.byte	0x1
 2128 04ff 09050000 		.4byte	0x509
 2129 0503 12       		.uleb128 0x12
 2130 0504 09050000 		.4byte	0x509
 2131 0508 00       		.byte	0x0
 2132 0509 09       		.uleb128 0x9
 2133 050a 04       		.byte	0x4
 2134 050b 72040000 		.4byte	0x472
 2135 050f 09       		.uleb128 0x9
 2136 0510 04       		.byte	0x4
 2137 0511 49000000 		.4byte	0x49
 2138 0515 03       		.uleb128 0x3
 2139 0516 B8070000 		.4byte	.LASF74
 2140 051a 0A       		.byte	0xa
 2141 051b 76       		.byte	0x76
 2142 051c 72040000 		.4byte	0x472
 2143 0520 03       		.uleb128 0x3
 2144 0521 54000000 		.4byte	.LASF75
 2145 0525 0A       		.byte	0xa
 2146 0526 E6       		.byte	0xe6
 2147 0527 72040000 		.4byte	0x472
 2148 052b 13       		.uleb128 0x13
 2149 052c 01       		.byte	0x1
 2150 052d 30000000 		.4byte	0x30
 2151 0531 45050000 		.4byte	0x545
ARM GAS  /tmp/cchua6zK.s 			page 39


 2152 0535 12       		.uleb128 0x12
 2153 0536 A7020000 		.4byte	0x2a7
 2154 053a 12       		.uleb128 0x12
 2155 053b 45050000 		.4byte	0x545
 2156 053f 12       		.uleb128 0x12
 2157 0540 30000000 		.4byte	0x30
 2158 0544 00       		.byte	0x0
 2159 0545 09       		.uleb128 0x9
 2160 0546 04       		.byte	0x4
 2161 0547 4B050000 		.4byte	0x54b
 2162 054b 10       		.uleb128 0x10
 2163 054c 49000000 		.4byte	0x49
 2164 0550 09       		.uleb128 0x9
 2165 0551 04       		.byte	0x4
 2166 0552 2B050000 		.4byte	0x52b
 2167 0556 13       		.uleb128 0x13
 2168 0557 01       		.byte	0x1
 2169 0558 30000000 		.4byte	0x30
 2170 055c 70050000 		.4byte	0x570
 2171 0560 12       		.uleb128 0x12
 2172 0561 A7020000 		.4byte	0x2a7
 2173 0565 12       		.uleb128 0x12
 2174 0566 0F050000 		.4byte	0x50f
 2175 056a 12       		.uleb128 0x12
 2176 056b 30000000 		.4byte	0x30
 2177 056f 00       		.byte	0x0
 2178 0570 09       		.uleb128 0x9
 2179 0571 04       		.byte	0x4
 2180 0572 56050000 		.4byte	0x556
 2181 0576 13       		.uleb128 0x13
 2182 0577 01       		.byte	0x1
 2183 0578 BC000000 		.4byte	0xbc
 2184 057c 86050000 		.4byte	0x586
 2185 0580 12       		.uleb128 0x12
 2186 0581 A7020000 		.4byte	0x2a7
 2187 0585 00       		.byte	0x0
 2188 0586 09       		.uleb128 0x9
 2189 0587 04       		.byte	0x4
 2190 0588 76050000 		.4byte	0x576
 2191 058c 13       		.uleb128 0x13
 2192 058d 01       		.byte	0x1
 2193 058e F3000000 		.4byte	0xf3
 2194 0592 A6050000 		.4byte	0x5a6
 2195 0596 12       		.uleb128 0x12
 2196 0597 A7020000 		.4byte	0x2a7
 2197 059b 12       		.uleb128 0x12
 2198 059c 49000000 		.4byte	0x49
 2199 05a0 12       		.uleb128 0x12
 2200 05a1 09010000 		.4byte	0x109
 2201 05a5 00       		.byte	0x0
 2202 05a6 09       		.uleb128 0x9
 2203 05a7 04       		.byte	0x4
 2204 05a8 8C050000 		.4byte	0x58c
 2205 05ac 13       		.uleb128 0x13
 2206 05ad 01       		.byte	0x1
 2207 05ae F3000000 		.4byte	0xf3
 2208 05b2 C1050000 		.4byte	0x5c1
ARM GAS  /tmp/cchua6zK.s 			page 40


 2209 05b6 12       		.uleb128 0x12
 2210 05b7 A7020000 		.4byte	0x2a7
 2211 05bb 12       		.uleb128 0x12
 2212 05bc 09010000 		.4byte	0x109
 2213 05c0 00       		.byte	0x0
 2214 05c1 09       		.uleb128 0x9
 2215 05c2 04       		.byte	0x4
 2216 05c3 AC050000 		.4byte	0x5ac
 2217 05c7 13       		.uleb128 0x13
 2218 05c8 01       		.byte	0x1
 2219 05c9 30000000 		.4byte	0x30
 2220 05cd E6050000 		.4byte	0x5e6
 2221 05d1 12       		.uleb128 0x12
 2222 05d2 A7020000 		.4byte	0x2a7
 2223 05d6 12       		.uleb128 0x12
 2224 05d7 45050000 		.4byte	0x545
 2225 05db 12       		.uleb128 0x12
 2226 05dc 30000000 		.4byte	0x30
 2227 05e0 12       		.uleb128 0x12
 2228 05e1 09010000 		.4byte	0x109
 2229 05e5 00       		.byte	0x0
 2230 05e6 09       		.uleb128 0x9
 2231 05e7 04       		.byte	0x4
 2232 05e8 C7050000 		.4byte	0x5c7
 2233 05ec 13       		.uleb128 0x13
 2234 05ed 01       		.byte	0x1
 2235 05ee 30000000 		.4byte	0x30
 2236 05f2 0B060000 		.4byte	0x60b
 2237 05f6 12       		.uleb128 0x12
 2238 05f7 A7020000 		.4byte	0x2a7
 2239 05fb 12       		.uleb128 0x12
 2240 05fc 0F050000 		.4byte	0x50f
 2241 0600 12       		.uleb128 0x12
 2242 0601 30000000 		.4byte	0x30
 2243 0605 12       		.uleb128 0x12
 2244 0606 09010000 		.4byte	0x109
 2245 060a 00       		.byte	0x0
 2246 060b 09       		.uleb128 0x9
 2247 060c 04       		.byte	0x4
 2248 060d EC050000 		.4byte	0x5ec
 2249 0611 14       		.uleb128 0x14
 2250 0612 96040000 		.4byte	.LASF76
 2251 0616 0B       		.byte	0xb
 2252 0617 0B01     		.2byte	0x10b
 2253 0619 B1000000 		.4byte	0xb1
 2254 061d 0C       		.uleb128 0xc
 2255 061e 59020000 		.4byte	.LASF77
 2256 0622 24       		.byte	0x24
 2257 0623 0B       		.byte	0xb
 2258 0624 2401     		.2byte	0x124
 2259 0626 B2060000 		.4byte	0x6b2
 2260 062a 15       		.uleb128 0x15
 2261 062b F8030000 		.4byte	.LASF78
 2262 062f 0B       		.byte	0xb
 2263 0630 2501     		.2byte	0x125
 2264 0632 50050000 		.4byte	0x550
 2265 0636 02       		.byte	0x2
ARM GAS  /tmp/cchua6zK.s 			page 41


 2266 0637 23       		.byte	0x23
 2267 0638 00       		.uleb128 0x0
 2268 0639 15       		.uleb128 0x15
 2269 063a 69060000 		.4byte	.LASF79
 2270 063e 0B       		.byte	0xb
 2271 063f 2501     		.2byte	0x125
 2272 0641 70050000 		.4byte	0x570
 2273 0645 02       		.byte	0x2
 2274 0646 23       		.byte	0x23
 2275 0647 04       		.uleb128 0x4
 2276 0648 15       		.uleb128 0x15
 2277 0649 EA030000 		.4byte	.LASF80
 2278 064d 0B       		.byte	0xb
 2279 064e 2501     		.2byte	0x125
 2280 0650 86050000 		.4byte	0x586
 2281 0654 02       		.byte	0x2
 2282 0655 23       		.byte	0x23
 2283 0656 08       		.uleb128 0x8
 2284 0657 15       		.uleb128 0x15
 2285 0658 F9070000 		.4byte	.LASF81
 2286 065c 0B       		.byte	0xb
 2287 065d 2501     		.2byte	0x125
 2288 065f 86050000 		.4byte	0x586
 2289 0663 02       		.byte	0x2
 2290 0664 23       		.byte	0x23
 2291 0665 0C       		.uleb128 0xc
 2292 0666 0B       		.uleb128 0xb
 2293 0667 70757400 		.ascii	"put\000"
 2294 066b 0B       		.byte	0xb
 2295 066c 2501     		.2byte	0x125
 2296 066e A6050000 		.4byte	0x5a6
 2297 0672 02       		.byte	0x2
 2298 0673 23       		.byte	0x23
 2299 0674 10       		.uleb128 0x10
 2300 0675 0B       		.uleb128 0xb
 2301 0676 67657400 		.ascii	"get\000"
 2302 067a 0B       		.byte	0xb
 2303 067b 2501     		.2byte	0x125
 2304 067d C1050000 		.4byte	0x5c1
 2305 0681 02       		.byte	0x2
 2306 0682 23       		.byte	0x23
 2307 0683 14       		.uleb128 0x14
 2308 0684 15       		.uleb128 0x15
 2309 0685 7F030000 		.4byte	.LASF82
 2310 0689 0B       		.byte	0xb
 2311 068a 2501     		.2byte	0x125
 2312 068c E6050000 		.4byte	0x5e6
 2313 0690 02       		.byte	0x2
 2314 0691 23       		.byte	0x23
 2315 0692 18       		.uleb128 0x18
 2316 0693 15       		.uleb128 0x15
 2317 0694 C7000000 		.4byte	.LASF83
 2318 0698 0B       		.byte	0xb
 2319 0699 2501     		.2byte	0x125
 2320 069b 0B060000 		.4byte	0x60b
 2321 069f 02       		.byte	0x2
 2322 06a0 23       		.byte	0x23
ARM GAS  /tmp/cchua6zK.s 			page 42


 2323 06a1 1C       		.uleb128 0x1c
 2324 06a2 15       		.uleb128 0x15
 2325 06a3 8D040000 		.4byte	.LASF84
 2326 06a7 0B       		.byte	0xb
 2327 06a8 2501     		.2byte	0x125
 2328 06aa C2060000 		.4byte	0x6c2
 2329 06ae 02       		.byte	0x2
 2330 06af 23       		.byte	0x23
 2331 06b0 20       		.uleb128 0x20
 2332 06b1 00       		.byte	0x0
 2333 06b2 13       		.uleb128 0x13
 2334 06b3 01       		.byte	0x1
 2335 06b4 11060000 		.4byte	0x611
 2336 06b8 C2060000 		.4byte	0x6c2
 2337 06bc 12       		.uleb128 0x12
 2338 06bd A7020000 		.4byte	0x2a7
 2339 06c1 00       		.byte	0x0
 2340 06c2 09       		.uleb128 0x9
 2341 06c3 04       		.byte	0x4
 2342 06c4 B2060000 		.4byte	0x6b2
 2343 06c8 16       		.uleb128 0x16
 2344 06c9 0C       		.byte	0xc
 2345 06ca 0B       		.byte	0xb
 2346 06cb 2F01     		.2byte	0x12f
 2347 06cd FF060000 		.4byte	0x6ff
 2348 06d1 0B       		.uleb128 0xb
 2349 06d2 766D7400 		.ascii	"vmt\000"
 2350 06d6 0B       		.byte	0xb
 2351 06d7 3101     		.2byte	0x131
 2352 06d9 FF060000 		.4byte	0x6ff
 2353 06dd 02       		.byte	0x2
 2354 06de 23       		.byte	0x23
 2355 06df 00       		.uleb128 0x0
 2356 06e0 15       		.uleb128 0x15
 2357 06e1 B4000000 		.4byte	.LASF85
 2358 06e5 0B       		.byte	0xb
 2359 06e6 3201     		.2byte	0x132
 2360 06e8 14040000 		.4byte	0x414
 2361 06ec 02       		.byte	0x2
 2362 06ed 23       		.byte	0x23
 2363 06ee 04       		.uleb128 0x4
 2364 06ef 15       		.uleb128 0x15
 2365 06f0 CA070000 		.4byte	.LASF86
 2366 06f4 0B       		.byte	0xb
 2367 06f5 3201     		.2byte	0x132
 2368 06f7 11060000 		.4byte	0x611
 2369 06fb 02       		.byte	0x2
 2370 06fc 23       		.byte	0x23
 2371 06fd 08       		.uleb128 0x8
 2372 06fe 00       		.byte	0x0
 2373 06ff 09       		.uleb128 0x9
 2374 0700 04       		.byte	0x4
 2375 0701 05070000 		.4byte	0x705
 2376 0705 10       		.uleb128 0x10
 2377 0706 1D060000 		.4byte	0x61d
 2378 070a 14       		.uleb128 0x14
 2379 070b F6060000 		.4byte	.LASF87
ARM GAS  /tmp/cchua6zK.s 			page 43


 2380 070f 0B       		.byte	0xb
 2381 0710 3301     		.2byte	0x133
 2382 0712 C8060000 		.4byte	0x6c8
 2383 0716 0D       		.uleb128 0xd
 2384 0717 74000000 		.4byte	0x74
 2385 071b 03       		.uleb128 0x3
 2386 071c A6070000 		.4byte	.LASF88
 2387 0720 0C       		.byte	0xc
 2388 0721 D2       		.byte	0xd2
 2389 0722 26070000 		.4byte	0x726
 2390 0726 05       		.uleb128 0x5
 2391 0727 A6070000 		.4byte	.LASF88
 2392 072b 50       		.byte	0x50
 2393 072c 0D       		.byte	0xd
 2394 072d F2       		.byte	0xf2
 2395 072e 11080000 		.4byte	0x811
 2396 0732 06       		.uleb128 0x6
 2397 0733 47010000 		.4byte	.LASF89
 2398 0737 0D       		.byte	0xd
 2399 0738 F6       		.byte	0xf6
 2400 0739 43080000 		.4byte	0x843
 2401 073d 02       		.byte	0x2
 2402 073e 23       		.byte	0x23
 2403 073f 00       		.uleb128 0x0
 2404 0740 06       		.uleb128 0x6
 2405 0741 83060000 		.4byte	.LASF90
 2406 0745 0D       		.byte	0xd
 2407 0746 FA       		.byte	0xfa
 2408 0747 210B0000 		.4byte	0xb21
 2409 074b 02       		.byte	0x2
 2410 074c 23       		.byte	0x23
 2411 074d 04       		.uleb128 0x4
 2412 074e 06       		.uleb128 0x6
 2413 074f 73040000 		.4byte	.LASF91
 2414 0753 0D       		.byte	0xd
 2415 0754 FF       		.byte	0xff
 2416 0755 A7020000 		.4byte	0x2a7
 2417 0759 02       		.byte	0x2
 2418 075a 23       		.byte	0x23
 2419 075b 08       		.uleb128 0x8
 2420 075c 15       		.uleb128 0x15
 2421 075d E3020000 		.4byte	.LASF92
 2422 0761 0D       		.byte	0xd
 2423 0762 0301     		.2byte	0x103
 2424 0764 62000000 		.4byte	0x62
 2425 0768 02       		.byte	0x2
 2426 0769 23       		.byte	0x23
 2427 076a 0C       		.uleb128 0xc
 2428 076b 15       		.uleb128 0x15
 2429 076c AF030000 		.4byte	.LASF93
 2430 0770 0D       		.byte	0xd
 2431 0771 0701     		.2byte	0x107
 2432 0773 62000000 		.4byte	0x62
 2433 0777 02       		.byte	0x2
 2434 0778 23       		.byte	0x23
 2435 0779 0E       		.uleb128 0xe
 2436 077a 0B       		.uleb128 0xb
ARM GAS  /tmp/cchua6zK.s 			page 44


 2437 077b 65706300 		.ascii	"epc\000"
 2438 077f 0D       		.byte	0xd
 2439 0780 0B01     		.2byte	0x10b
 2440 0782 2C0B0000 		.4byte	0xb2c
 2441 0786 02       		.byte	0x2
 2442 0787 23       		.byte	0x23
 2443 0788 10       		.uleb128 0x10
 2444 0789 15       		.uleb128 0x15
 2445 078a 34060000 		.4byte	.LASF94
 2446 078e 0D       		.byte	0xd
 2447 078f 0F01     		.2byte	0x10f
 2448 0791 7B080000 		.4byte	0x87b
 2449 0795 02       		.byte	0x2
 2450 0796 23       		.byte	0x23
 2451 0797 30       		.uleb128 0x30
 2452 0798 15       		.uleb128 0x15
 2453 0799 81050000 		.4byte	.LASF95
 2454 079d 0D       		.byte	0xd
 2455 079e 1301     		.2byte	0x113
 2456 07a0 0F050000 		.4byte	0x50f
 2457 07a4 02       		.byte	0x2
 2458 07a5 23       		.byte	0x23
 2459 07a6 34       		.uleb128 0x34
 2460 07a7 15       		.uleb128 0x15
 2461 07a8 47050000 		.4byte	.LASF96
 2462 07ac 0D       		.byte	0xd
 2463 07ad 1701     		.2byte	0x117
 2464 07af 30000000 		.4byte	0x30
 2465 07b3 02       		.byte	0x2
 2466 07b4 23       		.byte	0x23
 2467 07b5 38       		.uleb128 0x38
 2468 07b6 15       		.uleb128 0x15
 2469 07b7 C6060000 		.4byte	.LASF97
 2470 07bb 0D       		.byte	0xd
 2471 07bc 1B01     		.2byte	0x11b
 2472 07be F3080000 		.4byte	0x8f3
 2473 07c2 02       		.byte	0x2
 2474 07c3 23       		.byte	0x23
 2475 07c4 3C       		.uleb128 0x3c
 2476 07c5 15       		.uleb128 0x15
 2477 07c6 BB040000 		.4byte	.LASF98
 2478 07ca 0D       		.byte	0xd
 2479 07cb 1F01     		.2byte	0x11f
 2480 07cd 470B0000 		.4byte	0xb47
 2481 07d1 02       		.byte	0x2
 2482 07d2 23       		.byte	0x23
 2483 07d3 40       		.uleb128 0x40
 2484 07d4 15       		.uleb128 0x15
 2485 07d5 6F070000 		.4byte	.LASF99
 2486 07d9 0D       		.byte	0xd
 2487 07da 2301     		.2byte	0x123
 2488 07dc 62000000 		.4byte	0x62
 2489 07e0 02       		.byte	0x2
 2490 07e1 23       		.byte	0x23
 2491 07e2 48       		.uleb128 0x48
 2492 07e3 15       		.uleb128 0x15
 2493 07e4 46040000 		.4byte	.LASF100
ARM GAS  /tmp/cchua6zK.s 			page 45


 2494 07e8 0D       		.byte	0xd
 2495 07e9 2701     		.2byte	0x127
 2496 07eb 49000000 		.4byte	0x49
 2497 07ef 02       		.byte	0x2
 2498 07f0 23       		.byte	0x23
 2499 07f1 4A       		.uleb128 0x4a
 2500 07f2 15       		.uleb128 0x15
 2501 07f3 3A030000 		.4byte	.LASF101
 2502 07f7 0D       		.byte	0xd
 2503 07f8 2B01     		.2byte	0x12b
 2504 07fa 49000000 		.4byte	0x49
 2505 07fe 02       		.byte	0x2
 2506 07ff 23       		.byte	0x23
 2507 0800 4B       		.uleb128 0x4b
 2508 0801 15       		.uleb128 0x15
 2509 0802 11040000 		.4byte	.LASF102
 2510 0806 0D       		.byte	0xd
 2511 0807 3301     		.2byte	0x133
 2512 0809 86000000 		.4byte	0x86
 2513 080d 02       		.byte	0x2
 2514 080e 23       		.byte	0x23
 2515 080f 4C       		.uleb128 0x4c
 2516 0810 00       		.byte	0x0
 2517 0811 03       		.uleb128 0x3
 2518 0812 A5050000 		.4byte	.LASF103
 2519 0816 0C       		.byte	0xc
 2520 0817 D7       		.byte	0xd7
 2521 0818 49000000 		.4byte	0x49
 2522 081c 17       		.uleb128 0x17
 2523 081d 01       		.byte	0x1
 2524 081e 0C       		.byte	0xc
 2525 081f DC       		.byte	0xdc
 2526 0820 43080000 		.4byte	0x843
 2527 0824 18       		.uleb128 0x18
 2528 0825 A9000000 		.4byte	.LASF104
 2529 0829 00       		.sleb128 0
 2530 082a 18       		.uleb128 0x18
 2531 082b CD020000 		.4byte	.LASF105
 2532 082f 01       		.sleb128 1
 2533 0830 18       		.uleb128 0x18
 2534 0831 3D050000 		.4byte	.LASF106
 2535 0835 02       		.sleb128 2
 2536 0836 18       		.uleb128 0x18
 2537 0837 CB050000 		.4byte	.LASF107
 2538 083b 03       		.sleb128 3
 2539 083c 18       		.uleb128 0x18
 2540 083d 81020000 		.4byte	.LASF108
 2541 0841 04       		.sleb128 4
 2542 0842 00       		.byte	0x0
 2543 0843 03       		.uleb128 0x3
 2544 0844 5D030000 		.4byte	.LASF109
 2545 0848 0C       		.byte	0xc
 2546 0849 E2       		.byte	0xe2
 2547 084a 1C080000 		.4byte	0x81c
 2548 084e 17       		.uleb128 0x17
 2549 084f 01       		.byte	0x1
 2550 0850 0C       		.byte	0xc
ARM GAS  /tmp/cchua6zK.s 			page 46


 2551 0851 F0       		.byte	0xf0
 2552 0852 7B080000 		.4byte	0x87b
 2553 0856 18       		.uleb128 0x18
 2554 0857 CF060000 		.4byte	.LASF110
 2555 085b 00       		.sleb128 0
 2556 085c 18       		.uleb128 0x18
 2557 085d 07080000 		.4byte	.LASF111
 2558 0861 01       		.sleb128 1
 2559 0862 18       		.uleb128 0x18
 2560 0863 92070000 		.4byte	.LASF112
 2561 0867 02       		.sleb128 2
 2562 0868 18       		.uleb128 0x18
 2563 0869 8A060000 		.4byte	.LASF113
 2564 086d 03       		.sleb128 3
 2565 086e 18       		.uleb128 0x18
 2566 086f 18040000 		.4byte	.LASF114
 2567 0873 04       		.sleb128 4
 2568 0874 18       		.uleb128 0x18
 2569 0875 2D010000 		.4byte	.LASF115
 2570 0879 05       		.sleb128 5
 2571 087a 00       		.byte	0x0
 2572 087b 03       		.uleb128 0x3
 2573 087c E3010000 		.4byte	.LASF116
 2574 0880 0C       		.byte	0xc
 2575 0881 F7       		.byte	0xf7
 2576 0882 4E080000 		.4byte	0x84e
 2577 0886 17       		.uleb128 0x17
 2578 0887 01       		.byte	0x1
 2579 0888 0C       		.byte	0xc
 2580 0889 FC       		.byte	0xfc
 2581 088a B3080000 		.4byte	0x8b3
 2582 088e 18       		.uleb128 0x18
 2583 088f 1D010000 		.4byte	.LASF117
 2584 0893 00       		.sleb128 0
 2585 0894 18       		.uleb128 0x18
 2586 0895 14050000 		.4byte	.LASF118
 2587 0899 01       		.sleb128 1
 2588 089a 18       		.uleb128 0x18
 2589 089b B1060000 		.4byte	.LASF119
 2590 089f 02       		.sleb128 2
 2591 08a0 18       		.uleb128 0x18
 2592 08a1 22060000 		.4byte	.LASF120
 2593 08a5 03       		.sleb128 3
 2594 08a6 18       		.uleb128 0x18
 2595 08a7 A6010000 		.4byte	.LASF121
 2596 08ab 04       		.sleb128 4
 2597 08ac 18       		.uleb128 0x18
 2598 08ad 04020000 		.4byte	.LASF122
 2599 08b1 05       		.sleb128 5
 2600 08b2 00       		.byte	0x0
 2601 08b3 14       		.uleb128 0x14
 2602 08b4 60000000 		.4byte	.LASF123
 2603 08b8 0C       		.byte	0xc
 2604 08b9 0301     		.2byte	0x103
 2605 08bb 86080000 		.4byte	0x886
 2606 08bf 16       		.uleb128 0x16
 2607 08c0 08       		.byte	0x8
ARM GAS  /tmp/cchua6zK.s 			page 47


 2608 08c1 0C       		.byte	0xc
 2609 08c2 0801     		.2byte	0x108
 2610 08c4 E7080000 		.4byte	0x8e7
 2611 08c8 15       		.uleb128 0x15
 2612 08c9 A2020000 		.4byte	.LASF124
 2613 08cd 0C       		.byte	0xc
 2614 08ce 0C01     		.2byte	0x10c
 2615 08d0 30000000 		.4byte	0x30
 2616 08d4 02       		.byte	0x2
 2617 08d5 23       		.byte	0x23
 2618 08d6 00       		.uleb128 0x0
 2619 08d7 15       		.uleb128 0x15
 2620 08d8 2C040000 		.4byte	.LASF125
 2621 08dc 0C       		.byte	0xc
 2622 08dd 1001     		.2byte	0x110
 2623 08df 45050000 		.4byte	0x545
 2624 08e3 02       		.byte	0x2
 2625 08e4 23       		.byte	0x23
 2626 08e5 04       		.uleb128 0x4
 2627 08e6 00       		.byte	0x0
 2628 08e7 14       		.uleb128 0x14
 2629 08e8 AD040000 		.4byte	.LASF126
 2630 08ec 0C       		.byte	0xc
 2631 08ed 1101     		.2byte	0x111
 2632 08ef BF080000 		.4byte	0x8bf
 2633 08f3 14       		.uleb128 0x14
 2634 08f4 F1000000 		.4byte	.LASF127
 2635 08f8 0C       		.byte	0xc
 2636 08f9 1901     		.2byte	0x119
 2637 08fb FF080000 		.4byte	0x8ff
 2638 08ff 09       		.uleb128 0x9
 2639 0900 04       		.byte	0x4
 2640 0901 05090000 		.4byte	0x905
 2641 0905 11       		.uleb128 0x11
 2642 0906 01       		.byte	0x1
 2643 0907 11090000 		.4byte	0x911
 2644 090b 12       		.uleb128 0x12
 2645 090c 11090000 		.4byte	0x911
 2646 0910 00       		.byte	0x0
 2647 0911 09       		.uleb128 0x9
 2648 0912 04       		.byte	0x4
 2649 0913 1B070000 		.4byte	0x71b
 2650 0917 14       		.uleb128 0x14
 2651 0918 73060000 		.4byte	.LASF128
 2652 091c 0C       		.byte	0xc
 2653 091d 2201     		.2byte	0x122
 2654 091f 23090000 		.4byte	0x923
 2655 0923 09       		.uleb128 0x9
 2656 0924 04       		.byte	0x4
 2657 0925 29090000 		.4byte	0x929
 2658 0929 11       		.uleb128 0x11
 2659 092a 01       		.byte	0x1
 2660 092b 3A090000 		.4byte	0x93a
 2661 092f 12       		.uleb128 0x12
 2662 0930 11090000 		.4byte	0x911
 2663 0934 12       		.uleb128 0x12
 2664 0935 11080000 		.4byte	0x811
ARM GAS  /tmp/cchua6zK.s 			page 48


 2665 0939 00       		.byte	0x0
 2666 093a 14       		.uleb128 0x14
 2667 093b 90010000 		.4byte	.LASF129
 2668 093f 0C       		.byte	0xc
 2669 0940 2B01     		.2byte	0x12b
 2670 0942 46090000 		.4byte	0x946
 2671 0946 09       		.uleb128 0x9
 2672 0947 04       		.byte	0x4
 2673 0948 4C090000 		.4byte	0x94c
 2674 094c 11       		.uleb128 0x11
 2675 094d 01       		.byte	0x1
 2676 094e 5D090000 		.4byte	0x95d
 2677 0952 12       		.uleb128 0x12
 2678 0953 11090000 		.4byte	0x911
 2679 0957 12       		.uleb128 0x12
 2680 0958 B3080000 		.4byte	0x8b3
 2681 095c 00       		.byte	0x0
 2682 095d 14       		.uleb128 0x14
 2683 095e 68030000 		.4byte	.LASF130
 2684 0962 0C       		.byte	0xc
 2685 0963 3701     		.2byte	0x137
 2686 0965 69090000 		.4byte	0x969
 2687 0969 09       		.uleb128 0x9
 2688 096a 04       		.byte	0x4
 2689 096b 6F090000 		.4byte	0x96f
 2690 096f 13       		.uleb128 0x13
 2691 0970 01       		.byte	0x1
 2692 0971 BC000000 		.4byte	0xbc
 2693 0975 7F090000 		.4byte	0x97f
 2694 0979 12       		.uleb128 0x12
 2695 097a 11090000 		.4byte	0x911
 2696 097e 00       		.byte	0x0
 2697 097f 14       		.uleb128 0x14
 2698 0980 61010000 		.4byte	.LASF131
 2699 0984 0C       		.byte	0xc
 2700 0985 3C01     		.2byte	0x13c
 2701 0987 8B090000 		.4byte	0x98b
 2702 098b 09       		.uleb128 0x9
 2703 098c 04       		.byte	0x4
 2704 098d 91090000 		.4byte	0x991
 2705 0991 13       		.uleb128 0x13
 2706 0992 01       		.byte	0x1
 2707 0993 B0090000 		.4byte	0x9b0
 2708 0997 B0090000 		.4byte	0x9b0
 2709 099b 12       		.uleb128 0x12
 2710 099c 11090000 		.4byte	0x911
 2711 09a0 12       		.uleb128 0x12
 2712 09a1 49000000 		.4byte	0x49
 2713 09a5 12       		.uleb128 0x12
 2714 09a6 49000000 		.4byte	0x49
 2715 09aa 12       		.uleb128 0x12
 2716 09ab 62000000 		.4byte	0x62
 2717 09af 00       		.byte	0x0
 2718 09b0 09       		.uleb128 0x9
 2719 09b1 04       		.byte	0x4
 2720 09b2 B6090000 		.4byte	0x9b6
 2721 09b6 10       		.uleb128 0x10
ARM GAS  /tmp/cchua6zK.s 			page 49


 2722 09b7 E7080000 		.4byte	0x8e7
 2723 09bb 08       		.uleb128 0x8
 2724 09bc 0C       		.byte	0xc
 2725 09bd 0D       		.byte	0xd
 2726 09be 72       		.byte	0x72
 2727 09bf EE090000 		.4byte	0x9ee
 2728 09c3 06       		.uleb128 0x6
 2729 09c4 9C020000 		.4byte	.LASF132
 2730 09c8 0D       		.byte	0xd
 2731 09c9 76       		.byte	0x76
 2732 09ca 45050000 		.4byte	0x545
 2733 09ce 02       		.byte	0x2
 2734 09cf 23       		.byte	0x23
 2735 09d0 00       		.uleb128 0x0
 2736 09d1 06       		.uleb128 0x6
 2737 09d2 FF000000 		.4byte	.LASF133
 2738 09d6 0D       		.byte	0xd
 2739 09d7 7A       		.byte	0x7a
 2740 09d8 30000000 		.4byte	0x30
 2741 09dc 02       		.byte	0x2
 2742 09dd 23       		.byte	0x23
 2743 09de 04       		.uleb128 0x4
 2744 09df 06       		.uleb128 0x6
 2745 09e0 2B070000 		.4byte	.LASF134
 2746 09e4 0D       		.byte	0xd
 2747 09e5 7E       		.byte	0x7e
 2748 09e6 30000000 		.4byte	0x30
 2749 09ea 02       		.byte	0x2
 2750 09eb 23       		.byte	0x23
 2751 09ec 08       		.uleb128 0x8
 2752 09ed 00       		.byte	0x0
 2753 09ee 03       		.uleb128 0x3
 2754 09ef 7F070000 		.4byte	.LASF135
 2755 09f3 0D       		.byte	0xd
 2756 09f4 7F       		.byte	0x7f
 2757 09f5 BB090000 		.4byte	0x9bb
 2758 09f9 08       		.uleb128 0x8
 2759 09fa 10       		.byte	0x10
 2760 09fb 0D       		.byte	0xd
 2761 09fc 84       		.byte	0x84
 2762 09fd 3A0A0000 		.4byte	0xa3a
 2763 0a01 06       		.uleb128 0x6
 2764 0a02 47060000 		.4byte	.LASF136
 2765 0a06 0D       		.byte	0xd
 2766 0a07 88       		.byte	0x88
 2767 0a08 62000000 		.4byte	0x62
 2768 0a0c 02       		.byte	0x2
 2769 0a0d 23       		.byte	0x23
 2770 0a0e 00       		.uleb128 0x0
 2771 0a0f 06       		.uleb128 0x6
 2772 0a10 83000000 		.4byte	.LASF137
 2773 0a14 0D       		.byte	0xd
 2774 0a15 8C       		.byte	0x8c
 2775 0a16 0F050000 		.4byte	0x50f
 2776 0a1a 02       		.byte	0x2
 2777 0a1b 23       		.byte	0x23
 2778 0a1c 04       		.uleb128 0x4
ARM GAS  /tmp/cchua6zK.s 			page 50


 2779 0a1d 06       		.uleb128 0x6
 2780 0a1e C3070000 		.4byte	.LASF138
 2781 0a22 0D       		.byte	0xd
 2782 0a23 90       		.byte	0x90
 2783 0a24 30000000 		.4byte	0x30
 2784 0a28 02       		.byte	0x2
 2785 0a29 23       		.byte	0x23
 2786 0a2a 08       		.uleb128 0x8
 2787 0a2b 06       		.uleb128 0x6
 2788 0a2c 00000000 		.4byte	.LASF139
 2789 0a30 0D       		.byte	0xd
 2790 0a31 94       		.byte	0x94
 2791 0a32 30000000 		.4byte	0x30
 2792 0a36 02       		.byte	0x2
 2793 0a37 23       		.byte	0x23
 2794 0a38 0C       		.uleb128 0xc
 2795 0a39 00       		.byte	0x0
 2796 0a3a 03       		.uleb128 0x3
 2797 0a3b 79040000 		.4byte	.LASF140
 2798 0a3f 0D       		.byte	0xd
 2799 0a40 95       		.byte	0x95
 2800 0a41 F9090000 		.4byte	0x9f9
 2801 0a45 08       		.uleb128 0x8
 2802 0a46 1C       		.byte	0x1c
 2803 0a47 0D       		.byte	0xd
 2804 0a48 9B       		.byte	0x9b
 2805 0a49 BE0A0000 		.4byte	0xabe
 2806 0a4d 06       		.uleb128 0x6
 2807 0a4e 23070000 		.4byte	.LASF141
 2808 0a52 0D       		.byte	0xd
 2809 0a53 9F       		.byte	0x9f
 2810 0a54 86000000 		.4byte	0x86
 2811 0a58 02       		.byte	0x2
 2812 0a59 23       		.byte	0x23
 2813 0a5a 00       		.uleb128 0x0
 2814 0a5b 06       		.uleb128 0x6
 2815 0a5c EA040000 		.4byte	.LASF142
 2816 0a60 0D       		.byte	0xd
 2817 0a61 AA       		.byte	0xaa
 2818 0a62 17090000 		.4byte	0x917
 2819 0a66 02       		.byte	0x2
 2820 0a67 23       		.byte	0x23
 2821 0a68 04       		.uleb128 0x4
 2822 0a69 06       		.uleb128 0x6
 2823 0a6a F0020000 		.4byte	.LASF143
 2824 0a6e 0D       		.byte	0xd
 2825 0a6f B0       		.byte	0xb0
 2826 0a70 17090000 		.4byte	0x917
 2827 0a74 02       		.byte	0x2
 2828 0a75 23       		.byte	0x23
 2829 0a76 08       		.uleb128 0x8
 2830 0a77 06       		.uleb128 0x6
 2831 0a78 7D010000 		.4byte	.LASF144
 2832 0a7c 0D       		.byte	0xd
 2833 0a7d B6       		.byte	0xb6
 2834 0a7e 17090000 		.4byte	0x917
 2835 0a82 02       		.byte	0x2
ARM GAS  /tmp/cchua6zK.s 			page 51


 2836 0a83 23       		.byte	0x23
 2837 0a84 0C       		.uleb128 0xc
 2838 0a85 06       		.uleb128 0x6
 2839 0a86 F3040000 		.4byte	.LASF145
 2840 0a8a 0D       		.byte	0xd
 2841 0a8b BC       		.byte	0xbc
 2842 0a8c 62000000 		.4byte	0x62
 2843 0a90 02       		.byte	0x2
 2844 0a91 23       		.byte	0x23
 2845 0a92 10       		.uleb128 0x10
 2846 0a93 06       		.uleb128 0x6
 2847 0a94 77000000 		.4byte	.LASF146
 2848 0a98 0D       		.byte	0xd
 2849 0a99 C2       		.byte	0xc2
 2850 0a9a 62000000 		.4byte	0x62
 2851 0a9e 02       		.byte	0x2
 2852 0a9f 23       		.byte	0x23
 2853 0aa0 12       		.uleb128 0x12
 2854 0aa1 06       		.uleb128 0x6
 2855 0aa2 60060000 		.4byte	.LASF147
 2856 0aa6 0D       		.byte	0xd
 2857 0aa7 C9       		.byte	0xc9
 2858 0aa8 BE0A0000 		.4byte	0xabe
 2859 0aac 02       		.byte	0x2
 2860 0aad 23       		.byte	0x23
 2861 0aae 14       		.uleb128 0x14
 2862 0aaf 06       		.uleb128 0x6
 2863 0ab0 4E040000 		.4byte	.LASF148
 2864 0ab4 0D       		.byte	0xd
 2865 0ab5 D0       		.byte	0xd0
 2866 0ab6 C40A0000 		.4byte	0xac4
 2867 0aba 02       		.byte	0x2
 2868 0abb 23       		.byte	0x23
 2869 0abc 18       		.uleb128 0x18
 2870 0abd 00       		.byte	0x0
 2871 0abe 09       		.uleb128 0x9
 2872 0abf 04       		.byte	0x4
 2873 0ac0 EE090000 		.4byte	0x9ee
 2874 0ac4 09       		.uleb128 0x9
 2875 0ac5 04       		.byte	0x4
 2876 0ac6 3A0A0000 		.4byte	0xa3a
 2877 0aca 03       		.uleb128 0x3
 2878 0acb D8040000 		.4byte	.LASF149
 2879 0acf 0D       		.byte	0xd
 2880 0ad0 D2       		.byte	0xd2
 2881 0ad1 450A0000 		.4byte	0xa45
 2882 0ad5 08       		.uleb128 0x8
 2883 0ad6 10       		.byte	0x10
 2884 0ad7 0D       		.byte	0xd
 2885 0ad8 D7       		.byte	0xd7
 2886 0ad9 160B0000 		.4byte	0xb16
 2887 0add 06       		.uleb128 0x6
 2888 0ade 31030000 		.4byte	.LASF150
 2889 0ae2 0D       		.byte	0xd
 2890 0ae3 DC       		.byte	0xdc
 2891 0ae4 3A090000 		.4byte	0x93a
 2892 0ae8 02       		.byte	0x2
ARM GAS  /tmp/cchua6zK.s 			page 52


 2893 0ae9 23       		.byte	0x23
 2894 0aea 00       		.uleb128 0x0
 2895 0aeb 06       		.uleb128 0x6
 2896 0aec 10060000 		.4byte	.LASF151
 2897 0af0 0D       		.byte	0xd
 2898 0af1 E1       		.byte	0xe1
 2899 0af2 7F090000 		.4byte	0x97f
 2900 0af6 02       		.byte	0x2
 2901 0af7 23       		.byte	0x23
 2902 0af8 04       		.uleb128 0x4
 2903 0af9 06       		.uleb128 0x6
 2904 0afa CE030000 		.4byte	.LASF152
 2905 0afe 0D       		.byte	0xd
 2906 0aff E7       		.byte	0xe7
 2907 0b00 5D090000 		.4byte	0x95d
 2908 0b04 02       		.byte	0x2
 2909 0b05 23       		.byte	0x23
 2910 0b06 08       		.uleb128 0x8
 2911 0b07 06       		.uleb128 0x6
 2912 0b08 D1040000 		.4byte	.LASF153
 2913 0b0c 0D       		.byte	0xd
 2914 0b0d EB       		.byte	0xeb
 2915 0b0e F3080000 		.4byte	0x8f3
 2916 0b12 02       		.byte	0x2
 2917 0b13 23       		.byte	0x23
 2918 0b14 0C       		.uleb128 0xc
 2919 0b15 00       		.byte	0x0
 2920 0b16 03       		.uleb128 0x3
 2921 0b17 3D060000 		.4byte	.LASF154
 2922 0b1b 0D       		.byte	0xd
 2923 0b1c ED       		.byte	0xed
 2924 0b1d D50A0000 		.4byte	0xad5
 2925 0b21 09       		.uleb128 0x9
 2926 0b22 04       		.byte	0x4
 2927 0b23 270B0000 		.4byte	0xb27
 2928 0b27 10       		.uleb128 0x10
 2929 0b28 160B0000 		.4byte	0xb16
 2930 0b2c 19       		.uleb128 0x19
 2931 0b2d 3C0B0000 		.4byte	0xb3c
 2932 0b31 3C0B0000 		.4byte	0xb3c
 2933 0b35 1A       		.uleb128 0x1a
 2934 0b36 3B000000 		.4byte	0x3b
 2935 0b3a 07       		.byte	0x7
 2936 0b3b 00       		.byte	0x0
 2937 0b3c 09       		.uleb128 0x9
 2938 0b3d 04       		.byte	0x4
 2939 0b3e 420B0000 		.4byte	0xb42
 2940 0b42 10       		.uleb128 0x10
 2941 0b43 CA0A0000 		.4byte	0xaca
 2942 0b47 19       		.uleb128 0x19
 2943 0b48 49000000 		.4byte	0x49
 2944 0b4c 570B0000 		.4byte	0xb57
 2945 0b50 1A       		.uleb128 0x1a
 2946 0b51 3B000000 		.4byte	0x3b
 2947 0b55 07       		.byte	0x7
 2948 0b56 00       		.byte	0x0
 2949 0b57 17       		.uleb128 0x17
ARM GAS  /tmp/cchua6zK.s 			page 53


 2950 0b58 01       		.byte	0x1
 2951 0b59 0E       		.byte	0xe
 2952 0b5a 51       		.byte	0x51
 2953 0b5b 720B0000 		.4byte	0xb72
 2954 0b5f 18       		.uleb128 0x18
 2955 0b60 30000000 		.4byte	.LASF155
 2956 0b64 00       		.sleb128 0
 2957 0b65 18       		.uleb128 0x18
 2958 0b66 B2020000 		.4byte	.LASF156
 2959 0b6a 01       		.sleb128 1
 2960 0b6b 18       		.uleb128 0x18
 2961 0b6c 6A050000 		.4byte	.LASF157
 2962 0b70 02       		.sleb128 2
 2963 0b71 00       		.byte	0x0
 2964 0b72 03       		.uleb128 0x3
 2965 0b73 12080000 		.4byte	.LASF158
 2966 0b77 0E       		.byte	0xe
 2967 0b78 55       		.byte	0x55
 2968 0b79 570B0000 		.4byte	0xb57
 2969 0b7d 03       		.uleb128 0x3
 2970 0b7e 8C020000 		.4byte	.LASF159
 2971 0b82 0E       		.byte	0xe
 2972 0b83 5A       		.byte	0x5a
 2973 0b84 880B0000 		.4byte	0xb88
 2974 0b88 05       		.uleb128 0x5
 2975 0b89 8C020000 		.4byte	.LASF159
 2976 0b8d D4       		.byte	0xd4
 2977 0b8e 0E       		.byte	0xe
 2978 0b8f 95       		.byte	0x95
 2979 0b90 130C0000 		.4byte	0xc13
 2980 0b94 07       		.uleb128 0x7
 2981 0b95 766D7400 		.ascii	"vmt\000"
 2982 0b99 0E       		.byte	0xe
 2983 0b9a 97       		.byte	0x97
 2984 0b9b CE0C0000 		.4byte	0xcce
 2985 0b9f 02       		.byte	0x2
 2986 0ba0 23       		.byte	0x23
 2987 0ba1 00       		.uleb128 0x0
 2988 0ba2 06       		.uleb128 0x6
 2989 0ba3 B4000000 		.4byte	.LASF85
 2990 0ba7 0E       		.byte	0xe
 2991 0ba8 98       		.byte	0x98
 2992 0ba9 14040000 		.4byte	0x414
 2993 0bad 02       		.byte	0x2
 2994 0bae 23       		.byte	0x23
 2995 0baf 04       		.uleb128 0x4
 2996 0bb0 06       		.uleb128 0x6
 2997 0bb1 CA070000 		.4byte	.LASF86
 2998 0bb5 0E       		.byte	0xe
 2999 0bb6 98       		.byte	0x98
 3000 0bb7 11060000 		.4byte	0x611
 3001 0bbb 02       		.byte	0x2
 3002 0bbc 23       		.byte	0x23
 3003 0bbd 08       		.uleb128 0x8
 3004 0bbe 06       		.uleb128 0x6
 3005 0bbf 47010000 		.4byte	.LASF89
 3006 0bc3 0E       		.byte	0xe
ARM GAS  /tmp/cchua6zK.s 			page 54


 3007 0bc4 98       		.byte	0x98
 3008 0bc5 720B0000 		.4byte	0xb72
 3009 0bc9 02       		.byte	0x2
 3010 0bca 23       		.byte	0x23
 3011 0bcb 0C       		.uleb128 0xc
 3012 0bcc 06       		.uleb128 0x6
 3013 0bcd BB020000 		.4byte	.LASF160
 3014 0bd1 0E       		.byte	0xe
 3015 0bd2 98       		.byte	0x98
 3016 0bd3 15050000 		.4byte	0x515
 3017 0bd7 02       		.byte	0x2
 3018 0bd8 23       		.byte	0x23
 3019 0bd9 10       		.uleb128 0x10
 3020 0bda 06       		.uleb128 0x6
 3021 0bdb 4E030000 		.4byte	.LASF161
 3022 0bdf 0E       		.byte	0xe
 3023 0be0 98       		.byte	0x98
 3024 0be1 20050000 		.4byte	0x520
 3025 0be5 02       		.byte	0x2
 3026 0be6 23       		.byte	0x23
 3027 0be7 30       		.uleb128 0x30
 3028 0be8 07       		.uleb128 0x7
 3029 0be9 696200   		.ascii	"ib\000"
 3030 0bec 0E       		.byte	0xe
 3031 0bed 98       		.byte	0x98
 3032 0bee D90C0000 		.4byte	0xcd9
 3033 0bf2 02       		.byte	0x2
 3034 0bf3 23       		.byte	0x23
 3035 0bf4 50       		.uleb128 0x50
 3036 0bf5 07       		.uleb128 0x7
 3037 0bf6 6F6200   		.ascii	"ob\000"
 3038 0bf9 0E       		.byte	0xe
 3039 0bfa 98       		.byte	0x98
 3040 0bfb D90C0000 		.4byte	0xcd9
 3041 0bff 03       		.byte	0x3
 3042 0c00 23       		.byte	0x23
 3043 0c01 9001     		.uleb128 0x90
 3044 0c03 06       		.uleb128 0x6
 3045 0c04 83060000 		.4byte	.LASF90
 3046 0c08 0E       		.byte	0xe
 3047 0c09 98       		.byte	0x98
 3048 0c0a E90C0000 		.4byte	0xce9
 3049 0c0e 03       		.byte	0x3
 3050 0c0f 23       		.byte	0x23
 3051 0c10 D001     		.uleb128 0xd0
 3052 0c12 00       		.byte	0x0
 3053 0c13 08       		.uleb128 0x8
 3054 0c14 14       		.byte	0x14
 3055 0c15 0E       		.byte	0xe
 3056 0c16 61       		.byte	0x61
 3057 0c17 380C0000 		.4byte	0xc38
 3058 0c1b 06       		.uleb128 0x6
 3059 0c1c 8B010000 		.4byte	.LASF162
 3060 0c20 0E       		.byte	0xe
 3061 0c21 65       		.byte	0x65
 3062 0c22 11090000 		.4byte	0x911
 3063 0c26 02       		.byte	0x2
ARM GAS  /tmp/cchua6zK.s 			page 55


 3064 0c27 23       		.byte	0x23
 3065 0c28 00       		.uleb128 0x0
 3066 0c29 06       		.uleb128 0x6
 3067 0c2a B9030000 		.4byte	.LASF163
 3068 0c2e 0E       		.byte	0xe
 3069 0c2f 69       		.byte	0x69
 3070 0c30 160B0000 		.4byte	0xb16
 3071 0c34 02       		.byte	0x2
 3072 0c35 23       		.byte	0x23
 3073 0c36 04       		.uleb128 0x4
 3074 0c37 00       		.byte	0x0
 3075 0c38 03       		.uleb128 0x3
 3076 0c39 3A070000 		.4byte	.LASF164
 3077 0c3d 0E       		.byte	0xe
 3078 0c3e 6A       		.byte	0x6a
 3079 0c3f 130C0000 		.4byte	0xc13
 3080 0c43 05       		.uleb128 0x5
 3081 0c44 06000000 		.4byte	.LASF165
 3082 0c48 24       		.byte	0x24
 3083 0c49 0E       		.byte	0xe
 3084 0c4a 8A       		.byte	0x8a
 3085 0c4b CE0C0000 		.4byte	0xcce
 3086 0c4f 06       		.uleb128 0x6
 3087 0c50 F8030000 		.4byte	.LASF78
 3088 0c54 0E       		.byte	0xe
 3089 0c55 8B       		.byte	0x8b
 3090 0c56 50050000 		.4byte	0x550
 3091 0c5a 02       		.byte	0x2
 3092 0c5b 23       		.byte	0x23
 3093 0c5c 00       		.uleb128 0x0
 3094 0c5d 06       		.uleb128 0x6
 3095 0c5e 69060000 		.4byte	.LASF79
 3096 0c62 0E       		.byte	0xe
 3097 0c63 8B       		.byte	0x8b
 3098 0c64 70050000 		.4byte	0x570
 3099 0c68 02       		.byte	0x2
 3100 0c69 23       		.byte	0x23
 3101 0c6a 04       		.uleb128 0x4
 3102 0c6b 06       		.uleb128 0x6
 3103 0c6c EA030000 		.4byte	.LASF80
 3104 0c70 0E       		.byte	0xe
 3105 0c71 8B       		.byte	0x8b
 3106 0c72 86050000 		.4byte	0x586
 3107 0c76 02       		.byte	0x2
 3108 0c77 23       		.byte	0x23
 3109 0c78 08       		.uleb128 0x8
 3110 0c79 06       		.uleb128 0x6
 3111 0c7a F9070000 		.4byte	.LASF81
 3112 0c7e 0E       		.byte	0xe
 3113 0c7f 8B       		.byte	0x8b
 3114 0c80 86050000 		.4byte	0x586
 3115 0c84 02       		.byte	0x2
 3116 0c85 23       		.byte	0x23
 3117 0c86 0C       		.uleb128 0xc
 3118 0c87 07       		.uleb128 0x7
 3119 0c88 70757400 		.ascii	"put\000"
 3120 0c8c 0E       		.byte	0xe
ARM GAS  /tmp/cchua6zK.s 			page 56


 3121 0c8d 8B       		.byte	0x8b
 3122 0c8e A6050000 		.4byte	0x5a6
 3123 0c92 02       		.byte	0x2
 3124 0c93 23       		.byte	0x23
 3125 0c94 10       		.uleb128 0x10
 3126 0c95 07       		.uleb128 0x7
 3127 0c96 67657400 		.ascii	"get\000"
 3128 0c9a 0E       		.byte	0xe
 3129 0c9b 8B       		.byte	0x8b
 3130 0c9c C1050000 		.4byte	0x5c1
 3131 0ca0 02       		.byte	0x2
 3132 0ca1 23       		.byte	0x23
 3133 0ca2 14       		.uleb128 0x14
 3134 0ca3 06       		.uleb128 0x6
 3135 0ca4 7F030000 		.4byte	.LASF82
 3136 0ca8 0E       		.byte	0xe
 3137 0ca9 8B       		.byte	0x8b
 3138 0caa E6050000 		.4byte	0x5e6
 3139 0cae 02       		.byte	0x2
 3140 0caf 23       		.byte	0x23
 3141 0cb0 18       		.uleb128 0x18
 3142 0cb1 06       		.uleb128 0x6
 3143 0cb2 C7000000 		.4byte	.LASF83
 3144 0cb6 0E       		.byte	0xe
 3145 0cb7 8B       		.byte	0x8b
 3146 0cb8 0B060000 		.4byte	0x60b
 3147 0cbc 02       		.byte	0x2
 3148 0cbd 23       		.byte	0x23
 3149 0cbe 1C       		.uleb128 0x1c
 3150 0cbf 06       		.uleb128 0x6
 3151 0cc0 8D040000 		.4byte	.LASF84
 3152 0cc4 0E       		.byte	0xe
 3153 0cc5 8B       		.byte	0x8b
 3154 0cc6 C2060000 		.4byte	0x6c2
 3155 0cca 02       		.byte	0x2
 3156 0ccb 23       		.byte	0x23
 3157 0ccc 20       		.uleb128 0x20
 3158 0ccd 00       		.byte	0x0
 3159 0cce 09       		.uleb128 0x9
 3160 0ccf 04       		.byte	0x4
 3161 0cd0 D40C0000 		.4byte	0xcd4
 3162 0cd4 10       		.uleb128 0x10
 3163 0cd5 430C0000 		.4byte	0xc43
 3164 0cd9 19       		.uleb128 0x19
 3165 0cda 49000000 		.4byte	0x49
 3166 0cde E90C0000 		.4byte	0xce9
 3167 0ce2 1A       		.uleb128 0x1a
 3168 0ce3 3B000000 		.4byte	0x3b
 3169 0ce7 3F       		.byte	0x3f
 3170 0ce8 00       		.byte	0x0
 3171 0ce9 09       		.uleb128 0x9
 3172 0cea 04       		.byte	0x4
 3173 0ceb EF0C0000 		.4byte	0xcef
 3174 0cef 10       		.uleb128 0x10
 3175 0cf0 380C0000 		.4byte	0xc38
 3176 0cf4 08       		.uleb128 0x8
 3177 0cf5 07       		.byte	0x7
ARM GAS  /tmp/cchua6zK.s 			page 57


 3178 0cf6 0F       		.byte	0xf
 3179 0cf7 7C       		.byte	0x7c
 3180 0cf8 350D0000 		.4byte	0xd35
 3181 0cfc 06       		.uleb128 0x6
 3182 0cfd 24020000 		.4byte	.LASF166
 3183 0d01 0F       		.byte	0xf
 3184 0d02 7D       		.byte	0x7d
 3185 0d03 350D0000 		.4byte	0xd35
 3186 0d07 02       		.byte	0x2
 3187 0d08 23       		.byte	0x23
 3188 0d09 00       		.uleb128 0x0
 3189 0d0a 06       		.uleb128 0x6
 3190 0d0b 25080000 		.4byte	.LASF167
 3191 0d0f 0F       		.byte	0xf
 3192 0d10 7E       		.byte	0x7e
 3193 0d11 49000000 		.4byte	0x49
 3194 0d15 02       		.byte	0x2
 3195 0d16 23       		.byte	0x23
 3196 0d17 04       		.uleb128 0x4
 3197 0d18 06       		.uleb128 0x6
 3198 0d19 3B010000 		.4byte	.LASF168
 3199 0d1d 0F       		.byte	0xf
 3200 0d1e 7F       		.byte	0x7f
 3201 0d1f 49000000 		.4byte	0x49
 3202 0d23 02       		.byte	0x2
 3203 0d24 23       		.byte	0x23
 3204 0d25 05       		.uleb128 0x5
 3205 0d26 06       		.uleb128 0x6
 3206 0d27 D8050000 		.4byte	.LASF169
 3207 0d2b 0F       		.byte	0xf
 3208 0d2c 80       		.byte	0x80
 3209 0d2d 49000000 		.4byte	0x49
 3210 0d31 02       		.byte	0x2
 3211 0d32 23       		.byte	0x23
 3212 0d33 06       		.uleb128 0x6
 3213 0d34 00       		.byte	0x0
 3214 0d35 19       		.uleb128 0x19
 3215 0d36 49000000 		.4byte	0x49
 3216 0d3a 450D0000 		.4byte	0xd45
 3217 0d3e 1A       		.uleb128 0x1a
 3218 0d3f 3B000000 		.4byte	0x3b
 3219 0d43 03       		.byte	0x3
 3220 0d44 00       		.byte	0x0
 3221 0d45 03       		.uleb128 0x3
 3222 0d46 E5060000 		.4byte	.LASF170
 3223 0d4a 0F       		.byte	0xf
 3224 0d4b 81       		.byte	0x81
 3225 0d4c F40C0000 		.4byte	0xcf4
 3226 0d50 1B       		.uleb128 0x1b
 3227 0d51 EA030000 		.4byte	.LASF80
 3228 0d55 01       		.byte	0x1
 3229 0d56 53       		.byte	0x53
 3230 0d57 01       		.byte	0x1
 3231 0d58 BC000000 		.4byte	0xbc
 3232 0d5c 00000000 		.4byte	.LFB57
 3233 0d60 0C000000 		.4byte	.LFE57
 3234 0d64 02       		.byte	0x2
ARM GAS  /tmp/cchua6zK.s 			page 58


 3235 0d65 7D       		.byte	0x7d
 3236 0d66 00       		.sleb128 0
 3237 0d67 7A0D0000 		.4byte	0xd7a
 3238 0d6b 1C       		.uleb128 0x1c
 3239 0d6c 697000   		.ascii	"ip\000"
 3240 0d6f 01       		.byte	0x1
 3241 0d70 53       		.byte	0x53
 3242 0d71 A7020000 		.4byte	0x2a7
 3243 0d75 00000000 		.4byte	.LLST0
 3244 0d79 00       		.byte	0x0
 3245 0d7a 1B       		.uleb128 0x1b
 3246 0d7b F9070000 		.4byte	.LASF81
 3247 0d7f 01       		.byte	0x1
 3248 0d80 58       		.byte	0x58
 3249 0d81 01       		.byte	0x1
 3250 0d82 BC000000 		.4byte	0xbc
 3251 0d86 00000000 		.4byte	.LFB58
 3252 0d8a 0C000000 		.4byte	.LFE58
 3253 0d8e 02       		.byte	0x2
 3254 0d8f 7D       		.byte	0x7d
 3255 0d90 00       		.sleb128 0
 3256 0d91 A40D0000 		.4byte	0xda4
 3257 0d95 1C       		.uleb128 0x1c
 3258 0d96 697000   		.ascii	"ip\000"
 3259 0d99 01       		.byte	0x1
 3260 0d9a 58       		.byte	0x58
 3261 0d9b A7020000 		.4byte	0x2a7
 3262 0d9f 13000000 		.4byte	.LLST1
 3263 0da3 00       		.byte	0x0
 3264 0da4 1D       		.uleb128 0x1d
 3265 0da5 8D040000 		.4byte	.LASF84
 3266 0da9 01       		.byte	0x1
 3267 0daa 71       		.byte	0x71
 3268 0dab 01       		.byte	0x1
 3269 0dac 11060000 		.4byte	0x611
 3270 0db0 00000000 		.4byte	.LFB63
 3271 0db4 1E000000 		.4byte	.LFE63
 3272 0db8 26000000 		.4byte	.LLST2
 3273 0dbc DE0D0000 		.4byte	0xdde
 3274 0dc0 1C       		.uleb128 0x1c
 3275 0dc1 697000   		.ascii	"ip\000"
 3276 0dc4 01       		.byte	0x1
 3277 0dc5 71       		.byte	0x71
 3278 0dc6 A7020000 		.4byte	0x2a7
 3279 0dca 46000000 		.4byte	.LLST3
 3280 0dce 1E       		.uleb128 0x1e
 3281 0dcf 16020000 		.4byte	.LASF171
 3282 0dd3 01       		.byte	0x1
 3283 0dd4 72       		.byte	0x72
 3284 0dd5 11060000 		.4byte	0x611
 3285 0dd9 64000000 		.4byte	.LLST4
 3286 0ddd 00       		.byte	0x0
 3287 0dde 1F       		.uleb128 0x1f
 3288 0ddf D0070000 		.4byte	.LASF173
 3289 0de3 01       		.byte	0x1
 3290 0de4 9A       		.byte	0x9a
 3291 0de5 01       		.byte	0x1
ARM GAS  /tmp/cchua6zK.s 			page 59


 3292 0de6 00000000 		.4byte	.LFB65
 3293 0dea 82000000 		.4byte	.LFE65
 3294 0dee 83000000 		.4byte	.LLST5
 3295 0df2 270E0000 		.4byte	0xe27
 3296 0df6 1C       		.uleb128 0x1c
 3297 0df7 717000   		.ascii	"qp\000"
 3298 0dfa 01       		.byte	0x1
 3299 0dfb 9A       		.byte	0x9a
 3300 0dfc 09050000 		.4byte	0x509
 3301 0e00 A3000000 		.4byte	.LLST6
 3302 0e04 1E       		.uleb128 0x1e
 3303 0e05 F6020000 		.4byte	.LASF172
 3304 0e09 01       		.byte	0x1
 3305 0e0a 9B       		.byte	0x9b
 3306 0e0b 270E0000 		.4byte	0xe27
 3307 0e0f B6000000 		.4byte	.LLST7
 3308 0e13 20       		.uleb128 0x20
 3309 0e14 6E00     		.ascii	"n\000"
 3310 0e16 01       		.byte	0x1
 3311 0e17 9C       		.byte	0x9c
 3312 0e18 30000000 		.4byte	0x30
 3313 0e1c 09       		.byte	0x9
 3314 0e1d 78       		.byte	0x78
 3315 0e1e 00       		.sleb128 0
 3316 0e1f 77       		.byte	0x77
 3317 0e20 00       		.sleb128 0
 3318 0e21 1C       		.byte	0x1c
 3319 0e22 76       		.byte	0x76
 3320 0e23 00       		.sleb128 0
 3321 0e24 1C       		.byte	0x1c
 3322 0e25 9F       		.byte	0x9f
 3323 0e26 00       		.byte	0x0
 3324 0e27 09       		.uleb128 0x9
 3325 0e28 04       		.byte	0x4
 3326 0e29 7D0B0000 		.4byte	0xb7d
 3327 0e2d 1F       		.uleb128 0x1f
 3328 0e2e AA020000 		.4byte	.LASF174
 3329 0e32 01       		.byte	0x1
 3330 0e33 7E       		.byte	0x7e
 3331 0e34 01       		.byte	0x1
 3332 0e35 00000000 		.4byte	.LFB64
 3333 0e39 74000000 		.4byte	.LFE64
 3334 0e3d D5000000 		.4byte	.LLST8
 3335 0e41 7A0E0000 		.4byte	0xe7a
 3336 0e45 1C       		.uleb128 0x1c
 3337 0e46 717000   		.ascii	"qp\000"
 3338 0e49 01       		.byte	0x1
 3339 0e4a 7E       		.byte	0x7e
 3340 0e4b 09050000 		.4byte	0x509
 3341 0e4f F5000000 		.4byte	.LLST9
 3342 0e53 1E       		.uleb128 0x1e
 3343 0e54 F6020000 		.4byte	.LASF172
 3344 0e58 01       		.byte	0x1
 3345 0e59 7F       		.byte	0x7f
 3346 0e5a 270E0000 		.4byte	0xe27
 3347 0e5e 08010000 		.4byte	.LLST10
 3348 0e62 21       		.uleb128 0x21
ARM GAS  /tmp/cchua6zK.s 			page 60


 3349 0e63 16000000 		.4byte	.LBB2
 3350 0e67 74000000 		.4byte	.LBE2
 3351 0e6b 22       		.uleb128 0x22
 3352 0e6c 6E00     		.ascii	"n\000"
 3353 0e6e 01       		.byte	0x1
 3354 0e6f 88       		.byte	0x88
 3355 0e70 30000000 		.4byte	0x30
 3356 0e74 27010000 		.4byte	.LLST11
 3357 0e78 00       		.byte	0x0
 3358 0e79 00       		.byte	0x0
 3359 0e7a 1B       		.uleb128 0x1b
 3360 0e7b C7000000 		.4byte	.LASF83
 3361 0e7f 01       		.byte	0x1
 3362 0e80 6C       		.byte	0x6c
 3363 0e81 01       		.byte	0x1
 3364 0e82 30000000 		.4byte	0x30
 3365 0e86 00000000 		.4byte	.LFB62
 3366 0e8a 06000000 		.4byte	.LFE62
 3367 0e8e 02       		.byte	0x2
 3368 0e8f 7D       		.byte	0x7d
 3369 0e90 00       		.sleb128 0
 3370 0e91 C80E0000 		.4byte	0xec8
 3371 0e95 1C       		.uleb128 0x1c
 3372 0e96 697000   		.ascii	"ip\000"
 3373 0e99 01       		.byte	0x1
 3374 0e9a 6C       		.byte	0x6c
 3375 0e9b A7020000 		.4byte	0x2a7
 3376 0e9f 45010000 		.4byte	.LLST12
 3377 0ea3 23       		.uleb128 0x23
 3378 0ea4 627000   		.ascii	"bp\000"
 3379 0ea7 01       		.byte	0x1
 3380 0ea8 6C       		.byte	0x6c
 3381 0ea9 0F050000 		.4byte	0x50f
 3382 0ead 01       		.byte	0x1
 3383 0eae 51       		.byte	0x51
 3384 0eaf 23       		.uleb128 0x23
 3385 0eb0 6E00     		.ascii	"n\000"
 3386 0eb2 01       		.byte	0x1
 3387 0eb3 6C       		.byte	0x6c
 3388 0eb4 30000000 		.4byte	0x30
 3389 0eb8 01       		.byte	0x1
 3390 0eb9 52       		.byte	0x52
 3391 0eba 24       		.uleb128 0x24
 3392 0ebb CC040000 		.4byte	.LASF175
 3393 0ebf 01       		.byte	0x1
 3394 0ec0 6C       		.byte	0x6c
 3395 0ec1 09010000 		.4byte	0x109
 3396 0ec5 01       		.byte	0x1
 3397 0ec6 53       		.byte	0x53
 3398 0ec7 00       		.byte	0x0
 3399 0ec8 1B       		.uleb128 0x1b
 3400 0ec9 C1000000 		.4byte	.LASF176
 3401 0ecd 01       		.byte	0x1
 3402 0ece 4D       		.byte	0x4d
 3403 0ecf 01       		.byte	0x1
 3404 0ed0 30000000 		.4byte	0x30
 3405 0ed4 00000000 		.4byte	.LFB56
ARM GAS  /tmp/cchua6zK.s 			page 61


 3406 0ed8 0A000000 		.4byte	.LFE56
 3407 0edc 02       		.byte	0x2
 3408 0edd 7D       		.byte	0x7d
 3409 0ede 00       		.sleb128 0
 3410 0edf 090F0000 		.4byte	0xf09
 3411 0ee3 1C       		.uleb128 0x1c
 3412 0ee4 697000   		.ascii	"ip\000"
 3413 0ee7 01       		.byte	0x1
 3414 0ee8 4D       		.byte	0x4d
 3415 0ee9 A7020000 		.4byte	0x2a7
 3416 0eed 65010000 		.4byte	.LLST13
 3417 0ef1 23       		.uleb128 0x23
 3418 0ef2 627000   		.ascii	"bp\000"
 3419 0ef5 01       		.byte	0x1
 3420 0ef6 4D       		.byte	0x4d
 3421 0ef7 0F050000 		.4byte	0x50f
 3422 0efb 01       		.byte	0x1
 3423 0efc 51       		.byte	0x51
 3424 0efd 23       		.uleb128 0x23
 3425 0efe 6E00     		.ascii	"n\000"
 3426 0f00 01       		.byte	0x1
 3427 0f01 4D       		.byte	0x4d
 3428 0f02 30000000 		.4byte	0x30
 3429 0f06 01       		.byte	0x1
 3430 0f07 52       		.byte	0x52
 3431 0f08 00       		.byte	0x0
 3432 0f09 1B       		.uleb128 0x1b
 3433 0f0a 7F030000 		.4byte	.LASF82
 3434 0f0e 01       		.byte	0x1
 3435 0f0f 67       		.byte	0x67
 3436 0f10 01       		.byte	0x1
 3437 0f11 30000000 		.4byte	0x30
 3438 0f15 00000000 		.4byte	.LFB61
 3439 0f19 06000000 		.4byte	.LFE61
 3440 0f1d 02       		.byte	0x2
 3441 0f1e 7D       		.byte	0x7d
 3442 0f1f 00       		.sleb128 0
 3443 0f20 570F0000 		.4byte	0xf57
 3444 0f24 1C       		.uleb128 0x1c
 3445 0f25 697000   		.ascii	"ip\000"
 3446 0f28 01       		.byte	0x1
 3447 0f29 67       		.byte	0x67
 3448 0f2a A7020000 		.4byte	0x2a7
 3449 0f2e 85010000 		.4byte	.LLST14
 3450 0f32 23       		.uleb128 0x23
 3451 0f33 627000   		.ascii	"bp\000"
 3452 0f36 01       		.byte	0x1
 3453 0f37 67       		.byte	0x67
 3454 0f38 45050000 		.4byte	0x545
 3455 0f3c 01       		.byte	0x1
 3456 0f3d 51       		.byte	0x51
 3457 0f3e 23       		.uleb128 0x23
 3458 0f3f 6E00     		.ascii	"n\000"
 3459 0f41 01       		.byte	0x1
 3460 0f42 67       		.byte	0x67
 3461 0f43 30000000 		.4byte	0x30
 3462 0f47 01       		.byte	0x1
ARM GAS  /tmp/cchua6zK.s 			page 62


 3463 0f48 52       		.byte	0x52
 3464 0f49 24       		.uleb128 0x24
 3465 0f4a CC040000 		.4byte	.LASF175
 3466 0f4e 01       		.byte	0x1
 3467 0f4f 67       		.byte	0x67
 3468 0f50 09010000 		.4byte	0x109
 3469 0f54 01       		.byte	0x1
 3470 0f55 53       		.byte	0x53
 3471 0f56 00       		.byte	0x0
 3472 0f57 1B       		.uleb128 0x1b
 3473 0f58 78030000 		.4byte	.LASF177
 3474 0f5c 01       		.byte	0x1
 3475 0f5d 47       		.byte	0x47
 3476 0f5e 01       		.byte	0x1
 3477 0f5f 30000000 		.4byte	0x30
 3478 0f63 00000000 		.4byte	.LFB55
 3479 0f67 0A000000 		.4byte	.LFE55
 3480 0f6b 02       		.byte	0x2
 3481 0f6c 7D       		.byte	0x7d
 3482 0f6d 00       		.sleb128 0
 3483 0f6e 980F0000 		.4byte	0xf98
 3484 0f72 1C       		.uleb128 0x1c
 3485 0f73 697000   		.ascii	"ip\000"
 3486 0f76 01       		.byte	0x1
 3487 0f77 47       		.byte	0x47
 3488 0f78 A7020000 		.4byte	0x2a7
 3489 0f7c A5010000 		.4byte	.LLST15
 3490 0f80 23       		.uleb128 0x23
 3491 0f81 627000   		.ascii	"bp\000"
 3492 0f84 01       		.byte	0x1
 3493 0f85 47       		.byte	0x47
 3494 0f86 45050000 		.4byte	0x545
 3495 0f8a 01       		.byte	0x1
 3496 0f8b 51       		.byte	0x51
 3497 0f8c 23       		.uleb128 0x23
 3498 0f8d 6E00     		.ascii	"n\000"
 3499 0f8f 01       		.byte	0x1
 3500 0f90 47       		.byte	0x47
 3501 0f91 30000000 		.4byte	0x30
 3502 0f95 01       		.byte	0x1
 3503 0f96 52       		.byte	0x52
 3504 0f97 00       		.byte	0x0
 3505 0f98 1B       		.uleb128 0x1b
 3506 0f99 DE020000 		.4byte	.LASF178
 3507 0f9d 01       		.byte	0x1
 3508 0f9e 62       		.byte	0x62
 3509 0f9f 01       		.byte	0x1
 3510 0fa0 F3000000 		.4byte	0xf3
 3511 0fa4 00000000 		.4byte	.LFB60
 3512 0fa8 06000000 		.4byte	.LFE60
 3513 0fac 02       		.byte	0x2
 3514 0fad 7D       		.byte	0x7d
 3515 0fae 00       		.sleb128 0
 3516 0faf CF0F0000 		.4byte	0xfcf
 3517 0fb3 1C       		.uleb128 0x1c
 3518 0fb4 697000   		.ascii	"ip\000"
 3519 0fb7 01       		.byte	0x1
ARM GAS  /tmp/cchua6zK.s 			page 63


 3520 0fb8 62       		.byte	0x62
 3521 0fb9 A7020000 		.4byte	0x2a7
 3522 0fbd C5010000 		.4byte	.LLST16
 3523 0fc1 24       		.uleb128 0x24
 3524 0fc2 D6020000 		.4byte	.LASF179
 3525 0fc6 01       		.byte	0x1
 3526 0fc7 62       		.byte	0x62
 3527 0fc8 09010000 		.4byte	0x109
 3528 0fcc 01       		.byte	0x1
 3529 0fcd 51       		.byte	0x51
 3530 0fce 00       		.byte	0x0
 3531 0fcf 1B       		.uleb128 0x1b
 3532 0fd0 0C040000 		.4byte	.LASF180
 3533 0fd4 01       		.byte	0x1
 3534 0fd5 5D       		.byte	0x5d
 3535 0fd6 01       		.byte	0x1
 3536 0fd7 F3000000 		.4byte	0xf3
 3537 0fdb 00000000 		.4byte	.LFB59
 3538 0fdf 06000000 		.4byte	.LFE59
 3539 0fe3 02       		.byte	0x2
 3540 0fe4 7D       		.byte	0x7d
 3541 0fe5 00       		.sleb128 0
 3542 0fe6 11100000 		.4byte	0x1011
 3543 0fea 1C       		.uleb128 0x1c
 3544 0feb 697000   		.ascii	"ip\000"
 3545 0fee 01       		.byte	0x1
 3546 0fef 5D       		.byte	0x5d
 3547 0ff0 A7020000 		.4byte	0x2a7
 3548 0ff4 E5010000 		.4byte	.LLST17
 3549 0ff8 23       		.uleb128 0x23
 3550 0ff9 6200     		.ascii	"b\000"
 3551 0ffb 01       		.byte	0x1
 3552 0ffc 5D       		.byte	0x5d
 3553 0ffd 49000000 		.4byte	0x49
 3554 1001 01       		.byte	0x1
 3555 1002 51       		.byte	0x51
 3556 1003 24       		.uleb128 0x24
 3557 1004 D6020000 		.4byte	.LASF179
 3558 1008 01       		.byte	0x1
 3559 1009 5D       		.byte	0x5d
 3560 100a 09010000 		.4byte	0x109
 3561 100e 01       		.byte	0x1
 3562 100f 52       		.byte	0x52
 3563 1010 00       		.byte	0x0
 3564 1011 25       		.uleb128 0x25
 3565 1012 01       		.byte	0x1
 3566 1013 62050000 		.4byte	.LASF192
 3567 1017 01       		.byte	0x1
 3568 1018 BD       		.byte	0xbd
 3569 1019 01       		.byte	0x1
 3570 101a 00000000 		.4byte	.LFB66
 3571 101e 02000000 		.4byte	.LFE66
 3572 1022 02       		.byte	0x2
 3573 1023 7D       		.byte	0x7d
 3574 1024 00       		.sleb128 0
 3575 1025 26       		.uleb128 0x26
 3576 1026 01       		.byte	0x1
ARM GAS  /tmp/cchua6zK.s 			page 64


 3577 1027 FE030000 		.4byte	.LASF181
 3578 102b 01       		.byte	0x1
 3579 102c C9       		.byte	0xc9
 3580 102d 01       		.byte	0x1
 3581 102e 00000000 		.4byte	.LFB67
 3582 1032 48000000 		.4byte	.LFE67
 3583 1036 05020000 		.4byte	.LLST18
 3584 103a 4E100000 		.4byte	0x104e
 3585 103e 27       		.uleb128 0x27
 3586 103f F6020000 		.4byte	.LASF172
 3587 1043 01       		.byte	0x1
 3588 1044 C9       		.byte	0xc9
 3589 1045 270E0000 		.4byte	0xe27
 3590 1049 25020000 		.4byte	.LLST19
 3591 104d 00       		.byte	0x0
 3592 104e 26       		.uleb128 0x26
 3593 104f 01       		.byte	0x1
 3594 1050 42000000 		.4byte	.LASF182
 3595 1054 01       		.byte	0x1
 3596 1055 DF       		.byte	0xdf
 3597 1056 01       		.byte	0x1
 3598 1057 00000000 		.4byte	.LFB68
 3599 105b 54000000 		.4byte	.LFE68
 3600 105f 43020000 		.4byte	.LLST20
 3601 1063 86100000 		.4byte	0x1086
 3602 1067 27       		.uleb128 0x27
 3603 1068 F6020000 		.4byte	.LASF172
 3604 106c 01       		.byte	0x1
 3605 106d DF       		.byte	0xdf
 3606 106e 270E0000 		.4byte	0xe27
 3607 1072 63020000 		.4byte	.LLST21
 3608 1076 27       		.uleb128 0x27
 3609 1077 83060000 		.4byte	.LASF90
 3610 107b 01       		.byte	0x1
 3611 107c DF       		.byte	0xdf
 3612 107d E90C0000 		.4byte	0xce9
 3613 1081 81020000 		.4byte	.LLST22
 3614 1085 00       		.byte	0x0
 3615 1086 26       		.uleb128 0x26
 3616 1087 01       		.byte	0x1
 3617 1088 C6010000 		.4byte	.LASF183
 3618 108c 01       		.byte	0x1
 3619 108d F7       		.byte	0xf7
 3620 108e 01       		.byte	0x1
 3621 108f 00000000 		.4byte	.LFB69
 3622 1093 48000000 		.4byte	.LFE69
 3623 1097 9F020000 		.4byte	.LLST23
 3624 109b AF100000 		.4byte	0x10af
 3625 109f 27       		.uleb128 0x27
 3626 10a0 F6020000 		.4byte	.LASF172
 3627 10a4 01       		.byte	0x1
 3628 10a5 F7       		.byte	0xf7
 3629 10a6 270E0000 		.4byte	0xe27
 3630 10aa BF020000 		.4byte	.LLST24
 3631 10ae 00       		.byte	0x0
 3632 10af 28       		.uleb128 0x28
 3633 10b0 01       		.byte	0x1
ARM GAS  /tmp/cchua6zK.s 			page 65


 3634 10b1 4A070000 		.4byte	.LASF193
 3635 10b5 01       		.byte	0x1
 3636 10b6 1301     		.2byte	0x113
 3637 10b8 01       		.byte	0x1
 3638 10b9 BC000000 		.4byte	0xbc
 3639 10bd 00000000 		.4byte	.LFB70
 3640 10c1 50000000 		.4byte	.LFE70
 3641 10c5 02       		.byte	0x2
 3642 10c6 7D       		.byte	0x7d
 3643 10c7 00       		.sleb128 0
 3644 10c8 DD100000 		.4byte	0x10dd
 3645 10cc 29       		.uleb128 0x29
 3646 10cd 8B010000 		.4byte	.LASF162
 3647 10d1 01       		.byte	0x1
 3648 10d2 1301     		.2byte	0x113
 3649 10d4 11090000 		.4byte	0x911
 3650 10d8 DD020000 		.4byte	.LLST25
 3651 10dc 00       		.byte	0x0
 3652 10dd 2A       		.uleb128 0x2a
 3653 10de 01       		.byte	0x1
 3654 10df 58040000 		.4byte	.LASF184
 3655 10e3 01       		.byte	0x1
 3656 10e4 3001     		.2byte	0x130
 3657 10e6 01       		.byte	0x1
 3658 10e7 00000000 		.4byte	.LFB71
 3659 10eb 7C000000 		.4byte	.LFE71
 3660 10ef 06030000 		.4byte	.LLST26
 3661 10f3 35110000 		.4byte	0x1135
 3662 10f7 29       		.uleb128 0x29
 3663 10f8 8B010000 		.4byte	.LASF162
 3664 10fc 01       		.byte	0x1
 3665 10fd 3001     		.2byte	0x130
 3666 10ff 11090000 		.4byte	0x911
 3667 1103 26030000 		.4byte	.LLST27
 3668 1107 2B       		.uleb128 0x2b
 3669 1108 657000   		.ascii	"ep\000"
 3670 110b 01       		.byte	0x1
 3671 110c 3001     		.2byte	0x130
 3672 110e 11080000 		.4byte	0x811
 3673 1112 44030000 		.4byte	.LLST28
 3674 1116 2C       		.uleb128 0x2c
 3675 1117 F6020000 		.4byte	.LASF172
 3676 111b 01       		.byte	0x1
 3677 111c 3101     		.2byte	0x131
 3678 111e 270E0000 		.4byte	0xe27
 3679 1122 57030000 		.4byte	.LLST29
 3680 1126 2D       		.uleb128 0x2d
 3681 1127 6E00     		.ascii	"n\000"
 3682 1129 01       		.byte	0x1
 3683 112a 3201     		.2byte	0x132
 3684 112c 30000000 		.4byte	0x30
 3685 1130 76030000 		.4byte	.LLST30
 3686 1134 00       		.byte	0x0
 3687 1135 2A       		.uleb128 0x2a
 3688 1136 01       		.byte	0x1
 3689 1137 19000000 		.4byte	.LASF185
 3690 113b 01       		.byte	0x1
ARM GAS  /tmp/cchua6zK.s 			page 66


 3691 113c 5301     		.2byte	0x153
 3692 113e 01       		.byte	0x1
 3693 113f 00000000 		.4byte	.LFB72
 3694 1143 78000000 		.4byte	.LFE72
 3695 1147 9A030000 		.4byte	.LLST31
 3696 114b 97110000 		.4byte	0x1197
 3697 114f 29       		.uleb128 0x29
 3698 1150 8B010000 		.4byte	.LASF162
 3699 1154 01       		.byte	0x1
 3700 1155 5301     		.2byte	0x153
 3701 1157 11090000 		.4byte	0x911
 3702 115b BA030000 		.4byte	.LLST32
 3703 115f 2B       		.uleb128 0x2b
 3704 1160 657000   		.ascii	"ep\000"
 3705 1163 01       		.byte	0x1
 3706 1164 5301     		.2byte	0x153
 3707 1166 11080000 		.4byte	0x811
 3708 116a D8030000 		.4byte	.LLST33
 3709 116e 2C       		.uleb128 0x2c
 3710 116f F6020000 		.4byte	.LASF172
 3711 1173 01       		.byte	0x1
 3712 1174 5401     		.2byte	0x154
 3713 1176 270E0000 		.4byte	0xe27
 3714 117a EB030000 		.4byte	.LLST34
 3715 117e 21       		.uleb128 0x21
 3716 117f 16000000 		.4byte	.LBB3
 3717 1183 6C000000 		.4byte	.LBE3
 3718 1187 2D       		.uleb128 0x2d
 3719 1188 6E00     		.ascii	"n\000"
 3720 118a 01       		.byte	0x1
 3721 118b 5C01     		.2byte	0x15c
 3722 118d 30000000 		.4byte	0x30
 3723 1191 0A040000 		.4byte	.LLST35
 3724 1195 00       		.byte	0x0
 3725 1196 00       		.byte	0x0
 3726 1197 2E       		.uleb128 0x2e
 3727 1198 01       		.byte	0x1
 3728 1199 41020000 		.4byte	.LASF186
 3729 119d 01       		.byte	0x1
 3730 119e 7701     		.2byte	0x177
 3731 11a0 01       		.byte	0x1
 3732 11a1 00000000 		.4byte	.LFB73
 3733 11a5 02000000 		.4byte	.LFE73
 3734 11a9 02       		.byte	0x2
 3735 11aa 7D       		.byte	0x7d
 3736 11ab 00       		.sleb128 0
 3737 11ac CC110000 		.4byte	0x11cc
 3738 11b0 2F       		.uleb128 0x2f
 3739 11b1 8B010000 		.4byte	.LASF162
 3740 11b5 01       		.byte	0x1
 3741 11b6 7701     		.2byte	0x177
 3742 11b8 11090000 		.4byte	0x911
 3743 11bc 01       		.byte	0x1
 3744 11bd 50       		.byte	0x50
 3745 11be 30       		.uleb128 0x30
 3746 11bf 657000   		.ascii	"ep\000"
 3747 11c2 01       		.byte	0x1
ARM GAS  /tmp/cchua6zK.s 			page 67


 3748 11c3 7701     		.2byte	0x177
 3749 11c5 11080000 		.4byte	0x811
 3750 11c9 01       		.byte	0x1
 3751 11ca 51       		.byte	0x51
 3752 11cb 00       		.byte	0x0
 3753 11cc 31       		.uleb128 0x31
 3754 11cd 74050000 		.4byte	.LASF188
 3755 11d1 10       		.byte	0x10
 3756 11d2 9404     		.2byte	0x494
 3757 11d4 16070000 		.4byte	0x716
 3758 11d8 01       		.byte	0x1
 3759 11d9 01       		.byte	0x1
 3760 11da 32       		.uleb128 0x32
 3761 11db 56010000 		.4byte	.LASF187
 3762 11df 01       		.byte	0x1
 3763 11e0 3A       		.byte	0x3a
 3764 11e1 450D0000 		.4byte	0xd45
 3765 11e5 05       		.byte	0x5
 3766 11e6 03       		.byte	0x3
 3767 11e7 00000000 		.4byte	linecoding
 3768 11eb 20       		.uleb128 0x20
 3769 11ec 766D7400 		.ascii	"vmt\000"
 3770 11f0 01       		.byte	0x1
 3771 11f1 75       		.byte	0x75
 3772 11f2 D40C0000 		.4byte	0xcd4
 3773 11f6 05       		.byte	0x5
 3774 11f7 03       		.byte	0x3
 3775 11f8 00000000 		.4byte	vmt
 3776 11fc 31       		.uleb128 0x31
 3777 11fd 74050000 		.4byte	.LASF188
 3778 1201 10       		.byte	0x10
 3779 1202 9404     		.2byte	0x494
 3780 1204 16070000 		.4byte	0x716
 3781 1208 01       		.byte	0x1
 3782 1209 01       		.byte	0x1
 3783 120a 00       		.byte	0x0
 3784              		.section	.debug_abbrev
 3785 0000 01       		.uleb128 0x1
 3786 0001 11       		.uleb128 0x11
 3787 0002 01       		.byte	0x1
 3788 0003 25       		.uleb128 0x25
 3789 0004 0E       		.uleb128 0xe
 3790 0005 13       		.uleb128 0x13
 3791 0006 0B       		.uleb128 0xb
 3792 0007 03       		.uleb128 0x3
 3793 0008 0E       		.uleb128 0xe
 3794 0009 1B       		.uleb128 0x1b
 3795 000a 0E       		.uleb128 0xe
 3796 000b 11       		.uleb128 0x11
 3797 000c 01       		.uleb128 0x1
 3798 000d 52       		.uleb128 0x52
 3799 000e 01       		.uleb128 0x1
 3800 000f 55       		.uleb128 0x55
 3801 0010 06       		.uleb128 0x6
 3802 0011 10       		.uleb128 0x10
 3803 0012 06       		.uleb128 0x6
 3804 0013 00       		.byte	0x0
ARM GAS  /tmp/cchua6zK.s 			page 68


 3805 0014 00       		.byte	0x0
 3806 0015 02       		.uleb128 0x2
 3807 0016 24       		.uleb128 0x24
 3808 0017 00       		.byte	0x0
 3809 0018 0B       		.uleb128 0xb
 3810 0019 0B       		.uleb128 0xb
 3811 001a 3E       		.uleb128 0x3e
 3812 001b 0B       		.uleb128 0xb
 3813 001c 03       		.uleb128 0x3
 3814 001d 08       		.uleb128 0x8
 3815 001e 00       		.byte	0x0
 3816 001f 00       		.byte	0x0
 3817 0020 03       		.uleb128 0x3
 3818 0021 16       		.uleb128 0x16
 3819 0022 00       		.byte	0x0
 3820 0023 03       		.uleb128 0x3
 3821 0024 0E       		.uleb128 0xe
 3822 0025 3A       		.uleb128 0x3a
 3823 0026 0B       		.uleb128 0xb
 3824 0027 3B       		.uleb128 0x3b
 3825 0028 0B       		.uleb128 0xb
 3826 0029 49       		.uleb128 0x49
 3827 002a 13       		.uleb128 0x13
 3828 002b 00       		.byte	0x0
 3829 002c 00       		.byte	0x0
 3830 002d 04       		.uleb128 0x4
 3831 002e 24       		.uleb128 0x24
 3832 002f 00       		.byte	0x0
 3833 0030 0B       		.uleb128 0xb
 3834 0031 0B       		.uleb128 0xb
 3835 0032 3E       		.uleb128 0x3e
 3836 0033 0B       		.uleb128 0xb
 3837 0034 03       		.uleb128 0x3
 3838 0035 0E       		.uleb128 0xe
 3839 0036 00       		.byte	0x0
 3840 0037 00       		.byte	0x0
 3841 0038 05       		.uleb128 0x5
 3842 0039 13       		.uleb128 0x13
 3843 003a 01       		.byte	0x1
 3844 003b 03       		.uleb128 0x3
 3845 003c 0E       		.uleb128 0xe
 3846 003d 0B       		.uleb128 0xb
 3847 003e 0B       		.uleb128 0xb
 3848 003f 3A       		.uleb128 0x3a
 3849 0040 0B       		.uleb128 0xb
 3850 0041 3B       		.uleb128 0x3b
 3851 0042 0B       		.uleb128 0xb
 3852 0043 01       		.uleb128 0x1
 3853 0044 13       		.uleb128 0x13
 3854 0045 00       		.byte	0x0
 3855 0046 00       		.byte	0x0
 3856 0047 06       		.uleb128 0x6
 3857 0048 0D       		.uleb128 0xd
 3858 0049 00       		.byte	0x0
 3859 004a 03       		.uleb128 0x3
 3860 004b 0E       		.uleb128 0xe
 3861 004c 3A       		.uleb128 0x3a
ARM GAS  /tmp/cchua6zK.s 			page 69


 3862 004d 0B       		.uleb128 0xb
 3863 004e 3B       		.uleb128 0x3b
 3864 004f 0B       		.uleb128 0xb
 3865 0050 49       		.uleb128 0x49
 3866 0051 13       		.uleb128 0x13
 3867 0052 38       		.uleb128 0x38
 3868 0053 0A       		.uleb128 0xa
 3869 0054 00       		.byte	0x0
 3870 0055 00       		.byte	0x0
 3871 0056 07       		.uleb128 0x7
 3872 0057 0D       		.uleb128 0xd
 3873 0058 00       		.byte	0x0
 3874 0059 03       		.uleb128 0x3
 3875 005a 08       		.uleb128 0x8
 3876 005b 3A       		.uleb128 0x3a
 3877 005c 0B       		.uleb128 0xb
 3878 005d 3B       		.uleb128 0x3b
 3879 005e 0B       		.uleb128 0xb
 3880 005f 49       		.uleb128 0x49
 3881 0060 13       		.uleb128 0x13
 3882 0061 38       		.uleb128 0x38
 3883 0062 0A       		.uleb128 0xa
 3884 0063 00       		.byte	0x0
 3885 0064 00       		.byte	0x0
 3886 0065 08       		.uleb128 0x8
 3887 0066 13       		.uleb128 0x13
 3888 0067 01       		.byte	0x1
 3889 0068 0B       		.uleb128 0xb
 3890 0069 0B       		.uleb128 0xb
 3891 006a 3A       		.uleb128 0x3a
 3892 006b 0B       		.uleb128 0xb
 3893 006c 3B       		.uleb128 0x3b
 3894 006d 0B       		.uleb128 0xb
 3895 006e 01       		.uleb128 0x1
 3896 006f 13       		.uleb128 0x13
 3897 0070 00       		.byte	0x0
 3898 0071 00       		.byte	0x0
 3899 0072 09       		.uleb128 0x9
 3900 0073 0F       		.uleb128 0xf
 3901 0074 00       		.byte	0x0
 3902 0075 0B       		.uleb128 0xb
 3903 0076 0B       		.uleb128 0xb
 3904 0077 49       		.uleb128 0x49
 3905 0078 13       		.uleb128 0x13
 3906 0079 00       		.byte	0x0
 3907 007a 00       		.byte	0x0
 3908 007b 0A       		.uleb128 0xa
 3909 007c 0F       		.uleb128 0xf
 3910 007d 00       		.byte	0x0
 3911 007e 0B       		.uleb128 0xb
 3912 007f 0B       		.uleb128 0xb
 3913 0080 00       		.byte	0x0
 3914 0081 00       		.byte	0x0
 3915 0082 0B       		.uleb128 0xb
 3916 0083 0D       		.uleb128 0xd
 3917 0084 00       		.byte	0x0
 3918 0085 03       		.uleb128 0x3
ARM GAS  /tmp/cchua6zK.s 			page 70


 3919 0086 08       		.uleb128 0x8
 3920 0087 3A       		.uleb128 0x3a
 3921 0088 0B       		.uleb128 0xb
 3922 0089 3B       		.uleb128 0x3b
 3923 008a 05       		.uleb128 0x5
 3924 008b 49       		.uleb128 0x49
 3925 008c 13       		.uleb128 0x13
 3926 008d 38       		.uleb128 0x38
 3927 008e 0A       		.uleb128 0xa
 3928 008f 00       		.byte	0x0
 3929 0090 00       		.byte	0x0
 3930 0091 0C       		.uleb128 0xc
 3931 0092 13       		.uleb128 0x13
 3932 0093 01       		.byte	0x1
 3933 0094 03       		.uleb128 0x3
 3934 0095 0E       		.uleb128 0xe
 3935 0096 0B       		.uleb128 0xb
 3936 0097 0B       		.uleb128 0xb
 3937 0098 3A       		.uleb128 0x3a
 3938 0099 0B       		.uleb128 0xb
 3939 009a 3B       		.uleb128 0x3b
 3940 009b 05       		.uleb128 0x5
 3941 009c 01       		.uleb128 0x1
 3942 009d 13       		.uleb128 0x13
 3943 009e 00       		.byte	0x0
 3944 009f 00       		.byte	0x0
 3945 00a0 0D       		.uleb128 0xd
 3946 00a1 35       		.uleb128 0x35
 3947 00a2 00       		.byte	0x0
 3948 00a3 49       		.uleb128 0x49
 3949 00a4 13       		.uleb128 0x13
 3950 00a5 00       		.byte	0x0
 3951 00a6 00       		.byte	0x0
 3952 00a7 0E       		.uleb128 0xe
 3953 00a8 17       		.uleb128 0x17
 3954 00a9 01       		.byte	0x1
 3955 00aa 0B       		.uleb128 0xb
 3956 00ab 0B       		.uleb128 0xb
 3957 00ac 3A       		.uleb128 0x3a
 3958 00ad 0B       		.uleb128 0xb
 3959 00ae 3B       		.uleb128 0x3b
 3960 00af 0B       		.uleb128 0xb
 3961 00b0 01       		.uleb128 0x1
 3962 00b1 13       		.uleb128 0x13
 3963 00b2 00       		.byte	0x0
 3964 00b3 00       		.byte	0x0
 3965 00b4 0F       		.uleb128 0xf
 3966 00b5 0D       		.uleb128 0xd
 3967 00b6 00       		.byte	0x0
 3968 00b7 03       		.uleb128 0x3
 3969 00b8 0E       		.uleb128 0xe
 3970 00b9 3A       		.uleb128 0x3a
 3971 00ba 0B       		.uleb128 0xb
 3972 00bb 3B       		.uleb128 0x3b
 3973 00bc 0B       		.uleb128 0xb
 3974 00bd 49       		.uleb128 0x49
 3975 00be 13       		.uleb128 0x13
ARM GAS  /tmp/cchua6zK.s 			page 71


 3976 00bf 00       		.byte	0x0
 3977 00c0 00       		.byte	0x0
 3978 00c1 10       		.uleb128 0x10
 3979 00c2 26       		.uleb128 0x26
 3980 00c3 00       		.byte	0x0
 3981 00c4 49       		.uleb128 0x49
 3982 00c5 13       		.uleb128 0x13
 3983 00c6 00       		.byte	0x0
 3984 00c7 00       		.byte	0x0
 3985 00c8 11       		.uleb128 0x11
 3986 00c9 15       		.uleb128 0x15
 3987 00ca 01       		.byte	0x1
 3988 00cb 27       		.uleb128 0x27
 3989 00cc 0C       		.uleb128 0xc
 3990 00cd 01       		.uleb128 0x1
 3991 00ce 13       		.uleb128 0x13
 3992 00cf 00       		.byte	0x0
 3993 00d0 00       		.byte	0x0
 3994 00d1 12       		.uleb128 0x12
 3995 00d2 05       		.uleb128 0x5
 3996 00d3 00       		.byte	0x0
 3997 00d4 49       		.uleb128 0x49
 3998 00d5 13       		.uleb128 0x13
 3999 00d6 00       		.byte	0x0
 4000 00d7 00       		.byte	0x0
 4001 00d8 13       		.uleb128 0x13
 4002 00d9 15       		.uleb128 0x15
 4003 00da 01       		.byte	0x1
 4004 00db 27       		.uleb128 0x27
 4005 00dc 0C       		.uleb128 0xc
 4006 00dd 49       		.uleb128 0x49
 4007 00de 13       		.uleb128 0x13
 4008 00df 01       		.uleb128 0x1
 4009 00e0 13       		.uleb128 0x13
 4010 00e1 00       		.byte	0x0
 4011 00e2 00       		.byte	0x0
 4012 00e3 14       		.uleb128 0x14
 4013 00e4 16       		.uleb128 0x16
 4014 00e5 00       		.byte	0x0
 4015 00e6 03       		.uleb128 0x3
 4016 00e7 0E       		.uleb128 0xe
 4017 00e8 3A       		.uleb128 0x3a
 4018 00e9 0B       		.uleb128 0xb
 4019 00ea 3B       		.uleb128 0x3b
 4020 00eb 05       		.uleb128 0x5
 4021 00ec 49       		.uleb128 0x49
 4022 00ed 13       		.uleb128 0x13
 4023 00ee 00       		.byte	0x0
 4024 00ef 00       		.byte	0x0
 4025 00f0 15       		.uleb128 0x15
 4026 00f1 0D       		.uleb128 0xd
 4027 00f2 00       		.byte	0x0
 4028 00f3 03       		.uleb128 0x3
 4029 00f4 0E       		.uleb128 0xe
 4030 00f5 3A       		.uleb128 0x3a
 4031 00f6 0B       		.uleb128 0xb
 4032 00f7 3B       		.uleb128 0x3b
ARM GAS  /tmp/cchua6zK.s 			page 72


 4033 00f8 05       		.uleb128 0x5
 4034 00f9 49       		.uleb128 0x49
 4035 00fa 13       		.uleb128 0x13
 4036 00fb 38       		.uleb128 0x38
 4037 00fc 0A       		.uleb128 0xa
 4038 00fd 00       		.byte	0x0
 4039 00fe 00       		.byte	0x0
 4040 00ff 16       		.uleb128 0x16
 4041 0100 13       		.uleb128 0x13
 4042 0101 01       		.byte	0x1
 4043 0102 0B       		.uleb128 0xb
 4044 0103 0B       		.uleb128 0xb
 4045 0104 3A       		.uleb128 0x3a
 4046 0105 0B       		.uleb128 0xb
 4047 0106 3B       		.uleb128 0x3b
 4048 0107 05       		.uleb128 0x5
 4049 0108 01       		.uleb128 0x1
 4050 0109 13       		.uleb128 0x13
 4051 010a 00       		.byte	0x0
 4052 010b 00       		.byte	0x0
 4053 010c 17       		.uleb128 0x17
 4054 010d 04       		.uleb128 0x4
 4055 010e 01       		.byte	0x1
 4056 010f 0B       		.uleb128 0xb
 4057 0110 0B       		.uleb128 0xb
 4058 0111 3A       		.uleb128 0x3a
 4059 0112 0B       		.uleb128 0xb
 4060 0113 3B       		.uleb128 0x3b
 4061 0114 0B       		.uleb128 0xb
 4062 0115 01       		.uleb128 0x1
 4063 0116 13       		.uleb128 0x13
 4064 0117 00       		.byte	0x0
 4065 0118 00       		.byte	0x0
 4066 0119 18       		.uleb128 0x18
 4067 011a 28       		.uleb128 0x28
 4068 011b 00       		.byte	0x0
 4069 011c 03       		.uleb128 0x3
 4070 011d 0E       		.uleb128 0xe
 4071 011e 1C       		.uleb128 0x1c
 4072 011f 0D       		.uleb128 0xd
 4073 0120 00       		.byte	0x0
 4074 0121 00       		.byte	0x0
 4075 0122 19       		.uleb128 0x19
 4076 0123 01       		.uleb128 0x1
 4077 0124 01       		.byte	0x1
 4078 0125 49       		.uleb128 0x49
 4079 0126 13       		.uleb128 0x13
 4080 0127 01       		.uleb128 0x1
 4081 0128 13       		.uleb128 0x13
 4082 0129 00       		.byte	0x0
 4083 012a 00       		.byte	0x0
 4084 012b 1A       		.uleb128 0x1a
 4085 012c 21       		.uleb128 0x21
 4086 012d 00       		.byte	0x0
 4087 012e 49       		.uleb128 0x49
 4088 012f 13       		.uleb128 0x13
 4089 0130 2F       		.uleb128 0x2f
ARM GAS  /tmp/cchua6zK.s 			page 73


 4090 0131 0B       		.uleb128 0xb
 4091 0132 00       		.byte	0x0
 4092 0133 00       		.byte	0x0
 4093 0134 1B       		.uleb128 0x1b
 4094 0135 2E       		.uleb128 0x2e
 4095 0136 01       		.byte	0x1
 4096 0137 03       		.uleb128 0x3
 4097 0138 0E       		.uleb128 0xe
 4098 0139 3A       		.uleb128 0x3a
 4099 013a 0B       		.uleb128 0xb
 4100 013b 3B       		.uleb128 0x3b
 4101 013c 0B       		.uleb128 0xb
 4102 013d 27       		.uleb128 0x27
 4103 013e 0C       		.uleb128 0xc
 4104 013f 49       		.uleb128 0x49
 4105 0140 13       		.uleb128 0x13
 4106 0141 11       		.uleb128 0x11
 4107 0142 01       		.uleb128 0x1
 4108 0143 12       		.uleb128 0x12
 4109 0144 01       		.uleb128 0x1
 4110 0145 40       		.uleb128 0x40
 4111 0146 0A       		.uleb128 0xa
 4112 0147 01       		.uleb128 0x1
 4113 0148 13       		.uleb128 0x13
 4114 0149 00       		.byte	0x0
 4115 014a 00       		.byte	0x0
 4116 014b 1C       		.uleb128 0x1c
 4117 014c 05       		.uleb128 0x5
 4118 014d 00       		.byte	0x0
 4119 014e 03       		.uleb128 0x3
 4120 014f 08       		.uleb128 0x8
 4121 0150 3A       		.uleb128 0x3a
 4122 0151 0B       		.uleb128 0xb
 4123 0152 3B       		.uleb128 0x3b
 4124 0153 0B       		.uleb128 0xb
 4125 0154 49       		.uleb128 0x49
 4126 0155 13       		.uleb128 0x13
 4127 0156 02       		.uleb128 0x2
 4128 0157 06       		.uleb128 0x6
 4129 0158 00       		.byte	0x0
 4130 0159 00       		.byte	0x0
 4131 015a 1D       		.uleb128 0x1d
 4132 015b 2E       		.uleb128 0x2e
 4133 015c 01       		.byte	0x1
 4134 015d 03       		.uleb128 0x3
 4135 015e 0E       		.uleb128 0xe
 4136 015f 3A       		.uleb128 0x3a
 4137 0160 0B       		.uleb128 0xb
 4138 0161 3B       		.uleb128 0x3b
 4139 0162 0B       		.uleb128 0xb
 4140 0163 27       		.uleb128 0x27
 4141 0164 0C       		.uleb128 0xc
 4142 0165 49       		.uleb128 0x49
 4143 0166 13       		.uleb128 0x13
 4144 0167 11       		.uleb128 0x11
 4145 0168 01       		.uleb128 0x1
 4146 0169 12       		.uleb128 0x12
ARM GAS  /tmp/cchua6zK.s 			page 74


 4147 016a 01       		.uleb128 0x1
 4148 016b 40       		.uleb128 0x40
 4149 016c 06       		.uleb128 0x6
 4150 016d 01       		.uleb128 0x1
 4151 016e 13       		.uleb128 0x13
 4152 016f 00       		.byte	0x0
 4153 0170 00       		.byte	0x0
 4154 0171 1E       		.uleb128 0x1e
 4155 0172 34       		.uleb128 0x34
 4156 0173 00       		.byte	0x0
 4157 0174 03       		.uleb128 0x3
 4158 0175 0E       		.uleb128 0xe
 4159 0176 3A       		.uleb128 0x3a
 4160 0177 0B       		.uleb128 0xb
 4161 0178 3B       		.uleb128 0x3b
 4162 0179 0B       		.uleb128 0xb
 4163 017a 49       		.uleb128 0x49
 4164 017b 13       		.uleb128 0x13
 4165 017c 02       		.uleb128 0x2
 4166 017d 06       		.uleb128 0x6
 4167 017e 00       		.byte	0x0
 4168 017f 00       		.byte	0x0
 4169 0180 1F       		.uleb128 0x1f
 4170 0181 2E       		.uleb128 0x2e
 4171 0182 01       		.byte	0x1
 4172 0183 03       		.uleb128 0x3
 4173 0184 0E       		.uleb128 0xe
 4174 0185 3A       		.uleb128 0x3a
 4175 0186 0B       		.uleb128 0xb
 4176 0187 3B       		.uleb128 0x3b
 4177 0188 0B       		.uleb128 0xb
 4178 0189 27       		.uleb128 0x27
 4179 018a 0C       		.uleb128 0xc
 4180 018b 11       		.uleb128 0x11
 4181 018c 01       		.uleb128 0x1
 4182 018d 12       		.uleb128 0x12
 4183 018e 01       		.uleb128 0x1
 4184 018f 40       		.uleb128 0x40
 4185 0190 06       		.uleb128 0x6
 4186 0191 01       		.uleb128 0x1
 4187 0192 13       		.uleb128 0x13
 4188 0193 00       		.byte	0x0
 4189 0194 00       		.byte	0x0
 4190 0195 20       		.uleb128 0x20
 4191 0196 34       		.uleb128 0x34
 4192 0197 00       		.byte	0x0
 4193 0198 03       		.uleb128 0x3
 4194 0199 08       		.uleb128 0x8
 4195 019a 3A       		.uleb128 0x3a
 4196 019b 0B       		.uleb128 0xb
 4197 019c 3B       		.uleb128 0x3b
 4198 019d 0B       		.uleb128 0xb
 4199 019e 49       		.uleb128 0x49
 4200 019f 13       		.uleb128 0x13
 4201 01a0 02       		.uleb128 0x2
 4202 01a1 0A       		.uleb128 0xa
 4203 01a2 00       		.byte	0x0
ARM GAS  /tmp/cchua6zK.s 			page 75


 4204 01a3 00       		.byte	0x0
 4205 01a4 21       		.uleb128 0x21
 4206 01a5 0B       		.uleb128 0xb
 4207 01a6 01       		.byte	0x1
 4208 01a7 11       		.uleb128 0x11
 4209 01a8 01       		.uleb128 0x1
 4210 01a9 12       		.uleb128 0x12
 4211 01aa 01       		.uleb128 0x1
 4212 01ab 00       		.byte	0x0
 4213 01ac 00       		.byte	0x0
 4214 01ad 22       		.uleb128 0x22
 4215 01ae 34       		.uleb128 0x34
 4216 01af 00       		.byte	0x0
 4217 01b0 03       		.uleb128 0x3
 4218 01b1 08       		.uleb128 0x8
 4219 01b2 3A       		.uleb128 0x3a
 4220 01b3 0B       		.uleb128 0xb
 4221 01b4 3B       		.uleb128 0x3b
 4222 01b5 0B       		.uleb128 0xb
 4223 01b6 49       		.uleb128 0x49
 4224 01b7 13       		.uleb128 0x13
 4225 01b8 02       		.uleb128 0x2
 4226 01b9 06       		.uleb128 0x6
 4227 01ba 00       		.byte	0x0
 4228 01bb 00       		.byte	0x0
 4229 01bc 23       		.uleb128 0x23
 4230 01bd 05       		.uleb128 0x5
 4231 01be 00       		.byte	0x0
 4232 01bf 03       		.uleb128 0x3
 4233 01c0 08       		.uleb128 0x8
 4234 01c1 3A       		.uleb128 0x3a
 4235 01c2 0B       		.uleb128 0xb
 4236 01c3 3B       		.uleb128 0x3b
 4237 01c4 0B       		.uleb128 0xb
 4238 01c5 49       		.uleb128 0x49
 4239 01c6 13       		.uleb128 0x13
 4240 01c7 02       		.uleb128 0x2
 4241 01c8 0A       		.uleb128 0xa
 4242 01c9 00       		.byte	0x0
 4243 01ca 00       		.byte	0x0
 4244 01cb 24       		.uleb128 0x24
 4245 01cc 05       		.uleb128 0x5
 4246 01cd 00       		.byte	0x0
 4247 01ce 03       		.uleb128 0x3
 4248 01cf 0E       		.uleb128 0xe
 4249 01d0 3A       		.uleb128 0x3a
 4250 01d1 0B       		.uleb128 0xb
 4251 01d2 3B       		.uleb128 0x3b
 4252 01d3 0B       		.uleb128 0xb
 4253 01d4 49       		.uleb128 0x49
 4254 01d5 13       		.uleb128 0x13
 4255 01d6 02       		.uleb128 0x2
 4256 01d7 0A       		.uleb128 0xa
 4257 01d8 00       		.byte	0x0
 4258 01d9 00       		.byte	0x0
 4259 01da 25       		.uleb128 0x25
 4260 01db 2E       		.uleb128 0x2e
ARM GAS  /tmp/cchua6zK.s 			page 76


 4261 01dc 00       		.byte	0x0
 4262 01dd 3F       		.uleb128 0x3f
 4263 01de 0C       		.uleb128 0xc
 4264 01df 03       		.uleb128 0x3
 4265 01e0 0E       		.uleb128 0xe
 4266 01e1 3A       		.uleb128 0x3a
 4267 01e2 0B       		.uleb128 0xb
 4268 01e3 3B       		.uleb128 0x3b
 4269 01e4 0B       		.uleb128 0xb
 4270 01e5 27       		.uleb128 0x27
 4271 01e6 0C       		.uleb128 0xc
 4272 01e7 11       		.uleb128 0x11
 4273 01e8 01       		.uleb128 0x1
 4274 01e9 12       		.uleb128 0x12
 4275 01ea 01       		.uleb128 0x1
 4276 01eb 40       		.uleb128 0x40
 4277 01ec 0A       		.uleb128 0xa
 4278 01ed 00       		.byte	0x0
 4279 01ee 00       		.byte	0x0
 4280 01ef 26       		.uleb128 0x26
 4281 01f0 2E       		.uleb128 0x2e
 4282 01f1 01       		.byte	0x1
 4283 01f2 3F       		.uleb128 0x3f
 4284 01f3 0C       		.uleb128 0xc
 4285 01f4 03       		.uleb128 0x3
 4286 01f5 0E       		.uleb128 0xe
 4287 01f6 3A       		.uleb128 0x3a
 4288 01f7 0B       		.uleb128 0xb
 4289 01f8 3B       		.uleb128 0x3b
 4290 01f9 0B       		.uleb128 0xb
 4291 01fa 27       		.uleb128 0x27
 4292 01fb 0C       		.uleb128 0xc
 4293 01fc 11       		.uleb128 0x11
 4294 01fd 01       		.uleb128 0x1
 4295 01fe 12       		.uleb128 0x12
 4296 01ff 01       		.uleb128 0x1
 4297 0200 40       		.uleb128 0x40
 4298 0201 06       		.uleb128 0x6
 4299 0202 01       		.uleb128 0x1
 4300 0203 13       		.uleb128 0x13
 4301 0204 00       		.byte	0x0
 4302 0205 00       		.byte	0x0
 4303 0206 27       		.uleb128 0x27
 4304 0207 05       		.uleb128 0x5
 4305 0208 00       		.byte	0x0
 4306 0209 03       		.uleb128 0x3
 4307 020a 0E       		.uleb128 0xe
 4308 020b 3A       		.uleb128 0x3a
 4309 020c 0B       		.uleb128 0xb
 4310 020d 3B       		.uleb128 0x3b
 4311 020e 0B       		.uleb128 0xb
 4312 020f 49       		.uleb128 0x49
 4313 0210 13       		.uleb128 0x13
 4314 0211 02       		.uleb128 0x2
 4315 0212 06       		.uleb128 0x6
 4316 0213 00       		.byte	0x0
 4317 0214 00       		.byte	0x0
ARM GAS  /tmp/cchua6zK.s 			page 77


 4318 0215 28       		.uleb128 0x28
 4319 0216 2E       		.uleb128 0x2e
 4320 0217 01       		.byte	0x1
 4321 0218 3F       		.uleb128 0x3f
 4322 0219 0C       		.uleb128 0xc
 4323 021a 03       		.uleb128 0x3
 4324 021b 0E       		.uleb128 0xe
 4325 021c 3A       		.uleb128 0x3a
 4326 021d 0B       		.uleb128 0xb
 4327 021e 3B       		.uleb128 0x3b
 4328 021f 05       		.uleb128 0x5
 4329 0220 27       		.uleb128 0x27
 4330 0221 0C       		.uleb128 0xc
 4331 0222 49       		.uleb128 0x49
 4332 0223 13       		.uleb128 0x13
 4333 0224 11       		.uleb128 0x11
 4334 0225 01       		.uleb128 0x1
 4335 0226 12       		.uleb128 0x12
 4336 0227 01       		.uleb128 0x1
 4337 0228 40       		.uleb128 0x40
 4338 0229 0A       		.uleb128 0xa
 4339 022a 01       		.uleb128 0x1
 4340 022b 13       		.uleb128 0x13
 4341 022c 00       		.byte	0x0
 4342 022d 00       		.byte	0x0
 4343 022e 29       		.uleb128 0x29
 4344 022f 05       		.uleb128 0x5
 4345 0230 00       		.byte	0x0
 4346 0231 03       		.uleb128 0x3
 4347 0232 0E       		.uleb128 0xe
 4348 0233 3A       		.uleb128 0x3a
 4349 0234 0B       		.uleb128 0xb
 4350 0235 3B       		.uleb128 0x3b
 4351 0236 05       		.uleb128 0x5
 4352 0237 49       		.uleb128 0x49
 4353 0238 13       		.uleb128 0x13
 4354 0239 02       		.uleb128 0x2
 4355 023a 06       		.uleb128 0x6
 4356 023b 00       		.byte	0x0
 4357 023c 00       		.byte	0x0
 4358 023d 2A       		.uleb128 0x2a
 4359 023e 2E       		.uleb128 0x2e
 4360 023f 01       		.byte	0x1
 4361 0240 3F       		.uleb128 0x3f
 4362 0241 0C       		.uleb128 0xc
 4363 0242 03       		.uleb128 0x3
 4364 0243 0E       		.uleb128 0xe
 4365 0244 3A       		.uleb128 0x3a
 4366 0245 0B       		.uleb128 0xb
 4367 0246 3B       		.uleb128 0x3b
 4368 0247 05       		.uleb128 0x5
 4369 0248 27       		.uleb128 0x27
 4370 0249 0C       		.uleb128 0xc
 4371 024a 11       		.uleb128 0x11
 4372 024b 01       		.uleb128 0x1
 4373 024c 12       		.uleb128 0x12
 4374 024d 01       		.uleb128 0x1
ARM GAS  /tmp/cchua6zK.s 			page 78


 4375 024e 40       		.uleb128 0x40
 4376 024f 06       		.uleb128 0x6
 4377 0250 01       		.uleb128 0x1
 4378 0251 13       		.uleb128 0x13
 4379 0252 00       		.byte	0x0
 4380 0253 00       		.byte	0x0
 4381 0254 2B       		.uleb128 0x2b
 4382 0255 05       		.uleb128 0x5
 4383 0256 00       		.byte	0x0
 4384 0257 03       		.uleb128 0x3
 4385 0258 08       		.uleb128 0x8
 4386 0259 3A       		.uleb128 0x3a
 4387 025a 0B       		.uleb128 0xb
 4388 025b 3B       		.uleb128 0x3b
 4389 025c 05       		.uleb128 0x5
 4390 025d 49       		.uleb128 0x49
 4391 025e 13       		.uleb128 0x13
 4392 025f 02       		.uleb128 0x2
 4393 0260 06       		.uleb128 0x6
 4394 0261 00       		.byte	0x0
 4395 0262 00       		.byte	0x0
 4396 0263 2C       		.uleb128 0x2c
 4397 0264 34       		.uleb128 0x34
 4398 0265 00       		.byte	0x0
 4399 0266 03       		.uleb128 0x3
 4400 0267 0E       		.uleb128 0xe
 4401 0268 3A       		.uleb128 0x3a
 4402 0269 0B       		.uleb128 0xb
 4403 026a 3B       		.uleb128 0x3b
 4404 026b 05       		.uleb128 0x5
 4405 026c 49       		.uleb128 0x49
 4406 026d 13       		.uleb128 0x13
 4407 026e 02       		.uleb128 0x2
 4408 026f 06       		.uleb128 0x6
 4409 0270 00       		.byte	0x0
 4410 0271 00       		.byte	0x0
 4411 0272 2D       		.uleb128 0x2d
 4412 0273 34       		.uleb128 0x34
 4413 0274 00       		.byte	0x0
 4414 0275 03       		.uleb128 0x3
 4415 0276 08       		.uleb128 0x8
 4416 0277 3A       		.uleb128 0x3a
 4417 0278 0B       		.uleb128 0xb
 4418 0279 3B       		.uleb128 0x3b
 4419 027a 05       		.uleb128 0x5
 4420 027b 49       		.uleb128 0x49
 4421 027c 13       		.uleb128 0x13
 4422 027d 02       		.uleb128 0x2
 4423 027e 06       		.uleb128 0x6
 4424 027f 00       		.byte	0x0
 4425 0280 00       		.byte	0x0
 4426 0281 2E       		.uleb128 0x2e
 4427 0282 2E       		.uleb128 0x2e
 4428 0283 01       		.byte	0x1
 4429 0284 3F       		.uleb128 0x3f
 4430 0285 0C       		.uleb128 0xc
 4431 0286 03       		.uleb128 0x3
ARM GAS  /tmp/cchua6zK.s 			page 79


 4432 0287 0E       		.uleb128 0xe
 4433 0288 3A       		.uleb128 0x3a
 4434 0289 0B       		.uleb128 0xb
 4435 028a 3B       		.uleb128 0x3b
 4436 028b 05       		.uleb128 0x5
 4437 028c 27       		.uleb128 0x27
 4438 028d 0C       		.uleb128 0xc
 4439 028e 11       		.uleb128 0x11
 4440 028f 01       		.uleb128 0x1
 4441 0290 12       		.uleb128 0x12
 4442 0291 01       		.uleb128 0x1
 4443 0292 40       		.uleb128 0x40
 4444 0293 0A       		.uleb128 0xa
 4445 0294 01       		.uleb128 0x1
 4446 0295 13       		.uleb128 0x13
 4447 0296 00       		.byte	0x0
 4448 0297 00       		.byte	0x0
 4449 0298 2F       		.uleb128 0x2f
 4450 0299 05       		.uleb128 0x5
 4451 029a 00       		.byte	0x0
 4452 029b 03       		.uleb128 0x3
 4453 029c 0E       		.uleb128 0xe
 4454 029d 3A       		.uleb128 0x3a
 4455 029e 0B       		.uleb128 0xb
 4456 029f 3B       		.uleb128 0x3b
 4457 02a0 05       		.uleb128 0x5
 4458 02a1 49       		.uleb128 0x49
 4459 02a2 13       		.uleb128 0x13
 4460 02a3 02       		.uleb128 0x2
 4461 02a4 0A       		.uleb128 0xa
 4462 02a5 00       		.byte	0x0
 4463 02a6 00       		.byte	0x0
 4464 02a7 30       		.uleb128 0x30
 4465 02a8 05       		.uleb128 0x5
 4466 02a9 00       		.byte	0x0
 4467 02aa 03       		.uleb128 0x3
 4468 02ab 08       		.uleb128 0x8
 4469 02ac 3A       		.uleb128 0x3a
 4470 02ad 0B       		.uleb128 0xb
 4471 02ae 3B       		.uleb128 0x3b
 4472 02af 05       		.uleb128 0x5
 4473 02b0 49       		.uleb128 0x49
 4474 02b1 13       		.uleb128 0x13
 4475 02b2 02       		.uleb128 0x2
 4476 02b3 0A       		.uleb128 0xa
 4477 02b4 00       		.byte	0x0
 4478 02b5 00       		.byte	0x0
 4479 02b6 31       		.uleb128 0x31
 4480 02b7 34       		.uleb128 0x34
 4481 02b8 00       		.byte	0x0
 4482 02b9 03       		.uleb128 0x3
 4483 02ba 0E       		.uleb128 0xe
 4484 02bb 3A       		.uleb128 0x3a
 4485 02bc 0B       		.uleb128 0xb
 4486 02bd 3B       		.uleb128 0x3b
 4487 02be 05       		.uleb128 0x5
 4488 02bf 49       		.uleb128 0x49
ARM GAS  /tmp/cchua6zK.s 			page 80


 4489 02c0 13       		.uleb128 0x13
 4490 02c1 3F       		.uleb128 0x3f
 4491 02c2 0C       		.uleb128 0xc
 4492 02c3 3C       		.uleb128 0x3c
 4493 02c4 0C       		.uleb128 0xc
 4494 02c5 00       		.byte	0x0
 4495 02c6 00       		.byte	0x0
 4496 02c7 32       		.uleb128 0x32
 4497 02c8 34       		.uleb128 0x34
 4498 02c9 00       		.byte	0x0
 4499 02ca 03       		.uleb128 0x3
 4500 02cb 0E       		.uleb128 0xe
 4501 02cc 3A       		.uleb128 0x3a
 4502 02cd 0B       		.uleb128 0xb
 4503 02ce 3B       		.uleb128 0x3b
 4504 02cf 0B       		.uleb128 0xb
 4505 02d0 49       		.uleb128 0x49
 4506 02d1 13       		.uleb128 0x13
 4507 02d2 02       		.uleb128 0x2
 4508 02d3 0A       		.uleb128 0xa
 4509 02d4 00       		.byte	0x0
 4510 02d5 00       		.byte	0x0
 4511 02d6 00       		.byte	0x0
 4512              		.section	.debug_pubnames,"",%progbits
 4513 0000 A0000000 		.4byte	0xa0
 4514 0004 0200     		.2byte	0x2
 4515 0006 00000000 		.4byte	.Ldebug_info0
 4516 000a 0B120000 		.4byte	0x120b
 4517 000e 11100000 		.4byte	0x1011
 4518 0012 73647549 		.ascii	"sduInit\000"
 4518      6E697400 
 4519 001a 25100000 		.4byte	0x1025
 4520 001e 7364754F 		.ascii	"sduObjectInit\000"
 4520      626A6563 
 4520      74496E69 
 4520      7400
 4521 002c 4E100000 		.4byte	0x104e
 4522 0030 73647553 		.ascii	"sduStart\000"
 4522      74617274 
 4522      00
 4523 0039 86100000 		.4byte	0x1086
 4524 003d 73647553 		.ascii	"sduStop\000"
 4524      746F7000 
 4525 0045 AF100000 		.4byte	0x10af
 4526 0049 73647552 		.ascii	"sduRequestsHook\000"
 4526      65717565 
 4526      73747348 
 4526      6F6F6B00 
 4527 0059 DD100000 		.4byte	0x10dd
 4528 005d 73647544 		.ascii	"sduDataTransmitted\000"
 4528      61746154 
 4528      72616E73 
 4528      6D697474 
 4528      656400
 4529 0070 35110000 		.4byte	0x1135
 4530 0074 73647544 		.ascii	"sduDataReceived\000"
 4530      61746152 
ARM GAS  /tmp/cchua6zK.s 			page 81


 4530      65636569 
 4530      76656400 
 4531 0084 97110000 		.4byte	0x1197
 4532 0088 73647549 		.ascii	"sduInterruptTransmitted\000"
 4532      6E746572 
 4532      72757074 
 4532      5472616E 
 4532      736D6974 
 4533 00a0 00000000 		.4byte	0x0
 4534              		.section	.debug_pubtypes,"",%progbits
 4535 0000 BE030000 		.4byte	0x3be
 4536 0004 0200     		.2byte	0x2
 4537 0006 00000000 		.4byte	.Ldebug_info0
 4538 000a 0B120000 		.4byte	0x120b
 4539 000e 30000000 		.4byte	0x30
 4540 0012 73697A65 		.ascii	"size_t\000"
 4540      5F7400
 4541 0019 49000000 		.4byte	0x49
 4542 001d 75696E74 		.ascii	"uint8_t\000"
 4542      385F7400 
 4543 0025 62000000 		.4byte	0x62
 4544 0029 75696E74 		.ascii	"uint16_t\000"
 4544      31365F74 
 4544      00
 4545 0032 74000000 		.4byte	0x74
 4546 0036 696E7433 		.ascii	"int32_t\000"
 4546      325F7400 
 4547 003e 86000000 		.4byte	0x86
 4548 0042 75696E74 		.ascii	"uint32_t\000"
 4548      33325F74 
 4548      00
 4549 004b 9F000000 		.4byte	0x9f
 4550 004f 75696E74 		.ascii	"uint64_t\000"
 4550      36345F74 
 4550      00
 4551 0058 B1000000 		.4byte	0xb1
 4552 005c 75696E74 		.ascii	"uint_fast16_t\000"
 4552      5F666173 
 4552      7431365F 
 4552      7400
 4553 006a BC000000 		.4byte	0xbc
 4554 006e 626F6F6C 		.ascii	"bool_t\000"
 4554      5F7400
 4555 0075 C7000000 		.4byte	0xc7
 4556 0079 746D6F64 		.ascii	"tmode_t\000"
 4556      655F7400 
 4557 0081 D2000000 		.4byte	0xd2
 4558 0085 74737461 		.ascii	"tstate_t\000"
 4558      74655F74 
 4558      00
 4559 008e DD000000 		.4byte	0xdd
 4560 0092 74726566 		.ascii	"trefs_t\000"
 4560      735F7400 
 4561 009a E8000000 		.4byte	0xe8
 4562 009e 74707269 		.ascii	"tprio_t\000"
 4562      6F5F7400 
 4563 00a6 F3000000 		.4byte	0xf3
ARM GAS  /tmp/cchua6zK.s 			page 82


 4564 00aa 6D73675F 		.ascii	"msg_t\000"
 4564      7400
 4565 00b0 FE000000 		.4byte	0xfe
 4566 00b4 6576656E 		.ascii	"eventmask_t\000"
 4566      746D6173 
 4566      6B5F7400 
 4567 00c0 09010000 		.4byte	0x109
 4568 00c4 73797374 		.ascii	"systime_t\000"
 4568      696D655F 
 4568      7400
 4569 00ce 14010000 		.4byte	0x114
 4570 00d2 54687265 		.ascii	"Thread\000"
 4570      616400
 4571 00d9 6F020000 		.4byte	0x26f
 4572 00dd 54687265 		.ascii	"ThreadsQueue\000"
 4572      61647351 
 4572      75657565 
 4572      00
 4573 00ea 91020000 		.4byte	0x291
 4574 00ee 54687265 		.ascii	"ThreadsList\000"
 4574      6164734C 
 4574      69737400 
 4575 00fa 9C020000 		.4byte	0x29c
 4576 00fe 72656761 		.ascii	"regarm_t\000"
 4576      726D5F74 
 4576      00
 4577 0107 A9020000 		.4byte	0x2a9
 4578 010b 73746B61 		.ascii	"stkalign_t\000"
 4578      6C69676E 
 4578      5F7400
 4579 0116 B4020000 		.4byte	0x2b4
 4580 011a 696E7463 		.ascii	"intctx\000"
 4580      747800
 4581 0121 41030000 		.4byte	0x341
 4582 0125 636F6E74 		.ascii	"context\000"
 4582      65787400 
 4583 012d 69030000 		.4byte	0x369
 4584 0131 4D757465 		.ascii	"Mutex\000"
 4584      7800
 4585 0137 A6030000 		.4byte	0x3a6
 4586 013b 4D757465 		.ascii	"Mutex\000"
 4586      7800
 4587 0141 B1030000 		.4byte	0x3b1
 4588 0145 4576656E 		.ascii	"EventListener\000"
 4588      744C6973 
 4588      74656E65 
 4588      7200
 4589 0153 BC030000 		.4byte	0x3bc
 4590 0157 4576656E 		.ascii	"EventListener\000"
 4590      744C6973 
 4590      74656E65 
 4590      7200
 4591 0165 F9030000 		.4byte	0x3f9
 4592 0169 4576656E 		.ascii	"EventSource\000"
 4592      74536F75 
 4592      72636500 
 4593 0175 14040000 		.4byte	0x414
ARM GAS  /tmp/cchua6zK.s 			page 83


 4594 0179 4576656E 		.ascii	"EventSource\000"
 4594      74536F75 
 4594      72636500 
 4595 0185 1F010000 		.4byte	0x11f
 4596 0189 54687265 		.ascii	"Thread\000"
 4596      616400
 4597 0190 72040000 		.4byte	0x472
 4598 0194 47656E65 		.ascii	"GenericQueue\000"
 4598      72696351 
 4598      75657565 
 4598      00
 4599 01a1 EC040000 		.4byte	0x4ec
 4600 01a5 716E6F74 		.ascii	"qnotify_t\000"
 4600      6966795F 
 4600      7400
 4601 01af 7D040000 		.4byte	0x47d
 4602 01b3 47656E65 		.ascii	"GenericQueue\000"
 4602      72696351 
 4602      75657565 
 4602      00
 4603 01c0 15050000 		.4byte	0x515
 4604 01c4 496E7075 		.ascii	"InputQueue\000"
 4604      74517565 
 4604      756500
 4605 01cf 20050000 		.4byte	0x520
 4606 01d3 4F757470 		.ascii	"OutputQueue\000"
 4606      75745175 
 4606      65756500 
 4607 01df 11060000 		.4byte	0x611
 4608 01e3 696F666C 		.ascii	"ioflags_t\000"
 4608      6167735F 
 4608      7400
 4609 01ed 1D060000 		.4byte	0x61d
 4610 01f1 42617365 		.ascii	"BaseAsynchronousChannelVMT\000"
 4610      4173796E 
 4610      6368726F 
 4610      6E6F7573 
 4610      4368616E 
 4611 020c 0A070000 		.4byte	0x70a
 4612 0210 42617365 		.ascii	"BaseAsynchronousChannel\000"
 4612      4173796E 
 4612      6368726F 
 4612      6E6F7573 
 4612      4368616E 
 4613 0228 1B070000 		.4byte	0x71b
 4614 022c 55534244 		.ascii	"USBDriver\000"
 4614      72697665 
 4614      7200
 4615 0236 11080000 		.4byte	0x811
 4616 023a 75736265 		.ascii	"usbep_t\000"
 4616      705F7400 
 4617 0242 43080000 		.4byte	0x843
 4618 0246 75736273 		.ascii	"usbstate_t\000"
 4618      74617465 
 4618      5F7400
 4619 0251 7B080000 		.4byte	0x87b
 4620 0255 75736265 		.ascii	"usbep0state_t\000"
ARM GAS  /tmp/cchua6zK.s 			page 84


 4620      70307374 
 4620      6174655F 
 4620      7400
 4621 0263 B3080000 		.4byte	0x8b3
 4622 0267 75736265 		.ascii	"usbevent_t\000"
 4622      76656E74 
 4622      5F7400
 4623 0272 E7080000 		.4byte	0x8e7
 4624 0276 55534244 		.ascii	"USBDescriptor\000"
 4624      65736372 
 4624      6970746F 
 4624      7200
 4625 0284 F3080000 		.4byte	0x8f3
 4626 0288 75736263 		.ascii	"usbcallback_t\000"
 4626      616C6C62 
 4626      61636B5F 
 4626      7400
 4627 0296 17090000 		.4byte	0x917
 4628 029a 75736265 		.ascii	"usbepcallback_t\000"
 4628      7063616C 
 4628      6C626163 
 4628      6B5F7400 
 4629 02aa 3A090000 		.4byte	0x93a
 4630 02ae 75736265 		.ascii	"usbeventcb_t\000"
 4630      76656E74 
 4630      63625F74 
 4630      00
 4631 02bb 5D090000 		.4byte	0x95d
 4632 02bf 75736272 		.ascii	"usbreqhandler_t\000"
 4632      65716861 
 4632      6E646C65 
 4632      725F7400 
 4633 02cf 7F090000 		.4byte	0x97f
 4634 02d3 75736267 		.ascii	"usbgetdescriptor_t\000"
 4634      65746465 
 4634      73637269 
 4634      70746F72 
 4634      5F7400
 4635 02e6 EE090000 		.4byte	0x9ee
 4636 02ea 55534249 		.ascii	"USBInEndpointState\000"
 4636      6E456E64 
 4636      706F696E 
 4636      74537461 
 4636      746500
 4637 02fd 3A0A0000 		.4byte	0xa3a
 4638 0301 5553424F 		.ascii	"USBOutEndpointState\000"
 4638      7574456E 
 4638      64706F69 
 4638      6E745374 
 4638      61746500 
 4639 0315 CA0A0000 		.4byte	0xaca
 4640 0319 55534245 		.ascii	"USBEndpointConfig\000"
 4640      6E64706F 
 4640      696E7443 
 4640      6F6E6669 
 4640      6700
 4641 032b 160B0000 		.4byte	0xb16
ARM GAS  /tmp/cchua6zK.s 			page 85


 4642 032f 55534243 		.ascii	"USBConfig\000"
 4642      6F6E6669 
 4642      6700
 4643 0339 26070000 		.4byte	0x726
 4644 033d 55534244 		.ascii	"USBDriver\000"
 4644      72697665 
 4644      7200
 4645 0347 720B0000 		.4byte	0xb72
 4646 034b 73647573 		.ascii	"sdustate_t\000"
 4646      74617465 
 4646      5F7400
 4647 0356 7D0B0000 		.4byte	0xb7d
 4648 035a 53657269 		.ascii	"SerialUSBDriver\000"
 4648      616C5553 
 4648      42447269 
 4648      76657200 
 4649 036a 380C0000 		.4byte	0xc38
 4650 036e 53657269 		.ascii	"SerialUSBConfig\000"
 4650      616C5553 
 4650      42436F6E 
 4650      66696700 
 4651 037e 430C0000 		.4byte	0xc43
 4652 0382 53657269 		.ascii	"SerialUSBDriverVMT\000"
 4652      616C5553 
 4652      42447269 
 4652      76657256 
 4652      4D5400
 4653 0395 880B0000 		.4byte	0xb88
 4654 0399 53657269 		.ascii	"SerialUSBDriver\000"
 4654      616C5553 
 4654      42447269 
 4654      76657200 
 4655 03a9 450D0000 		.4byte	0xd45
 4656 03ad 6364635F 		.ascii	"cdc_linecoding_t\000"
 4656      6C696E65 
 4656      636F6469 
 4656      6E675F74 
 4656      00
 4657 03be 00000000 		.4byte	0x0
 4658              		.section	.debug_aranges,"",%progbits
 4659 0000 AC000000 		.4byte	0xac
 4660 0004 0200     		.2byte	0x2
 4661 0006 00000000 		.4byte	.Ldebug_info0
 4662 000a 04       		.byte	0x4
 4663 000b 00       		.byte	0x0
 4664 000c 0000     		.2byte	0x0
 4665 000e 0000     		.2byte	0x0
 4666 0010 00000000 		.4byte	.LFB57
 4667 0014 0C000000 		.4byte	.LFE57-.LFB57
 4668 0018 00000000 		.4byte	.LFB58
 4669 001c 0C000000 		.4byte	.LFE58-.LFB58
 4670 0020 00000000 		.4byte	.LFB63
 4671 0024 1E000000 		.4byte	.LFE63-.LFB63
 4672 0028 00000000 		.4byte	.LFB65
 4673 002c 82000000 		.4byte	.LFE65-.LFB65
 4674 0030 00000000 		.4byte	.LFB64
 4675 0034 74000000 		.4byte	.LFE64-.LFB64
ARM GAS  /tmp/cchua6zK.s 			page 86


 4676 0038 00000000 		.4byte	.LFB62
 4677 003c 06000000 		.4byte	.LFE62-.LFB62
 4678 0040 00000000 		.4byte	.LFB56
 4679 0044 0A000000 		.4byte	.LFE56-.LFB56
 4680 0048 00000000 		.4byte	.LFB61
 4681 004c 06000000 		.4byte	.LFE61-.LFB61
 4682 0050 00000000 		.4byte	.LFB55
 4683 0054 0A000000 		.4byte	.LFE55-.LFB55
 4684 0058 00000000 		.4byte	.LFB60
 4685 005c 06000000 		.4byte	.LFE60-.LFB60
 4686 0060 00000000 		.4byte	.LFB59
 4687 0064 06000000 		.4byte	.LFE59-.LFB59
 4688 0068 00000000 		.4byte	.LFB66
 4689 006c 02000000 		.4byte	.LFE66-.LFB66
 4690 0070 00000000 		.4byte	.LFB67
 4691 0074 48000000 		.4byte	.LFE67-.LFB67
 4692 0078 00000000 		.4byte	.LFB68
 4693 007c 54000000 		.4byte	.LFE68-.LFB68
 4694 0080 00000000 		.4byte	.LFB69
 4695 0084 48000000 		.4byte	.LFE69-.LFB69
 4696 0088 00000000 		.4byte	.LFB70
 4697 008c 50000000 		.4byte	.LFE70-.LFB70
 4698 0090 00000000 		.4byte	.LFB71
 4699 0094 7C000000 		.4byte	.LFE71-.LFB71
 4700 0098 00000000 		.4byte	.LFB72
 4701 009c 78000000 		.4byte	.LFE72-.LFB72
 4702 00a0 00000000 		.4byte	.LFB73
 4703 00a4 02000000 		.4byte	.LFE73-.LFB73
 4704 00a8 00000000 		.4byte	0x0
 4705 00ac 00000000 		.4byte	0x0
 4706              		.section	.debug_ranges,"",%progbits
 4707              	.Ldebug_ranges0:
 4708 0000 00000000 		.4byte	.LFB57
 4709 0004 0C000000 		.4byte	.LFE57
 4710 0008 00000000 		.4byte	.LFB58
 4711 000c 0C000000 		.4byte	.LFE58
 4712 0010 00000000 		.4byte	.LFB63
 4713 0014 1E000000 		.4byte	.LFE63
 4714 0018 00000000 		.4byte	.LFB65
 4715 001c 82000000 		.4byte	.LFE65
 4716 0020 00000000 		.4byte	.LFB64
 4717 0024 74000000 		.4byte	.LFE64
 4718 0028 00000000 		.4byte	.LFB62
 4719 002c 06000000 		.4byte	.LFE62
 4720 0030 00000000 		.4byte	.LFB56
 4721 0034 0A000000 		.4byte	.LFE56
 4722 0038 00000000 		.4byte	.LFB61
 4723 003c 06000000 		.4byte	.LFE61
 4724 0040 00000000 		.4byte	.LFB55
 4725 0044 0A000000 		.4byte	.LFE55
 4726 0048 00000000 		.4byte	.LFB60
 4727 004c 06000000 		.4byte	.LFE60
 4728 0050 00000000 		.4byte	.LFB59
 4729 0054 06000000 		.4byte	.LFE59
 4730 0058 00000000 		.4byte	.LFB66
 4731 005c 02000000 		.4byte	.LFE66
 4732 0060 00000000 		.4byte	.LFB67
ARM GAS  /tmp/cchua6zK.s 			page 87


 4733 0064 48000000 		.4byte	.LFE67
 4734 0068 00000000 		.4byte	.LFB68
 4735 006c 54000000 		.4byte	.LFE68
 4736 0070 00000000 		.4byte	.LFB69
 4737 0074 48000000 		.4byte	.LFE69
 4738 0078 00000000 		.4byte	.LFB70
 4739 007c 50000000 		.4byte	.LFE70
 4740 0080 00000000 		.4byte	.LFB71
 4741 0084 7C000000 		.4byte	.LFE71
 4742 0088 00000000 		.4byte	.LFB72
 4743 008c 78000000 		.4byte	.LFE72
 4744 0090 00000000 		.4byte	.LFB73
 4745 0094 02000000 		.4byte	.LFE73
 4746 0098 00000000 		.4byte	0x0
 4747 009c 00000000 		.4byte	0x0
 4748              		.section	.debug_str,"MS",%progbits,1
 4749              	.LASF139:
 4750 0000 7278636E 		.ascii	"rxcnt\000"
 4750      7400
 4751              	.LASF165:
 4752 0006 53657269 		.ascii	"SerialUSBDriverVMT\000"
 4752      616C5553 
 4752      42447269 
 4752      76657256 
 4752      4D5400
 4753              	.LASF185:
 4754 0019 73647544 		.ascii	"sduDataReceived\000"
 4754      61746152 
 4754      65636569 
 4754      76656400 
 4755              	.LASF2:
 4756 0029 73697A65 		.ascii	"size_t\000"
 4756      5F7400
 4757              	.LASF155:
 4758 0030 5344555F 		.ascii	"SDU_UNINIT\000"
 4758      554E494E 
 4758      495400
 4759              	.LASF60:
 4760 003b 7264796D 		.ascii	"rdymsg\000"
 4760      736700
 4761              	.LASF182:
 4762 0042 73647553 		.ascii	"sduStart\000"
 4762      74617274 
 4762      00
 4763              	.LASF13:
 4764 004b 75696E74 		.ascii	"uint64_t\000"
 4764      36345F74 
 4764      00
 4765              	.LASF75:
 4766 0054 4F757470 		.ascii	"OutputQueue\000"
 4766      75745175 
 4766      65756500 
 4767              	.LASF123:
 4768 0060 75736265 		.ascii	"usbevent_t\000"
 4768      76656E74 
 4768      5F7400
 4769              	.LASF56:
ARM GAS  /tmp/cchua6zK.s 			page 88


 4770 006b 656C5F6C 		.ascii	"el_listener\000"
 4770      69737465 
 4770      6E657200 
 4771              	.LASF146:
 4772 0077 6F75745F 		.ascii	"out_maxsize\000"
 4772      6D617873 
 4772      697A6500 
 4773              	.LASF137:
 4774 0083 72786275 		.ascii	"rxbuf\000"
 4774      6600
 4775              	.LASF14:
 4776 0089 6C6F6E67 		.ascii	"long long unsigned int\000"
 4776      206C6F6E 
 4776      6720756E 
 4776      7369676E 
 4776      65642069 
 4777              	.LASF61:
 4778 00a0 65786974 		.ascii	"exitcode\000"
 4778      636F6465 
 4778      00
 4779              	.LASF104:
 4780 00a9 5553425F 		.ascii	"USB_UNINIT\000"
 4780      554E494E 
 4780      495400
 4781              	.LASF85:
 4782 00b4 6576656E 		.ascii	"event\000"
 4782      7400
 4783              	.LASF27:
 4784 00ba 705F7072 		.ascii	"p_prio\000"
 4784      696F00
 4785              	.LASF176:
 4786 00c1 72656164 		.ascii	"reads\000"
 4786      7300
 4787              	.LASF83:
 4788 00c7 72656164 		.ascii	"readt\000"
 4788      7400
 4789              	.LASF66:
 4790 00cd 715F7761 		.ascii	"q_waiting\000"
 4790      6974696E 
 4790      6700
 4791              	.LASF12:
 4792 00d7 6C6F6E67 		.ascii	"long long int\000"
 4792      206C6F6E 
 4792      6720696E 
 4792      7400
 4793              	.LASF1:
 4794 00e5 7369676E 		.ascii	"signed char\000"
 4794      65642063 
 4794      68617200 
 4795              	.LASF127:
 4796 00f1 75736263 		.ascii	"usbcallback_t\000"
 4796      616C6C62 
 4796      61636B5F 
 4796      7400
 4797              	.LASF133:
 4798 00ff 74787369 		.ascii	"txsize\000"
 4798      7A6500
ARM GAS  /tmp/cchua6zK.s 			page 89


 4799              	.LASF43:
 4800 0106 705F6D70 		.ascii	"p_mpool\000"
 4800      6F6F6C00 
 4801              	.LASF16:
 4802 010e 626F6F6C 		.ascii	"bool_t\000"
 4802      5F7400
 4803              	.LASF51:
 4804 0115 6D5F7175 		.ascii	"m_queue\000"
 4804      65756500 
 4805              	.LASF117:
 4806 011d 5553425F 		.ascii	"USB_EVENT_RESET\000"
 4806      4556454E 
 4806      545F5245 
 4806      53455400 
 4807              	.LASF115:
 4808 012d 5553425F 		.ascii	"USB_EP0_ERROR\000"
 4808      4550305F 
 4808      4552524F 
 4808      5200
 4809              	.LASF168:
 4810 013b 62506172 		.ascii	"bParityType\000"
 4810      69747954 
 4810      79706500 
 4811              	.LASF89:
 4812 0147 73746174 		.ascii	"state\000"
 4812      6500
 4813              	.LASF9:
 4814 014d 6C6F6E67 		.ascii	"long int\000"
 4814      20696E74 
 4814      00
 4815              	.LASF187:
 4816 0156 6C696E65 		.ascii	"linecoding\000"
 4816      636F6469 
 4816      6E6700
 4817              	.LASF131:
 4818 0161 75736267 		.ascii	"usbgetdescriptor_t\000"
 4818      65746465 
 4818      73637269 
 4818      70746F72 
 4818      5F7400
 4819              	.LASF18:
 4820 0174 74737461 		.ascii	"tstate_t\000"
 4820      74655F74 
 4820      00
 4821              	.LASF144:
 4822 017d 6F75745F 		.ascii	"out_cb\000"
 4822      636200
 4823              	.LASF35:
 4824 0184 705F7265 		.ascii	"p_refs\000"
 4824      667300
 4825              	.LASF162:
 4826 018b 75736270 		.ascii	"usbp\000"
 4826      00
 4827              	.LASF129:
 4828 0190 75736265 		.ascii	"usbeventcb_t\000"
 4828      76656E74 
 4828      63625F74 
ARM GAS  /tmp/cchua6zK.s 			page 90


 4828      00
 4829              	.LASF68:
 4830 019d 715F6275 		.ascii	"q_buffer\000"
 4830      66666572 
 4830      00
 4831              	.LASF121:
 4832 01a6 5553425F 		.ascii	"USB_EVENT_WAKEUP\000"
 4832      4556454E 
 4832      545F5741 
 4832      4B455550 
 4832      00
 4833              	.LASF70:
 4834 01b7 715F7772 		.ascii	"q_wrptr\000"
 4834      70747200 
 4835              	.LASF36:
 4836 01bf 705F7469 		.ascii	"p_time\000"
 4836      6D6500
 4837              	.LASF183:
 4838 01c6 73647553 		.ascii	"sduStop\000"
 4838      746F7000 
 4839              	.LASF29:
 4840 01ce 705F6E65 		.ascii	"p_newer\000"
 4840      77657200 
 4841              	.LASF65:
 4842 01d6 47656E65 		.ascii	"GenericQueue\000"
 4842      72696351 
 4842      75657565 
 4842      00
 4843              	.LASF116:
 4844 01e3 75736265 		.ascii	"usbep0state_t\000"
 4844      70307374 
 4844      6174655F 
 4844      7400
 4845              	.LASF7:
 4846 01f1 73686F72 		.ascii	"short unsigned int\000"
 4846      7420756E 
 4846      7369676E 
 4846      65642069 
 4846      6E7400
 4847              	.LASF122:
 4848 0204 5553425F 		.ascii	"USB_EVENT_STALLED\000"
 4848      4556454E 
 4848      545F5354 
 4848      414C4C45 
 4848      4400
 4849              	.LASF171:
 4850 0216 6D61736B 		.ascii	"mask\000"
 4850      00
 4851              	.LASF46:
 4852 021b 72656761 		.ascii	"regarm_t\000"
 4852      726D5F74 
 4852      00
 4853              	.LASF166:
 4854 0224 64774454 		.ascii	"dwDTERate\000"
 4854      45526174 
 4854      6500
 4855              	.LASF24:
ARM GAS  /tmp/cchua6zK.s 			page 91


 4856 022e 54687265 		.ascii	"Thread\000"
 4856      616400
 4857              	.LASF58:
 4858 0235 4576656E 		.ascii	"EventSource\000"
 4858      74536F75 
 4858      72636500 
 4859              	.LASF186:
 4860 0241 73647549 		.ascii	"sduInterruptTransmitted\000"
 4860      6E746572 
 4860      72757074 
 4860      5472616E 
 4860      736D6974 
 4861              	.LASF77:
 4862 0259 42617365 		.ascii	"BaseAsynchronousChannelVMT\000"
 4862      4173796E 
 4862      6368726F 
 4862      6E6F7573 
 4862      4368616E 
 4863              	.LASF0:
 4864 0274 756E7369 		.ascii	"unsigned int\000"
 4864      676E6564 
 4864      20696E74 
 4864      00
 4865              	.LASF108:
 4866 0281 5553425F 		.ascii	"USB_ACTIVE\000"
 4866      41435449 
 4866      564500
 4867              	.LASF159:
 4868 028c 53657269 		.ascii	"SerialUSBDriver\000"
 4868      616C5553 
 4868      42447269 
 4868      76657200 
 4869              	.LASF132:
 4870 029c 74786275 		.ascii	"txbuf\000"
 4870      6600
 4871              	.LASF124:
 4872 02a2 75645F73 		.ascii	"ud_size\000"
 4872      697A6500 
 4873              	.LASF174:
 4874 02aa 696E6F74 		.ascii	"inotify\000"
 4874      69667900 
 4875              	.LASF156:
 4876 02b2 5344555F 		.ascii	"SDU_STOP\000"
 4876      53544F50 
 4876      00
 4877              	.LASF160:
 4878 02bb 69717565 		.ascii	"iqueue\000"
 4878      756500
 4879              	.LASF38:
 4880 02c2 705F6D73 		.ascii	"p_msgqueue\000"
 4880      67717565 
 4880      756500
 4881              	.LASF105:
 4882 02cd 5553425F 		.ascii	"USB_STOP\000"
 4882      53544F50 
 4882      00
 4883              	.LASF179:
ARM GAS  /tmp/cchua6zK.s 			page 92


 4884 02d6 74696D65 		.ascii	"timeout\000"
 4884      6F757400 
 4885              	.LASF178:
 4886 02de 67657474 		.ascii	"gett\000"
 4886      00
 4887              	.LASF92:
 4888 02e3 7472616E 		.ascii	"transmitting\000"
 4888      736D6974 
 4888      74696E67 
 4888      00
 4889              	.LASF143:
 4890 02f0 696E5F63 		.ascii	"in_cb\000"
 4890      6200
 4891              	.LASF172:
 4892 02f6 73647570 		.ascii	"sdup\000"
 4892      00
 4893              	.LASF191:
 4894 02fb 2F686F6D 		.ascii	"/home/z80/projects/dfu.git/firmware-pawn-dev/firmwa"
 4894      652F7A38 
 4894      302F7072 
 4894      6F6A6563 
 4894      74732F64 
 4895 032e 726500   		.ascii	"re\000"
 4896              	.LASF150:
 4897 0331 6576656E 		.ascii	"event_cb\000"
 4897      745F6362 
 4897      00
 4898              	.LASF101:
 4899 033a 636F6E66 		.ascii	"configuration\000"
 4899      69677572 
 4899      6174696F 
 4899      6E00
 4900              	.LASF21:
 4901 0348 6D73675F 		.ascii	"msg_t\000"
 4901      7400
 4902              	.LASF161:
 4903 034e 6F717565 		.ascii	"oqueue\000"
 4903      756500
 4904              	.LASF55:
 4905 0355 656C5F6E 		.ascii	"el_next\000"
 4905      65787400 
 4906              	.LASF109:
 4907 035d 75736273 		.ascii	"usbstate_t\000"
 4907      74617465 
 4907      5F7400
 4908              	.LASF130:
 4909 0368 75736272 		.ascii	"usbreqhandler_t\000"
 4909      65716861 
 4909      6E646C65 
 4909      725F7400 
 4910              	.LASF177:
 4911 0378 77726974 		.ascii	"writes\000"
 4911      657300
 4912              	.LASF82:
 4913 037f 77726974 		.ascii	"writet\000"
 4913      657400
 4914              	.LASF17:
ARM GAS  /tmp/cchua6zK.s 			page 93


 4915 0386 746D6F64 		.ascii	"tmode_t\000"
 4915      655F7400 
 4916              	.LASF6:
 4917 038e 75696E74 		.ascii	"uint16_t\000"
 4917      31365F74 
 4917      00
 4918              	.LASF45:
 4919 0397 54687265 		.ascii	"ThreadsList\000"
 4919      6164734C 
 4919      69737400 
 4920              	.LASF22:
 4921 03a3 6576656E 		.ascii	"eventmask_t\000"
 4921      746D6173 
 4921      6B5F7400 
 4922              	.LASF93:
 4923 03af 72656365 		.ascii	"receiving\000"
 4923      6976696E 
 4923      6700
 4924              	.LASF163:
 4925 03b9 7573625F 		.ascii	"usb_config\000"
 4925      636F6E66 
 4925      696700
 4926              	.LASF73:
 4927 03c4 716E6F74 		.ascii	"qnotify_t\000"
 4927      6966795F 
 4927      7400
 4928              	.LASF152:
 4929 03ce 72657175 		.ascii	"requests_hook_cb\000"
 4929      65737473 
 4929      5F686F6F 
 4929      6B5F6362 
 4929      00
 4930              	.LASF47:
 4931 03df 73746B61 		.ascii	"stkalign_t\000"
 4931      6C69676E 
 4931      5F7400
 4932              	.LASF80:
 4933 03ea 70757477 		.ascii	"putwouldblock\000"
 4933      6F756C64 
 4933      626C6F63 
 4933      6B00
 4934              	.LASF78:
 4935 03f8 77726974 		.ascii	"write\000"
 4935      6500
 4936              	.LASF181:
 4937 03fe 7364754F 		.ascii	"sduObjectInit\000"
 4937      626A6563 
 4937      74496E69 
 4937      7400
 4938              	.LASF180:
 4939 040c 70757474 		.ascii	"putt\000"
 4939      00
 4940              	.LASF102:
 4941 0411 706D6E65 		.ascii	"pmnext\000"
 4941      787400
 4942              	.LASF114:
 4943 0418 5553425F 		.ascii	"USB_EP0_SENDING_STS\000"
ARM GAS  /tmp/cchua6zK.s 			page 94


 4943      4550305F 
 4943      53454E44 
 4943      494E475F 
 4943      53545300 
 4944              	.LASF125:
 4945 042c 75645F73 		.ascii	"ud_string\000"
 4945      7472696E 
 4945      6700
 4946              	.LASF67:
 4947 0436 715F636F 		.ascii	"q_counter\000"
 4947      756E7465 
 4947      7200
 4948              	.LASF50:
 4949 0440 4D757465 		.ascii	"Mutex\000"
 4949      7800
 4950              	.LASF100:
 4951 0446 61646472 		.ascii	"address\000"
 4951      65737300 
 4952              	.LASF148:
 4953 044e 6F75745F 		.ascii	"out_state\000"
 4953      73746174 
 4953      6500
 4954              	.LASF184:
 4955 0458 73647544 		.ascii	"sduDataTransmitted\000"
 4955      61746154 
 4955      72616E73 
 4955      6D697474 
 4955      656400
 4956              	.LASF57:
 4957 046b 656C5F6D 		.ascii	"el_mask\000"
 4957      61736B00 
 4958              	.LASF91:
 4959 0473 70617261 		.ascii	"param\000"
 4959      6D00
 4960              	.LASF140:
 4961 0479 5553424F 		.ascii	"USBOutEndpointState\000"
 4961      7574456E 
 4961      64706F69 
 4961      6E745374 
 4961      61746500 
 4962              	.LASF84:
 4963 048d 67657466 		.ascii	"getflags\000"
 4963      6C616773 
 4963      00
 4964              	.LASF76:
 4965 0496 696F666C 		.ascii	"ioflags_t\000"
 4965      6167735F 
 4965      7400
 4966              	.LASF44:
 4967 04a0 54687265 		.ascii	"ThreadsQueue\000"
 4967      61647351 
 4967      75657565 
 4967      00
 4968              	.LASF126:
 4969 04ad 55534244 		.ascii	"USBDescriptor\000"
 4969      65736372 
 4969      6970746F 
ARM GAS  /tmp/cchua6zK.s 			page 95


 4969      7200
 4970              	.LASF98:
 4971 04bb 73657475 		.ascii	"setup\000"
 4971      7000
 4972              	.LASF32:
 4973 04c1 705F7374 		.ascii	"p_stklimit\000"
 4973      6B6C696D 
 4973      697400
 4974              	.LASF175:
 4975 04cc 74696D65 		.ascii	"time\000"
 4975      00
 4976              	.LASF153:
 4977 04d1 736F665F 		.ascii	"sof_cb\000"
 4977      636200
 4978              	.LASF149:
 4979 04d8 55534245 		.ascii	"USBEndpointConfig\000"
 4979      6E64706F 
 4979      696E7443 
 4979      6F6E6669 
 4979      6700
 4980              	.LASF142:
 4981 04ea 73657475 		.ascii	"setup_cb\000"
 4981      705F6362 
 4981      00
 4982              	.LASF145:
 4983 04f3 696E5F6D 		.ascii	"in_maxsize\000"
 4983      61787369 
 4983      7A6500
 4984              	.LASF19:
 4985 04fe 74726566 		.ascii	"trefs_t\000"
 4985      735F7400 
 4986              	.LASF15:
 4987 0506 75696E74 		.ascii	"uint_fast16_t\000"
 4987      5F666173 
 4987      7431365F 
 4987      7400
 4988              	.LASF118:
 4989 0514 5553425F 		.ascii	"USB_EVENT_ADDRESS\000"
 4989      4556454E 
 4989      545F4144 
 4989      44524553 
 4989      5300
 4990              	.LASF26:
 4991 0526 705F7072 		.ascii	"p_prev\000"
 4991      657600
 4992              	.LASF20:
 4993 052d 74707269 		.ascii	"tprio_t\000"
 4993      6F5F7400 
 4994              	.LASF71:
 4995 0535 715F7264 		.ascii	"q_rdptr\000"
 4995      70747200 
 4996              	.LASF106:
 4997 053d 5553425F 		.ascii	"USB_READY\000"
 4997      52454144 
 4997      5900
 4998              	.LASF96:
 4999 0547 6570306E 		.ascii	"ep0n\000"
ARM GAS  /tmp/cchua6zK.s 			page 96


 4999      00
 5000              	.LASF8:
 5001 054c 696E7433 		.ascii	"int32_t\000"
 5001      325F7400 
 5002              	.LASF4:
 5003 0554 756E7369 		.ascii	"unsigned char\000"
 5003      676E6564 
 5003      20636861 
 5003      7200
 5004              	.LASF192:
 5005 0562 73647549 		.ascii	"sduInit\000"
 5005      6E697400 
 5006              	.LASF157:
 5007 056a 5344555F 		.ascii	"SDU_READY\000"
 5007      52454144 
 5007      5900
 5008              	.LASF188:
 5009 0574 49544D5F 		.ascii	"ITM_RxBuffer\000"
 5009      52784275 
 5009      66666572 
 5009      00
 5010              	.LASF95:
 5011 0581 6570306E 		.ascii	"ep0next\000"
 5011      65787400 
 5012              	.LASF33:
 5013 0589 705F7374 		.ascii	"p_state\000"
 5013      61746500 
 5014              	.LASF41:
 5015 0591 705F6D74 		.ascii	"p_mtxlist\000"
 5015      786C6973 
 5015      7400
 5016              	.LASF5:
 5017 059b 73686F72 		.ascii	"short int\000"
 5017      7420696E 
 5017      7400
 5018              	.LASF103:
 5019 05a5 75736265 		.ascii	"usbep_t\000"
 5019      705F7400 
 5020              	.LASF30:
 5021 05ad 705F6F6C 		.ascii	"p_older\000"
 5021      64657200 
 5022              	.LASF63:
 5023 05b5 65776D61 		.ascii	"ewmask\000"
 5023      736B00
 5024              	.LASF25:
 5025 05bc 705F6E65 		.ascii	"p_next\000"
 5025      787400
 5026              	.LASF34:
 5027 05c3 705F666C 		.ascii	"p_flags\000"
 5027      61677300 
 5028              	.LASF107:
 5029 05cb 5553425F 		.ascii	"USB_SELECTED\000"
 5029      53454C45 
 5029      43544544 
 5029      00
 5030              	.LASF169:
 5031 05d8 62446174 		.ascii	"bDataBits\000"
ARM GAS  /tmp/cchua6zK.s 			page 97


 5031      61426974 
 5031      7300
 5032              	.LASF190:
 5033 05e2 2E2E2F63 		.ascii	"../chibios/os/hal/src/serial_usb.c\000"
 5033      68696269 
 5033      6F732F6F 
 5033      732F6861 
 5033      6C2F7372 
 5034              	.LASF40:
 5035 0605 705F6570 		.ascii	"p_epending\000"
 5035      656E6469 
 5035      6E6700
 5036              	.LASF151:
 5037 0610 6765745F 		.ascii	"get_descriptor_cb\000"
 5037      64657363 
 5037      72697074 
 5037      6F725F63 
 5037      6200
 5038              	.LASF120:
 5039 0622 5553425F 		.ascii	"USB_EVENT_SUSPEND\000"
 5039      4556454E 
 5039      545F5355 
 5039      5350454E 
 5039      4400
 5040              	.LASF94:
 5041 0634 65703073 		.ascii	"ep0state\000"
 5041      74617465 
 5041      00
 5042              	.LASF154:
 5043 063d 55534243 		.ascii	"USBConfig\000"
 5043      6F6E6669 
 5043      6700
 5044              	.LASF136:
 5045 0647 7278706B 		.ascii	"rxpkts\000"
 5045      747300
 5046              	.LASF11:
 5047 064e 6C6F6E67 		.ascii	"long unsigned int\000"
 5047      20756E73 
 5047      69676E65 
 5047      6420696E 
 5047      7400
 5048              	.LASF147:
 5049 0660 696E5F73 		.ascii	"in_state\000"
 5049      74617465 
 5049      00
 5050              	.LASF79:
 5051 0669 72656164 		.ascii	"read\000"
 5051      00
 5052              	.LASF64:
 5053 066e 63686172 		.ascii	"char\000"
 5053      00
 5054              	.LASF128:
 5055 0673 75736265 		.ascii	"usbepcallback_t\000"
 5055      7063616C 
 5055      6C626163 
 5055      6B5F7400 
 5056              	.LASF90:
ARM GAS  /tmp/cchua6zK.s 			page 98


 5057 0683 636F6E66 		.ascii	"config\000"
 5057      696700
 5058              	.LASF113:
 5059 068a 5553425F 		.ascii	"USB_EP0_RX\000"
 5059      4550305F 
 5059      525800
 5060              	.LASF53:
 5061 0695 6D5F6E65 		.ascii	"m_next\000"
 5061      787400
 5062              	.LASF23:
 5063 069c 73797374 		.ascii	"systime_t\000"
 5063      696D655F 
 5063      7400
 5064              	.LASF42:
 5065 06a6 705F7265 		.ascii	"p_realprio\000"
 5065      616C7072 
 5065      696F00
 5066              	.LASF119:
 5067 06b1 5553425F 		.ascii	"USB_EVENT_CONFIGURED\000"
 5067      4556454E 
 5067      545F434F 
 5067      4E464947 
 5067      55524544 
 5068              	.LASF97:
 5069 06c6 65703065 		.ascii	"ep0endcb\000"
 5069      6E646362 
 5069      00
 5070              	.LASF110:
 5071 06cf 5553425F 		.ascii	"USB_EP0_WAITING_SETUP\000"
 5071      4550305F 
 5071      57414954 
 5071      494E475F 
 5071      53455455 
 5072              	.LASF170:
 5073 06e5 6364635F 		.ascii	"cdc_linecoding_t\000"
 5073      6C696E65 
 5073      636F6469 
 5073      6E675F74 
 5073      00
 5074              	.LASF87:
 5075 06f6 42617365 		.ascii	"BaseAsynchronousChannel\000"
 5075      4173796E 
 5075      6368726F 
 5075      6E6F7573 
 5075      4368616E 
 5076              	.LASF49:
 5077 070e 636F6E74 		.ascii	"context\000"
 5077      65787400 
 5078              	.LASF39:
 5079 0716 705F6D73 		.ascii	"p_msg\000"
 5079      6700
 5080              	.LASF48:
 5081 071c 696E7463 		.ascii	"intctx\000"
 5081      747800
 5082              	.LASF141:
 5083 0723 65705F6D 		.ascii	"ep_mode\000"
 5083      6F646500 
ARM GAS  /tmp/cchua6zK.s 			page 99


 5084              	.LASF134:
 5085 072b 7478636E 		.ascii	"txcnt\000"
 5085      7400
 5086              	.LASF10:
 5087 0731 75696E74 		.ascii	"uint32_t\000"
 5087      33325F74 
 5087      00
 5088              	.LASF164:
 5089 073a 53657269 		.ascii	"SerialUSBConfig\000"
 5089      616C5553 
 5089      42436F6E 
 5089      66696700 
 5090              	.LASF193:
 5091 074a 73647552 		.ascii	"sduRequestsHook\000"
 5091      65717565 
 5091      73747348 
 5091      6F6F6B00 
 5092              	.LASF69:
 5093 075a 715F746F 		.ascii	"q_top\000"
 5093      7000
 5094              	.LASF31:
 5095 0760 705F6E61 		.ascii	"p_name\000"
 5095      6D6500
 5096              	.LASF59:
 5097 0767 65735F6E 		.ascii	"es_next\000"
 5097      65787400 
 5098              	.LASF99:
 5099 076f 73746174 		.ascii	"status\000"
 5099      757300
 5100              	.LASF72:
 5101 0776 715F6E6F 		.ascii	"q_notify\000"
 5101      74696679 
 5101      00
 5102              	.LASF135:
 5103 077f 55534249 		.ascii	"USBInEndpointState\000"
 5103      6E456E64 
 5103      706F696E 
 5103      74537461 
 5103      746500
 5104              	.LASF112:
 5105 0792 5553425F 		.ascii	"USB_EP0_WAITING_STS\000"
 5105      4550305F 
 5105      57414954 
 5105      494E475F 
 5105      53545300 
 5106              	.LASF88:
 5107 07a6 55534244 		.ascii	"USBDriver\000"
 5107      72697665 
 5107      7200
 5108              	.LASF3:
 5109 07b0 75696E74 		.ascii	"uint8_t\000"
 5109      385F7400 
 5110              	.LASF74:
 5111 07b8 496E7075 		.ascii	"InputQueue\000"
 5111      74517565 
 5111      756500
 5112              	.LASF138:
ARM GAS  /tmp/cchua6zK.s 			page 100


 5113 07c3 72787369 		.ascii	"rxsize\000"
 5113      7A6500
 5114              	.LASF86:
 5115 07ca 666C6167 		.ascii	"flags\000"
 5115      7300
 5116              	.LASF173:
 5117 07d0 6F6E6F74 		.ascii	"onotify\000"
 5117      69667900 
 5118              	.LASF54:
 5119 07d8 4576656E 		.ascii	"EventListener\000"
 5119      744C6973 
 5119      74656E65 
 5119      7200
 5120              	.LASF62:
 5121 07e6 77746F62 		.ascii	"wtobjp\000"
 5121      6A7000
 5122              	.LASF189:
 5123 07ed 474E5520 		.ascii	"GNU C 4.5.2\000"
 5123      4320342E 
 5123      352E3200 
 5124              	.LASF81:
 5125 07f9 67657477 		.ascii	"getwouldblock\000"
 5125      6F756C64 
 5125      626C6F63 
 5125      6B00
 5126              	.LASF111:
 5127 0807 5553425F 		.ascii	"USB_EP0_TX\000"
 5127      4550305F 
 5127      545800
 5128              	.LASF158:
 5129 0812 73647573 		.ascii	"sdustate_t\000"
 5129      74617465 
 5129      5F7400
 5130              	.LASF52:
 5131 081d 6D5F6F77 		.ascii	"m_owner\000"
 5131      6E657200 
 5132              	.LASF167:
 5133 0825 62436861 		.ascii	"bCharFormat\000"
 5133      72466F72 
 5133      6D617400 
 5134              	.LASF28:
 5135 0831 705F6374 		.ascii	"p_ctx\000"
 5135      7800
 5136              	.LASF37:
 5137 0837 705F7761 		.ascii	"p_waiting\000"
 5137      6974696E 
 5137      6700
 5138              		.ident	"GCC: (Sourcery G++ Lite 2011.03-42) 4.5.2"
ARM GAS  /tmp/cchua6zK.s 			page 101


DEFINED SYMBOLS
                            *ABS*:00000000 serial_usb.c
     /tmp/cchua6zK.s:24     .text.putwouldblock:00000000 $t
     /tmp/cchua6zK.s:28     .text.putwouldblock:00000000 putwouldblock
     /tmp/cchua6zK.s:49     .text.getwouldblock:00000000 $t
     /tmp/cchua6zK.s:53     .text.getwouldblock:00000000 getwouldblock
     /tmp/cchua6zK.s:73     .text.getflags:00000000 $t
     /tmp/cchua6zK.s:77     .text.getflags:00000000 getflags
     /tmp/cchua6zK.s:117    .text.onotify:00000000 $t
     /tmp/cchua6zK.s:121    .text.onotify:00000000 onotify
     /tmp/cchua6zK.s:220    .text.inotify:00000000 $t
     /tmp/cchua6zK.s:224    .text.inotify:00000000 inotify
     /tmp/cchua6zK.s:315    .text.readt:00000000 $t
     /tmp/cchua6zK.s:319    .text.readt:00000000 readt
     /tmp/cchua6zK.s:337    .text.reads:00000000 $t
     /tmp/cchua6zK.s:341    .text.reads:00000000 reads
     /tmp/cchua6zK.s:360    .text.writet:00000000 $t
     /tmp/cchua6zK.s:364    .text.writet:00000000 writet
     /tmp/cchua6zK.s:382    .text.writes:00000000 $t
     /tmp/cchua6zK.s:386    .text.writes:00000000 writes
     /tmp/cchua6zK.s:405    .text.gett:00000000 $t
     /tmp/cchua6zK.s:409    .text.gett:00000000 gett
     /tmp/cchua6zK.s:427    .text.putt:00000000 $t
     /tmp/cchua6zK.s:431    .text.putt:00000000 putt
     /tmp/cchua6zK.s:449    .text.sduInit:00000000 $t
     /tmp/cchua6zK.s:454    .text.sduInit:00000000 sduInit
     /tmp/cchua6zK.s:467    .text.sduObjectInit:00000000 $t
     /tmp/cchua6zK.s:472    .text.sduObjectInit:00000000 sduObjectInit
     /tmp/cchua6zK.s:523    .text.sduObjectInit:0000003c $d
     /tmp/cchua6zK.s:530    .text.sduStart:00000000 $t
     /tmp/cchua6zK.s:535    .text.sduStart:00000000 sduStart
     /tmp/cchua6zK.s:602    .text.sduStart:0000004c $d
     /tmp/cchua6zK.s:608    .text.sduStop:00000000 $t
     /tmp/cchua6zK.s:613    .text.sduStop:00000000 sduStop
     /tmp/cchua6zK.s:668    .text.sduStop:00000040 $d
     /tmp/cchua6zK.s:674    .text.sduRequestsHook:00000000 $t
     /tmp/cchua6zK.s:679    .text.sduRequestsHook:00000000 sduRequestsHook
     /tmp/cchua6zK.s:743    .text.sduRequestsHook:0000004c $d
     /tmp/cchua6zK.s:748    .text.sduDataTransmitted:00000000 $t
     /tmp/cchua6zK.s:753    .text.sduDataTransmitted:00000000 sduDataTransmitted
     /tmp/cchua6zK.s:857    .text.sduDataReceived:00000000 $t
     /tmp/cchua6zK.s:862    .text.sduDataReceived:00000000 sduDataReceived
     /tmp/cchua6zK.s:962    .text.sduInterruptTransmitted:00000000 $t
     /tmp/cchua6zK.s:967    .text.sduInterruptTransmitted:00000000 sduInterruptTransmitted
     /tmp/cchua6zK.s:990    .rodata.vmt:00000000 $d
     /tmp/cchua6zK.s:994    .rodata.vmt:00000000 vmt
     /tmp/cchua6zK.s:1008   .data.linecoding:00000000 linecoding
                     .debug_frame:00000010 $d

UNDEFINED SYMBOLS
_port_lock
dbg_check_lock
dbg_check_unlock
_port_unlock
usb_lld_write_packet_buffer
usbStartTransmitI
chEvtBroadcastFlagsI
ARM GAS  /tmp/cchua6zK.s 			page 102


fifo_remove
chSchReadyI
usb_lld_read_packet_buffer
usbStartReceiveI
chIQReadTimeout
chOQWriteTimeout
chIQGetTimeout
chOQPutTimeout
chIQInit
chOQInit
chDbgPanic
usbStart
usbStop
dbg_check_lock_from_isr
dbg_check_unlock_from_isr
