ARM GAS  /tmp/ccFcDX3k.s 			page 1


   1              		.syntax unified
   2              		.cpu cortex-m3
   3              		.fpu softvfp
   4              		.eabi_attribute 20, 1
   5              		.eabi_attribute 21, 1
   6              		.eabi_attribute 23, 3
   7              		.eabi_attribute 24, 1
   8              		.eabi_attribute 25, 1
   9              		.eabi_attribute 26, 1
  10              		.eabi_attribute 30, 4
  11              		.eabi_attribute 18, 4
  12              		.thumb
  13              		.file	"shell.c"
  20 0000 5D030000 		.text
  20      02000D02 
  20      00000201 
  20      FB0E0D00 
  20      01010101 
  21              	.Ltext0:
  22              		.cfi_sections	.debug_frame
  23              		.section	.text.usage,"ax",%progbits
  24              		.align	1
  25              		.thumb
  26              		.thumb_func
  27              		.type	usage, %function
  28              	usage:
  29              	.LFB56:
  30              		.file 1 "../chibios/os/various/shell.c"
  31              		.loc 1 65 0
  32              		.cfi_startproc
  33              		@ args = 0, pretend = 0, frame = 0
  34              		@ frame_needed = 0, uses_anonymous_args = 0
  35              		@ link register save eliminated.
  36              	.LVL0:
  37              		.loc 1 65 0
  38 0000 0A46     		mov	r2, r1
  39              		.loc 1 67 0
  40 0002 0149     		ldr	r1, .L2
  41              	.LVL1:
  42              		.loc 1 68 0
  43              		.loc 1 67 0
  44 0004 FFF7FEBF 		b	chprintf
  45              	.LVL2:
  46              	.L3:
  47              		.align	2
  48              	.L2:
  49 0008 00000000 		.word	.LC0
  50              		.cfi_endproc
  51              	.LFE56:
  52              		.size	usage, .-usage
  53              		.section	.text.cmd_systime,"ax",%progbits
ARM GAS  /tmp/ccFcDX3k.s 			page 2


  54              		.align	1
  55              		.thumb
  56              		.thumb_func
  57              		.type	cmd_systime, %function
  58              	cmd_systime:
  59              	.LFB59:
  60              		.loc 1 110 0
  61              		.cfi_startproc
  62              		@ args = 0, pretend = 0, frame = 0
  63              		@ frame_needed = 0, uses_anonymous_args = 0
  64              		@ link register save eliminated.
  65              	.LVL3:
  66              		.loc 1 113 0
  67 0000 0029     		cmp	r1, #0
  68 0002 02DD     		ble	.L5
  69              		.loc 1 114 0
  70 0004 0349     		ldr	r1, .L6
  71              	.LVL4:
  72              		.loc 1 118 0
  73              		.loc 1 114 0
  74 0006 FFF7FEBF 		b	usage
  75              	.LVL5:
  76              	.L5:
  77              		.loc 1 117 0
  78 000a 034B     		ldr	r3, .L6+4
  79 000c 0349     		ldr	r1, .L6+8
  80              	.LVL6:
  81 000e DA68     		ldr	r2, [r3, #12]
  82              	.LVL7:
  83              		.loc 1 118 0
  84              		.loc 1 117 0
  85 0010 FFF7FEBF 		b	chprintf
  86              	.LVL8:
  87              	.L7:
  88              		.align	2
  89              	.L6:
  90 0014 0C000000 		.word	.LC1
  91 0018 00000000 		.word	vtlist
  92 001c 14000000 		.word	.LC2
  93              		.cfi_endproc
  94              	.LFE59:
  95              		.size	cmd_systime, .-cmd_systime
  96              		.section	.text.cmd_info,"ax",%progbits
  97              		.align	1
  98              		.thumb
  99              		.thumb_func
 100              		.type	cmd_info, %function
 101              	cmd_info:
 102              	.LFB58:
 103              		.loc 1 78 0
 104              		.cfi_startproc
 105              		@ args = 0, pretend = 0, frame = 0
 106              		@ frame_needed = 0, uses_anonymous_args = 0
 107              	.LVL9:
 108              		.loc 1 81 0
 109 0000 0029     		cmp	r1, #0
 110              		.loc 1 78 0
ARM GAS  /tmp/ccFcDX3k.s 			page 3


 111 0002 13B5     		push	{r0, r1, r4, lr}
 112              	.LCFI0:
 113              		.cfi_def_cfa_offset 16
 114              		.loc 1 78 0
 115 0004 0446     		mov	r4, r0
 116              		.cfi_offset 14, -4
 117              		.cfi_offset 4, -8
 118              		.cfi_offset 1, -12
 119              		.cfi_offset 0, -16
 120              		.loc 1 81 0
 121 0006 05DD     		ble	.L9
 122              		.loc 1 82 0
 123 0008 1849     		ldr	r1, .L10
 124              	.LVL10:
 125              		.loc 1 108 0
 126 000a 02B0     		add	sp, sp, #8
 127 000c BDE81040 		pop	{r4, lr}
 128              		.loc 1 82 0
 129 0010 FFF7FEBF 		b	usage
 130              	.LVL11:
 131              	.L9:
 132              		.loc 1 86 0
 133 0014 1649     		ldr	r1, .L10+4
 134              	.LVL12:
 135 0016 174A     		ldr	r2, .L10+8
 136              	.LVL13:
 137 0018 FFF7FEFF 		bl	chprintf
 138              		.loc 1 88 0
 139 001c 2046     		mov	r0, r4
 140 001e 1649     		ldr	r1, .L10+12
 141 0020 164A     		ldr	r2, .L10+16
 142 0022 FFF7FEFF 		bl	chprintf
 143              		.loc 1 90 0
 144 0026 2046     		mov	r0, r4
 145 0028 1549     		ldr	r1, .L10+20
 146 002a 164A     		ldr	r2, .L10+24
 147 002c FFF7FEFF 		bl	chprintf
 148              		.loc 1 92 0
 149 0030 2046     		mov	r0, r4
 150 0032 1549     		ldr	r1, .L10+28
 151 0034 154A     		ldr	r2, .L10+32
 152 0036 FFF7FEFF 		bl	chprintf
 153              		.loc 1 95 0
 154 003a 2046     		mov	r0, r4
 155 003c 1449     		ldr	r1, .L10+36
 156 003e 154A     		ldr	r2, .L10+40
 157 0040 FFF7FEFF 		bl	chprintf
 158              		.loc 1 98 0
 159 0044 2046     		mov	r0, r4
 160 0046 1449     		ldr	r1, .L10+44
 161 0048 144A     		ldr	r2, .L10+48
 162 004a FFF7FEFF 		bl	chprintf
 163              		.loc 1 101 0
 164 004e 2046     		mov	r0, r4
 165 0050 1349     		ldr	r1, .L10+52
 166 0052 144A     		ldr	r2, .L10+56
 167 0054 FFF7FEFF 		bl	chprintf
ARM GAS  /tmp/ccFcDX3k.s 			page 4


 168              		.loc 1 105 0
 169 0058 134B     		ldr	r3, .L10+60
 170 005a 2046     		mov	r0, r4
 171 005c 0093     		str	r3, [sp, #0]
 172 005e 1349     		ldr	r1, .L10+64
 173 0060 134A     		ldr	r2, .L10+68
 174 0062 144B     		ldr	r3, .L10+72
 175 0064 FFF7FEFF 		bl	chprintf
 176              		.loc 1 108 0
 177 0068 02B0     		add	sp, sp, #8
 178 006a 10BD     		pop	{r4, pc}
 179              	.L11:
 180              		.align	2
 181              	.L10:
 182 006c 1A000000 		.word	.LC3
 183 0070 1F000000 		.word	.LC4
 184 0074 32000000 		.word	.LC5
 185 0078 38000000 		.word	.LC6
 186 007c 4B000000 		.word	.LC7
 187 0080 55000000 		.word	.LC8
 188 0084 68000000 		.word	.LC9
 189 0088 70000000 		.word	.LC10
 190 008c 83000000 		.word	.LC11
 191 0090 8D000000 		.word	.LC12
 192 0094 A0000000 		.word	.LC13
 193 0098 B5000000 		.word	.LC14
 194 009c C8000000 		.word	.LC15
 195 00a0 F0000000 		.word	.LC16
 196 00a4 03010000 		.word	.LC17
 197 00a8 3C010000 		.word	.LC21
 198 00ac 15010000 		.word	.LC18
 199 00b0 2C010000 		.word	.LC19
 200 00b4 38010000 		.word	.LC20
 201              		.cfi_endproc
 202              	.LFE58:
 203              		.size	cmd_info, .-cmd_info
 204              		.section	.text.list_commands,"ax",%progbits
 205              		.align	1
 206              		.thumb
 207              		.thumb_func
 208              		.type	list_commands, %function
 209              	list_commands:
 210              	.LFB57:
 211              		.loc 1 70 0
 212              		.cfi_startproc
 213              		@ args = 0, pretend = 0, frame = 0
 214              		@ frame_needed = 0, uses_anonymous_args = 0
 215              	.LVL14:
 216 0000 38B5     		push	{r3, r4, r5, lr}
 217              	.LCFI1:
 218              		.cfi_def_cfa_offset 16
 219              		.loc 1 70 0
 220 0002 0546     		mov	r5, r0
 221              		.cfi_offset 14, -4
 222              		.cfi_offset 5, -8
 223              		.cfi_offset 4, -12
 224              		.cfi_offset 3, -16
ARM GAS  /tmp/ccFcDX3k.s 			page 5


 225 0004 0C46     		mov	r4, r1
 226              		.loc 1 72 0
 227 0006 04E0     		b	.L13
 228              	.LVL15:
 229              	.L14:
 230              		.loc 1 73 0
 231 0008 2846     		mov	r0, r5
 232 000a 0449     		ldr	r1, .L15
 233 000c FFF7FEFF 		bl	chprintf
 234              		.loc 1 74 0
 235 0010 0834     		adds	r4, r4, #8
 236              	.LVL16:
 237              	.L13:
 238              		.loc 1 72 0 discriminator 1
 239 0012 2268     		ldr	r2, [r4, #0]
 240 0014 002A     		cmp	r2, #0
 241 0016 F7D1     		bne	.L14
 242              		.loc 1 76 0
 243 0018 38BD     		pop	{r3, r4, r5, pc}
 244              	.L16:
 245 001a 00BF     		.align	2
 246              	.L15:
 247 001c 45010000 		.word	.LC22
 248              		.cfi_endproc
 249              	.LFE57:
 250              		.size	list_commands, .-list_commands
 251              		.section	.text.cmdexec,"ax",%progbits
 252              		.align	1
 253              		.thumb
 254              		.thumb_func
 255              		.type	cmdexec, %function
 256              	cmdexec:
 257              	.LFB60:
 258              		.loc 1 130 0
 259              		.cfi_startproc
 260              		@ args = 4, pretend = 0, frame = 0
 261              		@ frame_needed = 0, uses_anonymous_args = 0
 262              	.LVL17:
 263 0000 2DE9F041 		push	{r4, r5, r6, r7, r8, lr}
 264              	.LCFI2:
 265              		.cfi_def_cfa_offset 24
 266              		.loc 1 130 0
 267 0004 0446     		mov	r4, r0
 268              		.cfi_offset 14, -4
 269              		.cfi_offset 8, -8
 270              		.cfi_offset 7, -12
 271              		.cfi_offset 6, -16
 272              		.cfi_offset 5, -20
 273              		.cfi_offset 4, -24
 274 0006 0D46     		mov	r5, r1
 275 0008 1746     		mov	r7, r2
 276 000a 9846     		mov	r8, r3
 277              		.loc 1 132 0
 278 000c 0DE0     		b	.L18
 279              	.LVL18:
 280              	.L21:
 281              		.loc 1 133 0
ARM GAS  /tmp/ccFcDX3k.s 			page 6


 282 000e 3946     		mov	r1, r7
 283 0010 FFF7FEFF 		bl	strcasecmp
 284 0014 0646     		mov	r6, r0
 285 0016 38B9     		cbnz	r0, .L19
 286              		.loc 1 134 0
 287 0018 2846     		mov	r0, r5
 288 001a 6468     		ldr	r4, [r4, #4]
 289              	.LVL19:
 290 001c 4146     		mov	r1, r8
 291 001e 069A     		ldr	r2, [sp, #24]
 292 0020 A047     		blx	r4
 293              		.loc 1 135 0
 294 0022 3046     		mov	r0, r6
 295 0024 BDE8F081 		pop	{r4, r5, r6, r7, r8, pc}
 296              	.LVL20:
 297              	.L19:
 298              		.loc 1 137 0
 299 0028 0834     		adds	r4, r4, #8
 300              	.LVL21:
 301              	.L18:
 302              		.loc 1 132 0 discriminator 1
 303 002a 2068     		ldr	r0, [r4, #0]
 304 002c 0028     		cmp	r0, #0
 305 002e EED1     		bne	.L21
 306              		.loc 1 139 0
 307 0030 0130     		adds	r0, r0, #1
 308              		.loc 1 140 0
 309 0032 BDE8F081 		pop	{r4, r5, r6, r7, r8, pc}
 310              		.cfi_endproc
 311              	.LFE60:
 312              		.size	cmdexec, .-cmdexec
 313              		.section	.text._strtok.clone.0,"ax",%progbits
 314              		.align	1
 315              		.thumb
 316              		.thumb_func
 317              		.type	_strtok.clone.0, %function
 318              	_strtok.clone.0:
 319              	.LFB66:
 320              		.loc 1 48 0
 321              		.cfi_startproc
 322              		@ args = 0, pretend = 0, frame = 0
 323              		@ frame_needed = 0, uses_anonymous_args = 0
 324              	.LVL22:
 325 0000 38B5     		push	{r3, r4, r5, lr}
 326              	.LCFI3:
 327              		.cfi_def_cfa_offset 16
 328              		.loc 1 48 0
 329 0002 0D46     		mov	r5, r1
 330              		.cfi_offset 14, -4
 331              		.cfi_offset 5, -8
 332              		.cfi_offset 4, -12
 333              		.cfi_offset 3, -16
 334              		.loc 1 50 0
 335 0004 00B1     		cbz	r0, .L23
 336              		.loc 1 51 0
 337 0006 0860     		str	r0, [r1, #0]
 338              	.L23:
ARM GAS  /tmp/ccFcDX3k.s 			page 7


 339              		.loc 1 52 0
 340 0008 2C68     		ldr	r4, [r5, #0]
 341              	.LVL23:
 342              		.loc 1 54 0
 343 000a 94B1     		cbz	r4, .L24
 344              		.loc 1 57 0
 345 000c 2046     		mov	r0, r4
 346              	.LVL24:
 347 000e 0A49     		ldr	r1, .L26
 348              	.LVL25:
 349 0010 FFF7FEFF 		bl	strspn
 350              	.LVL26:
 351 0014 2418     		adds	r4, r4, r0
 352              	.LVL27:
 353              		.loc 1 58 0
 354 0016 2046     		mov	r0, r4
 355 0018 2021     		movs	r1, #32
 356 001a FFF7FEFF 		bl	strchr
 357 001e 2860     		str	r0, [r5, #0]
 358              		.loc 1 59 0
 359 0020 18B1     		cbz	r0, .L25
 360              		.loc 1 60 0
 361 0022 0023     		movs	r3, #0
 362 0024 00F8013B 		strb	r3, [r0], #1
 363 0028 2860     		str	r0, [r5, #0]
 364              	.L25:
 365              		.loc 1 62 0
 366 002a 2378     		ldrb	r3, [r4, #0]	@ zero_extendqisi2
 367 002c 002B     		cmp	r3, #0
 368 002e 08BF     		it	eq
 369 0030 0024     		moveq	r4, #0
 370              	.LVL28:
 371              	.L24:
 372              		.loc 1 63 0
 373 0032 2046     		mov	r0, r4
 374 0034 38BD     		pop	{r3, r4, r5, pc}
 375              	.L27:
 376 0036 00BF     		.align	2
 377              	.L26:
 378 0038 00000000 		.word	.LANCHOR0
 379              		.cfi_endproc
 380              	.LFE66:
 381              		.size	_strtok.clone.0, .-_strtok.clone.0
 382              		.section	.text.shellInit,"ax",%progbits
 383              		.align	1
 384              		.global	shellInit
 385              		.thumb
 386              		.thumb_func
 387              		.type	shellInit, %function
 388              	shellInit:
 389              	.LFB62:
 390              		.loc 1 215 0
 391              		.cfi_startproc
 392              		@ args = 0, pretend = 0, frame = 0
 393              		@ frame_needed = 0, uses_anonymous_args = 0
 394              		@ link register save eliminated.
 395              		.loc 1 217 0
ARM GAS  /tmp/ccFcDX3k.s 			page 8


 396 0000 014B     		ldr	r3, .L29
 397 0002 1B60     		str	r3, [r3, #0]
 398              		.loc 1 218 0
 399 0004 7047     		bx	lr
 400              	.L30:
 401 0006 00BF     		.align	2
 402              	.L29:
 403 0008 00000000 		.word	.LANCHOR1
 404              		.cfi_endproc
 405              	.LFE62:
 406              		.size	shellInit, .-shellInit
 407              		.section	.text.shellCreate,"ax",%progbits
 408              		.align	1
 409              		.global	shellCreate
 410              		.thumb
 411              		.thumb_func
 412              		.type	shellCreate, %function
 413              	shellCreate:
 414              	.LFB63:
 415              		.loc 1 231 0
 416              		.cfi_startproc
 417              		@ args = 0, pretend = 0, frame = 0
 418              		@ frame_needed = 0, uses_anonymous_args = 0
 419              	.LVL29:
 420 0000 07B5     		push	{r0, r1, r2, lr}
 421              	.LCFI4:
 422              		.cfi_def_cfa_offset 16
 423              		.loc 1 233 0
 424 0002 034B     		ldr	r3, .L32
 425 0004 0090     		str	r0, [sp, #0]
 426 0006 0020     		movs	r0, #0
 427              		.cfi_offset 14, -4
 428              		.cfi_offset 2, -8
 429              		.cfi_offset 1, -12
 430              		.cfi_offset 0, -16
 431              	.LVL30:
 432 0008 FFF7FEFF 		bl	chThdCreateFromHeap
 433              	.LVL31:
 434              		.loc 1 234 0
 435 000c 0EBD     		pop	{r1, r2, r3, pc}
 436              	.L33:
 437 000e 00BF     		.align	2
 438              	.L32:
 439 0010 00000000 		.word	shell_thread
 440              		.cfi_endproc
 441              	.LFE63:
 442              		.size	shellCreate, .-shellCreate
 443              		.section	.text.shellCreateStatic,"ax",%progbits
 444              		.align	1
 445              		.global	shellCreateStatic
 446              		.thumb
 447              		.thumb_func
 448              		.type	shellCreateStatic, %function
 449              	shellCreateStatic:
 450              	.LFB64:
 451              		.loc 1 247 0
 452              		.cfi_startproc
ARM GAS  /tmp/ccFcDX3k.s 			page 9


 453              		@ args = 0, pretend = 0, frame = 0
 454              		@ frame_needed = 0, uses_anonymous_args = 0
 455              	.LVL32:
 456 0000 07B5     		push	{r0, r1, r2, lr}
 457              	.LCFI5:
 458              		.cfi_def_cfa_offset 16
 459              		.loc 1 249 0
 460 0002 0090     		str	r0, [sp, #0]
 461 0004 0846     		mov	r0, r1
 462              		.cfi_offset 14, -4
 463              		.cfi_offset 2, -8
 464              		.cfi_offset 1, -12
 465              		.cfi_offset 0, -16
 466              	.LVL33:
 467 0006 1146     		mov	r1, r2
 468              	.LVL34:
 469 0008 1A46     		mov	r2, r3
 470              	.LVL35:
 471 000a 024B     		ldr	r3, .L35
 472              	.LVL36:
 473 000c FFF7FEFF 		bl	chThdCreateStatic
 474              	.LVL37:
 475              		.loc 1 250 0
 476 0010 0EBD     		pop	{r1, r2, r3, pc}
 477              	.L36:
 478 0012 00BF     		.align	2
 479              	.L35:
 480 0014 00000000 		.word	shell_thread
 481              		.cfi_endproc
 482              	.LFE64:
 483              		.size	shellCreateStatic, .-shellCreateStatic
 484              		.section	.text.shellGetLine,"ax",%progbits
 485              		.align	1
 486              		.global	shellGetLine
 487              		.thumb
 488              		.thumb_func
 489              		.type	shellGetLine, %function
 490              	shellGetLine:
 491              	.LFB65:
 492              		.loc 1 262 0
 493              		.cfi_startproc
 494              		@ args = 0, pretend = 0, frame = 0
 495              		@ frame_needed = 0, uses_anonymous_args = 0
 496              	.LVL38:
 497 0000 2DE9F843 		push	{r3, r4, r5, r6, r7, r8, r9, lr}
 498              	.LCFI6:
 499              		.cfi_def_cfa_offset 32
 500              		.loc 1 262 0
 501 0004 0446     		mov	r4, r0
 502              		.cfi_offset 14, -4
 503              		.cfi_offset 9, -8
 504              		.cfi_offset 8, -12
 505              		.cfi_offset 7, -16
 506              		.cfi_offset 6, -20
 507              		.cfi_offset 5, -24
 508              		.cfi_offset 4, -28
 509              		.cfi_offset 3, -32
ARM GAS  /tmp/ccFcDX3k.s 			page 10


 510 0006 0F46     		mov	r7, r1
 511 0008 9146     		mov	r9, r2
 512              		.loc 1 263 0
 513 000a 0D46     		mov	r5, r1
 514              	.LVL39:
 515              	.L46:
 516              	.LBB2:
 517              		.loc 1 266 0
 518 000c 2368     		ldr	r3, [r4, #0]
 519 000e 2046     		mov	r0, r4
 520 0010 5B69     		ldr	r3, [r3, #20]
 521 0012 4FF0FF31 		mov	r1, #-1
 522 0016 9847     		blx	r3
 523              		.loc 1 267 0
 524 0018 06B2     		sxth	r6, r0
 525 001a 002E     		cmp	r6, #0
 526              		.loc 1 266 0
 527 001c 8046     		mov	r8, r0	@ movhi
 528              	.LVL40:
 529              		.loc 1 267 0
 530 001e 3FDB     		blt	.L44
 531              		.loc 1 269 0
 532 0020 042E     		cmp	r6, #4
 533 0022 06D1     		bne	.L40
 534              		.loc 1 270 0
 535 0024 2046     		mov	r0, r4
 536 0026 2049     		ldr	r1, .L47
 537 0028 FFF7FEFF 		bl	chprintf
 538              		.loc 1 271 0
 539 002c 0120     		movs	r0, #1
 540 002e BDE8F883 		pop	{r3, r4, r5, r6, r7, r8, r9, pc}
 541              	.L40:
 542              		.loc 1 273 0
 543 0032 082E     		cmp	r6, #8
 544 0034 18D1     		bne	.L41
 545              		.loc 1 274 0
 546 0036 BD42     		cmp	r5, r7
 547 0038 E8D0     		beq	.L46
 548              		.loc 1 275 0
 549 003a 2368     		ldr	r3, [r4, #0]
 550 003c 3146     		mov	r1, r6
 551 003e 1B69     		ldr	r3, [r3, #16]
 552 0040 4FF0FF32 		mov	r2, #-1
 553 0044 2046     		mov	r0, r4
 554 0046 9847     		blx	r3
 555              		.loc 1 276 0
 556 0048 2368     		ldr	r3, [r4, #0]
 557 004a 2021     		movs	r1, #32
 558 004c 1B69     		ldr	r3, [r3, #16]
 559 004e 4FF0FF32 		mov	r2, #-1
 560 0052 2046     		mov	r0, r4
 561 0054 9847     		blx	r3
 562              		.loc 1 277 0
 563 0056 2368     		ldr	r3, [r4, #0]
 564 0058 2046     		mov	r0, r4
 565 005a 1B69     		ldr	r3, [r3, #16]
 566 005c 3146     		mov	r1, r6
ARM GAS  /tmp/ccFcDX3k.s 			page 11


 567 005e 4FF0FF32 		mov	r2, #-1
 568 0062 9847     		blx	r3
 569              		.loc 1 278 0
 570 0064 013D     		subs	r5, r5, #1
 571              	.LVL41:
 572 0066 D1E7     		b	.L46
 573              	.L41:
 574              		.loc 1 282 0
 575 0068 0D2E     		cmp	r6, #13
 576 006a 07D1     		bne	.L43
 577              		.loc 1 283 0
 578 006c 2046     		mov	r0, r4
 579 006e 0F49     		ldr	r1, .L47+4
 580 0070 FFF7FEFF 		bl	chprintf
 581              		.loc 1 284 0
 582 0074 0020     		movs	r0, #0
 583 0076 2870     		strb	r0, [r5, #0]
 584              		.loc 1 285 0
 585 0078 BDE8F883 		pop	{r3, r4, r5, r6, r7, r8, r9, pc}
 586              	.L43:
 587              		.loc 1 287 0
 588 007c 1F2E     		cmp	r6, #31
 589 007e C5DD     		ble	.L46
 590              		.loc 1 289 0
 591 0080 09F1FF33 		add	r3, r9, #-1
 592 0084 FB18     		adds	r3, r7, r3
 593 0086 9D42     		cmp	r5, r3
 594 0088 C0D2     		bcs	.L46
 595              		.loc 1 290 0
 596 008a 2368     		ldr	r3, [r4, #0]
 597 008c 2046     		mov	r0, r4
 598 008e 1B69     		ldr	r3, [r3, #16]
 599 0090 5FFA88F1 		uxtb	r1, r8
 600 0094 4FF0FF32 		mov	r2, #-1
 601 0098 9847     		blx	r3
 602              		.loc 1 291 0
 603 009a 05F8018B 		strb	r8, [r5], #1
 604              	.LVL42:
 605 009e B5E7     		b	.L46
 606              	.L44:
 607              		.loc 1 268 0
 608 00a0 0120     		movs	r0, #1
 609              	.LBE2:
 610              		.loc 1 294 0
 611 00a2 BDE8F883 		pop	{r3, r4, r5, r6, r7, r8, r9, pc}
 612              	.L48:
 613 00a6 00BF     		.align	2
 614              	.L47:
 615 00a8 49010000 		.word	.LC24
 616 00ac 4C010000 		.word	.LC25
 617              		.cfi_endproc
 618              	.LFE65:
 619              		.size	shellGetLine, .-shellGetLine
 620              		.section	.text.shell_thread,"ax",%progbits
 621              		.align	1
 622              		.thumb
 623              		.thumb_func
ARM GAS  /tmp/ccFcDX3k.s 			page 12


 624              		.type	shell_thread, %function
 625              	shell_thread:
 626              	.LFB61:
 627              		.loc 1 150 0
 628              		.cfi_startproc
 629              		@ args = 0, pretend = 0, frame = 88
 630              		@ frame_needed = 0, uses_anonymous_args = 0
 631              	.LVL43:
 632 0000 2DE9F041 		push	{r4, r5, r6, r7, r8, lr}
 633              	.LCFI7:
 634              		.cfi_def_cfa_offset 24
 635              		.loc 1 158 0
 636 0004 474B     		ldr	r3, .L68
 637              		.loc 1 153 0
 638 0006 0468     		ldr	r4, [r0, #0]
 639              		.cfi_offset 14, -4
 640              		.cfi_offset 8, -8
 641              		.cfi_offset 7, -12
 642              		.cfi_offset 6, -16
 643              		.cfi_offset 5, -20
 644              		.cfi_offset 4, -24
 645              	.LVL44:
 646              		.loc 1 158 0
 647 0008 DB69     		ldr	r3, [r3, #28]
 648 000a 474A     		ldr	r2, .L68+4
 649              		.loc 1 159 0
 650 000c 4749     		ldr	r1, .L68+8
 651              		.loc 1 154 0
 652 000e D0F80480 		ldr	r8, [r0, #4]
 653              	.LVL45:
 654              		.loc 1 150 0
 655 0012 98B0     		sub	sp, sp, #96
 656              	.LCFI8:
 657              		.cfi_def_cfa_offset 120
 658              		.loc 1 158 0
 659 0014 9A61     		str	r2, [r3, #24]
 660              		.loc 1 159 0
 661 0016 2046     		mov	r0, r4
 662              	.LVL46:
 663              	.L66:
 664 0018 FFF7FEFF 		bl	chprintf
 665              	.LVL47:
 666              	.L65:
 667              		.loc 1 161 0
 668 001c 2046     		mov	r0, r4
 669 001e 4449     		ldr	r1, .L68+12
 670 0020 FFF7FEFF 		bl	chprintf
 671              		.loc 1 162 0
 672 0024 2046     		mov	r0, r4
 673 0026 02A9     		add	r1, sp, #8
 674 0028 4022     		movs	r2, #64
 675 002a FFF7FEFF 		bl	shellGetLine
 676 002e 0546     		mov	r5, r0
 677 0030 20B1     		cbz	r0, .L51
 678              		.loc 1 163 0
 679 0032 2046     		mov	r0, r4
 680 0034 3F49     		ldr	r1, .L68+16
ARM GAS  /tmp/ccFcDX3k.s 			page 13


 681 0036 FFF7FEFF 		bl	chprintf
 682              		.loc 1 164 0
 683 003a 64E0     		b	.L52
 684              	.L51:
 685              		.loc 1 166 0
 686 003c 02A8     		add	r0, sp, #8
 687 003e 17A9     		add	r1, sp, #92
 688 0040 FFF7FEFF 		bl	_strtok.clone.0
 689 0044 11AF     		add	r7, sp, #68
 690 0046 0646     		mov	r6, r0
 691              	.LVL48:
 692              		.loc 1 169 0
 693 0048 0AE0     		b	.L53
 694              	.LVL49:
 695              	.L56:
 696              		.loc 1 170 0
 697 004a 042D     		cmp	r5, #4
 698 004c 05D1     		bne	.L54
 699              		.loc 1 171 0
 700 004e 2046     		mov	r0, r4
 701              	.LVL50:
 702 0050 3949     		ldr	r1, .L68+20
 703 0052 FFF7FEFF 		bl	chprintf
 704              	.LVL51:
 705              		.loc 1 172 0
 706 0056 0026     		movs	r6, #0
 707              		.loc 1 173 0
 708 0058 08E0     		b	.L55
 709              	.LVL52:
 710              	.L54:
 711              		.loc 1 175 0
 712 005a 47F8040F 		str	r0, [r7, #4]!
 713 005e 0135     		adds	r5, r5, #1
 714              	.LVL53:
 715              	.L53:
 716              		.loc 1 169 0 discriminator 1
 717 0060 0020     		movs	r0, #0
 718              	.LVL54:
 719 0062 17A9     		add	r1, sp, #92
 720 0064 FFF7FEFF 		bl	_strtok.clone.0
 721              	.LVL55:
 722 0068 0028     		cmp	r0, #0
 723 006a EED1     		bne	.L56
 724              	.LVL56:
 725              	.L55:
 726              		.loc 1 177 0
 727 006c 18AA     		add	r2, sp, #96
 728 006e 02EB8503 		add	r3, r2, r5, lsl #2
 729 0072 0022     		movs	r2, #0
 730 0074 43F8182C 		str	r2, [r3, #-24]
 731              		.loc 1 178 0
 732 0078 002E     		cmp	r6, #0
 733 007a CFD0     		beq	.L65
 734              		.loc 1 179 0
 735 007c 3046     		mov	r0, r6
 736 007e 2F49     		ldr	r1, .L68+24
 737 0080 FFF7FEFF 		bl	strcasecmp
ARM GAS  /tmp/ccFcDX3k.s 			page 14


 738 0084 20B9     		cbnz	r0, .L58
 739              		.loc 1 180 0
 740 0086 002D     		cmp	r5, #0
 741 0088 3DD0     		beq	.L52
 742              		.loc 1 181 0
 743 008a 2046     		mov	r0, r4
 744 008c 2B49     		ldr	r1, .L68+24
 745 008e 07E0     		b	.L67
 746              	.L58:
 747              		.loc 1 186 0
 748 0090 3046     		mov	r0, r6
 749 0092 2B49     		ldr	r1, .L68+28
 750 0094 FFF7FEFF 		bl	strcasecmp
 751 0098 B8B9     		cbnz	r0, .L60
 752              		.loc 1 187 0
 753 009a 25B1     		cbz	r5, .L61
 754              		.loc 1 188 0
 755 009c 2849     		ldr	r1, .L68+28
 756 009e 2046     		mov	r0, r4
 757              	.L67:
 758 00a0 FFF7FEFF 		bl	usage
 759              		.loc 1 189 0
 760 00a4 BAE7     		b	.L65
 761              	.L61:
 762              		.loc 1 191 0
 763 00a6 2046     		mov	r0, r4
 764 00a8 2649     		ldr	r1, .L68+32
 765 00aa FFF7FEFF 		bl	chprintf
 766              		.loc 1 192 0
 767 00ae 2046     		mov	r0, r4
 768 00b0 2549     		ldr	r1, .L68+36
 769 00b2 FFF7FEFF 		bl	list_commands
 770              		.loc 1 193 0
 771 00b6 B8F1000F 		cmp	r8, #0
 772 00ba 03D0     		beq	.L62
 773              		.loc 1 194 0
 774 00bc 2046     		mov	r0, r4
 775 00be 4146     		mov	r1, r8
 776 00c0 FFF7FEFF 		bl	list_commands
 777              	.L62:
 778              		.loc 1 195 0
 779 00c4 2046     		mov	r0, r4
 780 00c6 2149     		ldr	r1, .L68+40
 781 00c8 A6E7     		b	.L66
 782              	.L60:
 783              		.loc 1 197 0
 784 00ca 12AF     		add	r7, sp, #72
 785 00cc 1E48     		ldr	r0, .L68+36
 786 00ce 2146     		mov	r1, r4
 787 00d0 3246     		mov	r2, r6
 788 00d2 2B46     		mov	r3, r5
 789 00d4 0097     		str	r7, [sp, #0]
 790 00d6 FFF7FEFF 		bl	cmdexec
 791 00da 0028     		cmp	r0, #0
 792 00dc 9ED0     		beq	.L65
 793              		.loc 1 197 0 is_stmt 0 discriminator 1
 794 00de B8F1000F 		cmp	r8, #0
ARM GAS  /tmp/ccFcDX3k.s 			page 15


 795 00e2 08D0     		beq	.L63
 796              		.loc 1 198 0 is_stmt 1
 797 00e4 4046     		mov	r0, r8
 798 00e6 2146     		mov	r1, r4
 799 00e8 3246     		mov	r2, r6
 800 00ea 2B46     		mov	r3, r5
 801 00ec 0097     		str	r7, [sp, #0]
 802 00ee FFF7FEFF 		bl	cmdexec
 803 00f2 0028     		cmp	r0, #0
 804 00f4 92D0     		beq	.L65
 805              	.L63:
 806              		.loc 1 199 0
 807 00f6 2046     		mov	r0, r4
 808 00f8 1549     		ldr	r1, .L68+44
 809 00fa 3246     		mov	r2, r6
 810 00fc FFF7FEFF 		bl	chprintf
 811              		.loc 1 200 0
 812 0100 2046     		mov	r0, r4
 813 0102 1449     		ldr	r1, .L68+48
 814 0104 88E7     		b	.L66
 815              	.LVL57:
 816              	.L52:
 817              		.loc 1 206 0
 818              	@ 206 "../chibios/os/various/shell.c" 1
 819 0106 FFF7FEFF 		bl      _port_lock
 820              	@ 0 "" 2
 821              		.thumb
 822 010a FFF7FEFF 		bl	dbg_check_lock
 823              		.loc 1 207 0
 824 010e 0021     		movs	r1, #0
 825 0110 1148     		ldr	r0, .L68+52
 826 0112 FFF7FEFF 		bl	chEvtBroadcastFlagsI
 827              		.loc 1 208 0
 828 0116 0020     		movs	r0, #0
 829 0118 FFF7FEFF 		bl	chThdExitS
 830              		.loc 1 210 0
 831 011c 0020     		movs	r0, #0
 832 011e 18B0     		add	sp, sp, #96
 833 0120 BDE8F081 		pop	{r4, r5, r6, r7, r8, pc}
 834              	.L69:
 835              		.align	2
 836              	.L68:
 837 0124 00000000 		.word	rlist
 838 0128 4F010000 		.word	.LC26
 839 012c 55010000 		.word	.LC27
 840 0130 6A010000 		.word	.LC28
 841 0134 6F010000 		.word	.LC29
 842 0138 78010000 		.word	.LC30
 843 013c 8D010000 		.word	.LC31
 844 0140 92010000 		.word	.LC32
 845 0144 97010000 		.word	.LC33
 846 0148 00000000 		.word	.LANCHOR2
 847 014c 4C010000 		.word	.LC25
 848 0150 AC010000 		.word	.LC34
 849 0154 AF010000 		.word	.LC35
 850 0158 00000000 		.word	.LANCHOR1
 851              		.cfi_endproc
ARM GAS  /tmp/ccFcDX3k.s 			page 16


 852              	.LFE61:
 853              		.size	shell_thread, .-shell_thread
 854              		.global	shell_terminated
 855              		.section	.rodata
 856              		.set	.LANCHOR0,. + 0
 857              	.LC23:
 858 0000 20003900 		.ascii	" \0009\000"
 859              		.section	.rodata.str1.1,"aMS",%progbits,1
 860              	.LC0:
 861 0000 55736167 		.ascii	"Usage: %s\015\012\000"
 861      653A2025 
 861      730D0A00 
 862              	.LC1:
 863 000c 73797374 		.ascii	"systime\000"
 863      696D6500 
 864              	.LC2:
 865 0014 256C750D 		.ascii	"%lu\015\012\000"
 865      0A00
 866              	.LC3:
 867 001a 696E666F 		.ascii	"info\000"
 867      00
 868              	.LC4:
 869 001f 4B65726E 		.ascii	"Kernel:       %s\015\012\000"
 869      656C3A20 
 869      20202020 
 869      20202573 
 869      0D0A00
 870              	.LC5:
 871 0032 322E342E 		.ascii	"2.4.2\000"
 871      3200
 872              	.LC6:
 873 0038 436F6D70 		.ascii	"Compiler:     %s\015\012\000"
 873      696C6572 
 873      3A202020 
 873      20202573 
 873      0D0A00
 874              	.LC7:
 875 004b 47434320 		.ascii	"GCC 4.5.2\000"
 875      342E352E 
 875      3200
 876              	.LC8:
 877 0055 41726368 		.ascii	"Architecture: %s\015\012\000"
 877      69746563 
 877      74757265 
 877      3A202573 
 877      0D0A00
 878              	.LC9:
 879 0068 41524D76 		.ascii	"ARMv7-M\000"
 879      372D4D00 
 880              	.LC10:
 881 0070 436F7265 		.ascii	"Core Variant: %s\015\012\000"
 881      20566172 
 881      69616E74 
 881      3A202573 
 881      0D0A00
 882              	.LC11:
 883 0083 436F7274 		.ascii	"Cortex-M3\000"
ARM GAS  /tmp/ccFcDX3k.s 			page 17


 883      65782D4D 
 883      3300
 884              	.LC12:
 885 008d 506F7274 		.ascii	"Port Info:    %s\015\012\000"
 885      20496E66 
 885      6F3A2020 
 885      20202573 
 885      0D0A00
 886              	.LC13:
 887 00a0 41647661 		.ascii	"Advanced kernel mode\000"
 887      6E636564 
 887      206B6572 
 887      6E656C20 
 887      6D6F6465 
 888              	.LC14:
 889 00b5 506C6174 		.ascii	"Platform:     %s\015\012\000"
 889      666F726D 
 889      3A202020 
 889      20202573 
 889      0D0A00
 890              	.LC15:
 891 00c8 53544D33 		.ascii	"STM32F1 Performance Line Medium Density\000"
 891      32463120 
 891      50657266 
 891      6F726D61 
 891      6E636520 
 892              	.LC16:
 893 00f0 426F6172 		.ascii	"Board:        %s\015\012\000"
 893      643A2020 
 893      20202020 
 893      20202573 
 893      0D0A00
 894              	.LC17:
 895 0103 4F6C696D 		.ascii	"Olimex STM32-P103\000"
 895      65782053 
 895      544D3332 
 895      2D503130 
 895      3300
 896              	.LC18:
 897 0115 4275696C 		.ascii	"Build time:   %s%s%s\015\012\000"
 897      64207469 
 897      6D653A20 
 897      20202573 
 897      25732573 
 898              	.LC19:
 899 012c 41756720 		.ascii	"Aug 16 2013\000"
 899      31362032 
 899      30313300 
 900              	.LC20:
 901 0138 202D2000 		.ascii	" - \000"
 902              	.LC21:
 903 013c 32323A33 		.ascii	"22:34:08\000"
 903      343A3038 
 903      00
 904              	.LC22:
 905 0145 25732000 		.ascii	"%s \000"
 906              	.LC24:
ARM GAS  /tmp/ccFcDX3k.s 			page 18


 907 0149 5E4400   		.ascii	"^D\000"
 908              	.LC25:
 909 014c 0D0A00   		.ascii	"\015\012\000"
 910              	.LC26:
 911 014f 7368656C 		.ascii	"shell\000"
 911      6C00
 912              	.LC27:
 913 0155 0D0A4368 		.ascii	"\015\012ChibiOS/RT Shell\015\012\000"
 913      6962694F 
 913      532F5254 
 913      20536865 
 913      6C6C0D0A 
 914              	.LC28:
 915 016a 63683E20 		.ascii	"ch> \000"
 915      00
 916              	.LC29:
 917 016f 0D0A6C6F 		.ascii	"\015\012logout\000"
 917      676F7574 
 917      00
 918              	.LC30:
 919 0178 746F6F20 		.ascii	"too many arguments\015\012\000"
 919      6D616E79 
 919      20617267 
 919      756D656E 
 919      74730D0A 
 920              	.LC31:
 921 018d 65786974 		.ascii	"exit\000"
 921      00
 922              	.LC32:
 923 0192 68656C70 		.ascii	"help\000"
 923      00
 924              	.LC33:
 925 0197 436F6D6D 		.ascii	"Commands: help exit \000"
 925      616E6473 
 925      3A206865 
 925      6C702065 
 925      78697420 
 926              	.LC34:
 927 01ac 257300   		.ascii	"%s\000"
 928              	.LC35:
 929 01af 203F0D0A 		.ascii	" ?\015\012\000"
 929      00
 930              		.section	.data.local_commands,"aw",%progbits
 931              		.align	2
 932              		.set	.LANCHOR2,. + 0
 933              		.type	local_commands, %object
 934              		.size	local_commands, 24
 935              	local_commands:
 936 0000 1A000000 		.word	.LC3
 937 0004 00000000 		.word	cmd_info
 938 0008 0C000000 		.word	.LC1
 939 000c 00000000 		.word	cmd_systime
 940 0010 00000000 		.word	0
 941 0014 00000000 		.word	0
 942              		.section	.bss.shell_terminated,"aw",%nobits
 943              		.align	2
 944              		.set	.LANCHOR1,. + 0
ARM GAS  /tmp/ccFcDX3k.s 			page 19


 945              		.type	shell_terminated, %object
 946              		.size	shell_terminated, 4
 947              	shell_terminated:
 948 0000 00000000 		.space	4
 949              		.text
 950              	.Letext0: