ARM GAS  /tmp/ccFcDX3k.s 			page 1


   1              		.syntax unified
   2              		.cpu cortex-m3
   3              		.fpu softvfp
   4              		.eabi_attribute 20, 1
   5              		.eabi_attribute 21, 1
   6              		.eabi_attribute 23, 3
   7              		.eabi_attribute 24, 1
   8              		.eabi_attribute 25, 1
   9              		.eabi_attribute 26, 1
  10              		.eabi_attribute 30, 4
  11              		.eabi_attribute 18, 4
  12              		.thumb
  13              		.file	"shell.c"
  14              		.section	.debug_abbrev,"",%progbits
  15              	.Ldebug_abbrev0:
  16              		.section	.debug_info,"",%progbits
  17              	.Ldebug_info0:
  18              		.section	.debug_line,"",%progbits
  19              	.Ldebug_line0:
  20 0000 5D030000 		.text
  20      02000D02 
  20      00000201 
  20      FB0E0D00 
  20      01010101 
  21              	.Ltext0:
  22              		.cfi_sections	.debug_frame
  23              		.section	.text.usage,"ax",%progbits
  24              		.align	1
  25              		.thumb
  26              		.thumb_func
  27              		.type	usage, %function
  28              	usage:
  29              	.LFB56:
  30              		.file 1 "../chibios/os/various/shell.c"
  31              		.loc 1 65 0
  32              		.cfi_startproc
  33              		@ args = 0, pretend = 0, frame = 0
  34              		@ frame_needed = 0, uses_anonymous_args = 0
  35              		@ link register save eliminated.
  36              	.LVL0:
  37              		.loc 1 65 0
  38 0000 0A46     		mov	r2, r1
  39              		.loc 1 67 0
  40 0002 0149     		ldr	r1, .L2
  41              	.LVL1:
  42              		.loc 1 68 0
  43              		.loc 1 67 0
  44 0004 FFF7FEBF 		b	chprintf
  45              	.LVL2:
  46              	.L3:
  47              		.align	2
  48              	.L2:
  49 0008 00000000 		.word	.LC0
  50              		.cfi_endproc
  51              	.LFE56:
  52              		.size	usage, .-usage
  53              		.section	.text.cmd_systime,"ax",%progbits
ARM GAS  /tmp/ccFcDX3k.s 			page 2


  54              		.align	1
  55              		.thumb
  56              		.thumb_func
  57              		.type	cmd_systime, %function
  58              	cmd_systime:
  59              	.LFB59:
  60              		.loc 1 110 0
  61              		.cfi_startproc
  62              		@ args = 0, pretend = 0, frame = 0
  63              		@ frame_needed = 0, uses_anonymous_args = 0
  64              		@ link register save eliminated.
  65              	.LVL3:
  66              		.loc 1 113 0
  67 0000 0029     		cmp	r1, #0
  68 0002 02DD     		ble	.L5
  69              		.loc 1 114 0
  70 0004 0349     		ldr	r1, .L6
  71              	.LVL4:
  72              		.loc 1 118 0
  73              		.loc 1 114 0
  74 0006 FFF7FEBF 		b	usage
  75              	.LVL5:
  76              	.L5:
  77              		.loc 1 117 0
  78 000a 034B     		ldr	r3, .L6+4
  79 000c 0349     		ldr	r1, .L6+8
  80              	.LVL6:
  81 000e DA68     		ldr	r2, [r3, #12]
  82              	.LVL7:
  83              		.loc 1 118 0
  84              		.loc 1 117 0
  85 0010 FFF7FEBF 		b	chprintf
  86              	.LVL8:
  87              	.L7:
  88              		.align	2
  89              	.L6:
  90 0014 0C000000 		.word	.LC1
  91 0018 00000000 		.word	vtlist
  92 001c 14000000 		.word	.LC2
  93              		.cfi_endproc
  94              	.LFE59:
  95              		.size	cmd_systime, .-cmd_systime
  96              		.section	.text.cmd_info,"ax",%progbits
  97              		.align	1
  98              		.thumb
  99              		.thumb_func
 100              		.type	cmd_info, %function
 101              	cmd_info:
 102              	.LFB58:
 103              		.loc 1 78 0
 104              		.cfi_startproc
 105              		@ args = 0, pretend = 0, frame = 0
 106              		@ frame_needed = 0, uses_anonymous_args = 0
 107              	.LVL9:
 108              		.loc 1 81 0
 109 0000 0029     		cmp	r1, #0
 110              		.loc 1 78 0
ARM GAS  /tmp/ccFcDX3k.s 			page 3


 111 0002 13B5     		push	{r0, r1, r4, lr}
 112              	.LCFI0:
 113              		.cfi_def_cfa_offset 16
 114              		.loc 1 78 0
 115 0004 0446     		mov	r4, r0
 116              		.cfi_offset 14, -4
 117              		.cfi_offset 4, -8
 118              		.cfi_offset 1, -12
 119              		.cfi_offset 0, -16
 120              		.loc 1 81 0
 121 0006 05DD     		ble	.L9
 122              		.loc 1 82 0
 123 0008 1849     		ldr	r1, .L10
 124              	.LVL10:
 125              		.loc 1 108 0
 126 000a 02B0     		add	sp, sp, #8
 127 000c BDE81040 		pop	{r4, lr}
 128              		.loc 1 82 0
 129 0010 FFF7FEBF 		b	usage
 130              	.LVL11:
 131              	.L9:
 132              		.loc 1 86 0
 133 0014 1649     		ldr	r1, .L10+4
 134              	.LVL12:
 135 0016 174A     		ldr	r2, .L10+8
 136              	.LVL13:
 137 0018 FFF7FEFF 		bl	chprintf
 138              		.loc 1 88 0
 139 001c 2046     		mov	r0, r4
 140 001e 1649     		ldr	r1, .L10+12
 141 0020 164A     		ldr	r2, .L10+16
 142 0022 FFF7FEFF 		bl	chprintf
 143              		.loc 1 90 0
 144 0026 2046     		mov	r0, r4
 145 0028 1549     		ldr	r1, .L10+20
 146 002a 164A     		ldr	r2, .L10+24
 147 002c FFF7FEFF 		bl	chprintf
 148              		.loc 1 92 0
 149 0030 2046     		mov	r0, r4
 150 0032 1549     		ldr	r1, .L10+28
 151 0034 154A     		ldr	r2, .L10+32
 152 0036 FFF7FEFF 		bl	chprintf
 153              		.loc 1 95 0
 154 003a 2046     		mov	r0, r4
 155 003c 1449     		ldr	r1, .L10+36
 156 003e 154A     		ldr	r2, .L10+40
 157 0040 FFF7FEFF 		bl	chprintf
 158              		.loc 1 98 0
 159 0044 2046     		mov	r0, r4
 160 0046 1449     		ldr	r1, .L10+44
 161 0048 144A     		ldr	r2, .L10+48
 162 004a FFF7FEFF 		bl	chprintf
 163              		.loc 1 101 0
 164 004e 2046     		mov	r0, r4
 165 0050 1349     		ldr	r1, .L10+52
 166 0052 144A     		ldr	r2, .L10+56
 167 0054 FFF7FEFF 		bl	chprintf
ARM GAS  /tmp/ccFcDX3k.s 			page 4


 168              		.loc 1 105 0
 169 0058 134B     		ldr	r3, .L10+60
 170 005a 2046     		mov	r0, r4
 171 005c 0093     		str	r3, [sp, #0]
 172 005e 1349     		ldr	r1, .L10+64
 173 0060 134A     		ldr	r2, .L10+68
 174 0062 144B     		ldr	r3, .L10+72
 175 0064 FFF7FEFF 		bl	chprintf
 176              		.loc 1 108 0
 177 0068 02B0     		add	sp, sp, #8
 178 006a 10BD     		pop	{r4, pc}
 179              	.L11:
 180              		.align	2
 181              	.L10:
 182 006c 1A000000 		.word	.LC3
 183 0070 1F000000 		.word	.LC4
 184 0074 32000000 		.word	.LC5
 185 0078 38000000 		.word	.LC6
 186 007c 4B000000 		.word	.LC7
 187 0080 55000000 		.word	.LC8
 188 0084 68000000 		.word	.LC9
 189 0088 70000000 		.word	.LC10
 190 008c 83000000 		.word	.LC11
 191 0090 8D000000 		.word	.LC12
 192 0094 A0000000 		.word	.LC13
 193 0098 B5000000 		.word	.LC14
 194 009c C8000000 		.word	.LC15
 195 00a0 F0000000 		.word	.LC16
 196 00a4 03010000 		.word	.LC17
 197 00a8 3C010000 		.word	.LC21
 198 00ac 15010000 		.word	.LC18
 199 00b0 2C010000 		.word	.LC19
 200 00b4 38010000 		.word	.LC20
 201              		.cfi_endproc
 202              	.LFE58:
 203              		.size	cmd_info, .-cmd_info
 204              		.section	.text.list_commands,"ax",%progbits
 205              		.align	1
 206              		.thumb
 207              		.thumb_func
 208              		.type	list_commands, %function
 209              	list_commands:
 210              	.LFB57:
 211              		.loc 1 70 0
 212              		.cfi_startproc
 213              		@ args = 0, pretend = 0, frame = 0
 214              		@ frame_needed = 0, uses_anonymous_args = 0
 215              	.LVL14:
 216 0000 38B5     		push	{r3, r4, r5, lr}
 217              	.LCFI1:
 218              		.cfi_def_cfa_offset 16
 219              		.loc 1 70 0
 220 0002 0546     		mov	r5, r0
 221              		.cfi_offset 14, -4
 222              		.cfi_offset 5, -8
 223              		.cfi_offset 4, -12
 224              		.cfi_offset 3, -16
ARM GAS  /tmp/ccFcDX3k.s 			page 5


 225 0004 0C46     		mov	r4, r1
 226              		.loc 1 72 0
 227 0006 04E0     		b	.L13
 228              	.LVL15:
 229              	.L14:
 230              		.loc 1 73 0
 231 0008 2846     		mov	r0, r5
 232 000a 0449     		ldr	r1, .L15
 233 000c FFF7FEFF 		bl	chprintf
 234              		.loc 1 74 0
 235 0010 0834     		adds	r4, r4, #8
 236              	.LVL16:
 237              	.L13:
 238              		.loc 1 72 0 discriminator 1
 239 0012 2268     		ldr	r2, [r4, #0]
 240 0014 002A     		cmp	r2, #0
 241 0016 F7D1     		bne	.L14
 242              		.loc 1 76 0
 243 0018 38BD     		pop	{r3, r4, r5, pc}
 244              	.L16:
 245 001a 00BF     		.align	2
 246              	.L15:
 247 001c 45010000 		.word	.LC22
 248              		.cfi_endproc
 249              	.LFE57:
 250              		.size	list_commands, .-list_commands
 251              		.section	.text.cmdexec,"ax",%progbits
 252              		.align	1
 253              		.thumb
 254              		.thumb_func
 255              		.type	cmdexec, %function
 256              	cmdexec:
 257              	.LFB60:
 258              		.loc 1 130 0
 259              		.cfi_startproc
 260              		@ args = 4, pretend = 0, frame = 0
 261              		@ frame_needed = 0, uses_anonymous_args = 0
 262              	.LVL17:
 263 0000 2DE9F041 		push	{r4, r5, r6, r7, r8, lr}
 264              	.LCFI2:
 265              		.cfi_def_cfa_offset 24
 266              		.loc 1 130 0
 267 0004 0446     		mov	r4, r0
 268              		.cfi_offset 14, -4
 269              		.cfi_offset 8, -8
 270              		.cfi_offset 7, -12
 271              		.cfi_offset 6, -16
 272              		.cfi_offset 5, -20
 273              		.cfi_offset 4, -24
 274 0006 0D46     		mov	r5, r1
 275 0008 1746     		mov	r7, r2
 276 000a 9846     		mov	r8, r3
 277              		.loc 1 132 0
 278 000c 0DE0     		b	.L18
 279              	.LVL18:
 280              	.L21:
 281              		.loc 1 133 0
ARM GAS  /tmp/ccFcDX3k.s 			page 6


 282 000e 3946     		mov	r1, r7
 283 0010 FFF7FEFF 		bl	strcasecmp
 284 0014 0646     		mov	r6, r0
 285 0016 38B9     		cbnz	r0, .L19
 286              		.loc 1 134 0
 287 0018 2846     		mov	r0, r5
 288 001a 6468     		ldr	r4, [r4, #4]
 289              	.LVL19:
 290 001c 4146     		mov	r1, r8
 291 001e 069A     		ldr	r2, [sp, #24]
 292 0020 A047     		blx	r4
 293              		.loc 1 135 0
 294 0022 3046     		mov	r0, r6
 295 0024 BDE8F081 		pop	{r4, r5, r6, r7, r8, pc}
 296              	.LVL20:
 297              	.L19:
 298              		.loc 1 137 0
 299 0028 0834     		adds	r4, r4, #8
 300              	.LVL21:
 301              	.L18:
 302              		.loc 1 132 0 discriminator 1
 303 002a 2068     		ldr	r0, [r4, #0]
 304 002c 0028     		cmp	r0, #0
 305 002e EED1     		bne	.L21
 306              		.loc 1 139 0
 307 0030 0130     		adds	r0, r0, #1
 308              		.loc 1 140 0
 309 0032 BDE8F081 		pop	{r4, r5, r6, r7, r8, pc}
 310              		.cfi_endproc
 311              	.LFE60:
 312              		.size	cmdexec, .-cmdexec
 313              		.section	.text._strtok.clone.0,"ax",%progbits
 314              		.align	1
 315              		.thumb
 316              		.thumb_func
 317              		.type	_strtok.clone.0, %function
 318              	_strtok.clone.0:
 319              	.LFB66:
 320              		.loc 1 48 0
 321              		.cfi_startproc
 322              		@ args = 0, pretend = 0, frame = 0
 323              		@ frame_needed = 0, uses_anonymous_args = 0
 324              	.LVL22:
 325 0000 38B5     		push	{r3, r4, r5, lr}
 326              	.LCFI3:
 327              		.cfi_def_cfa_offset 16
 328              		.loc 1 48 0
 329 0002 0D46     		mov	r5, r1
 330              		.cfi_offset 14, -4
 331              		.cfi_offset 5, -8
 332              		.cfi_offset 4, -12
 333              		.cfi_offset 3, -16
 334              		.loc 1 50 0
 335 0004 00B1     		cbz	r0, .L23
 336              		.loc 1 51 0
 337 0006 0860     		str	r0, [r1, #0]
 338              	.L23:
ARM GAS  /tmp/ccFcDX3k.s 			page 7


 339              		.loc 1 52 0
 340 0008 2C68     		ldr	r4, [r5, #0]
 341              	.LVL23:
 342              		.loc 1 54 0
 343 000a 94B1     		cbz	r4, .L24
 344              		.loc 1 57 0
 345 000c 2046     		mov	r0, r4
 346              	.LVL24:
 347 000e 0A49     		ldr	r1, .L26
 348              	.LVL25:
 349 0010 FFF7FEFF 		bl	strspn
 350              	.LVL26:
 351 0014 2418     		adds	r4, r4, r0
 352              	.LVL27:
 353              		.loc 1 58 0
 354 0016 2046     		mov	r0, r4
 355 0018 2021     		movs	r1, #32
 356 001a FFF7FEFF 		bl	strchr
 357 001e 2860     		str	r0, [r5, #0]
 358              		.loc 1 59 0
 359 0020 18B1     		cbz	r0, .L25
 360              		.loc 1 60 0
 361 0022 0023     		movs	r3, #0
 362 0024 00F8013B 		strb	r3, [r0], #1
 363 0028 2860     		str	r0, [r5, #0]
 364              	.L25:
 365              		.loc 1 62 0
 366 002a 2378     		ldrb	r3, [r4, #0]	@ zero_extendqisi2
 367 002c 002B     		cmp	r3, #0
 368 002e 08BF     		it	eq
 369 0030 0024     		moveq	r4, #0
 370              	.LVL28:
 371              	.L24:
 372              		.loc 1 63 0
 373 0032 2046     		mov	r0, r4
 374 0034 38BD     		pop	{r3, r4, r5, pc}
 375              	.L27:
 376 0036 00BF     		.align	2
 377              	.L26:
 378 0038 00000000 		.word	.LANCHOR0
 379              		.cfi_endproc
 380              	.LFE66:
 381              		.size	_strtok.clone.0, .-_strtok.clone.0
 382              		.section	.text.shellInit,"ax",%progbits
 383              		.align	1
 384              		.global	shellInit
 385              		.thumb
 386              		.thumb_func
 387              		.type	shellInit, %function
 388              	shellInit:
 389              	.LFB62:
 390              		.loc 1 215 0
 391              		.cfi_startproc
 392              		@ args = 0, pretend = 0, frame = 0
 393              		@ frame_needed = 0, uses_anonymous_args = 0
 394              		@ link register save eliminated.
 395              		.loc 1 217 0
ARM GAS  /tmp/ccFcDX3k.s 			page 8


 396 0000 014B     		ldr	r3, .L29
 397 0002 1B60     		str	r3, [r3, #0]
 398              		.loc 1 218 0
 399 0004 7047     		bx	lr
 400              	.L30:
 401 0006 00BF     		.align	2
 402              	.L29:
 403 0008 00000000 		.word	.LANCHOR1
 404              		.cfi_endproc
 405              	.LFE62:
 406              		.size	shellInit, .-shellInit
 407              		.section	.text.shellCreate,"ax",%progbits
 408              		.align	1
 409              		.global	shellCreate
 410              		.thumb
 411              		.thumb_func
 412              		.type	shellCreate, %function
 413              	shellCreate:
 414              	.LFB63:
 415              		.loc 1 231 0
 416              		.cfi_startproc
 417              		@ args = 0, pretend = 0, frame = 0
 418              		@ frame_needed = 0, uses_anonymous_args = 0
 419              	.LVL29:
 420 0000 07B5     		push	{r0, r1, r2, lr}
 421              	.LCFI4:
 422              		.cfi_def_cfa_offset 16
 423              		.loc 1 233 0
 424 0002 034B     		ldr	r3, .L32
 425 0004 0090     		str	r0, [sp, #0]
 426 0006 0020     		movs	r0, #0
 427              		.cfi_offset 14, -4
 428              		.cfi_offset 2, -8
 429              		.cfi_offset 1, -12
 430              		.cfi_offset 0, -16
 431              	.LVL30:
 432 0008 FFF7FEFF 		bl	chThdCreateFromHeap
 433              	.LVL31:
 434              		.loc 1 234 0
 435 000c 0EBD     		pop	{r1, r2, r3, pc}
 436              	.L33:
 437 000e 00BF     		.align	2
 438              	.L32:
 439 0010 00000000 		.word	shell_thread
 440              		.cfi_endproc
 441              	.LFE63:
 442              		.size	shellCreate, .-shellCreate
 443              		.section	.text.shellCreateStatic,"ax",%progbits
 444              		.align	1
 445              		.global	shellCreateStatic
 446              		.thumb
 447              		.thumb_func
 448              		.type	shellCreateStatic, %function
 449              	shellCreateStatic:
 450              	.LFB64:
 451              		.loc 1 247 0
 452              		.cfi_startproc
ARM GAS  /tmp/ccFcDX3k.s 			page 9


 453              		@ args = 0, pretend = 0, frame = 0
 454              		@ frame_needed = 0, uses_anonymous_args = 0
 455              	.LVL32:
 456 0000 07B5     		push	{r0, r1, r2, lr}
 457              	.LCFI5:
 458              		.cfi_def_cfa_offset 16
 459              		.loc 1 249 0
 460 0002 0090     		str	r0, [sp, #0]
 461 0004 0846     		mov	r0, r1
 462              		.cfi_offset 14, -4
 463              		.cfi_offset 2, -8
 464              		.cfi_offset 1, -12
 465              		.cfi_offset 0, -16
 466              	.LVL33:
 467 0006 1146     		mov	r1, r2
 468              	.LVL34:
 469 0008 1A46     		mov	r2, r3
 470              	.LVL35:
 471 000a 024B     		ldr	r3, .L35
 472              	.LVL36:
 473 000c FFF7FEFF 		bl	chThdCreateStatic
 474              	.LVL37:
 475              		.loc 1 250 0
 476 0010 0EBD     		pop	{r1, r2, r3, pc}
 477              	.L36:
 478 0012 00BF     		.align	2
 479              	.L35:
 480 0014 00000000 		.word	shell_thread
 481              		.cfi_endproc
 482              	.LFE64:
 483              		.size	shellCreateStatic, .-shellCreateStatic
 484              		.section	.text.shellGetLine,"ax",%progbits
 485              		.align	1
 486              		.global	shellGetLine
 487              		.thumb
 488              		.thumb_func
 489              		.type	shellGetLine, %function
 490              	shellGetLine:
 491              	.LFB65:
 492              		.loc 1 262 0
 493              		.cfi_startproc
 494              		@ args = 0, pretend = 0, frame = 0
 495              		@ frame_needed = 0, uses_anonymous_args = 0
 496              	.LVL38:
 497 0000 2DE9F843 		push	{r3, r4, r5, r6, r7, r8, r9, lr}
 498              	.LCFI6:
 499              		.cfi_def_cfa_offset 32
 500              		.loc 1 262 0
 501 0004 0446     		mov	r4, r0
 502              		.cfi_offset 14, -4
 503              		.cfi_offset 9, -8
 504              		.cfi_offset 8, -12
 505              		.cfi_offset 7, -16
 506              		.cfi_offset 6, -20
 507              		.cfi_offset 5, -24
 508              		.cfi_offset 4, -28
 509              		.cfi_offset 3, -32
ARM GAS  /tmp/ccFcDX3k.s 			page 10


 510 0006 0F46     		mov	r7, r1
 511 0008 9146     		mov	r9, r2
 512              		.loc 1 263 0
 513 000a 0D46     		mov	r5, r1
 514              	.LVL39:
 515              	.L46:
 516              	.LBB2:
 517              		.loc 1 266 0
 518 000c 2368     		ldr	r3, [r4, #0]
 519 000e 2046     		mov	r0, r4
 520 0010 5B69     		ldr	r3, [r3, #20]
 521 0012 4FF0FF31 		mov	r1, #-1
 522 0016 9847     		blx	r3
 523              		.loc 1 267 0
 524 0018 06B2     		sxth	r6, r0
 525 001a 002E     		cmp	r6, #0
 526              		.loc 1 266 0
 527 001c 8046     		mov	r8, r0	@ movhi
 528              	.LVL40:
 529              		.loc 1 267 0
 530 001e 3FDB     		blt	.L44
 531              		.loc 1 269 0
 532 0020 042E     		cmp	r6, #4
 533 0022 06D1     		bne	.L40
 534              		.loc 1 270 0
 535 0024 2046     		mov	r0, r4
 536 0026 2049     		ldr	r1, .L47
 537 0028 FFF7FEFF 		bl	chprintf
 538              		.loc 1 271 0
 539 002c 0120     		movs	r0, #1
 540 002e BDE8F883 		pop	{r3, r4, r5, r6, r7, r8, r9, pc}
 541              	.L40:
 542              		.loc 1 273 0
 543 0032 082E     		cmp	r6, #8
 544 0034 18D1     		bne	.L41
 545              		.loc 1 274 0
 546 0036 BD42     		cmp	r5, r7
 547 0038 E8D0     		beq	.L46
 548              		.loc 1 275 0
 549 003a 2368     		ldr	r3, [r4, #0]
 550 003c 3146     		mov	r1, r6
 551 003e 1B69     		ldr	r3, [r3, #16]
 552 0040 4FF0FF32 		mov	r2, #-1
 553 0044 2046     		mov	r0, r4
 554 0046 9847     		blx	r3
 555              		.loc 1 276 0
 556 0048 2368     		ldr	r3, [r4, #0]
 557 004a 2021     		movs	r1, #32
 558 004c 1B69     		ldr	r3, [r3, #16]
 559 004e 4FF0FF32 		mov	r2, #-1
 560 0052 2046     		mov	r0, r4
 561 0054 9847     		blx	r3
 562              		.loc 1 277 0
 563 0056 2368     		ldr	r3, [r4, #0]
 564 0058 2046     		mov	r0, r4
 565 005a 1B69     		ldr	r3, [r3, #16]
 566 005c 3146     		mov	r1, r6
ARM GAS  /tmp/ccFcDX3k.s 			page 11


 567 005e 4FF0FF32 		mov	r2, #-1
 568 0062 9847     		blx	r3
 569              		.loc 1 278 0
 570 0064 013D     		subs	r5, r5, #1
 571              	.LVL41:
 572 0066 D1E7     		b	.L46
 573              	.L41:
 574              		.loc 1 282 0
 575 0068 0D2E     		cmp	r6, #13
 576 006a 07D1     		bne	.L43
 577              		.loc 1 283 0
 578 006c 2046     		mov	r0, r4
 579 006e 0F49     		ldr	r1, .L47+4
 580 0070 FFF7FEFF 		bl	chprintf
 581              		.loc 1 284 0
 582 0074 0020     		movs	r0, #0
 583 0076 2870     		strb	r0, [r5, #0]
 584              		.loc 1 285 0
 585 0078 BDE8F883 		pop	{r3, r4, r5, r6, r7, r8, r9, pc}
 586              	.L43:
 587              		.loc 1 287 0
 588 007c 1F2E     		cmp	r6, #31
 589 007e C5DD     		ble	.L46
 590              		.loc 1 289 0
 591 0080 09F1FF33 		add	r3, r9, #-1
 592 0084 FB18     		adds	r3, r7, r3
 593 0086 9D42     		cmp	r5, r3
 594 0088 C0D2     		bcs	.L46
 595              		.loc 1 290 0
 596 008a 2368     		ldr	r3, [r4, #0]
 597 008c 2046     		mov	r0, r4
 598 008e 1B69     		ldr	r3, [r3, #16]
 599 0090 5FFA88F1 		uxtb	r1, r8
 600 0094 4FF0FF32 		mov	r2, #-1
 601 0098 9847     		blx	r3
 602              		.loc 1 291 0
 603 009a 05F8018B 		strb	r8, [r5], #1
 604              	.LVL42:
 605 009e B5E7     		b	.L46
 606              	.L44:
 607              		.loc 1 268 0
 608 00a0 0120     		movs	r0, #1
 609              	.LBE2:
 610              		.loc 1 294 0
 611 00a2 BDE8F883 		pop	{r3, r4, r5, r6, r7, r8, r9, pc}
 612              	.L48:
 613 00a6 00BF     		.align	2
 614              	.L47:
 615 00a8 49010000 		.word	.LC24
 616 00ac 4C010000 		.word	.LC25
 617              		.cfi_endproc
 618              	.LFE65:
 619              		.size	shellGetLine, .-shellGetLine
 620              		.section	.text.shell_thread,"ax",%progbits
 621              		.align	1
 622              		.thumb
 623              		.thumb_func
ARM GAS  /tmp/ccFcDX3k.s 			page 12


 624              		.type	shell_thread, %function
 625              	shell_thread:
 626              	.LFB61:
 627              		.loc 1 150 0
 628              		.cfi_startproc
 629              		@ args = 0, pretend = 0, frame = 88
 630              		@ frame_needed = 0, uses_anonymous_args = 0
 631              	.LVL43:
 632 0000 2DE9F041 		push	{r4, r5, r6, r7, r8, lr}
 633              	.LCFI7:
 634              		.cfi_def_cfa_offset 24
 635              		.loc 1 158 0
 636 0004 474B     		ldr	r3, .L68
 637              		.loc 1 153 0
 638 0006 0468     		ldr	r4, [r0, #0]
 639              		.cfi_offset 14, -4
 640              		.cfi_offset 8, -8
 641              		.cfi_offset 7, -12
 642              		.cfi_offset 6, -16
 643              		.cfi_offset 5, -20
 644              		.cfi_offset 4, -24
 645              	.LVL44:
 646              		.loc 1 158 0
 647 0008 DB69     		ldr	r3, [r3, #28]
 648 000a 474A     		ldr	r2, .L68+4
 649              		.loc 1 159 0
 650 000c 4749     		ldr	r1, .L68+8
 651              		.loc 1 154 0
 652 000e D0F80480 		ldr	r8, [r0, #4]
 653              	.LVL45:
 654              		.loc 1 150 0
 655 0012 98B0     		sub	sp, sp, #96
 656              	.LCFI8:
 657              		.cfi_def_cfa_offset 120
 658              		.loc 1 158 0
 659 0014 9A61     		str	r2, [r3, #24]
 660              		.loc 1 159 0
 661 0016 2046     		mov	r0, r4
 662              	.LVL46:
 663              	.L66:
 664 0018 FFF7FEFF 		bl	chprintf
 665              	.LVL47:
 666              	.L65:
 667              		.loc 1 161 0
 668 001c 2046     		mov	r0, r4
 669 001e 4449     		ldr	r1, .L68+12
 670 0020 FFF7FEFF 		bl	chprintf
 671              		.loc 1 162 0
 672 0024 2046     		mov	r0, r4
 673 0026 02A9     		add	r1, sp, #8
 674 0028 4022     		movs	r2, #64
 675 002a FFF7FEFF 		bl	shellGetLine
 676 002e 0546     		mov	r5, r0
 677 0030 20B1     		cbz	r0, .L51
 678              		.loc 1 163 0
 679 0032 2046     		mov	r0, r4
 680 0034 3F49     		ldr	r1, .L68+16
ARM GAS  /tmp/ccFcDX3k.s 			page 13


 681 0036 FFF7FEFF 		bl	chprintf
 682              		.loc 1 164 0
 683 003a 64E0     		b	.L52
 684              	.L51:
 685              		.loc 1 166 0
 686 003c 02A8     		add	r0, sp, #8
 687 003e 17A9     		add	r1, sp, #92
 688 0040 FFF7FEFF 		bl	_strtok.clone.0
 689 0044 11AF     		add	r7, sp, #68
 690 0046 0646     		mov	r6, r0
 691              	.LVL48:
 692              		.loc 1 169 0
 693 0048 0AE0     		b	.L53
 694              	.LVL49:
 695              	.L56:
 696              		.loc 1 170 0
 697 004a 042D     		cmp	r5, #4
 698 004c 05D1     		bne	.L54
 699              		.loc 1 171 0
 700 004e 2046     		mov	r0, r4
 701              	.LVL50:
 702 0050 3949     		ldr	r1, .L68+20
 703 0052 FFF7FEFF 		bl	chprintf
 704              	.LVL51:
 705              		.loc 1 172 0
 706 0056 0026     		movs	r6, #0
 707              		.loc 1 173 0
 708 0058 08E0     		b	.L55
 709              	.LVL52:
 710              	.L54:
 711              		.loc 1 175 0
 712 005a 47F8040F 		str	r0, [r7, #4]!
 713 005e 0135     		adds	r5, r5, #1
 714              	.LVL53:
 715              	.L53:
 716              		.loc 1 169 0 discriminator 1
 717 0060 0020     		movs	r0, #0
 718              	.LVL54:
 719 0062 17A9     		add	r1, sp, #92
 720 0064 FFF7FEFF 		bl	_strtok.clone.0
 721              	.LVL55:
 722 0068 0028     		cmp	r0, #0
 723 006a EED1     		bne	.L56
 724              	.LVL56:
 725              	.L55:
 726              		.loc 1 177 0
 727 006c 18AA     		add	r2, sp, #96
 728 006e 02EB8503 		add	r3, r2, r5, lsl #2
 729 0072 0022     		movs	r2, #0
 730 0074 43F8182C 		str	r2, [r3, #-24]
 731              		.loc 1 178 0
 732 0078 002E     		cmp	r6, #0
 733 007a CFD0     		beq	.L65
 734              		.loc 1 179 0
 735 007c 3046     		mov	r0, r6
 736 007e 2F49     		ldr	r1, .L68+24
 737 0080 FFF7FEFF 		bl	strcasecmp
ARM GAS  /tmp/ccFcDX3k.s 			page 14


 738 0084 20B9     		cbnz	r0, .L58
 739              		.loc 1 180 0
 740 0086 002D     		cmp	r5, #0
 741 0088 3DD0     		beq	.L52
 742              		.loc 1 181 0
 743 008a 2046     		mov	r0, r4
 744 008c 2B49     		ldr	r1, .L68+24
 745 008e 07E0     		b	.L67
 746              	.L58:
 747              		.loc 1 186 0
 748 0090 3046     		mov	r0, r6
 749 0092 2B49     		ldr	r1, .L68+28
 750 0094 FFF7FEFF 		bl	strcasecmp
 751 0098 B8B9     		cbnz	r0, .L60
 752              		.loc 1 187 0
 753 009a 25B1     		cbz	r5, .L61
 754              		.loc 1 188 0
 755 009c 2849     		ldr	r1, .L68+28
 756 009e 2046     		mov	r0, r4
 757              	.L67:
 758 00a0 FFF7FEFF 		bl	usage
 759              		.loc 1 189 0
 760 00a4 BAE7     		b	.L65
 761              	.L61:
 762              		.loc 1 191 0
 763 00a6 2046     		mov	r0, r4
 764 00a8 2649     		ldr	r1, .L68+32
 765 00aa FFF7FEFF 		bl	chprintf
 766              		.loc 1 192 0
 767 00ae 2046     		mov	r0, r4
 768 00b0 2549     		ldr	r1, .L68+36
 769 00b2 FFF7FEFF 		bl	list_commands
 770              		.loc 1 193 0
 771 00b6 B8F1000F 		cmp	r8, #0
 772 00ba 03D0     		beq	.L62
 773              		.loc 1 194 0
 774 00bc 2046     		mov	r0, r4
 775 00be 4146     		mov	r1, r8
 776 00c0 FFF7FEFF 		bl	list_commands
 777              	.L62:
 778              		.loc 1 195 0
 779 00c4 2046     		mov	r0, r4
 780 00c6 2149     		ldr	r1, .L68+40
 781 00c8 A6E7     		b	.L66
 782              	.L60:
 783              		.loc 1 197 0
 784 00ca 12AF     		add	r7, sp, #72
 785 00cc 1E48     		ldr	r0, .L68+36
 786 00ce 2146     		mov	r1, r4
 787 00d0 3246     		mov	r2, r6
 788 00d2 2B46     		mov	r3, r5
 789 00d4 0097     		str	r7, [sp, #0]
 790 00d6 FFF7FEFF 		bl	cmdexec
 791 00da 0028     		cmp	r0, #0
 792 00dc 9ED0     		beq	.L65
 793              		.loc 1 197 0 is_stmt 0 discriminator 1
 794 00de B8F1000F 		cmp	r8, #0
ARM GAS  /tmp/ccFcDX3k.s 			page 15


 795 00e2 08D0     		beq	.L63
 796              		.loc 1 198 0 is_stmt 1
 797 00e4 4046     		mov	r0, r8
 798 00e6 2146     		mov	r1, r4
 799 00e8 3246     		mov	r2, r6
 800 00ea 2B46     		mov	r3, r5
 801 00ec 0097     		str	r7, [sp, #0]
 802 00ee FFF7FEFF 		bl	cmdexec
 803 00f2 0028     		cmp	r0, #0
 804 00f4 92D0     		beq	.L65
 805              	.L63:
 806              		.loc 1 199 0
 807 00f6 2046     		mov	r0, r4
 808 00f8 1549     		ldr	r1, .L68+44
 809 00fa 3246     		mov	r2, r6
 810 00fc FFF7FEFF 		bl	chprintf
 811              		.loc 1 200 0
 812 0100 2046     		mov	r0, r4
 813 0102 1449     		ldr	r1, .L68+48
 814 0104 88E7     		b	.L66
 815              	.LVL57:
 816              	.L52:
 817              		.loc 1 206 0
 818              	@ 206 "../chibios/os/various/shell.c" 1
 819 0106 FFF7FEFF 		bl      _port_lock
 820              	@ 0 "" 2
 821              		.thumb
 822 010a FFF7FEFF 		bl	dbg_check_lock
 823              		.loc 1 207 0
 824 010e 0021     		movs	r1, #0
 825 0110 1148     		ldr	r0, .L68+52
 826 0112 FFF7FEFF 		bl	chEvtBroadcastFlagsI
 827              		.loc 1 208 0
 828 0116 0020     		movs	r0, #0
 829 0118 FFF7FEFF 		bl	chThdExitS
 830              		.loc 1 210 0
 831 011c 0020     		movs	r0, #0
 832 011e 18B0     		add	sp, sp, #96
 833 0120 BDE8F081 		pop	{r4, r5, r6, r7, r8, pc}
 834              	.L69:
 835              		.align	2
 836              	.L68:
 837 0124 00000000 		.word	rlist
 838 0128 4F010000 		.word	.LC26
 839 012c 55010000 		.word	.LC27
 840 0130 6A010000 		.word	.LC28
 841 0134 6F010000 		.word	.LC29
 842 0138 78010000 		.word	.LC30
 843 013c 8D010000 		.word	.LC31
 844 0140 92010000 		.word	.LC32
 845 0144 97010000 		.word	.LC33
 846 0148 00000000 		.word	.LANCHOR2
 847 014c 4C010000 		.word	.LC25
 848 0150 AC010000 		.word	.LC34
 849 0154 AF010000 		.word	.LC35
 850 0158 00000000 		.word	.LANCHOR1
 851              		.cfi_endproc
ARM GAS  /tmp/ccFcDX3k.s 			page 16


 852              	.LFE61:
 853              		.size	shell_thread, .-shell_thread
 854              		.global	shell_terminated
 855              		.section	.rodata
 856              		.set	.LANCHOR0,. + 0
 857              	.LC23:
 858 0000 20003900 		.ascii	" \0009\000"
 859              		.section	.rodata.str1.1,"aMS",%progbits,1
 860              	.LC0:
 861 0000 55736167 		.ascii	"Usage: %s\015\012\000"
 861      653A2025 
 861      730D0A00 
 862              	.LC1:
 863 000c 73797374 		.ascii	"systime\000"
 863      696D6500 
 864              	.LC2:
 865 0014 256C750D 		.ascii	"%lu\015\012\000"
 865      0A00
 866              	.LC3:
 867 001a 696E666F 		.ascii	"info\000"
 867      00
 868              	.LC4:
 869 001f 4B65726E 		.ascii	"Kernel:       %s\015\012\000"
 869      656C3A20 
 869      20202020 
 869      20202573 
 869      0D0A00
 870              	.LC5:
 871 0032 322E342E 		.ascii	"2.4.2\000"
 871      3200
 872              	.LC6:
 873 0038 436F6D70 		.ascii	"Compiler:     %s\015\012\000"
 873      696C6572 
 873      3A202020 
 873      20202573 
 873      0D0A00
 874              	.LC7:
 875 004b 47434320 		.ascii	"GCC 4.5.2\000"
 875      342E352E 
 875      3200
 876              	.LC8:
 877 0055 41726368 		.ascii	"Architecture: %s\015\012\000"
 877      69746563 
 877      74757265 
 877      3A202573 
 877      0D0A00
 878              	.LC9:
 879 0068 41524D76 		.ascii	"ARMv7-M\000"
 879      372D4D00 
 880              	.LC10:
 881 0070 436F7265 		.ascii	"Core Variant: %s\015\012\000"
 881      20566172 
 881      69616E74 
 881      3A202573 
 881      0D0A00
 882              	.LC11:
 883 0083 436F7274 		.ascii	"Cortex-M3\000"
ARM GAS  /tmp/ccFcDX3k.s 			page 17


 883      65782D4D 
 883      3300
 884              	.LC12:
 885 008d 506F7274 		.ascii	"Port Info:    %s\015\012\000"
 885      20496E66 
 885      6F3A2020 
 885      20202573 
 885      0D0A00
 886              	.LC13:
 887 00a0 41647661 		.ascii	"Advanced kernel mode\000"
 887      6E636564 
 887      206B6572 
 887      6E656C20 
 887      6D6F6465 
 888              	.LC14:
 889 00b5 506C6174 		.ascii	"Platform:     %s\015\012\000"
 889      666F726D 
 889      3A202020 
 889      20202573 
 889      0D0A00
 890              	.LC15:
 891 00c8 53544D33 		.ascii	"STM32F1 Performance Line Medium Density\000"
 891      32463120 
 891      50657266 
 891      6F726D61 
 891      6E636520 
 892              	.LC16:
 893 00f0 426F6172 		.ascii	"Board:        %s\015\012\000"
 893      643A2020 
 893      20202020 
 893      20202573 
 893      0D0A00
 894              	.LC17:
 895 0103 4F6C696D 		.ascii	"Olimex STM32-P103\000"
 895      65782053 
 895      544D3332 
 895      2D503130 
 895      3300
 896              	.LC18:
 897 0115 4275696C 		.ascii	"Build time:   %s%s%s\015\012\000"
 897      64207469 
 897      6D653A20 
 897      20202573 
 897      25732573 
 898              	.LC19:
 899 012c 41756720 		.ascii	"Aug 16 2013\000"
 899      31362032 
 899      30313300 
 900              	.LC20:
 901 0138 202D2000 		.ascii	" - \000"
 902              	.LC21:
 903 013c 32323A33 		.ascii	"22:34:08\000"
 903      343A3038 
 903      00
 904              	.LC22:
 905 0145 25732000 		.ascii	"%s \000"
 906              	.LC24:
ARM GAS  /tmp/ccFcDX3k.s 			page 18


 907 0149 5E4400   		.ascii	"^D\000"
 908              	.LC25:
 909 014c 0D0A00   		.ascii	"\015\012\000"
 910              	.LC26:
 911 014f 7368656C 		.ascii	"shell\000"
 911      6C00
 912              	.LC27:
 913 0155 0D0A4368 		.ascii	"\015\012ChibiOS/RT Shell\015\012\000"
 913      6962694F 
 913      532F5254 
 913      20536865 
 913      6C6C0D0A 
 914              	.LC28:
 915 016a 63683E20 		.ascii	"ch> \000"
 915      00
 916              	.LC29:
 917 016f 0D0A6C6F 		.ascii	"\015\012logout\000"
 917      676F7574 
 917      00
 918              	.LC30:
 919 0178 746F6F20 		.ascii	"too many arguments\015\012\000"
 919      6D616E79 
 919      20617267 
 919      756D656E 
 919      74730D0A 
 920              	.LC31:
 921 018d 65786974 		.ascii	"exit\000"
 921      00
 922              	.LC32:
 923 0192 68656C70 		.ascii	"help\000"
 923      00
 924              	.LC33:
 925 0197 436F6D6D 		.ascii	"Commands: help exit \000"
 925      616E6473 
 925      3A206865 
 925      6C702065 
 925      78697420 
 926              	.LC34:
 927 01ac 257300   		.ascii	"%s\000"
 928              	.LC35:
 929 01af 203F0D0A 		.ascii	" ?\015\012\000"
 929      00
 930              		.section	.data.local_commands,"aw",%progbits
 931              		.align	2
 932              		.set	.LANCHOR2,. + 0
 933              		.type	local_commands, %object
 934              		.size	local_commands, 24
 935              	local_commands:
 936 0000 1A000000 		.word	.LC3
 937 0004 00000000 		.word	cmd_info
 938 0008 0C000000 		.word	.LC1
 939 000c 00000000 		.word	cmd_systime
 940 0010 00000000 		.word	0
 941 0014 00000000 		.word	0
 942              		.section	.bss.shell_terminated,"aw",%nobits
 943              		.align	2
 944              		.set	.LANCHOR1,. + 0
ARM GAS  /tmp/ccFcDX3k.s 			page 19


 945              		.type	shell_terminated, %object
 946              		.size	shell_terminated, 4
 947              	shell_terminated:
 948 0000 00000000 		.space	4
 949              		.text
 950              	.Letext0:
 951              		.section	.debug_loc,"",%progbits
 952              	.Ldebug_loc0:
 953              	.LLST0:
 954 0000 00000000 		.4byte	.LVL0
 955 0004 07000000 		.4byte	.LVL2-1
 956 0008 0100     		.2byte	0x1
 957 000a 50       		.byte	0x50
 958 000b 00000000 		.4byte	0x0
 959 000f 00000000 		.4byte	0x0
 960              	.LLST1:
 961 0013 00000000 		.4byte	.LVL0
 962 0017 04000000 		.4byte	.LVL1
 963 001b 0100     		.2byte	0x1
 964 001d 51       		.byte	0x51
 965 001e 04000000 		.4byte	.LVL1
 966 0022 07000000 		.4byte	.LVL2-1
 967 0026 0100     		.2byte	0x1
 968 0028 52       		.byte	0x52
 969 0029 00000000 		.4byte	0x0
 970 002d 00000000 		.4byte	0x0
 971              	.LLST2:
 972 0031 00000000 		.4byte	.LVL3
 973 0035 09000000 		.4byte	.LVL5-1
 974 0039 0100     		.2byte	0x1
 975 003b 50       		.byte	0x50
 976 003c 0A000000 		.4byte	.LVL5
 977 0040 13000000 		.4byte	.LVL8-1
 978 0044 0100     		.2byte	0x1
 979 0046 50       		.byte	0x50
 980 0047 00000000 		.4byte	0x0
 981 004b 00000000 		.4byte	0x0
 982              	.LLST3:
 983 004f 00000000 		.4byte	.LVL3
 984 0053 06000000 		.4byte	.LVL4
 985 0057 0100     		.2byte	0x1
 986 0059 51       		.byte	0x51
 987 005a 0A000000 		.4byte	.LVL5
 988 005e 0E000000 		.4byte	.LVL6
 989 0062 0100     		.2byte	0x1
 990 0064 51       		.byte	0x51
 991 0065 00000000 		.4byte	0x0
 992 0069 00000000 		.4byte	0x0
 993              	.LLST4:
 994 006d 00000000 		.4byte	.LVL3
 995 0071 09000000 		.4byte	.LVL5-1
 996 0075 0100     		.2byte	0x1
 997 0077 52       		.byte	0x52
 998 0078 0A000000 		.4byte	.LVL5
 999 007c 10000000 		.4byte	.LVL7
 1000 0080 0100     		.2byte	0x1
 1001 0082 52       		.byte	0x52
ARM GAS  /tmp/ccFcDX3k.s 			page 20


 1002 0083 00000000 		.4byte	0x0
 1003 0087 00000000 		.4byte	0x0
 1004              	.LLST5:
 1005 008b 00000000 		.4byte	.LFB58
 1006 008f 04000000 		.4byte	.LCFI0
 1007 0093 0200     		.2byte	0x2
 1008 0095 7D       		.byte	0x7d
 1009 0096 00       		.sleb128 0
 1010 0097 04000000 		.4byte	.LCFI0
 1011 009b B8000000 		.4byte	.LFE58
 1012 009f 0200     		.2byte	0x2
 1013 00a1 7D       		.byte	0x7d
 1014 00a2 10       		.sleb128 16
 1015 00a3 00000000 		.4byte	0x0
 1016 00a7 00000000 		.4byte	0x0
 1017              	.LLST6:
 1018 00ab 00000000 		.4byte	.LVL9
 1019 00af 13000000 		.4byte	.LVL11-1
 1020 00b3 0100     		.2byte	0x1
 1021 00b5 50       		.byte	0x50
 1022 00b6 13000000 		.4byte	.LVL11-1
 1023 00ba B8000000 		.4byte	.LFE58
 1024 00be 0100     		.2byte	0x1
 1025 00c0 54       		.byte	0x54
 1026 00c1 00000000 		.4byte	0x0
 1027 00c5 00000000 		.4byte	0x0
 1028              	.LLST7:
 1029 00c9 00000000 		.4byte	.LVL9
 1030 00cd 0A000000 		.4byte	.LVL10
 1031 00d1 0100     		.2byte	0x1
 1032 00d3 51       		.byte	0x51
 1033 00d4 14000000 		.4byte	.LVL11
 1034 00d8 16000000 		.4byte	.LVL12
 1035 00dc 0100     		.2byte	0x1
 1036 00de 51       		.byte	0x51
 1037 00df 00000000 		.4byte	0x0
 1038 00e3 00000000 		.4byte	0x0
 1039              	.LLST8:
 1040 00e7 00000000 		.4byte	.LVL9
 1041 00eb 13000000 		.4byte	.LVL11-1
 1042 00ef 0100     		.2byte	0x1
 1043 00f1 52       		.byte	0x52
 1044 00f2 14000000 		.4byte	.LVL11
 1045 00f6 18000000 		.4byte	.LVL13
 1046 00fa 0100     		.2byte	0x1
 1047 00fc 52       		.byte	0x52
 1048 00fd 00000000 		.4byte	0x0
 1049 0101 00000000 		.4byte	0x0
 1050              	.LLST9:
 1051 0105 00000000 		.4byte	.LFB57
 1052 0109 02000000 		.4byte	.LCFI1
 1053 010d 0200     		.2byte	0x2
 1054 010f 7D       		.byte	0x7d
 1055 0110 00       		.sleb128 0
 1056 0111 02000000 		.4byte	.LCFI1
 1057 0115 20000000 		.4byte	.LFE57
 1058 0119 0200     		.2byte	0x2
ARM GAS  /tmp/ccFcDX3k.s 			page 21


 1059 011b 7D       		.byte	0x7d
 1060 011c 10       		.sleb128 16
 1061 011d 00000000 		.4byte	0x0
 1062 0121 00000000 		.4byte	0x0
 1063              	.LLST10:
 1064 0125 00000000 		.4byte	.LVL14
 1065 0129 08000000 		.4byte	.LVL15
 1066 012d 0100     		.2byte	0x1
 1067 012f 50       		.byte	0x50
 1068 0130 08000000 		.4byte	.LVL15
 1069 0134 20000000 		.4byte	.LFE57
 1070 0138 0100     		.2byte	0x1
 1071 013a 55       		.byte	0x55
 1072 013b 00000000 		.4byte	0x0
 1073 013f 00000000 		.4byte	0x0
 1074              	.LLST11:
 1075 0143 00000000 		.4byte	.LVL14
 1076 0147 08000000 		.4byte	.LVL15
 1077 014b 0100     		.2byte	0x1
 1078 014d 51       		.byte	0x51
 1079 014e 08000000 		.4byte	.LVL15
 1080 0152 12000000 		.4byte	.LVL16
 1081 0156 0100     		.2byte	0x1
 1082 0158 54       		.byte	0x54
 1083 0159 12000000 		.4byte	.LVL16
 1084 015d 20000000 		.4byte	.LFE57
 1085 0161 0100     		.2byte	0x1
 1086 0163 54       		.byte	0x54
 1087 0164 00000000 		.4byte	0x0
 1088 0168 00000000 		.4byte	0x0
 1089              	.LLST12:
 1090 016c 00000000 		.4byte	.LFB60
 1091 0170 04000000 		.4byte	.LCFI2
 1092 0174 0200     		.2byte	0x2
 1093 0176 7D       		.byte	0x7d
 1094 0177 00       		.sleb128 0
 1095 0178 04000000 		.4byte	.LCFI2
 1096 017c 36000000 		.4byte	.LFE60
 1097 0180 0200     		.2byte	0x2
 1098 0182 7D       		.byte	0x7d
 1099 0183 18       		.sleb128 24
 1100 0184 00000000 		.4byte	0x0
 1101 0188 00000000 		.4byte	0x0
 1102              	.LLST13:
 1103 018c 00000000 		.4byte	.LVL17
 1104 0190 0E000000 		.4byte	.LVL18
 1105 0194 0100     		.2byte	0x1
 1106 0196 50       		.byte	0x50
 1107 0197 0E000000 		.4byte	.LVL18
 1108 019b 1C000000 		.4byte	.LVL19
 1109 019f 0100     		.2byte	0x1
 1110 01a1 54       		.byte	0x54
 1111 01a2 28000000 		.4byte	.LVL20
 1112 01a6 2A000000 		.4byte	.LVL21
 1113 01aa 0100     		.2byte	0x1
 1114 01ac 54       		.byte	0x54
 1115 01ad 2A000000 		.4byte	.LVL21
ARM GAS  /tmp/ccFcDX3k.s 			page 22


 1116 01b1 36000000 		.4byte	.LFE60
 1117 01b5 0100     		.2byte	0x1
 1118 01b7 54       		.byte	0x54
 1119 01b8 00000000 		.4byte	0x0
 1120 01bc 00000000 		.4byte	0x0
 1121              	.LLST14:
 1122 01c0 00000000 		.4byte	.LVL17
 1123 01c4 0E000000 		.4byte	.LVL18
 1124 01c8 0100     		.2byte	0x1
 1125 01ca 51       		.byte	0x51
 1126 01cb 0E000000 		.4byte	.LVL18
 1127 01cf 36000000 		.4byte	.LFE60
 1128 01d3 0100     		.2byte	0x1
 1129 01d5 55       		.byte	0x55
 1130 01d6 00000000 		.4byte	0x0
 1131 01da 00000000 		.4byte	0x0
 1132              	.LLST15:
 1133 01de 00000000 		.4byte	.LVL17
 1134 01e2 0E000000 		.4byte	.LVL18
 1135 01e6 0100     		.2byte	0x1
 1136 01e8 52       		.byte	0x52
 1137 01e9 0E000000 		.4byte	.LVL18
 1138 01ed 36000000 		.4byte	.LFE60
 1139 01f1 0100     		.2byte	0x1
 1140 01f3 57       		.byte	0x57
 1141 01f4 00000000 		.4byte	0x0
 1142 01f8 00000000 		.4byte	0x0
 1143              	.LLST16:
 1144 01fc 00000000 		.4byte	.LVL17
 1145 0200 0E000000 		.4byte	.LVL18
 1146 0204 0100     		.2byte	0x1
 1147 0206 53       		.byte	0x53
 1148 0207 0E000000 		.4byte	.LVL18
 1149 020b 36000000 		.4byte	.LFE60
 1150 020f 0100     		.2byte	0x1
 1151 0211 58       		.byte	0x58
 1152 0212 00000000 		.4byte	0x0
 1153 0216 00000000 		.4byte	0x0
 1154              	.LLST17:
 1155 021a 00000000 		.4byte	.LFB66
 1156 021e 02000000 		.4byte	.LCFI3
 1157 0222 0200     		.2byte	0x2
 1158 0224 7D       		.byte	0x7d
 1159 0225 00       		.sleb128 0
 1160 0226 02000000 		.4byte	.LCFI3
 1161 022a 3C000000 		.4byte	.LFE66
 1162 022e 0200     		.2byte	0x2
 1163 0230 7D       		.byte	0x7d
 1164 0231 10       		.sleb128 16
 1165 0232 00000000 		.4byte	0x0
 1166 0236 00000000 		.4byte	0x0
 1167              	.LLST18:
 1168 023a 00000000 		.4byte	.LVL22
 1169 023e 0E000000 		.4byte	.LVL24
 1170 0242 0100     		.2byte	0x1
 1171 0244 50       		.byte	0x50
 1172 0245 00000000 		.4byte	0x0
ARM GAS  /tmp/ccFcDX3k.s 			page 23


 1173 0249 00000000 		.4byte	0x0
 1174              	.LLST19:
 1175 024d 00000000 		.4byte	.LVL22
 1176 0251 10000000 		.4byte	.LVL25
 1177 0255 0100     		.2byte	0x1
 1178 0257 51       		.byte	0x51
 1179 0258 10000000 		.4byte	.LVL25
 1180 025c 3C000000 		.4byte	.LFE66
 1181 0260 0100     		.2byte	0x1
 1182 0262 55       		.byte	0x55
 1183 0263 00000000 		.4byte	0x0
 1184 0267 00000000 		.4byte	0x0
 1185              	.LLST20:
 1186 026b 0A000000 		.4byte	.LVL23
 1187 026f 10000000 		.4byte	.LVL25
 1188 0273 0200     		.2byte	0x2
 1189 0275 71       		.byte	0x71
 1190 0276 00       		.sleb128 0
 1191 0277 10000000 		.4byte	.LVL25
 1192 027b 13000000 		.4byte	.LVL26-1
 1193 027f 0200     		.2byte	0x2
 1194 0281 75       		.byte	0x75
 1195 0282 00       		.sleb128 0
 1196 0283 13000000 		.4byte	.LVL26-1
 1197 0287 16000000 		.4byte	.LVL27
 1198 028b 0100     		.2byte	0x1
 1199 028d 54       		.byte	0x54
 1200 028e 16000000 		.4byte	.LVL27
 1201 0292 32000000 		.4byte	.LVL28
 1202 0296 0100     		.2byte	0x1
 1203 0298 54       		.byte	0x54
 1204 0299 00000000 		.4byte	0x0
 1205 029d 00000000 		.4byte	0x0
 1206              	.LLST21:
 1207 02a1 00000000 		.4byte	.LFB63
 1208 02a5 02000000 		.4byte	.LCFI4
 1209 02a9 0200     		.2byte	0x2
 1210 02ab 7D       		.byte	0x7d
 1211 02ac 00       		.sleb128 0
 1212 02ad 02000000 		.4byte	.LCFI4
 1213 02b1 14000000 		.4byte	.LFE63
 1214 02b5 0200     		.2byte	0x2
 1215 02b7 7D       		.byte	0x7d
 1216 02b8 10       		.sleb128 16
 1217 02b9 00000000 		.4byte	0x0
 1218 02bd 00000000 		.4byte	0x0
 1219              	.LLST22:
 1220 02c1 00000000 		.4byte	.LVL29
 1221 02c5 08000000 		.4byte	.LVL30
 1222 02c9 0100     		.2byte	0x1
 1223 02cb 50       		.byte	0x50
 1224 02cc 08000000 		.4byte	.LVL30
 1225 02d0 0B000000 		.4byte	.LVL31-1
 1226 02d4 0200     		.2byte	0x2
 1227 02d6 91       		.byte	0x91
 1228 02d7 70       		.sleb128 -16
 1229 02d8 00000000 		.4byte	0x0
ARM GAS  /tmp/ccFcDX3k.s 			page 24


 1230 02dc 00000000 		.4byte	0x0
 1231              	.LLST23:
 1232 02e0 00000000 		.4byte	.LVL29
 1233 02e4 0B000000 		.4byte	.LVL31-1
 1234 02e8 0100     		.2byte	0x1
 1235 02ea 51       		.byte	0x51
 1236 02eb 00000000 		.4byte	0x0
 1237 02ef 00000000 		.4byte	0x0
 1238              	.LLST24:
 1239 02f3 00000000 		.4byte	.LVL29
 1240 02f7 0B000000 		.4byte	.LVL31-1
 1241 02fb 0100     		.2byte	0x1
 1242 02fd 52       		.byte	0x52
 1243 02fe 00000000 		.4byte	0x0
 1244 0302 00000000 		.4byte	0x0
 1245              	.LLST25:
 1246 0306 00000000 		.4byte	.LFB64
 1247 030a 02000000 		.4byte	.LCFI5
 1248 030e 0200     		.2byte	0x2
 1249 0310 7D       		.byte	0x7d
 1250 0311 00       		.sleb128 0
 1251 0312 02000000 		.4byte	.LCFI5
 1252 0316 18000000 		.4byte	.LFE64
 1253 031a 0200     		.2byte	0x2
 1254 031c 7D       		.byte	0x7d
 1255 031d 10       		.sleb128 16
 1256 031e 00000000 		.4byte	0x0
 1257 0322 00000000 		.4byte	0x0
 1258              	.LLST26:
 1259 0326 00000000 		.4byte	.LVL32
 1260 032a 06000000 		.4byte	.LVL33
 1261 032e 0100     		.2byte	0x1
 1262 0330 50       		.byte	0x50
 1263 0331 06000000 		.4byte	.LVL33
 1264 0335 0F000000 		.4byte	.LVL37-1
 1265 0339 0200     		.2byte	0x2
 1266 033b 91       		.byte	0x91
 1267 033c 70       		.sleb128 -16
 1268 033d 00000000 		.4byte	0x0
 1269 0341 00000000 		.4byte	0x0
 1270              	.LLST27:
 1271 0345 00000000 		.4byte	.LVL32
 1272 0349 08000000 		.4byte	.LVL34
 1273 034d 0100     		.2byte	0x1
 1274 034f 51       		.byte	0x51
 1275 0350 08000000 		.4byte	.LVL34
 1276 0354 0F000000 		.4byte	.LVL37-1
 1277 0358 0100     		.2byte	0x1
 1278 035a 50       		.byte	0x50
 1279 035b 00000000 		.4byte	0x0
 1280 035f 00000000 		.4byte	0x0
 1281              	.LLST28:
 1282 0363 00000000 		.4byte	.LVL32
 1283 0367 0A000000 		.4byte	.LVL35
 1284 036b 0100     		.2byte	0x1
 1285 036d 52       		.byte	0x52
 1286 036e 0A000000 		.4byte	.LVL35
ARM GAS  /tmp/ccFcDX3k.s 			page 25


 1287 0372 0F000000 		.4byte	.LVL37-1
 1288 0376 0100     		.2byte	0x1
 1289 0378 51       		.byte	0x51
 1290 0379 00000000 		.4byte	0x0
 1291 037d 00000000 		.4byte	0x0
 1292              	.LLST29:
 1293 0381 00000000 		.4byte	.LVL32
 1294 0385 0C000000 		.4byte	.LVL36
 1295 0389 0100     		.2byte	0x1
 1296 038b 53       		.byte	0x53
 1297 038c 0C000000 		.4byte	.LVL36
 1298 0390 0F000000 		.4byte	.LVL37-1
 1299 0394 0100     		.2byte	0x1
 1300 0396 52       		.byte	0x52
 1301 0397 00000000 		.4byte	0x0
 1302 039b 00000000 		.4byte	0x0
 1303              	.LLST30:
 1304 039f 00000000 		.4byte	.LFB65
 1305 03a3 04000000 		.4byte	.LCFI6
 1306 03a7 0200     		.2byte	0x2
 1307 03a9 7D       		.byte	0x7d
 1308 03aa 00       		.sleb128 0
 1309 03ab 04000000 		.4byte	.LCFI6
 1310 03af B0000000 		.4byte	.LFE65
 1311 03b3 0200     		.2byte	0x2
 1312 03b5 7D       		.byte	0x7d
 1313 03b6 20       		.sleb128 32
 1314 03b7 00000000 		.4byte	0x0
 1315 03bb 00000000 		.4byte	0x0
 1316              	.LLST31:
 1317 03bf 00000000 		.4byte	.LVL38
 1318 03c3 0C000000 		.4byte	.LVL39
 1319 03c7 0100     		.2byte	0x1
 1320 03c9 50       		.byte	0x50
 1321 03ca 0C000000 		.4byte	.LVL39
 1322 03ce B0000000 		.4byte	.LFE65
 1323 03d2 0100     		.2byte	0x1
 1324 03d4 54       		.byte	0x54
 1325 03d5 00000000 		.4byte	0x0
 1326 03d9 00000000 		.4byte	0x0
 1327              	.LLST32:
 1328 03dd 00000000 		.4byte	.LVL38
 1329 03e1 0C000000 		.4byte	.LVL39
 1330 03e5 0100     		.2byte	0x1
 1331 03e7 51       		.byte	0x51
 1332 03e8 0C000000 		.4byte	.LVL39
 1333 03ec B0000000 		.4byte	.LFE65
 1334 03f0 0100     		.2byte	0x1
 1335 03f2 57       		.byte	0x57
 1336 03f3 00000000 		.4byte	0x0
 1337 03f7 00000000 		.4byte	0x0
 1338              	.LLST33:
 1339 03fb 00000000 		.4byte	.LVL38
 1340 03ff 0C000000 		.4byte	.LVL39
 1341 0403 0100     		.2byte	0x1
 1342 0405 52       		.byte	0x52
 1343 0406 0C000000 		.4byte	.LVL39
ARM GAS  /tmp/ccFcDX3k.s 			page 26


 1344 040a B0000000 		.4byte	.LFE65
 1345 040e 0100     		.2byte	0x1
 1346 0410 59       		.byte	0x59
 1347 0411 00000000 		.4byte	0x0
 1348 0415 00000000 		.4byte	0x0
 1349              	.LLST34:
 1350 0419 00000000 		.4byte	.LVL38
 1351 041d 0C000000 		.4byte	.LVL39
 1352 0421 0100     		.2byte	0x1
 1353 0423 51       		.byte	0x51
 1354 0424 0C000000 		.4byte	.LVL39
 1355 0428 66000000 		.4byte	.LVL41
 1356 042c 0100     		.2byte	0x1
 1357 042e 55       		.byte	0x55
 1358 042f 66000000 		.4byte	.LVL41
 1359 0433 9E000000 		.4byte	.LVL42
 1360 0437 0100     		.2byte	0x1
 1361 0439 55       		.byte	0x55
 1362 043a 9E000000 		.4byte	.LVL42
 1363 043e B0000000 		.4byte	.LFE65
 1364 0442 0100     		.2byte	0x1
 1365 0444 55       		.byte	0x55
 1366 0445 00000000 		.4byte	0x0
 1367 0449 00000000 		.4byte	0x0
 1368              	.LLST35:
 1369 044d 00000000 		.4byte	.LFB61
 1370 0451 04000000 		.4byte	.LCFI7
 1371 0455 0200     		.2byte	0x2
 1372 0457 7D       		.byte	0x7d
 1373 0458 00       		.sleb128 0
 1374 0459 04000000 		.4byte	.LCFI7
 1375 045d 14000000 		.4byte	.LCFI8
 1376 0461 0200     		.2byte	0x2
 1377 0463 7D       		.byte	0x7d
 1378 0464 18       		.sleb128 24
 1379 0465 14000000 		.4byte	.LCFI8
 1380 0469 5C010000 		.4byte	.LFE61
 1381 046d 0300     		.2byte	0x3
 1382 046f 7D       		.byte	0x7d
 1383 0470 F800     		.sleb128 120
 1384 0472 00000000 		.4byte	0x0
 1385 0476 00000000 		.4byte	0x0
 1386              	.LLST36:
 1387 047a 00000000 		.4byte	.LVL43
 1388 047e 18000000 		.4byte	.LVL46
 1389 0482 0100     		.2byte	0x1
 1390 0484 50       		.byte	0x50
 1391 0485 00000000 		.4byte	0x0
 1392 0489 00000000 		.4byte	0x0
 1393              	.LLST37:
 1394 048d 48000000 		.4byte	.LVL48
 1395 0491 4A000000 		.4byte	.LVL49
 1396 0495 0200     		.2byte	0x2
 1397 0497 30       		.byte	0x30
 1398 0498 9F       		.byte	0x9f
 1399 0499 4A000000 		.4byte	.LVL49
 1400 049d 60000000 		.4byte	.LVL53
ARM GAS  /tmp/ccFcDX3k.s 			page 27


 1401 04a1 0100     		.2byte	0x1
 1402 04a3 55       		.byte	0x55
 1403 04a4 60000000 		.4byte	.LVL53
 1404 04a8 06010000 		.4byte	.LVL57
 1405 04ac 0100     		.2byte	0x1
 1406 04ae 55       		.byte	0x55
 1407 04af 00000000 		.4byte	0x0
 1408 04b3 00000000 		.4byte	0x0
 1409              	.LLST38:
 1410 04b7 08000000 		.4byte	.LVL44
 1411 04bb 18000000 		.4byte	.LVL46
 1412 04bf 0200     		.2byte	0x2
 1413 04c1 70       		.byte	0x70
 1414 04c2 00       		.sleb128 0
 1415 04c3 18000000 		.4byte	.LVL46
 1416 04c7 1B000000 		.4byte	.LVL47-1
 1417 04cb 0100     		.2byte	0x1
 1418 04cd 50       		.byte	0x50
 1419 04ce 1B000000 		.4byte	.LVL47-1
 1420 04d2 5C010000 		.4byte	.LFE61
 1421 04d6 0100     		.2byte	0x1
 1422 04d8 54       		.byte	0x54
 1423 04d9 00000000 		.4byte	0x0
 1424 04dd 00000000 		.4byte	0x0
 1425              	.LLST39:
 1426 04e1 12000000 		.4byte	.LVL45
 1427 04e5 18000000 		.4byte	.LVL46
 1428 04e9 0200     		.2byte	0x2
 1429 04eb 70       		.byte	0x70
 1430 04ec 04       		.sleb128 4
 1431 04ed 18000000 		.4byte	.LVL46
 1432 04f1 5C010000 		.4byte	.LFE61
 1433 04f5 0100     		.2byte	0x1
 1434 04f7 58       		.byte	0x58
 1435 04f8 00000000 		.4byte	0x0
 1436 04fc 00000000 		.4byte	0x0
 1437              	.LLST40:
 1438 0500 48000000 		.4byte	.LVL48
 1439 0504 50000000 		.4byte	.LVL50
 1440 0508 0100     		.2byte	0x1
 1441 050a 50       		.byte	0x50
 1442 050b 5A000000 		.4byte	.LVL52
 1443 050f 62000000 		.4byte	.LVL54
 1444 0513 0100     		.2byte	0x1
 1445 0515 50       		.byte	0x50
 1446 0516 68000000 		.4byte	.LVL55
 1447 051a 6C000000 		.4byte	.LVL56
 1448 051e 0100     		.2byte	0x1
 1449 0520 50       		.byte	0x50
 1450 0521 00000000 		.4byte	0x0
 1451 0525 00000000 		.4byte	0x0
 1452              	.LLST41:
 1453 0529 48000000 		.4byte	.LVL48
 1454 052d 4A000000 		.4byte	.LVL49
 1455 0531 0100     		.2byte	0x1
 1456 0533 50       		.byte	0x50
 1457 0534 4A000000 		.4byte	.LVL49
ARM GAS  /tmp/ccFcDX3k.s 			page 28


 1458 0538 56000000 		.4byte	.LVL51
 1459 053c 0100     		.2byte	0x1
 1460 053e 56       		.byte	0x56
 1461 053f 56000000 		.4byte	.LVL51
 1462 0543 5A000000 		.4byte	.LVL52
 1463 0547 0200     		.2byte	0x2
 1464 0549 30       		.byte	0x30
 1465 054a 9F       		.byte	0x9f
 1466 054b 5A000000 		.4byte	.LVL52
 1467 054f 6C000000 		.4byte	.LVL56
 1468 0553 0100     		.2byte	0x1
 1469 0555 56       		.byte	0x56
 1470 0556 6C000000 		.4byte	.LVL56
 1471 055a 06010000 		.4byte	.LVL57
 1472 055e 0100     		.2byte	0x1
 1473 0560 56       		.byte	0x56
 1474 0561 00000000 		.4byte	0x0
 1475 0565 00000000 		.4byte	0x0
 1476              		.file 2 "/home/z80/programs/code-sourcery/2011.03-42/bin/../lib/gcc/arm-none-eabi/4.5.2/include/st
 1477              		.file 3 "/home/z80/programs/code-sourcery/2011.03-42/bin/../lib/gcc/arm-none-eabi/4.5.2/../../../.
 1478              		.file 4 "../chibios/os/ports/GCC/ARMCMx/chtypes.h"
 1479              		.file 5 "../chibios/os/kernel/include/chlists.h"
 1480              		.file 6 "../chibios/os/kernel/include/chthreads.h"
 1481              		.file 7 "../chibios/os/ports/GCC/ARMCMx/chcore_v7m.h"
 1482              		.file 8 "../chibios/os/kernel/include/chvt.h"
 1483              		.file 9 "../chibios/os/kernel/include/chschd.h"
 1484              		.file 10 "../chibios/os/kernel/include/chmtx.h"
 1485              		.file 11 "../chibios/os/kernel/include/chevents.h"
 1486              		.file 12 "../chibios/os/kernel/include/chioch.h"
 1487              		.file 13 "../chibios/os/various/shell.h"
 1488              		.file 14 "../chibios/os/ports/common/ARMCMx/CMSIS/include/core_cm3.h"
 1489              		.section	.debug_info
 1490 0000 4E0C0000 		.4byte	0xc4e
 1491 0004 0200     		.2byte	0x2
 1492 0006 00000000 		.4byte	.Ldebug_abbrev0
 1493 000a 04       		.byte	0x4
 1494 000b 01       		.uleb128 0x1
 1495 000c 83040000 		.4byte	.LASF120
 1496 0010 01       		.byte	0x1
 1497 0011 41030000 		.4byte	.LASF121
 1498 0015 A9010000 		.4byte	.LASF122
 1499 0019 00000000 		.4byte	0x0
 1500 001d 00000000 		.4byte	0x0
 1501 0021 00000000 		.4byte	.Ldebug_ranges0+0x0
 1502 0025 00000000 		.4byte	.Ldebug_line0
 1503 0029 02       		.uleb128 0x2
 1504 002a 01       		.byte	0x1
 1505 002b 06       		.byte	0x6
 1506 002c 81000000 		.4byte	.LASF0
 1507 0030 02       		.uleb128 0x2
 1508 0031 01       		.byte	0x1
 1509 0032 08       		.byte	0x8
 1510 0033 CE020000 		.4byte	.LASF1
 1511 0037 02       		.uleb128 0x2
 1512 0038 02       		.byte	0x2
 1513 0039 05       		.byte	0x5
 1514 003a F2020000 		.4byte	.LASF2
ARM GAS  /tmp/ccFcDX3k.s 			page 29


 1515 003e 02       		.uleb128 0x2
 1516 003f 02       		.byte	0x2
 1517 0040 07       		.byte	0x7
 1518 0041 F7000000 		.4byte	.LASF3
 1519 0045 03       		.uleb128 0x3
 1520 0046 04       		.byte	0x4
 1521 0047 05       		.byte	0x5
 1522 0048 696E7400 		.ascii	"int\000"
 1523 004c 02       		.uleb128 0x2
 1524 004d 04       		.byte	0x4
 1525 004e 07       		.byte	0x7
 1526 004f 5A010000 		.4byte	.LASF4
 1527 0053 02       		.uleb128 0x2
 1528 0054 08       		.byte	0x8
 1529 0055 05       		.byte	0x5
 1530 0056 73000000 		.4byte	.LASF5
 1531 005a 02       		.uleb128 0x2
 1532 005b 08       		.byte	0x8
 1533 005c 07       		.byte	0x7
 1534 005d 21000000 		.4byte	.LASF6
 1535 0061 02       		.uleb128 0x2
 1536 0062 04       		.byte	0x4
 1537 0063 05       		.byte	0x5
 1538 0064 AF000000 		.4byte	.LASF7
 1539 0068 04       		.uleb128 0x4
 1540 0069 04       		.byte	0x4
 1541 006a 02       		.uleb128 0x2
 1542 006b 04       		.byte	0x4
 1543 006c 07       		.byte	0x7
 1544 006d 7B030000 		.4byte	.LASF8
 1545 0071 05       		.uleb128 0x5
 1546 0072 04       		.byte	0x4
 1547 0073 77000000 		.4byte	0x77
 1548 0077 02       		.uleb128 0x2
 1549 0078 01       		.byte	0x1
 1550 0079 08       		.byte	0x8
 1551 007a 9C030000 		.4byte	.LASF9
 1552 007e 05       		.uleb128 0x5
 1553 007f 04       		.byte	0x4
 1554 0080 84000000 		.4byte	0x84
 1555 0084 06       		.uleb128 0x6
 1556 0085 77000000 		.4byte	0x77
 1557 0089 07       		.uleb128 0x7
 1558 008a 00000000 		.4byte	.LASF10
 1559 008e 02       		.byte	0x2
 1560 008f D3       		.byte	0xd3
 1561 0090 4C000000 		.4byte	0x4c
 1562 0094 07       		.uleb128 0x7
 1563 0095 4E040000 		.4byte	.LASF11
 1564 0099 03       		.byte	0x3
 1565 009a 2A       		.byte	0x2a
 1566 009b 30000000 		.4byte	0x30
 1567 009f 07       		.uleb128 0x7
 1568 00a0 C6020000 		.4byte	.LASF12
 1569 00a4 03       		.byte	0x3
 1570 00a5 4F       		.byte	0x4f
 1571 00a6 61000000 		.4byte	0x61
ARM GAS  /tmp/ccFcDX3k.s 			page 30


 1572 00aa 07       		.uleb128 0x7
 1573 00ab 5F030000 		.4byte	.LASF13
 1574 00af 03       		.byte	0x3
 1575 00b0 50       		.byte	0x50
 1576 00b1 6A000000 		.4byte	0x6a
 1577 00b5 07       		.uleb128 0x7
 1578 00b6 07000000 		.4byte	.LASF14
 1579 00ba 03       		.byte	0x3
 1580 00bb 78       		.byte	0x78
 1581 00bc 5A000000 		.4byte	0x5a
 1582 00c0 07       		.uleb128 0x7
 1583 00c1 95000000 		.4byte	.LASF15
 1584 00c5 04       		.byte	0x4
 1585 00c6 2E       		.byte	0x2e
 1586 00c7 9F000000 		.4byte	0x9f
 1587 00cb 07       		.uleb128 0x7
 1588 00cc F4010000 		.4byte	.LASF16
 1589 00d0 04       		.byte	0x4
 1590 00d1 2F       		.byte	0x2f
 1591 00d2 94000000 		.4byte	0x94
 1592 00d6 07       		.uleb128 0x7
 1593 00d7 C5000000 		.4byte	.LASF17
 1594 00db 04       		.byte	0x4
 1595 00dc 30       		.byte	0x30
 1596 00dd 94000000 		.4byte	0x94
 1597 00e1 07       		.uleb128 0x7
 1598 00e2 9F020000 		.4byte	.LASF18
 1599 00e6 04       		.byte	0x4
 1600 00e7 31       		.byte	0x31
 1601 00e8 94000000 		.4byte	0x94
 1602 00ec 07       		.uleb128 0x7
 1603 00ed B6020000 		.4byte	.LASF19
 1604 00f1 04       		.byte	0x4
 1605 00f2 32       		.byte	0x32
 1606 00f3 AA000000 		.4byte	0xaa
 1607 00f7 07       		.uleb128 0x7
 1608 00f8 DF010000 		.4byte	.LASF20
 1609 00fc 04       		.byte	0x4
 1610 00fd 33       		.byte	0x33
 1611 00fe 9F000000 		.4byte	0x9f
 1612 0102 07       		.uleb128 0x7
 1613 0103 08020000 		.4byte	.LASF21
 1614 0107 04       		.byte	0x4
 1615 0108 35       		.byte	0x35
 1616 0109 AA000000 		.4byte	0xaa
 1617 010d 07       		.uleb128 0x7
 1618 010e C3030000 		.4byte	.LASF22
 1619 0112 04       		.byte	0x4
 1620 0113 36       		.byte	0x36
 1621 0114 AA000000 		.4byte	0xaa
 1622 0118 07       		.uleb128 0x7
 1623 0119 49010000 		.4byte	.LASF23
 1624 011d 04       		.byte	0x4
 1625 011e 37       		.byte	0x37
 1626 011f 9F000000 		.4byte	0x9f
 1627 0123 07       		.uleb128 0x7
 1628 0124 2F030000 		.4byte	.LASF24
ARM GAS  /tmp/ccFcDX3k.s 			page 31


 1629 0128 05       		.byte	0x5
 1630 0129 2A       		.byte	0x2a
 1631 012a 2E010000 		.4byte	0x12e
 1632 012e 08       		.uleb128 0x8
 1633 012f 2F030000 		.4byte	.LASF24
 1634 0133 4C       		.byte	0x4c
 1635 0134 06       		.byte	0x6
 1636 0135 5E       		.byte	0x5e
 1637 0136 53020000 		.4byte	0x253
 1638 013a 09       		.uleb128 0x9
 1639 013b 1A030000 		.4byte	.LASF25
 1640 013f 06       		.byte	0x6
 1641 0140 5F       		.byte	0x5f
 1642 0141 78020000 		.4byte	0x278
 1643 0145 02       		.byte	0x2
 1644 0146 23       		.byte	0x23
 1645 0147 00       		.uleb128 0x0
 1646 0148 09       		.uleb128 0x9
 1647 0149 AF020000 		.4byte	.LASF26
 1648 014d 06       		.byte	0x6
 1649 014e 61       		.byte	0x61
 1650 014f 78020000 		.4byte	0x278
 1651 0153 02       		.byte	0x2
 1652 0154 23       		.byte	0x23
 1653 0155 04       		.uleb128 0x4
 1654 0156 09       		.uleb128 0x9
 1655 0157 66000000 		.4byte	.LASF27
 1656 015b 06       		.byte	0x6
 1657 015c 63       		.byte	0x63
 1658 015d EC000000 		.4byte	0xec
 1659 0161 02       		.byte	0x2
 1660 0162 23       		.byte	0x23
 1661 0163 08       		.uleb128 0x8
 1662 0164 09       		.uleb128 0x9
 1663 0165 C9040000 		.4byte	.LASF28
 1664 0169 06       		.byte	0x6
 1665 016a 64       		.byte	0x64
 1666 016b 4E030000 		.4byte	0x34e
 1667 016f 02       		.byte	0x2
 1668 0170 23       		.byte	0x23
 1669 0171 0C       		.uleb128 0xc
 1670 0172 09       		.uleb128 0x9
 1671 0173 E1000000 		.4byte	.LASF29
 1672 0177 06       		.byte	0x6
 1673 0178 66       		.byte	0x66
 1674 0179 78020000 		.4byte	0x278
 1675 017d 02       		.byte	0x2
 1676 017e 23       		.byte	0x23
 1677 017f 10       		.uleb128 0x10
 1678 0180 09       		.uleb128 0x9
 1679 0181 50020000 		.4byte	.LASF30
 1680 0185 06       		.byte	0x6
 1681 0186 67       		.byte	0x67
 1682 0187 78020000 		.4byte	0x278
 1683 018b 02       		.byte	0x2
 1684 018c 23       		.byte	0x23
 1685 018d 14       		.uleb128 0x14
ARM GAS  /tmp/ccFcDX3k.s 			page 32


 1686 018e 09       		.uleb128 0x9
 1687 018f F7030000 		.4byte	.LASF31
 1688 0193 06       		.byte	0x6
 1689 0194 6E       		.byte	0x6e
 1690 0195 7E000000 		.4byte	0x7e
 1691 0199 02       		.byte	0x2
 1692 019a 23       		.byte	0x23
 1693 019b 18       		.uleb128 0x18
 1694 019c 09       		.uleb128 0x9
 1695 019d 4F010000 		.4byte	.LASF32
 1696 01a1 06       		.byte	0x6
 1697 01a2 74       		.byte	0x74
 1698 01a3 A4050000 		.4byte	0x5a4
 1699 01a7 02       		.byte	0x2
 1700 01a8 23       		.byte	0x23
 1701 01a9 1C       		.uleb128 0x1c
 1702 01aa 09       		.uleb128 0x9
 1703 01ab FC020000 		.4byte	.LASF33
 1704 01af 06       		.byte	0x6
 1705 01b0 79       		.byte	0x79
 1706 01b1 D6000000 		.4byte	0xd6
 1707 01b5 02       		.byte	0x2
 1708 01b6 23       		.byte	0x23
 1709 01b7 20       		.uleb128 0x20
 1710 01b8 09       		.uleb128 0x9
 1711 01b9 27030000 		.4byte	.LASF34
 1712 01bd 06       		.byte	0x6
 1713 01be 7D       		.byte	0x7d
 1714 01bf CB000000 		.4byte	0xcb
 1715 01c3 02       		.byte	0x2
 1716 01c4 23       		.byte	0x23
 1717 01c5 21       		.uleb128 0x21
 1718 01c6 09       		.uleb128 0x9
 1719 01c7 CE000000 		.4byte	.LASF35
 1720 01cb 06       		.byte	0x6
 1721 01cc 82       		.byte	0x82
 1722 01cd E1000000 		.4byte	0xe1
 1723 01d1 02       		.byte	0x2
 1724 01d2 23       		.byte	0x23
 1725 01d3 22       		.uleb128 0x22
 1726 01d4 09       		.uleb128 0x9
 1727 01d5 D5000000 		.4byte	.LASF36
 1728 01d9 06       		.byte	0x6
 1729 01da 89       		.byte	0x89
 1730 01db 33040000 		.4byte	0x433
 1731 01df 02       		.byte	0x2
 1732 01e0 23       		.byte	0x23
 1733 01e1 24       		.uleb128 0x24
 1734 01e2 0A       		.uleb128 0xa
 1735 01e3 705F7500 		.ascii	"p_u\000"
 1736 01e7 06       		.byte	0x6
 1737 01e8 AE       		.byte	0xae
 1738 01e9 6F050000 		.4byte	0x56f
 1739 01ed 02       		.byte	0x2
 1740 01ee 23       		.byte	0x23
 1741 01ef 28       		.uleb128 0x28
 1742 01f0 09       		.uleb128 0x9
ARM GAS  /tmp/ccFcDX3k.s 			page 33


 1743 01f1 2D020000 		.4byte	.LASF37
 1744 01f5 06       		.byte	0x6
 1745 01f6 B3       		.byte	0xb3
 1746 01f7 A0020000 		.4byte	0x2a0
 1747 01fb 02       		.byte	0x2
 1748 01fc 23       		.byte	0x23
 1749 01fd 2C       		.uleb128 0x2c
 1750 01fe 09       		.uleb128 0x9
 1751 01ff 7B010000 		.4byte	.LASF38
 1752 0203 06       		.byte	0x6
 1753 0204 B9       		.byte	0xb9
 1754 0205 7E020000 		.4byte	0x27e
 1755 0209 02       		.byte	0x2
 1756 020a 23       		.byte	0x23
 1757 020b 30       		.uleb128 0x30
 1758 020c 09       		.uleb128 0x9
 1759 020d 06040000 		.4byte	.LASF39
 1760 0211 06       		.byte	0x6
 1761 0212 BD       		.byte	0xbd
 1762 0213 F7000000 		.4byte	0xf7
 1763 0217 02       		.byte	0x2
 1764 0218 23       		.byte	0x23
 1765 0219 38       		.uleb128 0x38
 1766 021a 09       		.uleb128 0x9
 1767 021b 36030000 		.4byte	.LASF40
 1768 021f 06       		.byte	0x6
 1769 0220 C3       		.byte	0xc3
 1770 0221 02010000 		.4byte	0x102
 1771 0225 02       		.byte	0x2
 1772 0226 23       		.byte	0x23
 1773 0227 3C       		.uleb128 0x3c
 1774 0228 09       		.uleb128 0x9
 1775 0229 E8020000 		.4byte	.LASF41
 1776 022d 06       		.byte	0x6
 1777 022e CA       		.byte	0xca
 1778 022f AA050000 		.4byte	0x5aa
 1779 0233 02       		.byte	0x2
 1780 0234 23       		.byte	0x23
 1781 0235 40       		.uleb128 0x40
 1782 0236 09       		.uleb128 0x9
 1783 0237 CD030000 		.4byte	.LASF42
 1784 023b 06       		.byte	0x6
 1785 023c CE       		.byte	0xce
 1786 023d EC000000 		.4byte	0xec
 1787 0241 02       		.byte	0x2
 1788 0242 23       		.byte	0x23
 1789 0243 44       		.uleb128 0x44
 1790 0244 09       		.uleb128 0x9
 1791 0245 8D000000 		.4byte	.LASF43
 1792 0249 06       		.byte	0x6
 1793 024a D4       		.byte	0xd4
 1794 024b 68000000 		.4byte	0x68
 1795 024f 02       		.byte	0x2
 1796 0250 23       		.byte	0x23
 1797 0251 48       		.uleb128 0x48
 1798 0252 00       		.byte	0x0
 1799 0253 0B       		.uleb128 0xb
ARM GAS  /tmp/ccFcDX3k.s 			page 34


 1800 0254 08       		.byte	0x8
 1801 0255 05       		.byte	0x5
 1802 0256 61       		.byte	0x61
 1803 0257 78020000 		.4byte	0x278
 1804 025b 09       		.uleb128 0x9
 1805 025c 1A030000 		.4byte	.LASF25
 1806 0260 05       		.byte	0x5
 1807 0261 62       		.byte	0x62
 1808 0262 78020000 		.4byte	0x278
 1809 0266 02       		.byte	0x2
 1810 0267 23       		.byte	0x23
 1811 0268 00       		.uleb128 0x0
 1812 0269 09       		.uleb128 0x9
 1813 026a AF020000 		.4byte	.LASF26
 1814 026e 05       		.byte	0x5
 1815 026f 64       		.byte	0x64
 1816 0270 78020000 		.4byte	0x278
 1817 0274 02       		.byte	0x2
 1818 0275 23       		.byte	0x23
 1819 0276 04       		.uleb128 0x4
 1820 0277 00       		.byte	0x0
 1821 0278 05       		.uleb128 0x5
 1822 0279 04       		.byte	0x4
 1823 027a 23010000 		.4byte	0x123
 1824 027e 07       		.uleb128 0x7
 1825 027f 70020000 		.4byte	.LASF44
 1826 0283 05       		.byte	0x5
 1827 0284 66       		.byte	0x66
 1828 0285 53020000 		.4byte	0x253
 1829 0289 0B       		.uleb128 0xb
 1830 028a 04       		.byte	0x4
 1831 028b 05       		.byte	0x5
 1832 028c 6B       		.byte	0x6b
 1833 028d A0020000 		.4byte	0x2a0
 1834 0291 09       		.uleb128 0x9
 1835 0292 1A030000 		.4byte	.LASF25
 1836 0296 05       		.byte	0x5
 1837 0297 6D       		.byte	0x6d
 1838 0298 78020000 		.4byte	0x278
 1839 029c 02       		.byte	0x2
 1840 029d 23       		.byte	0x23
 1841 029e 00       		.uleb128 0x0
 1842 029f 00       		.byte	0x0
 1843 02a0 07       		.uleb128 0x7
 1844 02a1 FC010000 		.4byte	.LASF45
 1845 02a5 05       		.byte	0x5
 1846 02a6 70       		.byte	0x70
 1847 02a7 89020000 		.4byte	0x289
 1848 02ab 07       		.uleb128 0x7
 1849 02ac 17010000 		.4byte	.LASF46
 1850 02b0 07       		.byte	0x7
 1851 02b1 D7       		.byte	0xd7
 1852 02b2 68000000 		.4byte	0x68
 1853 02b6 07       		.uleb128 0x7
 1854 02b7 14020000 		.4byte	.LASF47
 1855 02bb 07       		.byte	0x7
 1856 02bc DD       		.byte	0xdd
ARM GAS  /tmp/ccFcDX3k.s 			page 35


 1857 02bd B5000000 		.4byte	0xb5
 1858 02c1 08       		.uleb128 0x8
 1859 02c2 18040000 		.4byte	.LASF48
 1860 02c6 24       		.byte	0x24
 1861 02c7 07       		.byte	0x7
 1862 02c8 FE       		.byte	0xfe
 1863 02c9 4E030000 		.4byte	0x34e
 1864 02cd 0C       		.uleb128 0xc
 1865 02ce 723400   		.ascii	"r4\000"
 1866 02d1 07       		.byte	0x7
 1867 02d2 1101     		.2byte	0x111
 1868 02d4 AB020000 		.4byte	0x2ab
 1869 02d8 02       		.byte	0x2
 1870 02d9 23       		.byte	0x23
 1871 02da 00       		.uleb128 0x0
 1872 02db 0C       		.uleb128 0xc
 1873 02dc 723500   		.ascii	"r5\000"
 1874 02df 07       		.byte	0x7
 1875 02e0 1201     		.2byte	0x112
 1876 02e2 AB020000 		.4byte	0x2ab
 1877 02e6 02       		.byte	0x2
 1878 02e7 23       		.byte	0x23
 1879 02e8 04       		.uleb128 0x4
 1880 02e9 0C       		.uleb128 0xc
 1881 02ea 723600   		.ascii	"r6\000"
 1882 02ed 07       		.byte	0x7
 1883 02ee 1301     		.2byte	0x113
 1884 02f0 AB020000 		.4byte	0x2ab
 1885 02f4 02       		.byte	0x2
 1886 02f5 23       		.byte	0x23
 1887 02f6 08       		.uleb128 0x8
 1888 02f7 0C       		.uleb128 0xc
 1889 02f8 723700   		.ascii	"r7\000"
 1890 02fb 07       		.byte	0x7
 1891 02fc 1401     		.2byte	0x114
 1892 02fe AB020000 		.4byte	0x2ab
 1893 0302 02       		.byte	0x2
 1894 0303 23       		.byte	0x23
 1895 0304 0C       		.uleb128 0xc
 1896 0305 0C       		.uleb128 0xc
 1897 0306 723800   		.ascii	"r8\000"
 1898 0309 07       		.byte	0x7
 1899 030a 1501     		.2byte	0x115
 1900 030c AB020000 		.4byte	0x2ab
 1901 0310 02       		.byte	0x2
 1902 0311 23       		.byte	0x23
 1903 0312 10       		.uleb128 0x10
 1904 0313 0C       		.uleb128 0xc
 1905 0314 723900   		.ascii	"r9\000"
 1906 0317 07       		.byte	0x7
 1907 0318 1601     		.2byte	0x116
 1908 031a AB020000 		.4byte	0x2ab
 1909 031e 02       		.byte	0x2
 1910 031f 23       		.byte	0x23
 1911 0320 14       		.uleb128 0x14
 1912 0321 0C       		.uleb128 0xc
 1913 0322 72313000 		.ascii	"r10\000"
ARM GAS  /tmp/ccFcDX3k.s 			page 36


 1914 0326 07       		.byte	0x7
 1915 0327 1701     		.2byte	0x117
 1916 0329 AB020000 		.4byte	0x2ab
 1917 032d 02       		.byte	0x2
 1918 032e 23       		.byte	0x23
 1919 032f 18       		.uleb128 0x18
 1920 0330 0C       		.uleb128 0xc
 1921 0331 72313100 		.ascii	"r11\000"
 1922 0335 07       		.byte	0x7
 1923 0336 1801     		.2byte	0x118
 1924 0338 AB020000 		.4byte	0x2ab
 1925 033c 02       		.byte	0x2
 1926 033d 23       		.byte	0x23
 1927 033e 1C       		.uleb128 0x1c
 1928 033f 0C       		.uleb128 0xc
 1929 0340 6C7200   		.ascii	"lr\000"
 1930 0343 07       		.byte	0x7
 1931 0344 1901     		.2byte	0x119
 1932 0346 AB020000 		.4byte	0x2ab
 1933 034a 02       		.byte	0x2
 1934 034b 23       		.byte	0x23
 1935 034c 20       		.uleb128 0x20
 1936 034d 00       		.byte	0x0
 1937 034e 0D       		.uleb128 0xd
 1938 034f FE030000 		.4byte	.LASF49
 1939 0353 04       		.byte	0x4
 1940 0354 07       		.byte	0x7
 1941 0355 2301     		.2byte	0x123
 1942 0357 6B030000 		.4byte	0x36b
 1943 035b 0C       		.uleb128 0xc
 1944 035c 72313300 		.ascii	"r13\000"
 1945 0360 07       		.byte	0x7
 1946 0361 2401     		.2byte	0x124
 1947 0363 6B030000 		.4byte	0x36b
 1948 0367 02       		.byte	0x2
 1949 0368 23       		.byte	0x23
 1950 0369 00       		.uleb128 0x0
 1951 036a 00       		.byte	0x0
 1952 036b 05       		.uleb128 0x5
 1953 036c 04       		.byte	0x4
 1954 036d C1020000 		.4byte	0x2c1
 1955 0371 07       		.uleb128 0x7
 1956 0372 D8030000 		.4byte	.LASF50
 1957 0376 08       		.byte	0x8
 1958 0377 53       		.byte	0x53
 1959 0378 7C030000 		.4byte	0x37c
 1960 037c 05       		.uleb128 0x5
 1961 037d 04       		.byte	0x4
 1962 037e 82030000 		.4byte	0x382
 1963 0382 0E       		.uleb128 0xe
 1964 0383 01       		.byte	0x1
 1965 0384 8E030000 		.4byte	0x38e
 1966 0388 0F       		.uleb128 0xf
 1967 0389 68000000 		.4byte	0x68
 1968 038d 00       		.byte	0x0
 1969 038e 07       		.uleb128 0x7
 1970 038f 8B010000 		.4byte	.LASF51
ARM GAS  /tmp/ccFcDX3k.s 			page 37


 1971 0393 08       		.byte	0x8
 1972 0394 58       		.byte	0x58
 1973 0395 99030000 		.4byte	0x399
 1974 0399 08       		.uleb128 0x8
 1975 039a 8B010000 		.4byte	.LASF51
 1976 039e 14       		.byte	0x14
 1977 039f 08       		.byte	0x8
 1978 03a0 5F       		.byte	0x5f
 1979 03a1 EC030000 		.4byte	0x3ec
 1980 03a5 09       		.uleb128 0x9
 1981 03a6 67010000 		.4byte	.LASF52
 1982 03aa 08       		.byte	0x8
 1983 03ab 60       		.byte	0x60
 1984 03ac EC030000 		.4byte	0x3ec
 1985 03b0 02       		.byte	0x2
 1986 03b1 23       		.byte	0x23
 1987 03b2 00       		.uleb128 0x0
 1988 03b3 09       		.uleb128 0x9
 1989 03b4 20010000 		.4byte	.LASF53
 1990 03b8 08       		.byte	0x8
 1991 03b9 62       		.byte	0x62
 1992 03ba EC030000 		.4byte	0x3ec
 1993 03be 02       		.byte	0x2
 1994 03bf 23       		.byte	0x23
 1995 03c0 04       		.uleb128 0x4
 1996 03c1 09       		.uleb128 0x9
 1997 03c2 25020000 		.4byte	.LASF54
 1998 03c6 08       		.byte	0x8
 1999 03c7 64       		.byte	0x64
 2000 03c8 0D010000 		.4byte	0x10d
 2001 03cc 02       		.byte	0x2
 2002 03cd 23       		.byte	0x23
 2003 03ce 08       		.uleb128 0x8
 2004 03cf 09       		.uleb128 0x9
 2005 03d0 CF040000 		.4byte	.LASF55
 2006 03d4 08       		.byte	0x8
 2007 03d5 65       		.byte	0x65
 2008 03d6 71030000 		.4byte	0x371
 2009 03da 02       		.byte	0x2
 2010 03db 23       		.byte	0x23
 2011 03dc 0C       		.uleb128 0xc
 2012 03dd 09       		.uleb128 0x9
 2013 03de 25040000 		.4byte	.LASF56
 2014 03e2 08       		.byte	0x8
 2015 03e3 67       		.byte	0x67
 2016 03e4 68000000 		.4byte	0x68
 2017 03e8 02       		.byte	0x2
 2018 03e9 23       		.byte	0x23
 2019 03ea 10       		.uleb128 0x10
 2020 03eb 00       		.byte	0x0
 2021 03ec 05       		.uleb128 0x5
 2022 03ed 04       		.byte	0x4
 2023 03ee 8E030000 		.4byte	0x38e
 2024 03f2 0B       		.uleb128 0xb
 2025 03f3 10       		.byte	0x10
 2026 03f4 08       		.byte	0x8
 2027 03f5 71       		.byte	0x71
ARM GAS  /tmp/ccFcDX3k.s 			page 38


 2028 03f6 33040000 		.4byte	0x433
 2029 03fa 09       		.uleb128 0x9
 2030 03fb 67010000 		.4byte	.LASF52
 2031 03ff 08       		.byte	0x8
 2032 0400 72       		.byte	0x72
 2033 0401 EC030000 		.4byte	0x3ec
 2034 0405 02       		.byte	0x2
 2035 0406 23       		.byte	0x23
 2036 0407 00       		.uleb128 0x0
 2037 0408 09       		.uleb128 0x9
 2038 0409 20010000 		.4byte	.LASF53
 2039 040d 08       		.byte	0x8
 2040 040e 74       		.byte	0x74
 2041 040f EC030000 		.4byte	0x3ec
 2042 0413 02       		.byte	0x2
 2043 0414 23       		.byte	0x23
 2044 0415 04       		.uleb128 0x4
 2045 0416 09       		.uleb128 0x9
 2046 0417 25020000 		.4byte	.LASF54
 2047 041b 08       		.byte	0x8
 2048 041c 76       		.byte	0x76
 2049 041d 0D010000 		.4byte	0x10d
 2050 0421 02       		.byte	0x2
 2051 0422 23       		.byte	0x23
 2052 0423 08       		.uleb128 0x8
 2053 0424 09       		.uleb128 0x9
 2054 0425 70030000 		.4byte	.LASF57
 2055 0429 08       		.byte	0x8
 2056 042a 77       		.byte	0x77
 2057 042b 33040000 		.4byte	0x433
 2058 042f 02       		.byte	0x2
 2059 0430 23       		.byte	0x23
 2060 0431 0C       		.uleb128 0xc
 2061 0432 00       		.byte	0x0
 2062 0433 10       		.uleb128 0x10
 2063 0434 0D010000 		.4byte	0x10d
 2064 0438 07       		.uleb128 0x7
 2065 0439 B0040000 		.4byte	.LASF58
 2066 043d 08       		.byte	0x8
 2067 043e 78       		.byte	0x78
 2068 043f F2030000 		.4byte	0x3f2
 2069 0443 0B       		.uleb128 0xb
 2070 0444 20       		.byte	0x20
 2071 0445 09       		.byte	0x9
 2072 0446 5E       		.byte	0x5e
 2073 0447 AE040000 		.4byte	0x4ae
 2074 044b 09       		.uleb128 0x9
 2075 044c 68030000 		.4byte	.LASF59
 2076 0450 09       		.byte	0x9
 2077 0451 5F       		.byte	0x5f
 2078 0452 7E020000 		.4byte	0x27e
 2079 0456 02       		.byte	0x2
 2080 0457 23       		.byte	0x23
 2081 0458 00       		.uleb128 0x0
 2082 0459 09       		.uleb128 0x9
 2083 045a 0C030000 		.4byte	.LASF60
 2084 045e 09       		.byte	0x9
ARM GAS  /tmp/ccFcDX3k.s 			page 39


 2085 045f 60       		.byte	0x60
 2086 0460 EC000000 		.4byte	0xec
 2087 0464 02       		.byte	0x2
 2088 0465 23       		.byte	0x23
 2089 0466 08       		.uleb128 0x8
 2090 0467 09       		.uleb128 0x9
 2091 0468 58020000 		.4byte	.LASF61
 2092 046c 09       		.byte	0x9
 2093 046d 62       		.byte	0x62
 2094 046e 4E030000 		.4byte	0x34e
 2095 0472 02       		.byte	0x2
 2096 0473 23       		.byte	0x23
 2097 0474 0C       		.uleb128 0xc
 2098 0475 09       		.uleb128 0x9
 2099 0476 0F010000 		.4byte	.LASF62
 2100 047a 09       		.byte	0x9
 2101 047b 65       		.byte	0x65
 2102 047c 78020000 		.4byte	0x278
 2103 0480 02       		.byte	0x2
 2104 0481 23       		.byte	0x23
 2105 0482 10       		.uleb128 0x10
 2106 0483 09       		.uleb128 0x9
 2107 0484 91020000 		.4byte	.LASF63
 2108 0488 09       		.byte	0x9
 2109 0489 66       		.byte	0x66
 2110 048a 78020000 		.4byte	0x278
 2111 048e 02       		.byte	0x2
 2112 048f 23       		.byte	0x23
 2113 0490 14       		.uleb128 0x14
 2114 0491 09       		.uleb128 0x9
 2115 0492 ED030000 		.4byte	.LASF64
 2116 0496 09       		.byte	0x9
 2117 0497 6A       		.byte	0x6a
 2118 0498 18010000 		.4byte	0x118
 2119 049c 02       		.byte	0x2
 2120 049d 23       		.byte	0x23
 2121 049e 18       		.uleb128 0x18
 2122 049f 09       		.uleb128 0x9
 2123 04a0 8D030000 		.4byte	.LASF65
 2124 04a4 09       		.byte	0x9
 2125 04a5 6C       		.byte	0x6c
 2126 04a6 78020000 		.4byte	0x278
 2127 04aa 02       		.byte	0x2
 2128 04ab 23       		.byte	0x23
 2129 04ac 1C       		.uleb128 0x1c
 2130 04ad 00       		.byte	0x0
 2131 04ae 07       		.uleb128 0x7
 2132 04af 17000000 		.4byte	.LASF66
 2133 04b3 09       		.byte	0x9
 2134 04b4 6E       		.byte	0x6e
 2135 04b5 43040000 		.4byte	0x443
 2136 04b9 08       		.uleb128 0x8
 2137 04ba 37020000 		.4byte	.LASF67
 2138 04be 10       		.byte	0x10
 2139 04bf 0A       		.byte	0xa
 2140 04c0 2C       		.byte	0x2c
 2141 04c1 F0040000 		.4byte	0x4f0
ARM GAS  /tmp/ccFcDX3k.s 			page 40


 2142 04c5 09       		.uleb128 0x9
 2143 04c6 9C000000 		.4byte	.LASF68
 2144 04ca 0A       		.byte	0xa
 2145 04cb 2D       		.byte	0x2d
 2146 04cc 7E020000 		.4byte	0x27e
 2147 04d0 02       		.byte	0x2
 2148 04d1 23       		.byte	0x23
 2149 04d2 00       		.uleb128 0x0
 2150 04d3 09       		.uleb128 0x9
 2151 04d4 C1040000 		.4byte	.LASF69
 2152 04d8 0A       		.byte	0xa
 2153 04d9 2F       		.byte	0x2f
 2154 04da 78020000 		.4byte	0x278
 2155 04de 02       		.byte	0x2
 2156 04df 23       		.byte	0x23
 2157 04e0 08       		.uleb128 0x8
 2158 04e1 09       		.uleb128 0x9
 2159 04e2 BC030000 		.4byte	.LASF70
 2160 04e6 0A       		.byte	0xa
 2161 04e7 31       		.byte	0x31
 2162 04e8 F0040000 		.4byte	0x4f0
 2163 04ec 02       		.byte	0x2
 2164 04ed 23       		.byte	0x23
 2165 04ee 0C       		.uleb128 0xc
 2166 04ef 00       		.byte	0x0
 2167 04f0 05       		.uleb128 0x5
 2168 04f1 04       		.byte	0x4
 2169 04f2 B9040000 		.4byte	0x4b9
 2170 04f6 07       		.uleb128 0x7
 2171 04f7 37020000 		.4byte	.LASF67
 2172 04fb 0A       		.byte	0xa
 2173 04fc 33       		.byte	0x33
 2174 04fd B9040000 		.4byte	0x4b9
 2175 0501 07       		.uleb128 0x7
 2176 0502 6E040000 		.4byte	.LASF71
 2177 0506 0B       		.byte	0xb
 2178 0507 29       		.byte	0x29
 2179 0508 0C050000 		.4byte	0x50c
 2180 050c 08       		.uleb128 0x8
 2181 050d 6E040000 		.4byte	.LASF71
 2182 0511 0C       		.byte	0xc
 2183 0512 0B       		.byte	0xb
 2184 0513 2E       		.byte	0x2e
 2185 0514 43050000 		.4byte	0x543
 2186 0518 09       		.uleb128 0x9
 2187 0519 E5010000 		.4byte	.LASF72
 2188 051d 0B       		.byte	0xb
 2189 051e 2F       		.byte	0x2f
 2190 051f 43050000 		.4byte	0x543
 2191 0523 02       		.byte	0x2
 2192 0524 23       		.byte	0x23
 2193 0525 00       		.uleb128 0x0
 2194 0526 09       		.uleb128 0x9
 2195 0527 DC020000 		.4byte	.LASF73
 2196 052b 0B       		.byte	0xb
 2197 052c 32       		.byte	0x32
 2198 052d 78020000 		.4byte	0x278
ARM GAS  /tmp/ccFcDX3k.s 			page 41


 2199 0531 02       		.byte	0x2
 2200 0532 23       		.byte	0x23
 2201 0533 04       		.uleb128 0x4
 2202 0534 09       		.uleb128 0x9
 2203 0535 48020000 		.4byte	.LASF74
 2204 0539 0B       		.byte	0xb
 2205 053a 34       		.byte	0x34
 2206 053b 02010000 		.4byte	0x102
 2207 053f 02       		.byte	0x2
 2208 0540 23       		.byte	0x23
 2209 0541 08       		.uleb128 0x8
 2210 0542 00       		.byte	0x0
 2211 0543 05       		.uleb128 0x5
 2212 0544 04       		.byte	0x4
 2213 0545 01050000 		.4byte	0x501
 2214 0549 08       		.uleb128 0x8
 2215 054a 3D010000 		.4byte	.LASF75
 2216 054e 04       		.byte	0x4
 2217 054f 0B       		.byte	0xb
 2218 0550 3C       		.byte	0x3c
 2219 0551 64050000 		.4byte	0x564
 2220 0555 09       		.uleb128 0x9
 2221 0556 33040000 		.4byte	.LASF76
 2222 055a 0B       		.byte	0xb
 2223 055b 3D       		.byte	0x3d
 2224 055c 43050000 		.4byte	0x543
 2225 0560 02       		.byte	0x2
 2226 0561 23       		.byte	0x23
 2227 0562 00       		.uleb128 0x0
 2228 0563 00       		.byte	0x0
 2229 0564 07       		.uleb128 0x7
 2230 0565 3D010000 		.4byte	.LASF75
 2231 0569 0B       		.byte	0xb
 2232 056a 40       		.byte	0x40
 2233 056b 49050000 		.4byte	0x549
 2234 056f 11       		.uleb128 0x11
 2235 0570 04       		.byte	0x4
 2236 0571 06       		.byte	0x6
 2237 0572 90       		.byte	0x90
 2238 0573 A4050000 		.4byte	0x5a4
 2239 0577 12       		.uleb128 0x12
 2240 0578 2C040000 		.4byte	.LASF77
 2241 057c 06       		.byte	0x6
 2242 057d 97       		.byte	0x97
 2243 057e F7000000 		.4byte	0xf7
 2244 0582 12       		.uleb128 0x12
 2245 0583 47000000 		.4byte	.LASF78
 2246 0587 06       		.byte	0x6
 2247 0588 9E       		.byte	0x9e
 2248 0589 F7000000 		.4byte	0xf7
 2249 058d 12       		.uleb128 0x12
 2250 058e 7C040000 		.4byte	.LASF79
 2251 0592 06       		.byte	0x6
 2252 0593 A5       		.byte	0xa5
 2253 0594 68000000 		.4byte	0x68
 2254 0598 12       		.uleb128 0x12
 2255 0599 13030000 		.4byte	.LASF80
ARM GAS  /tmp/ccFcDX3k.s 			page 42


 2256 059d 06       		.byte	0x6
 2257 059e AC       		.byte	0xac
 2258 059f 02010000 		.4byte	0x102
 2259 05a3 00       		.byte	0x0
 2260 05a4 05       		.uleb128 0x5
 2261 05a5 04       		.byte	0x4
 2262 05a6 B6020000 		.4byte	0x2b6
 2263 05aa 05       		.uleb128 0x5
 2264 05ab 04       		.byte	0x4
 2265 05ac F6040000 		.4byte	0x4f6
 2266 05b0 05       		.uleb128 0x5
 2267 05b1 04       		.byte	0x4
 2268 05b2 94000000 		.4byte	0x94
 2269 05b6 13       		.uleb128 0x13
 2270 05b7 01       		.byte	0x1
 2271 05b8 89000000 		.4byte	0x89
 2272 05bc D0050000 		.4byte	0x5d0
 2273 05c0 0F       		.uleb128 0xf
 2274 05c1 68000000 		.4byte	0x68
 2275 05c5 0F       		.uleb128 0xf
 2276 05c6 D0050000 		.4byte	0x5d0
 2277 05ca 0F       		.uleb128 0xf
 2278 05cb 89000000 		.4byte	0x89
 2279 05cf 00       		.byte	0x0
 2280 05d0 05       		.uleb128 0x5
 2281 05d1 04       		.byte	0x4
 2282 05d2 D6050000 		.4byte	0x5d6
 2283 05d6 06       		.uleb128 0x6
 2284 05d7 94000000 		.4byte	0x94
 2285 05db 05       		.uleb128 0x5
 2286 05dc 04       		.byte	0x4
 2287 05dd B6050000 		.4byte	0x5b6
 2288 05e1 13       		.uleb128 0x13
 2289 05e2 01       		.byte	0x1
 2290 05e3 89000000 		.4byte	0x89
 2291 05e7 FB050000 		.4byte	0x5fb
 2292 05eb 0F       		.uleb128 0xf
 2293 05ec 68000000 		.4byte	0x68
 2294 05f0 0F       		.uleb128 0xf
 2295 05f1 B0050000 		.4byte	0x5b0
 2296 05f5 0F       		.uleb128 0xf
 2297 05f6 89000000 		.4byte	0x89
 2298 05fa 00       		.byte	0x0
 2299 05fb 05       		.uleb128 0x5
 2300 05fc 04       		.byte	0x4
 2301 05fd E1050000 		.4byte	0x5e1
 2302 0601 08       		.uleb128 0x8
 2303 0602 38000000 		.4byte	.LASF81
 2304 0606 20       		.byte	0x20
 2305 0607 0C       		.byte	0xc
 2306 0608 51       		.byte	0x51
 2307 0609 7E060000 		.4byte	0x67e
 2308 060d 09       		.uleb128 0x9
 2309 060e 1F020000 		.4byte	.LASF82
 2310 0612 0C       		.byte	0xc
 2311 0613 52       		.byte	0x52
 2312 0614 DB050000 		.4byte	0x5db
ARM GAS  /tmp/ccFcDX3k.s 			page 43


 2313 0618 02       		.byte	0x2
 2314 0619 23       		.byte	0x23
 2315 061a 00       		.uleb128 0x0
 2316 061b 09       		.uleb128 0x9
 2317 061c 97030000 		.4byte	.LASF83
 2318 0620 0C       		.byte	0xc
 2319 0621 52       		.byte	0x52
 2320 0622 FB050000 		.4byte	0x5fb
 2321 0626 02       		.byte	0x2
 2322 0627 23       		.byte	0x23
 2323 0628 04       		.uleb128 0x4
 2324 0629 09       		.uleb128 0x9
 2325 062a E9000000 		.4byte	.LASF84
 2326 062e 0C       		.byte	0xc
 2327 062f 52       		.byte	0x52
 2328 0630 8E060000 		.4byte	0x68e
 2329 0634 02       		.byte	0x2
 2330 0635 23       		.byte	0x23
 2331 0636 08       		.uleb128 0x8
 2332 0637 09       		.uleb128 0x9
 2333 0638 A2040000 		.4byte	.LASF85
 2334 063c 0C       		.byte	0xc
 2335 063d 52       		.byte	0x52
 2336 063e 8E060000 		.4byte	0x68e
 2337 0642 02       		.byte	0x2
 2338 0643 23       		.byte	0x23
 2339 0644 0C       		.uleb128 0xc
 2340 0645 0A       		.uleb128 0xa
 2341 0646 70757400 		.ascii	"put\000"
 2342 064a 0C       		.byte	0xc
 2343 064b 52       		.byte	0x52
 2344 064c AE060000 		.4byte	0x6ae
 2345 0650 02       		.byte	0x2
 2346 0651 23       		.byte	0x23
 2347 0652 10       		.uleb128 0x10
 2348 0653 0A       		.uleb128 0xa
 2349 0654 67657400 		.ascii	"get\000"
 2350 0658 0C       		.byte	0xc
 2351 0659 52       		.byte	0x52
 2352 065a C9060000 		.4byte	0x6c9
 2353 065e 02       		.byte	0x2
 2354 065f 23       		.byte	0x23
 2355 0660 14       		.uleb128 0x14
 2356 0661 09       		.uleb128 0x9
 2357 0662 ED010000 		.4byte	.LASF86
 2358 0666 0C       		.byte	0xc
 2359 0667 52       		.byte	0x52
 2360 0668 EE060000 		.4byte	0x6ee
 2361 066c 02       		.byte	0x2
 2362 066d 23       		.byte	0x23
 2363 066e 18       		.uleb128 0x18
 2364 066f 09       		.uleb128 0x9
 2365 0670 6D000000 		.4byte	.LASF87
 2366 0674 0C       		.byte	0xc
 2367 0675 52       		.byte	0x52
 2368 0676 13070000 		.4byte	0x713
 2369 067a 02       		.byte	0x2
ARM GAS  /tmp/ccFcDX3k.s 			page 44


 2370 067b 23       		.byte	0x23
 2371 067c 1C       		.uleb128 0x1c
 2372 067d 00       		.byte	0x0
 2373 067e 13       		.uleb128 0x13
 2374 067f 01       		.byte	0x1
 2375 0680 C0000000 		.4byte	0xc0
 2376 0684 8E060000 		.4byte	0x68e
 2377 0688 0F       		.uleb128 0xf
 2378 0689 68000000 		.4byte	0x68
 2379 068d 00       		.byte	0x0
 2380 068e 05       		.uleb128 0x5
 2381 068f 04       		.byte	0x4
 2382 0690 7E060000 		.4byte	0x67e
 2383 0694 13       		.uleb128 0x13
 2384 0695 01       		.byte	0x1
 2385 0696 F7000000 		.4byte	0xf7
 2386 069a AE060000 		.4byte	0x6ae
 2387 069e 0F       		.uleb128 0xf
 2388 069f 68000000 		.4byte	0x68
 2389 06a3 0F       		.uleb128 0xf
 2390 06a4 94000000 		.4byte	0x94
 2391 06a8 0F       		.uleb128 0xf
 2392 06a9 0D010000 		.4byte	0x10d
 2393 06ad 00       		.byte	0x0
 2394 06ae 05       		.uleb128 0x5
 2395 06af 04       		.byte	0x4
 2396 06b0 94060000 		.4byte	0x694
 2397 06b4 13       		.uleb128 0x13
 2398 06b5 01       		.byte	0x1
 2399 06b6 F7000000 		.4byte	0xf7
 2400 06ba C9060000 		.4byte	0x6c9
 2401 06be 0F       		.uleb128 0xf
 2402 06bf 68000000 		.4byte	0x68
 2403 06c3 0F       		.uleb128 0xf
 2404 06c4 0D010000 		.4byte	0x10d
 2405 06c8 00       		.byte	0x0
 2406 06c9 05       		.uleb128 0x5
 2407 06ca 04       		.byte	0x4
 2408 06cb B4060000 		.4byte	0x6b4
 2409 06cf 13       		.uleb128 0x13
 2410 06d0 01       		.byte	0x1
 2411 06d1 89000000 		.4byte	0x89
 2412 06d5 EE060000 		.4byte	0x6ee
 2413 06d9 0F       		.uleb128 0xf
 2414 06da 68000000 		.4byte	0x68
 2415 06de 0F       		.uleb128 0xf
 2416 06df D0050000 		.4byte	0x5d0
 2417 06e3 0F       		.uleb128 0xf
 2418 06e4 89000000 		.4byte	0x89
 2419 06e8 0F       		.uleb128 0xf
 2420 06e9 0D010000 		.4byte	0x10d
 2421 06ed 00       		.byte	0x0
 2422 06ee 05       		.uleb128 0x5
 2423 06ef 04       		.byte	0x4
 2424 06f0 CF060000 		.4byte	0x6cf
 2425 06f4 13       		.uleb128 0x13
 2426 06f5 01       		.byte	0x1
ARM GAS  /tmp/ccFcDX3k.s 			page 45


 2427 06f6 89000000 		.4byte	0x89
 2428 06fa 13070000 		.4byte	0x713
 2429 06fe 0F       		.uleb128 0xf
 2430 06ff 68000000 		.4byte	0x68
 2431 0703 0F       		.uleb128 0xf
 2432 0704 B0050000 		.4byte	0x5b0
 2433 0708 0F       		.uleb128 0xf
 2434 0709 89000000 		.4byte	0x89
 2435 070d 0F       		.uleb128 0xf
 2436 070e 0D010000 		.4byte	0x10d
 2437 0712 00       		.byte	0x0
 2438 0713 05       		.uleb128 0x5
 2439 0714 04       		.byte	0x4
 2440 0715 F4060000 		.4byte	0x6f4
 2441 0719 0B       		.uleb128 0xb
 2442 071a 04       		.byte	0x4
 2443 071b 0C       		.byte	0xc
 2444 071c 5C       		.byte	0x5c
 2445 071d 30070000 		.4byte	0x730
 2446 0721 0A       		.uleb128 0xa
 2447 0722 766D7400 		.ascii	"vmt\000"
 2448 0726 0C       		.byte	0xc
 2449 0727 5E       		.byte	0x5e
 2450 0728 30070000 		.4byte	0x730
 2451 072c 02       		.byte	0x2
 2452 072d 23       		.byte	0x23
 2453 072e 00       		.uleb128 0x0
 2454 072f 00       		.byte	0x0
 2455 0730 05       		.uleb128 0x5
 2456 0731 04       		.byte	0x4
 2457 0732 36070000 		.4byte	0x736
 2458 0736 06       		.uleb128 0x6
 2459 0737 01060000 		.4byte	0x601
 2460 073b 07       		.uleb128 0x7
 2461 073c 56040000 		.4byte	.LASF88
 2462 0740 0C       		.byte	0xc
 2463 0741 60       		.byte	0x60
 2464 0742 19070000 		.4byte	0x719
 2465 0746 10       		.uleb128 0x10
 2466 0747 9F000000 		.4byte	0x9f
 2467 074b 07       		.uleb128 0x7
 2468 074c 3D020000 		.4byte	.LASF89
 2469 0750 0D       		.byte	0xd
 2470 0751 38       		.byte	0x38
 2471 0752 56070000 		.4byte	0x756
 2472 0756 05       		.uleb128 0x5
 2473 0757 04       		.byte	0x4
 2474 0758 5C070000 		.4byte	0x75c
 2475 075c 0E       		.uleb128 0xe
 2476 075d 01       		.byte	0x1
 2477 075e 72070000 		.4byte	0x772
 2478 0762 0F       		.uleb128 0xf
 2479 0763 72070000 		.4byte	0x772
 2480 0767 0F       		.uleb128 0xf
 2481 0768 45000000 		.4byte	0x45
 2482 076c 0F       		.uleb128 0xf
 2483 076d 78070000 		.4byte	0x778
ARM GAS  /tmp/ccFcDX3k.s 			page 46


 2484 0771 00       		.byte	0x0
 2485 0772 05       		.uleb128 0x5
 2486 0773 04       		.byte	0x4
 2487 0774 3B070000 		.4byte	0x73b
 2488 0778 05       		.uleb128 0x5
 2489 0779 04       		.byte	0x4
 2490 077a 71000000 		.4byte	0x71
 2491 077e 0B       		.uleb128 0xb
 2492 077f 08       		.byte	0x8
 2493 0780 0D       		.byte	0xd
 2494 0781 3D       		.byte	0x3d
 2495 0782 A3070000 		.4byte	0x7a3
 2496 0786 09       		.uleb128 0x9
 2497 0787 35010000 		.4byte	.LASF90
 2498 078b 0D       		.byte	0xd
 2499 078c 3E       		.byte	0x3e
 2500 078d 7E000000 		.4byte	0x7e
 2501 0791 02       		.byte	0x2
 2502 0792 23       		.byte	0x23
 2503 0793 00       		.uleb128 0x0
 2504 0794 09       		.uleb128 0x9
 2505 0795 62040000 		.4byte	.LASF91
 2506 0799 0D       		.byte	0xd
 2507 079a 3F       		.byte	0x3f
 2508 079b 4B070000 		.4byte	0x74b
 2509 079f 02       		.byte	0x2
 2510 07a0 23       		.byte	0x23
 2511 07a1 04       		.uleb128 0x4
 2512 07a2 00       		.byte	0x0
 2513 07a3 07       		.uleb128 0x7
 2514 07a4 B8000000 		.4byte	.LASF92
 2515 07a8 0D       		.byte	0xd
 2516 07a9 40       		.byte	0x40
 2517 07aa 7E070000 		.4byte	0x77e
 2518 07ae 0B       		.uleb128 0xb
 2519 07af 08       		.byte	0x8
 2520 07b0 0D       		.byte	0xd
 2521 07b1 45       		.byte	0x45
 2522 07b2 D3070000 		.4byte	0x7d3
 2523 07b6 09       		.uleb128 0x9
 2524 07b7 A4000000 		.4byte	.LASF93
 2525 07bb 0D       		.byte	0xd
 2526 07bc 46       		.byte	0x46
 2527 07bd 72070000 		.4byte	0x772
 2528 07c1 02       		.byte	0x2
 2529 07c2 23       		.byte	0x23
 2530 07c3 00       		.uleb128 0x0
 2531 07c4 09       		.uleb128 0x9
 2532 07c5 6F010000 		.4byte	.LASF94
 2533 07c9 0D       		.byte	0xd
 2534 07ca 48       		.byte	0x48
 2535 07cb D3070000 		.4byte	0x7d3
 2536 07cf 02       		.byte	0x2
 2537 07d0 23       		.byte	0x23
 2538 07d1 04       		.uleb128 0x4
 2539 07d2 00       		.byte	0x0
 2540 07d3 05       		.uleb128 0x5
ARM GAS  /tmp/ccFcDX3k.s 			page 47


 2541 07d4 04       		.byte	0x4
 2542 07d5 D9070000 		.4byte	0x7d9
 2543 07d9 06       		.uleb128 0x6
 2544 07da A3070000 		.4byte	0x7a3
 2545 07de 07       		.uleb128 0x7
 2546 07df E1030000 		.4byte	.LASF95
 2547 07e3 0D       		.byte	0xd
 2548 07e4 4A       		.byte	0x4a
 2549 07e5 AE070000 		.4byte	0x7ae
 2550 07e9 14       		.uleb128 0x14
 2551 07ea BE020000 		.4byte	.LASF123
 2552 07ee 01       		.byte	0x1
 2553 07ef 30       		.byte	0x30
 2554 07f0 01       		.byte	0x1
 2555 07f1 71000000 		.4byte	0x71
 2556 07f5 01       		.byte	0x1
 2557 07f6 27080000 		.4byte	0x827
 2558 07fa 15       		.uleb128 0x15
 2559 07fb 73747200 		.ascii	"str\000"
 2560 07ff 01       		.byte	0x1
 2561 0800 30       		.byte	0x30
 2562 0801 71000000 		.4byte	0x71
 2563 0805 16       		.uleb128 0x16
 2564 0806 21030000 		.4byte	.LASF96
 2565 080a 01       		.byte	0x1
 2566 080b 30       		.byte	0x30
 2567 080c 7E000000 		.4byte	0x7e
 2568 0810 16       		.uleb128 0x16
 2569 0811 A7020000 		.4byte	.LASF97
 2570 0815 01       		.byte	0x1
 2571 0816 30       		.byte	0x30
 2572 0817 78070000 		.4byte	0x778
 2573 081b 17       		.uleb128 0x17
 2574 081c 99020000 		.4byte	.LASF124
 2575 0820 01       		.byte	0x1
 2576 0821 31       		.byte	0x31
 2577 0822 71000000 		.4byte	0x71
 2578 0826 00       		.byte	0x0
 2579 0827 18       		.uleb128 0x18
 2580 0828 1F040000 		.4byte	.LASF98
 2581 082c 01       		.byte	0x1
 2582 082d 41       		.byte	0x41
 2583 082e 01       		.byte	0x1
 2584 082f 00000000 		.4byte	.LFB56
 2585 0833 0C000000 		.4byte	.LFE56
 2586 0837 02       		.byte	0x2
 2587 0838 7D       		.byte	0x7d
 2588 0839 00       		.sleb128 0
 2589 083a 5B080000 		.4byte	0x85b
 2590 083e 19       		.uleb128 0x19
 2591 083f 63687000 		.ascii	"chp\000"
 2592 0843 01       		.byte	0x1
 2593 0844 41       		.byte	0x41
 2594 0845 72070000 		.4byte	0x772
 2595 0849 00000000 		.4byte	.LLST0
 2596 084d 19       		.uleb128 0x19
 2597 084e 7000     		.ascii	"p\000"
ARM GAS  /tmp/ccFcDX3k.s 			page 48


 2598 0850 01       		.byte	0x1
 2599 0851 41       		.byte	0x41
 2600 0852 71000000 		.4byte	0x71
 2601 0856 13000000 		.4byte	.LLST1
 2602 085a 00       		.byte	0x0
 2603 085b 18       		.uleb128 0x18
 2604 085c 0C040000 		.4byte	.LASF99
 2605 0860 01       		.byte	0x1
 2606 0861 6E       		.byte	0x6e
 2607 0862 01       		.byte	0x1
 2608 0863 00000000 		.4byte	.LFB59
 2609 0867 20000000 		.4byte	.LFE59
 2610 086b 02       		.byte	0x2
 2611 086c 7D       		.byte	0x7d
 2612 086d 00       		.sleb128 0
 2613 086e A0080000 		.4byte	0x8a0
 2614 0872 19       		.uleb128 0x19
 2615 0873 63687000 		.ascii	"chp\000"
 2616 0877 01       		.byte	0x1
 2617 0878 6E       		.byte	0x6e
 2618 0879 72070000 		.4byte	0x772
 2619 087d 31000000 		.4byte	.LLST2
 2620 0881 1A       		.uleb128 0x1a
 2621 0882 8F040000 		.4byte	.LASF100
 2622 0886 01       		.byte	0x1
 2623 0887 6E       		.byte	0x6e
 2624 0888 45000000 		.4byte	0x45
 2625 088c 4F000000 		.4byte	.LLST3
 2626 0890 1A       		.uleb128 0x1a
 2627 0891 BC040000 		.4byte	.LASF101
 2628 0895 01       		.byte	0x1
 2629 0896 6E       		.byte	0x6e
 2630 0897 78070000 		.4byte	0x778
 2631 089b 6D000000 		.4byte	.LLST4
 2632 089f 00       		.byte	0x0
 2633 08a0 1B       		.uleb128 0x1b
 2634 08a1 5D000000 		.4byte	.LASF102
 2635 08a5 01       		.byte	0x1
 2636 08a6 4E       		.byte	0x4e
 2637 08a7 01       		.byte	0x1
 2638 08a8 00000000 		.4byte	.LFB58
 2639 08ac B8000000 		.4byte	.LFE58
 2640 08b0 8B000000 		.4byte	.LLST5
 2641 08b4 E6080000 		.4byte	0x8e6
 2642 08b8 19       		.uleb128 0x19
 2643 08b9 63687000 		.ascii	"chp\000"
 2644 08bd 01       		.byte	0x1
 2645 08be 4E       		.byte	0x4e
 2646 08bf 72070000 		.4byte	0x772
 2647 08c3 AB000000 		.4byte	.LLST6
 2648 08c7 1A       		.uleb128 0x1a
 2649 08c8 8F040000 		.4byte	.LASF100
 2650 08cc 01       		.byte	0x1
 2651 08cd 4E       		.byte	0x4e
 2652 08ce 45000000 		.4byte	0x45
 2653 08d2 C9000000 		.4byte	.LLST7
 2654 08d6 1A       		.uleb128 0x1a
ARM GAS  /tmp/ccFcDX3k.s 			page 49


 2655 08d7 BC040000 		.4byte	.LASF101
 2656 08db 01       		.byte	0x1
 2657 08dc 4E       		.byte	0x4e
 2658 08dd 78070000 		.4byte	0x778
 2659 08e1 E7000000 		.4byte	.LLST8
 2660 08e5 00       		.byte	0x0
 2661 08e6 1B       		.uleb128 0x1b
 2662 08e7 94040000 		.4byte	.LASF103
 2663 08eb 01       		.byte	0x1
 2664 08ec 46       		.byte	0x46
 2665 08ed 01       		.byte	0x1
 2666 08ee 00000000 		.4byte	.LFB57
 2667 08f2 20000000 		.4byte	.LFE57
 2668 08f6 05010000 		.4byte	.LLST9
 2669 08fa 1D090000 		.4byte	0x91d
 2670 08fe 19       		.uleb128 0x19
 2671 08ff 63687000 		.ascii	"chp\000"
 2672 0903 01       		.byte	0x1
 2673 0904 46       		.byte	0x46
 2674 0905 72070000 		.4byte	0x772
 2675 0909 25010000 		.4byte	.LLST10
 2676 090d 19       		.uleb128 0x19
 2677 090e 73637000 		.ascii	"scp\000"
 2678 0912 01       		.byte	0x1
 2679 0913 46       		.byte	0x46
 2680 0914 D3070000 		.4byte	0x7d3
 2681 0918 43010000 		.4byte	.LLST11
 2682 091c 00       		.byte	0x0
 2683 091d 1C       		.uleb128 0x1c
 2684 091e 04030000 		.4byte	.LASF111
 2685 0922 01       		.byte	0x1
 2686 0923 81       		.byte	0x81
 2687 0924 01       		.byte	0x1
 2688 0925 C0000000 		.4byte	0xc0
 2689 0929 00000000 		.4byte	.LFB60
 2690 092d 36000000 		.4byte	.LFE60
 2691 0931 6C010000 		.4byte	.LLST12
 2692 0935 84090000 		.4byte	0x984
 2693 0939 19       		.uleb128 0x19
 2694 093a 73637000 		.ascii	"scp\000"
 2695 093e 01       		.byte	0x1
 2696 093f 81       		.byte	0x81
 2697 0940 D3070000 		.4byte	0x7d3
 2698 0944 8C010000 		.4byte	.LLST13
 2699 0948 19       		.uleb128 0x19
 2700 0949 63687000 		.ascii	"chp\000"
 2701 094d 01       		.byte	0x1
 2702 094e 81       		.byte	0x81
 2703 094f 72070000 		.4byte	0x772
 2704 0953 C0010000 		.4byte	.LLST14
 2705 0957 1A       		.uleb128 0x1a
 2706 0958 86010000 		.4byte	.LASF104
 2707 095c 01       		.byte	0x1
 2708 095d 82       		.byte	0x82
 2709 095e 71000000 		.4byte	0x71
 2710 0962 DE010000 		.4byte	.LLST15
 2711 0966 1A       		.uleb128 0x1a
ARM GAS  /tmp/ccFcDX3k.s 			page 50


 2712 0967 8F040000 		.4byte	.LASF100
 2713 096b 01       		.byte	0x1
 2714 096c 82       		.byte	0x82
 2715 096d 45000000 		.4byte	0x45
 2716 0971 FC010000 		.4byte	.LLST16
 2717 0975 1D       		.uleb128 0x1d
 2718 0976 BC040000 		.4byte	.LASF101
 2719 097a 01       		.byte	0x1
 2720 097b 82       		.byte	0x82
 2721 097c 78070000 		.4byte	0x778
 2722 0980 02       		.byte	0x2
 2723 0981 91       		.byte	0x91
 2724 0982 00       		.sleb128 0
 2725 0983 00       		.byte	0x0
 2726 0984 1E       		.uleb128 0x1e
 2727 0985 E9070000 		.4byte	0x7e9
 2728 0989 00000000 		.4byte	.LFB66
 2729 098d 3C000000 		.4byte	.LFE66
 2730 0991 1A020000 		.4byte	.LLST17
 2731 0995 C1090000 		.4byte	0x9c1
 2732 0999 1F       		.uleb128 0x1f
 2733 099a FA070000 		.4byte	0x7fa
 2734 099e 3A020000 		.4byte	.LLST18
 2735 09a2 1F       		.uleb128 0x1f
 2736 09a3 10080000 		.4byte	0x810
 2737 09a7 4D020000 		.4byte	.LLST19
 2738 09ab 20       		.uleb128 0x20
 2739 09ac 1B080000 		.4byte	0x81b
 2740 09b0 6B020000 		.4byte	.LLST20
 2741 09b4 21       		.uleb128 0x21
 2742 09b5 05080000 		.4byte	0x805
 2743 09b9 06       		.byte	0x6
 2744 09ba 03       		.byte	0x3
 2745 09bb 00000000 		.4byte	.LC23
 2746 09bf 9F       		.byte	0x9f
 2747 09c0 00       		.byte	0x0
 2748 09c1 22       		.uleb128 0x22
 2749 09c2 01       		.byte	0x1
 2750 09c3 B2030000 		.4byte	.LASF125
 2751 09c7 01       		.byte	0x1
 2752 09c8 D7       		.byte	0xd7
 2753 09c9 01       		.byte	0x1
 2754 09ca 00000000 		.4byte	.LFB62
 2755 09ce 0C000000 		.4byte	.LFE62
 2756 09d2 02       		.byte	0x2
 2757 09d3 7D       		.byte	0x7d
 2758 09d4 00       		.sleb128 0
 2759 09d5 23       		.uleb128 0x23
 2760 09d6 01       		.byte	0x1
 2761 09d7 98010000 		.4byte	.LASF107
 2762 09db 01       		.byte	0x1
 2763 09dc E7       		.byte	0xe7
 2764 09dd 01       		.byte	0x1
 2765 09de 78020000 		.4byte	0x278
 2766 09e2 00000000 		.4byte	.LFB63
 2767 09e6 14000000 		.4byte	.LFE63
 2768 09ea A1020000 		.4byte	.LLST21
ARM GAS  /tmp/ccFcDX3k.s 			page 51


 2769 09ee 200A0000 		.4byte	0xa20
 2770 09f2 19       		.uleb128 0x19
 2771 09f3 73637000 		.ascii	"scp\000"
 2772 09f7 01       		.byte	0x1
 2773 09f8 E7       		.byte	0xe7
 2774 09f9 200A0000 		.4byte	0xa20
 2775 09fd C1020000 		.4byte	.LLST22
 2776 0a01 1A       		.uleb128 0x1a
 2777 0a02 A4010000 		.4byte	.LASF105
 2778 0a06 01       		.byte	0x1
 2779 0a07 E7       		.byte	0xe7
 2780 0a08 89000000 		.4byte	0x89
 2781 0a0c E0020000 		.4byte	.LLST23
 2782 0a10 1A       		.uleb128 0x1a
 2783 0a11 8C020000 		.4byte	.LASF106
 2784 0a15 01       		.byte	0x1
 2785 0a16 E7       		.byte	0xe7
 2786 0a17 EC000000 		.4byte	0xec
 2787 0a1b F3020000 		.4byte	.LLST24
 2788 0a1f 00       		.byte	0x0
 2789 0a20 05       		.uleb128 0x5
 2790 0a21 04       		.byte	0x4
 2791 0a22 260A0000 		.4byte	0xa26
 2792 0a26 06       		.uleb128 0x6
 2793 0a27 DE070000 		.4byte	0x7de
 2794 0a2b 23       		.uleb128 0x23
 2795 0a2c 01       		.byte	0x1
 2796 0a2d 5E020000 		.4byte	.LASF108
 2797 0a31 01       		.byte	0x1
 2798 0a32 F6       		.byte	0xf6
 2799 0a33 01       		.byte	0x1
 2800 0a34 78020000 		.4byte	0x278
 2801 0a38 00000000 		.4byte	.LFB64
 2802 0a3c 18000000 		.4byte	.LFE64
 2803 0a40 06030000 		.4byte	.LLST25
 2804 0a44 850A0000 		.4byte	0xa85
 2805 0a48 19       		.uleb128 0x19
 2806 0a49 73637000 		.ascii	"scp\000"
 2807 0a4d 01       		.byte	0x1
 2808 0a4e F6       		.byte	0xf6
 2809 0a4f 200A0000 		.4byte	0xa20
 2810 0a53 26030000 		.4byte	.LLST26
 2811 0a57 19       		.uleb128 0x19
 2812 0a58 77737000 		.ascii	"wsp\000"
 2813 0a5c 01       		.byte	0x1
 2814 0a5d F6       		.byte	0xf6
 2815 0a5e 68000000 		.4byte	0x68
 2816 0a62 45030000 		.4byte	.LLST27
 2817 0a66 1A       		.uleb128 0x1a
 2818 0a67 A4010000 		.4byte	.LASF105
 2819 0a6b 01       		.byte	0x1
 2820 0a6c F7       		.byte	0xf7
 2821 0a6d 89000000 		.4byte	0x89
 2822 0a71 63030000 		.4byte	.LLST28
 2823 0a75 1A       		.uleb128 0x1a
 2824 0a76 8C020000 		.4byte	.LASF106
 2825 0a7a 01       		.byte	0x1
ARM GAS  /tmp/ccFcDX3k.s 			page 52


 2826 0a7b F7       		.byte	0xf7
 2827 0a7c EC000000 		.4byte	0xec
 2828 0a80 81030000 		.4byte	.LLST29
 2829 0a84 00       		.byte	0x0
 2830 0a85 24       		.uleb128 0x24
 2831 0a86 01       		.byte	0x1
 2832 0a87 28010000 		.4byte	.LASF109
 2833 0a8b 01       		.byte	0x1
 2834 0a8c 0601     		.2byte	0x106
 2835 0a8e 01       		.byte	0x1
 2836 0a8f C0000000 		.4byte	0xc0
 2837 0a93 00000000 		.4byte	.LFB65
 2838 0a97 B0000000 		.4byte	.LFE65
 2839 0a9b 9F030000 		.4byte	.LLST30
 2840 0a9f F80A0000 		.4byte	0xaf8
 2841 0aa3 25       		.uleb128 0x25
 2842 0aa4 63687000 		.ascii	"chp\000"
 2843 0aa8 01       		.byte	0x1
 2844 0aa9 0601     		.2byte	0x106
 2845 0aab 72070000 		.4byte	0x772
 2846 0aaf BF030000 		.4byte	.LLST31
 2847 0ab3 26       		.uleb128 0x26
 2848 0ab4 0A010000 		.4byte	.LASF110
 2849 0ab8 01       		.byte	0x1
 2850 0ab9 0601     		.2byte	0x106
 2851 0abb 71000000 		.4byte	0x71
 2852 0abf DD030000 		.4byte	.LLST32
 2853 0ac3 26       		.uleb128 0x26
 2854 0ac4 A4010000 		.4byte	.LASF105
 2855 0ac8 01       		.byte	0x1
 2856 0ac9 0601     		.2byte	0x106
 2857 0acb 4C000000 		.4byte	0x4c
 2858 0acf FB030000 		.4byte	.LLST33
 2859 0ad3 27       		.uleb128 0x27
 2860 0ad4 7000     		.ascii	"p\000"
 2861 0ad6 01       		.byte	0x1
 2862 0ad7 0701     		.2byte	0x107
 2863 0ad9 71000000 		.4byte	0x71
 2864 0add 19040000 		.4byte	.LLST34
 2865 0ae1 28       		.uleb128 0x28
 2866 0ae2 0C000000 		.4byte	.LBB2
 2867 0ae6 A2000000 		.4byte	.LBE2
 2868 0aea 29       		.uleb128 0x29
 2869 0aeb 6300     		.ascii	"c\000"
 2870 0aed 01       		.byte	0x1
 2871 0aee 0A01     		.2byte	0x10a
 2872 0af0 37000000 		.4byte	0x37
 2873 0af4 01       		.byte	0x1
 2874 0af5 58       		.byte	0x58
 2875 0af6 00       		.byte	0x0
 2876 0af7 00       		.byte	0x0
 2877 0af8 1C       		.uleb128 0x1c
 2878 0af9 3B040000 		.4byte	.LASF112
 2879 0afd 01       		.byte	0x1
 2880 0afe 96       		.byte	0x96
 2881 0aff 01       		.byte	0x1
 2882 0b00 F7000000 		.4byte	0xf7
ARM GAS  /tmp/ccFcDX3k.s 			page 53


 2883 0b04 00000000 		.4byte	.LFB61
 2884 0b08 5C010000 		.4byte	.LFE61
 2885 0b0c 4D040000 		.4byte	.LLST35
 2886 0b10 A10B0000 		.4byte	0xba1
 2887 0b14 19       		.uleb128 0x19
 2888 0b15 7000     		.ascii	"p\000"
 2889 0b17 01       		.byte	0x1
 2890 0b18 96       		.byte	0x96
 2891 0b19 68000000 		.4byte	0x68
 2892 0b1d 7A040000 		.4byte	.LLST36
 2893 0b21 2A       		.uleb128 0x2a
 2894 0b22 6E00     		.ascii	"n\000"
 2895 0b24 01       		.byte	0x1
 2896 0b25 97       		.byte	0x97
 2897 0b26 45000000 		.4byte	0x45
 2898 0b2a 8D040000 		.4byte	.LLST37
 2899 0b2e 2B       		.uleb128 0x2b
 2900 0b2f 6D736700 		.ascii	"msg\000"
 2901 0b33 01       		.byte	0x1
 2902 0b34 98       		.byte	0x98
 2903 0b35 F7000000 		.4byte	0xf7
 2904 0b39 00       		.byte	0x0
 2905 0b3a 2A       		.uleb128 0x2a
 2906 0b3b 63687000 		.ascii	"chp\000"
 2907 0b3f 01       		.byte	0x1
 2908 0b40 99       		.byte	0x99
 2909 0b41 72070000 		.4byte	0x772
 2910 0b45 B7040000 		.4byte	.LLST38
 2911 0b49 2A       		.uleb128 0x2a
 2912 0b4a 73637000 		.ascii	"scp\000"
 2913 0b4e 01       		.byte	0x1
 2914 0b4f 9A       		.byte	0x9a
 2915 0b50 D3070000 		.4byte	0x7d3
 2916 0b54 E1040000 		.4byte	.LLST39
 2917 0b58 2A       		.uleb128 0x2a
 2918 0b59 6C7000   		.ascii	"lp\000"
 2919 0b5c 01       		.byte	0x1
 2920 0b5d 9B       		.byte	0x9b
 2921 0b5e 71000000 		.4byte	0x71
 2922 0b62 00050000 		.4byte	.LLST40
 2923 0b66 2A       		.uleb128 0x2a
 2924 0b67 636D6400 		.ascii	"cmd\000"
 2925 0b6b 01       		.byte	0x1
 2926 0b6c 9B       		.byte	0x9b
 2927 0b6d 71000000 		.4byte	0x71
 2928 0b71 29050000 		.4byte	.LLST41
 2929 0b75 2C       		.uleb128 0x2c
 2930 0b76 DC000000 		.4byte	.LASF113
 2931 0b7a 01       		.byte	0x1
 2932 0b7b 9B       		.byte	0x9b
 2933 0b7c 71000000 		.4byte	0x71
 2934 0b80 02       		.byte	0x2
 2935 0b81 91       		.byte	0x91
 2936 0b82 64       		.sleb128 -28
 2937 0b83 2C       		.uleb128 0x2c
 2938 0b84 0A010000 		.4byte	.LASF110
 2939 0b88 01       		.byte	0x1
ARM GAS  /tmp/ccFcDX3k.s 			page 54


 2940 0b89 9B       		.byte	0x9b
 2941 0b8a A10B0000 		.4byte	0xba1
 2942 0b8e 03       		.byte	0x3
 2943 0b8f 91       		.byte	0x91
 2944 0b90 907F     		.sleb128 -112
 2945 0b92 2C       		.uleb128 0x2c
 2946 0b93 B7040000 		.4byte	.LASF114
 2947 0b97 01       		.byte	0x1
 2948 0b98 9C       		.byte	0x9c
 2949 0b99 B10B0000 		.4byte	0xbb1
 2950 0b9d 02       		.byte	0x2
 2951 0b9e 91       		.byte	0x91
 2952 0b9f 50       		.sleb128 -48
 2953 0ba0 00       		.byte	0x0
 2954 0ba1 2D       		.uleb128 0x2d
 2955 0ba2 77000000 		.4byte	0x77
 2956 0ba6 B10B0000 		.4byte	0xbb1
 2957 0baa 2E       		.uleb128 0x2e
 2958 0bab 4C000000 		.4byte	0x4c
 2959 0baf 3F       		.byte	0x3f
 2960 0bb0 00       		.byte	0x0
 2961 0bb1 2D       		.uleb128 0x2d
 2962 0bb2 71000000 		.4byte	0x71
 2963 0bb6 C10B0000 		.4byte	0xbc1
 2964 0bba 2E       		.uleb128 0x2e
 2965 0bbb 4C000000 		.4byte	0x4c
 2966 0bbf 04       		.byte	0x4
 2967 0bc0 00       		.byte	0x0
 2968 0bc1 2F       		.uleb128 0x2f
 2969 0bc2 10000000 		.4byte	.LASF115
 2970 0bc6 08       		.byte	0x8
 2971 0bc7 7A       		.byte	0x7a
 2972 0bc8 38040000 		.4byte	0x438
 2973 0bcc 01       		.byte	0x1
 2974 0bcd 01       		.byte	0x1
 2975 0bce 2F       		.uleb128 0x2f
 2976 0bcf 48040000 		.4byte	.LASF116
 2977 0bd3 09       		.byte	0x9
 2978 0bd4 72       		.byte	0x72
 2979 0bd5 AE040000 		.4byte	0x4ae
 2980 0bd9 01       		.byte	0x1
 2981 0bda 01       		.byte	0x1
 2982 0bdb 30       		.uleb128 0x30
 2983 0bdc 50000000 		.4byte	.LASF117
 2984 0be0 0E       		.byte	0xe
 2985 0be1 9404     		.2byte	0x494
 2986 0be3 46070000 		.4byte	0x746
 2987 0be7 01       		.byte	0x1
 2988 0be8 01       		.byte	0x1
 2989 0be9 2F       		.uleb128 0x2f
 2990 0bea A1030000 		.4byte	.LASF118
 2991 0bee 0D       		.byte	0xd
 2992 0bef 4D       		.byte	0x4d
 2993 0bf0 64050000 		.4byte	0x564
 2994 0bf4 01       		.byte	0x1
 2995 0bf5 01       		.byte	0x1
 2996 0bf6 2D       		.uleb128 0x2d
ARM GAS  /tmp/ccFcDX3k.s 			page 55


 2997 0bf7 A3070000 		.4byte	0x7a3
 2998 0bfb 060C0000 		.4byte	0xc06
 2999 0bff 2E       		.uleb128 0x2e
 3000 0c00 4C000000 		.4byte	0x4c
 3001 0c04 02       		.byte	0x2
 3002 0c05 00       		.byte	0x0
 3003 0c06 2C       		.uleb128 0x2c
 3004 0c07 7D020000 		.4byte	.LASF119
 3005 0c0b 01       		.byte	0x1
 3006 0c0c 7B       		.byte	0x7b
 3007 0c0d F60B0000 		.4byte	0xbf6
 3008 0c11 05       		.byte	0x5
 3009 0c12 03       		.byte	0x3
 3010 0c13 00000000 		.4byte	local_commands
 3011 0c17 2F       		.uleb128 0x2f
 3012 0c18 10000000 		.4byte	.LASF115
 3013 0c1c 08       		.byte	0x8
 3014 0c1d 7A       		.byte	0x7a
 3015 0c1e 38040000 		.4byte	0x438
 3016 0c22 01       		.byte	0x1
 3017 0c23 01       		.byte	0x1
 3018 0c24 2F       		.uleb128 0x2f
 3019 0c25 48040000 		.4byte	.LASF116
 3020 0c29 09       		.byte	0x9
 3021 0c2a 72       		.byte	0x72
 3022 0c2b AE040000 		.4byte	0x4ae
 3023 0c2f 01       		.byte	0x1
 3024 0c30 01       		.byte	0x1
 3025 0c31 30       		.uleb128 0x30
 3026 0c32 50000000 		.4byte	.LASF117
 3027 0c36 0E       		.byte	0xe
 3028 0c37 9404     		.2byte	0x494
 3029 0c39 46070000 		.4byte	0x746
 3030 0c3d 01       		.byte	0x1
 3031 0c3e 01       		.byte	0x1
 3032 0c3f 31       		.uleb128 0x31
 3033 0c40 A1030000 		.4byte	.LASF118
 3034 0c44 01       		.byte	0x1
 3035 0c45 2E       		.byte	0x2e
 3036 0c46 64050000 		.4byte	0x564
 3037 0c4a 01       		.byte	0x1
 3038 0c4b 05       		.byte	0x5
 3039 0c4c 03       		.byte	0x3
 3040 0c4d 00000000 		.4byte	shell_terminated
 3041 0c51 00       		.byte	0x0
 3042              		.section	.debug_abbrev
 3043 0000 01       		.uleb128 0x1
 3044 0001 11       		.uleb128 0x11
 3045 0002 01       		.byte	0x1
 3046 0003 25       		.uleb128 0x25
 3047 0004 0E       		.uleb128 0xe
 3048 0005 13       		.uleb128 0x13
 3049 0006 0B       		.uleb128 0xb
 3050 0007 03       		.uleb128 0x3
 3051 0008 0E       		.uleb128 0xe
 3052 0009 1B       		.uleb128 0x1b
 3053 000a 0E       		.uleb128 0xe
ARM GAS  /tmp/ccFcDX3k.s 			page 56


 3054 000b 11       		.uleb128 0x11
 3055 000c 01       		.uleb128 0x1
 3056 000d 52       		.uleb128 0x52
 3057 000e 01       		.uleb128 0x1
 3058 000f 55       		.uleb128 0x55
 3059 0010 06       		.uleb128 0x6
 3060 0011 10       		.uleb128 0x10
 3061 0012 06       		.uleb128 0x6
 3062 0013 00       		.byte	0x0
 3063 0014 00       		.byte	0x0
 3064 0015 02       		.uleb128 0x2
 3065 0016 24       		.uleb128 0x24
 3066 0017 00       		.byte	0x0
 3067 0018 0B       		.uleb128 0xb
 3068 0019 0B       		.uleb128 0xb
 3069 001a 3E       		.uleb128 0x3e
 3070 001b 0B       		.uleb128 0xb
 3071 001c 03       		.uleb128 0x3
 3072 001d 0E       		.uleb128 0xe
 3073 001e 00       		.byte	0x0
 3074 001f 00       		.byte	0x0
 3075 0020 03       		.uleb128 0x3
 3076 0021 24       		.uleb128 0x24
 3077 0022 00       		.byte	0x0
 3078 0023 0B       		.uleb128 0xb
 3079 0024 0B       		.uleb128 0xb
 3080 0025 3E       		.uleb128 0x3e
 3081 0026 0B       		.uleb128 0xb
 3082 0027 03       		.uleb128 0x3
 3083 0028 08       		.uleb128 0x8
 3084 0029 00       		.byte	0x0
 3085 002a 00       		.byte	0x0
 3086 002b 04       		.uleb128 0x4
 3087 002c 0F       		.uleb128 0xf
 3088 002d 00       		.byte	0x0
 3089 002e 0B       		.uleb128 0xb
 3090 002f 0B       		.uleb128 0xb
 3091 0030 00       		.byte	0x0
 3092 0031 00       		.byte	0x0
 3093 0032 05       		.uleb128 0x5
 3094 0033 0F       		.uleb128 0xf
 3095 0034 00       		.byte	0x0
 3096 0035 0B       		.uleb128 0xb
 3097 0036 0B       		.uleb128 0xb
 3098 0037 49       		.uleb128 0x49
 3099 0038 13       		.uleb128 0x13
 3100 0039 00       		.byte	0x0
 3101 003a 00       		.byte	0x0
 3102 003b 06       		.uleb128 0x6
 3103 003c 26       		.uleb128 0x26
 3104 003d 00       		.byte	0x0
 3105 003e 49       		.uleb128 0x49
 3106 003f 13       		.uleb128 0x13
 3107 0040 00       		.byte	0x0
 3108 0041 00       		.byte	0x0
 3109 0042 07       		.uleb128 0x7
 3110 0043 16       		.uleb128 0x16
ARM GAS  /tmp/ccFcDX3k.s 			page 57


 3111 0044 00       		.byte	0x0
 3112 0045 03       		.uleb128 0x3
 3113 0046 0E       		.uleb128 0xe
 3114 0047 3A       		.uleb128 0x3a
 3115 0048 0B       		.uleb128 0xb
 3116 0049 3B       		.uleb128 0x3b
 3117 004a 0B       		.uleb128 0xb
 3118 004b 49       		.uleb128 0x49
 3119 004c 13       		.uleb128 0x13
 3120 004d 00       		.byte	0x0
 3121 004e 00       		.byte	0x0
 3122 004f 08       		.uleb128 0x8
 3123 0050 13       		.uleb128 0x13
 3124 0051 01       		.byte	0x1
 3125 0052 03       		.uleb128 0x3
 3126 0053 0E       		.uleb128 0xe
 3127 0054 0B       		.uleb128 0xb
 3128 0055 0B       		.uleb128 0xb
 3129 0056 3A       		.uleb128 0x3a
 3130 0057 0B       		.uleb128 0xb
 3131 0058 3B       		.uleb128 0x3b
 3132 0059 0B       		.uleb128 0xb
 3133 005a 01       		.uleb128 0x1
 3134 005b 13       		.uleb128 0x13
 3135 005c 00       		.byte	0x0
 3136 005d 00       		.byte	0x0
 3137 005e 09       		.uleb128 0x9
 3138 005f 0D       		.uleb128 0xd
 3139 0060 00       		.byte	0x0
 3140 0061 03       		.uleb128 0x3
 3141 0062 0E       		.uleb128 0xe
 3142 0063 3A       		.uleb128 0x3a
 3143 0064 0B       		.uleb128 0xb
 3144 0065 3B       		.uleb128 0x3b
 3145 0066 0B       		.uleb128 0xb
 3146 0067 49       		.uleb128 0x49
 3147 0068 13       		.uleb128 0x13
 3148 0069 38       		.uleb128 0x38
 3149 006a 0A       		.uleb128 0xa
 3150 006b 00       		.byte	0x0
 3151 006c 00       		.byte	0x0
 3152 006d 0A       		.uleb128 0xa
 3153 006e 0D       		.uleb128 0xd
 3154 006f 00       		.byte	0x0
 3155 0070 03       		.uleb128 0x3
 3156 0071 08       		.uleb128 0x8
 3157 0072 3A       		.uleb128 0x3a
 3158 0073 0B       		.uleb128 0xb
 3159 0074 3B       		.uleb128 0x3b
 3160 0075 0B       		.uleb128 0xb
 3161 0076 49       		.uleb128 0x49
 3162 0077 13       		.uleb128 0x13
 3163 0078 38       		.uleb128 0x38
 3164 0079 0A       		.uleb128 0xa
 3165 007a 00       		.byte	0x0
 3166 007b 00       		.byte	0x0
 3167 007c 0B       		.uleb128 0xb
ARM GAS  /tmp/ccFcDX3k.s 			page 58


 3168 007d 13       		.uleb128 0x13
 3169 007e 01       		.byte	0x1
 3170 007f 0B       		.uleb128 0xb
 3171 0080 0B       		.uleb128 0xb
 3172 0081 3A       		.uleb128 0x3a
 3173 0082 0B       		.uleb128 0xb
 3174 0083 3B       		.uleb128 0x3b
 3175 0084 0B       		.uleb128 0xb
 3176 0085 01       		.uleb128 0x1
 3177 0086 13       		.uleb128 0x13
 3178 0087 00       		.byte	0x0
 3179 0088 00       		.byte	0x0
 3180 0089 0C       		.uleb128 0xc
 3181 008a 0D       		.uleb128 0xd
 3182 008b 00       		.byte	0x0
 3183 008c 03       		.uleb128 0x3
 3184 008d 08       		.uleb128 0x8
 3185 008e 3A       		.uleb128 0x3a
 3186 008f 0B       		.uleb128 0xb
 3187 0090 3B       		.uleb128 0x3b
 3188 0091 05       		.uleb128 0x5
 3189 0092 49       		.uleb128 0x49
 3190 0093 13       		.uleb128 0x13
 3191 0094 38       		.uleb128 0x38
 3192 0095 0A       		.uleb128 0xa
 3193 0096 00       		.byte	0x0
 3194 0097 00       		.byte	0x0
 3195 0098 0D       		.uleb128 0xd
 3196 0099 13       		.uleb128 0x13
 3197 009a 01       		.byte	0x1
 3198 009b 03       		.uleb128 0x3
 3199 009c 0E       		.uleb128 0xe
 3200 009d 0B       		.uleb128 0xb
 3201 009e 0B       		.uleb128 0xb
 3202 009f 3A       		.uleb128 0x3a
 3203 00a0 0B       		.uleb128 0xb
 3204 00a1 3B       		.uleb128 0x3b
 3205 00a2 05       		.uleb128 0x5
 3206 00a3 01       		.uleb128 0x1
 3207 00a4 13       		.uleb128 0x13
 3208 00a5 00       		.byte	0x0
 3209 00a6 00       		.byte	0x0
 3210 00a7 0E       		.uleb128 0xe
 3211 00a8 15       		.uleb128 0x15
 3212 00a9 01       		.byte	0x1
 3213 00aa 27       		.uleb128 0x27
 3214 00ab 0C       		.uleb128 0xc
 3215 00ac 01       		.uleb128 0x1
 3216 00ad 13       		.uleb128 0x13
 3217 00ae 00       		.byte	0x0
 3218 00af 00       		.byte	0x0
 3219 00b0 0F       		.uleb128 0xf
 3220 00b1 05       		.uleb128 0x5
 3221 00b2 00       		.byte	0x0
 3222 00b3 49       		.uleb128 0x49
 3223 00b4 13       		.uleb128 0x13
 3224 00b5 00       		.byte	0x0
ARM GAS  /tmp/ccFcDX3k.s 			page 59


 3225 00b6 00       		.byte	0x0
 3226 00b7 10       		.uleb128 0x10
 3227 00b8 35       		.uleb128 0x35
 3228 00b9 00       		.byte	0x0
 3229 00ba 49       		.uleb128 0x49
 3230 00bb 13       		.uleb128 0x13
 3231 00bc 00       		.byte	0x0
 3232 00bd 00       		.byte	0x0
 3233 00be 11       		.uleb128 0x11
 3234 00bf 17       		.uleb128 0x17
 3235 00c0 01       		.byte	0x1
 3236 00c1 0B       		.uleb128 0xb
 3237 00c2 0B       		.uleb128 0xb
 3238 00c3 3A       		.uleb128 0x3a
 3239 00c4 0B       		.uleb128 0xb
 3240 00c5 3B       		.uleb128 0x3b
 3241 00c6 0B       		.uleb128 0xb
 3242 00c7 01       		.uleb128 0x1
 3243 00c8 13       		.uleb128 0x13
 3244 00c9 00       		.byte	0x0
 3245 00ca 00       		.byte	0x0
 3246 00cb 12       		.uleb128 0x12
 3247 00cc 0D       		.uleb128 0xd
 3248 00cd 00       		.byte	0x0
 3249 00ce 03       		.uleb128 0x3
 3250 00cf 0E       		.uleb128 0xe
 3251 00d0 3A       		.uleb128 0x3a
 3252 00d1 0B       		.uleb128 0xb
 3253 00d2 3B       		.uleb128 0x3b
 3254 00d3 0B       		.uleb128 0xb
 3255 00d4 49       		.uleb128 0x49
 3256 00d5 13       		.uleb128 0x13
 3257 00d6 00       		.byte	0x0
 3258 00d7 00       		.byte	0x0
 3259 00d8 13       		.uleb128 0x13
 3260 00d9 15       		.uleb128 0x15
 3261 00da 01       		.byte	0x1
 3262 00db 27       		.uleb128 0x27
 3263 00dc 0C       		.uleb128 0xc
 3264 00dd 49       		.uleb128 0x49
 3265 00de 13       		.uleb128 0x13
 3266 00df 01       		.uleb128 0x1
 3267 00e0 13       		.uleb128 0x13
 3268 00e1 00       		.byte	0x0
 3269 00e2 00       		.byte	0x0
 3270 00e3 14       		.uleb128 0x14
 3271 00e4 2E       		.uleb128 0x2e
 3272 00e5 01       		.byte	0x1
 3273 00e6 03       		.uleb128 0x3
 3274 00e7 0E       		.uleb128 0xe
 3275 00e8 3A       		.uleb128 0x3a
 3276 00e9 0B       		.uleb128 0xb
 3277 00ea 3B       		.uleb128 0x3b
 3278 00eb 0B       		.uleb128 0xb
 3279 00ec 27       		.uleb128 0x27
 3280 00ed 0C       		.uleb128 0xc
 3281 00ee 49       		.uleb128 0x49
ARM GAS  /tmp/ccFcDX3k.s 			page 60


 3282 00ef 13       		.uleb128 0x13
 3283 00f0 20       		.uleb128 0x20
 3284 00f1 0B       		.uleb128 0xb
 3285 00f2 01       		.uleb128 0x1
 3286 00f3 13       		.uleb128 0x13
 3287 00f4 00       		.byte	0x0
 3288 00f5 00       		.byte	0x0
 3289 00f6 15       		.uleb128 0x15
 3290 00f7 05       		.uleb128 0x5
 3291 00f8 00       		.byte	0x0
 3292 00f9 03       		.uleb128 0x3
 3293 00fa 08       		.uleb128 0x8
 3294 00fb 3A       		.uleb128 0x3a
 3295 00fc 0B       		.uleb128 0xb
 3296 00fd 3B       		.uleb128 0x3b
 3297 00fe 0B       		.uleb128 0xb
 3298 00ff 49       		.uleb128 0x49
 3299 0100 13       		.uleb128 0x13
 3300 0101 00       		.byte	0x0
 3301 0102 00       		.byte	0x0
 3302 0103 16       		.uleb128 0x16
 3303 0104 05       		.uleb128 0x5
 3304 0105 00       		.byte	0x0
 3305 0106 03       		.uleb128 0x3
 3306 0107 0E       		.uleb128 0xe
 3307 0108 3A       		.uleb128 0x3a
 3308 0109 0B       		.uleb128 0xb
 3309 010a 3B       		.uleb128 0x3b
 3310 010b 0B       		.uleb128 0xb
 3311 010c 49       		.uleb128 0x49
 3312 010d 13       		.uleb128 0x13
 3313 010e 00       		.byte	0x0
 3314 010f 00       		.byte	0x0
 3315 0110 17       		.uleb128 0x17
 3316 0111 34       		.uleb128 0x34
 3317 0112 00       		.byte	0x0
 3318 0113 03       		.uleb128 0x3
 3319 0114 0E       		.uleb128 0xe
 3320 0115 3A       		.uleb128 0x3a
 3321 0116 0B       		.uleb128 0xb
 3322 0117 3B       		.uleb128 0x3b
 3323 0118 0B       		.uleb128 0xb
 3324 0119 49       		.uleb128 0x49
 3325 011a 13       		.uleb128 0x13
 3326 011b 00       		.byte	0x0
 3327 011c 00       		.byte	0x0
 3328 011d 18       		.uleb128 0x18
 3329 011e 2E       		.uleb128 0x2e
 3330 011f 01       		.byte	0x1
 3331 0120 03       		.uleb128 0x3
 3332 0121 0E       		.uleb128 0xe
 3333 0122 3A       		.uleb128 0x3a
 3334 0123 0B       		.uleb128 0xb
 3335 0124 3B       		.uleb128 0x3b
 3336 0125 0B       		.uleb128 0xb
 3337 0126 27       		.uleb128 0x27
 3338 0127 0C       		.uleb128 0xc
ARM GAS  /tmp/ccFcDX3k.s 			page 61


 3339 0128 11       		.uleb128 0x11
 3340 0129 01       		.uleb128 0x1
 3341 012a 12       		.uleb128 0x12
 3342 012b 01       		.uleb128 0x1
 3343 012c 40       		.uleb128 0x40
 3344 012d 0A       		.uleb128 0xa
 3345 012e 01       		.uleb128 0x1
 3346 012f 13       		.uleb128 0x13
 3347 0130 00       		.byte	0x0
 3348 0131 00       		.byte	0x0
 3349 0132 19       		.uleb128 0x19
 3350 0133 05       		.uleb128 0x5
 3351 0134 00       		.byte	0x0
 3352 0135 03       		.uleb128 0x3
 3353 0136 08       		.uleb128 0x8
 3354 0137 3A       		.uleb128 0x3a
 3355 0138 0B       		.uleb128 0xb
 3356 0139 3B       		.uleb128 0x3b
 3357 013a 0B       		.uleb128 0xb
 3358 013b 49       		.uleb128 0x49
 3359 013c 13       		.uleb128 0x13
 3360 013d 02       		.uleb128 0x2
 3361 013e 06       		.uleb128 0x6
 3362 013f 00       		.byte	0x0
 3363 0140 00       		.byte	0x0
 3364 0141 1A       		.uleb128 0x1a
 3365 0142 05       		.uleb128 0x5
 3366 0143 00       		.byte	0x0
 3367 0144 03       		.uleb128 0x3
 3368 0145 0E       		.uleb128 0xe
 3369 0146 3A       		.uleb128 0x3a
 3370 0147 0B       		.uleb128 0xb
 3371 0148 3B       		.uleb128 0x3b
 3372 0149 0B       		.uleb128 0xb
 3373 014a 49       		.uleb128 0x49
 3374 014b 13       		.uleb128 0x13
 3375 014c 02       		.uleb128 0x2
 3376 014d 06       		.uleb128 0x6
 3377 014e 00       		.byte	0x0
 3378 014f 00       		.byte	0x0
 3379 0150 1B       		.uleb128 0x1b
 3380 0151 2E       		.uleb128 0x2e
 3381 0152 01       		.byte	0x1
 3382 0153 03       		.uleb128 0x3
 3383 0154 0E       		.uleb128 0xe
 3384 0155 3A       		.uleb128 0x3a
 3385 0156 0B       		.uleb128 0xb
 3386 0157 3B       		.uleb128 0x3b
 3387 0158 0B       		.uleb128 0xb
 3388 0159 27       		.uleb128 0x27
 3389 015a 0C       		.uleb128 0xc
 3390 015b 11       		.uleb128 0x11
 3391 015c 01       		.uleb128 0x1
 3392 015d 12       		.uleb128 0x12
 3393 015e 01       		.uleb128 0x1
 3394 015f 40       		.uleb128 0x40
 3395 0160 06       		.uleb128 0x6
ARM GAS  /tmp/ccFcDX3k.s 			page 62


 3396 0161 01       		.uleb128 0x1
 3397 0162 13       		.uleb128 0x13
 3398 0163 00       		.byte	0x0
 3399 0164 00       		.byte	0x0
 3400 0165 1C       		.uleb128 0x1c
 3401 0166 2E       		.uleb128 0x2e
 3402 0167 01       		.byte	0x1
 3403 0168 03       		.uleb128 0x3
 3404 0169 0E       		.uleb128 0xe
 3405 016a 3A       		.uleb128 0x3a
 3406 016b 0B       		.uleb128 0xb
 3407 016c 3B       		.uleb128 0x3b
 3408 016d 0B       		.uleb128 0xb
 3409 016e 27       		.uleb128 0x27
 3410 016f 0C       		.uleb128 0xc
 3411 0170 49       		.uleb128 0x49
 3412 0171 13       		.uleb128 0x13
 3413 0172 11       		.uleb128 0x11
 3414 0173 01       		.uleb128 0x1
 3415 0174 12       		.uleb128 0x12
 3416 0175 01       		.uleb128 0x1
 3417 0176 40       		.uleb128 0x40
 3418 0177 06       		.uleb128 0x6
 3419 0178 01       		.uleb128 0x1
 3420 0179 13       		.uleb128 0x13
 3421 017a 00       		.byte	0x0
 3422 017b 00       		.byte	0x0
 3423 017c 1D       		.uleb128 0x1d
 3424 017d 05       		.uleb128 0x5
 3425 017e 00       		.byte	0x0
 3426 017f 03       		.uleb128 0x3
 3427 0180 0E       		.uleb128 0xe
 3428 0181 3A       		.uleb128 0x3a
 3429 0182 0B       		.uleb128 0xb
 3430 0183 3B       		.uleb128 0x3b
 3431 0184 0B       		.uleb128 0xb
 3432 0185 49       		.uleb128 0x49
 3433 0186 13       		.uleb128 0x13
 3434 0187 02       		.uleb128 0x2
 3435 0188 0A       		.uleb128 0xa
 3436 0189 00       		.byte	0x0
 3437 018a 00       		.byte	0x0
 3438 018b 1E       		.uleb128 0x1e
 3439 018c 2E       		.uleb128 0x2e
 3440 018d 01       		.byte	0x1
 3441 018e 31       		.uleb128 0x31
 3442 018f 13       		.uleb128 0x13
 3443 0190 11       		.uleb128 0x11
 3444 0191 01       		.uleb128 0x1
 3445 0192 12       		.uleb128 0x12
 3446 0193 01       		.uleb128 0x1
 3447 0194 40       		.uleb128 0x40
 3448 0195 06       		.uleb128 0x6
 3449 0196 01       		.uleb128 0x1
 3450 0197 13       		.uleb128 0x13
 3451 0198 00       		.byte	0x0
 3452 0199 00       		.byte	0x0
ARM GAS  /tmp/ccFcDX3k.s 			page 63


 3453 019a 1F       		.uleb128 0x1f
 3454 019b 05       		.uleb128 0x5
 3455 019c 00       		.byte	0x0
 3456 019d 31       		.uleb128 0x31
 3457 019e 13       		.uleb128 0x13
 3458 019f 02       		.uleb128 0x2
 3459 01a0 06       		.uleb128 0x6
 3460 01a1 00       		.byte	0x0
 3461 01a2 00       		.byte	0x0
 3462 01a3 20       		.uleb128 0x20
 3463 01a4 34       		.uleb128 0x34
 3464 01a5 00       		.byte	0x0
 3465 01a6 31       		.uleb128 0x31
 3466 01a7 13       		.uleb128 0x13
 3467 01a8 02       		.uleb128 0x2
 3468 01a9 06       		.uleb128 0x6
 3469 01aa 00       		.byte	0x0
 3470 01ab 00       		.byte	0x0
 3471 01ac 21       		.uleb128 0x21
 3472 01ad 05       		.uleb128 0x5
 3473 01ae 00       		.byte	0x0
 3474 01af 31       		.uleb128 0x31
 3475 01b0 13       		.uleb128 0x13
 3476 01b1 02       		.uleb128 0x2
 3477 01b2 0A       		.uleb128 0xa
 3478 01b3 00       		.byte	0x0
 3479 01b4 00       		.byte	0x0
 3480 01b5 22       		.uleb128 0x22
 3481 01b6 2E       		.uleb128 0x2e
 3482 01b7 00       		.byte	0x0
 3483 01b8 3F       		.uleb128 0x3f
 3484 01b9 0C       		.uleb128 0xc
 3485 01ba 03       		.uleb128 0x3
 3486 01bb 0E       		.uleb128 0xe
 3487 01bc 3A       		.uleb128 0x3a
 3488 01bd 0B       		.uleb128 0xb
 3489 01be 3B       		.uleb128 0x3b
 3490 01bf 0B       		.uleb128 0xb
 3491 01c0 27       		.uleb128 0x27
 3492 01c1 0C       		.uleb128 0xc
 3493 01c2 11       		.uleb128 0x11
 3494 01c3 01       		.uleb128 0x1
 3495 01c4 12       		.uleb128 0x12
 3496 01c5 01       		.uleb128 0x1
 3497 01c6 40       		.uleb128 0x40
 3498 01c7 0A       		.uleb128 0xa
 3499 01c8 00       		.byte	0x0
 3500 01c9 00       		.byte	0x0
 3501 01ca 23       		.uleb128 0x23
 3502 01cb 2E       		.uleb128 0x2e
 3503 01cc 01       		.byte	0x1
 3504 01cd 3F       		.uleb128 0x3f
 3505 01ce 0C       		.uleb128 0xc
 3506 01cf 03       		.uleb128 0x3
 3507 01d0 0E       		.uleb128 0xe
 3508 01d1 3A       		.uleb128 0x3a
 3509 01d2 0B       		.uleb128 0xb
ARM GAS  /tmp/ccFcDX3k.s 			page 64


 3510 01d3 3B       		.uleb128 0x3b
 3511 01d4 0B       		.uleb128 0xb
 3512 01d5 27       		.uleb128 0x27
 3513 01d6 0C       		.uleb128 0xc
 3514 01d7 49       		.uleb128 0x49
 3515 01d8 13       		.uleb128 0x13
 3516 01d9 11       		.uleb128 0x11
 3517 01da 01       		.uleb128 0x1
 3518 01db 12       		.uleb128 0x12
 3519 01dc 01       		.uleb128 0x1
 3520 01dd 40       		.uleb128 0x40
 3521 01de 06       		.uleb128 0x6
 3522 01df 01       		.uleb128 0x1
 3523 01e0 13       		.uleb128 0x13
 3524 01e1 00       		.byte	0x0
 3525 01e2 00       		.byte	0x0
 3526 01e3 24       		.uleb128 0x24
 3527 01e4 2E       		.uleb128 0x2e
 3528 01e5 01       		.byte	0x1
 3529 01e6 3F       		.uleb128 0x3f
 3530 01e7 0C       		.uleb128 0xc
 3531 01e8 03       		.uleb128 0x3
 3532 01e9 0E       		.uleb128 0xe
 3533 01ea 3A       		.uleb128 0x3a
 3534 01eb 0B       		.uleb128 0xb
 3535 01ec 3B       		.uleb128 0x3b
 3536 01ed 05       		.uleb128 0x5
 3537 01ee 27       		.uleb128 0x27
 3538 01ef 0C       		.uleb128 0xc
 3539 01f0 49       		.uleb128 0x49
 3540 01f1 13       		.uleb128 0x13
 3541 01f2 11       		.uleb128 0x11
 3542 01f3 01       		.uleb128 0x1
 3543 01f4 12       		.uleb128 0x12
 3544 01f5 01       		.uleb128 0x1
 3545 01f6 40       		.uleb128 0x40
 3546 01f7 06       		.uleb128 0x6
 3547 01f8 01       		.uleb128 0x1
 3548 01f9 13       		.uleb128 0x13
 3549 01fa 00       		.byte	0x0
 3550 01fb 00       		.byte	0x0
 3551 01fc 25       		.uleb128 0x25
 3552 01fd 05       		.uleb128 0x5
 3553 01fe 00       		.byte	0x0
 3554 01ff 03       		.uleb128 0x3
 3555 0200 08       		.uleb128 0x8
 3556 0201 3A       		.uleb128 0x3a
 3557 0202 0B       		.uleb128 0xb
 3558 0203 3B       		.uleb128 0x3b
 3559 0204 05       		.uleb128 0x5
 3560 0205 49       		.uleb128 0x49
 3561 0206 13       		.uleb128 0x13
 3562 0207 02       		.uleb128 0x2
 3563 0208 06       		.uleb128 0x6
 3564 0209 00       		.byte	0x0
 3565 020a 00       		.byte	0x0
 3566 020b 26       		.uleb128 0x26
ARM GAS  /tmp/ccFcDX3k.s 			page 65


 3567 020c 05       		.uleb128 0x5
 3568 020d 00       		.byte	0x0
 3569 020e 03       		.uleb128 0x3
 3570 020f 0E       		.uleb128 0xe
 3571 0210 3A       		.uleb128 0x3a
 3572 0211 0B       		.uleb128 0xb
 3573 0212 3B       		.uleb128 0x3b
 3574 0213 05       		.uleb128 0x5
 3575 0214 49       		.uleb128 0x49
 3576 0215 13       		.uleb128 0x13
 3577 0216 02       		.uleb128 0x2
 3578 0217 06       		.uleb128 0x6
 3579 0218 00       		.byte	0x0
 3580 0219 00       		.byte	0x0
 3581 021a 27       		.uleb128 0x27
 3582 021b 34       		.uleb128 0x34
 3583 021c 00       		.byte	0x0
 3584 021d 03       		.uleb128 0x3
 3585 021e 08       		.uleb128 0x8
 3586 021f 3A       		.uleb128 0x3a
 3587 0220 0B       		.uleb128 0xb
 3588 0221 3B       		.uleb128 0x3b
 3589 0222 05       		.uleb128 0x5
 3590 0223 49       		.uleb128 0x49
 3591 0224 13       		.uleb128 0x13
 3592 0225 02       		.uleb128 0x2
 3593 0226 06       		.uleb128 0x6
 3594 0227 00       		.byte	0x0
 3595 0228 00       		.byte	0x0
 3596 0229 28       		.uleb128 0x28
 3597 022a 0B       		.uleb128 0xb
 3598 022b 01       		.byte	0x1
 3599 022c 11       		.uleb128 0x11
 3600 022d 01       		.uleb128 0x1
 3601 022e 12       		.uleb128 0x12
 3602 022f 01       		.uleb128 0x1
 3603 0230 00       		.byte	0x0
 3604 0231 00       		.byte	0x0
 3605 0232 29       		.uleb128 0x29
 3606 0233 34       		.uleb128 0x34
 3607 0234 00       		.byte	0x0
 3608 0235 03       		.uleb128 0x3
 3609 0236 08       		.uleb128 0x8
 3610 0237 3A       		.uleb128 0x3a
 3611 0238 0B       		.uleb128 0xb
 3612 0239 3B       		.uleb128 0x3b
 3613 023a 05       		.uleb128 0x5
 3614 023b 49       		.uleb128 0x49
 3615 023c 13       		.uleb128 0x13
 3616 023d 02       		.uleb128 0x2
 3617 023e 0A       		.uleb128 0xa
 3618 023f 00       		.byte	0x0
 3619 0240 00       		.byte	0x0
 3620 0241 2A       		.uleb128 0x2a
 3621 0242 34       		.uleb128 0x34
 3622 0243 00       		.byte	0x0
 3623 0244 03       		.uleb128 0x3
ARM GAS  /tmp/ccFcDX3k.s 			page 66


 3624 0245 08       		.uleb128 0x8
 3625 0246 3A       		.uleb128 0x3a
 3626 0247 0B       		.uleb128 0xb
 3627 0248 3B       		.uleb128 0x3b
 3628 0249 0B       		.uleb128 0xb
 3629 024a 49       		.uleb128 0x49
 3630 024b 13       		.uleb128 0x13
 3631 024c 02       		.uleb128 0x2
 3632 024d 06       		.uleb128 0x6
 3633 024e 00       		.byte	0x0
 3634 024f 00       		.byte	0x0
 3635 0250 2B       		.uleb128 0x2b
 3636 0251 34       		.uleb128 0x34
 3637 0252 00       		.byte	0x0
 3638 0253 03       		.uleb128 0x3
 3639 0254 08       		.uleb128 0x8
 3640 0255 3A       		.uleb128 0x3a
 3641 0256 0B       		.uleb128 0xb
 3642 0257 3B       		.uleb128 0x3b
 3643 0258 0B       		.uleb128 0xb
 3644 0259 49       		.uleb128 0x49
 3645 025a 13       		.uleb128 0x13
 3646 025b 1C       		.uleb128 0x1c
 3647 025c 0B       		.uleb128 0xb
 3648 025d 00       		.byte	0x0
 3649 025e 00       		.byte	0x0
 3650 025f 2C       		.uleb128 0x2c
 3651 0260 34       		.uleb128 0x34
 3652 0261 00       		.byte	0x0
 3653 0262 03       		.uleb128 0x3
 3654 0263 0E       		.uleb128 0xe
 3655 0264 3A       		.uleb128 0x3a
 3656 0265 0B       		.uleb128 0xb
 3657 0266 3B       		.uleb128 0x3b
 3658 0267 0B       		.uleb128 0xb
 3659 0268 49       		.uleb128 0x49
 3660 0269 13       		.uleb128 0x13
 3661 026a 02       		.uleb128 0x2
 3662 026b 0A       		.uleb128 0xa
 3663 026c 00       		.byte	0x0
 3664 026d 00       		.byte	0x0
 3665 026e 2D       		.uleb128 0x2d
 3666 026f 01       		.uleb128 0x1
 3667 0270 01       		.byte	0x1
 3668 0271 49       		.uleb128 0x49
 3669 0272 13       		.uleb128 0x13
 3670 0273 01       		.uleb128 0x1
 3671 0274 13       		.uleb128 0x13
 3672 0275 00       		.byte	0x0
 3673 0276 00       		.byte	0x0
 3674 0277 2E       		.uleb128 0x2e
 3675 0278 21       		.uleb128 0x21
 3676 0279 00       		.byte	0x0
 3677 027a 49       		.uleb128 0x49
 3678 027b 13       		.uleb128 0x13
 3679 027c 2F       		.uleb128 0x2f
 3680 027d 0B       		.uleb128 0xb
ARM GAS  /tmp/ccFcDX3k.s 			page 67


 3681 027e 00       		.byte	0x0
 3682 027f 00       		.byte	0x0
 3683 0280 2F       		.uleb128 0x2f
 3684 0281 34       		.uleb128 0x34
 3685 0282 00       		.byte	0x0
 3686 0283 03       		.uleb128 0x3
 3687 0284 0E       		.uleb128 0xe
 3688 0285 3A       		.uleb128 0x3a
 3689 0286 0B       		.uleb128 0xb
 3690 0287 3B       		.uleb128 0x3b
 3691 0288 0B       		.uleb128 0xb
 3692 0289 49       		.uleb128 0x49
 3693 028a 13       		.uleb128 0x13
 3694 028b 3F       		.uleb128 0x3f
 3695 028c 0C       		.uleb128 0xc
 3696 028d 3C       		.uleb128 0x3c
 3697 028e 0C       		.uleb128 0xc
 3698 028f 00       		.byte	0x0
 3699 0290 00       		.byte	0x0
 3700 0291 30       		.uleb128 0x30
 3701 0292 34       		.uleb128 0x34
 3702 0293 00       		.byte	0x0
 3703 0294 03       		.uleb128 0x3
 3704 0295 0E       		.uleb128 0xe
 3705 0296 3A       		.uleb128 0x3a
 3706 0297 0B       		.uleb128 0xb
 3707 0298 3B       		.uleb128 0x3b
 3708 0299 05       		.uleb128 0x5
 3709 029a 49       		.uleb128 0x49
 3710 029b 13       		.uleb128 0x13
 3711 029c 3F       		.uleb128 0x3f
 3712 029d 0C       		.uleb128 0xc
 3713 029e 3C       		.uleb128 0x3c
 3714 029f 0C       		.uleb128 0xc
 3715 02a0 00       		.byte	0x0
 3716 02a1 00       		.byte	0x0
 3717 02a2 31       		.uleb128 0x31
 3718 02a3 34       		.uleb128 0x34
 3719 02a4 00       		.byte	0x0
 3720 02a5 03       		.uleb128 0x3
 3721 02a6 0E       		.uleb128 0xe
 3722 02a7 3A       		.uleb128 0x3a
 3723 02a8 0B       		.uleb128 0xb
 3724 02a9 3B       		.uleb128 0x3b
 3725 02aa 0B       		.uleb128 0xb
 3726 02ab 49       		.uleb128 0x49
 3727 02ac 13       		.uleb128 0x13
 3728 02ad 3F       		.uleb128 0x3f
 3729 02ae 0C       		.uleb128 0xc
 3730 02af 02       		.uleb128 0x2
 3731 02b0 0A       		.uleb128 0xa
 3732 02b1 00       		.byte	0x0
 3733 02b2 00       		.byte	0x0
 3734 02b3 00       		.byte	0x0
 3735              		.section	.debug_pubnames,"",%progbits
 3736 0000 68000000 		.4byte	0x68
 3737 0004 0200     		.2byte	0x2
ARM GAS  /tmp/ccFcDX3k.s 			page 68


 3738 0006 00000000 		.4byte	.Ldebug_info0
 3739 000a 520C0000 		.4byte	0xc52
 3740 000e C1090000 		.4byte	0x9c1
 3741 0012 7368656C 		.ascii	"shellInit\000"
 3741      6C496E69 
 3741      7400
 3742 001c D5090000 		.4byte	0x9d5
 3743 0020 7368656C 		.ascii	"shellCreate\000"
 3743      6C437265 
 3743      61746500 
 3744 002c 2B0A0000 		.4byte	0xa2b
 3745 0030 7368656C 		.ascii	"shellCreateStatic\000"
 3745      6C437265 
 3745      61746553 
 3745      74617469 
 3745      6300
 3746 0042 850A0000 		.4byte	0xa85
 3747 0046 7368656C 		.ascii	"shellGetLine\000"
 3747      6C476574 
 3747      4C696E65 
 3747      00
 3748 0053 3F0C0000 		.4byte	0xc3f
 3749 0057 7368656C 		.ascii	"shell_terminated\000"
 3749      6C5F7465 
 3749      726D696E 
 3749      61746564 
 3749      00
 3750 0068 00000000 		.4byte	0x0
 3751              		.section	.debug_pubtypes,"",%progbits
 3752 0000 16020000 		.4byte	0x216
 3753 0004 0200     		.2byte	0x2
 3754 0006 00000000 		.4byte	.Ldebug_info0
 3755 000a 520C0000 		.4byte	0xc52
 3756 000e 89000000 		.4byte	0x89
 3757 0012 73697A65 		.ascii	"size_t\000"
 3757      5F7400
 3758 0019 94000000 		.4byte	0x94
 3759 001d 75696E74 		.ascii	"uint8_t\000"
 3759      385F7400 
 3760 0025 9F000000 		.4byte	0x9f
 3761 0029 696E7433 		.ascii	"int32_t\000"
 3761      325F7400 
 3762 0031 AA000000 		.4byte	0xaa
 3763 0035 75696E74 		.ascii	"uint32_t\000"
 3763      33325F74 
 3763      00
 3764 003e B5000000 		.4byte	0xb5
 3765 0042 75696E74 		.ascii	"uint64_t\000"
 3765      36345F74 
 3765      00
 3766 004b C0000000 		.4byte	0xc0
 3767 004f 626F6F6C 		.ascii	"bool_t\000"
 3767      5F7400
 3768 0056 CB000000 		.4byte	0xcb
 3769 005a 746D6F64 		.ascii	"tmode_t\000"
 3769      655F7400 
 3770 0062 D6000000 		.4byte	0xd6
ARM GAS  /tmp/ccFcDX3k.s 			page 69


 3771 0066 74737461 		.ascii	"tstate_t\000"
 3771      74655F74 
 3771      00
 3772 006f E1000000 		.4byte	0xe1
 3773 0073 74726566 		.ascii	"trefs_t\000"
 3773      735F7400 
 3774 007b EC000000 		.4byte	0xec
 3775 007f 74707269 		.ascii	"tprio_t\000"
 3775      6F5F7400 
 3776 0087 F7000000 		.4byte	0xf7
 3777 008b 6D73675F 		.ascii	"msg_t\000"
 3777      7400
 3778 0091 02010000 		.4byte	0x102
 3779 0095 6576656E 		.ascii	"eventmask_t\000"
 3779      746D6173 
 3779      6B5F7400 
 3780 00a1 0D010000 		.4byte	0x10d
 3781 00a5 73797374 		.ascii	"systime_t\000"
 3781      696D655F 
 3781      7400
 3782 00af 18010000 		.4byte	0x118
 3783 00b3 636E745F 		.ascii	"cnt_t\000"
 3783      7400
 3784 00b9 23010000 		.4byte	0x123
 3785 00bd 54687265 		.ascii	"Thread\000"
 3785      616400
 3786 00c4 7E020000 		.4byte	0x27e
 3787 00c8 54687265 		.ascii	"ThreadsQueue\000"
 3787      61647351 
 3787      75657565 
 3787      00
 3788 00d5 A0020000 		.4byte	0x2a0
 3789 00d9 54687265 		.ascii	"ThreadsList\000"
 3789      6164734C 
 3789      69737400 
 3790 00e5 AB020000 		.4byte	0x2ab
 3791 00e9 72656761 		.ascii	"regarm_t\000"
 3791      726D5F74 
 3791      00
 3792 00f2 B6020000 		.4byte	0x2b6
 3793 00f6 73746B61 		.ascii	"stkalign_t\000"
 3793      6C69676E 
 3793      5F7400
 3794 0101 C1020000 		.4byte	0x2c1
 3795 0105 696E7463 		.ascii	"intctx\000"
 3795      747800
 3796 010c 4E030000 		.4byte	0x34e
 3797 0110 636F6E74 		.ascii	"context\000"
 3797      65787400 
 3798 0118 71030000 		.4byte	0x371
 3799 011c 76746675 		.ascii	"vtfunc_t\000"
 3799      6E635F74 
 3799      00
 3800 0125 8E030000 		.4byte	0x38e
 3801 0129 56697274 		.ascii	"VirtualTimer\000"
 3801      75616C54 
 3801      696D6572 
ARM GAS  /tmp/ccFcDX3k.s 			page 70


 3801      00
 3802 0136 99030000 		.4byte	0x399
 3803 013a 56697274 		.ascii	"VirtualTimer\000"
 3803      75616C54 
 3803      696D6572 
 3803      00
 3804 0147 38040000 		.4byte	0x438
 3805 014b 56544C69 		.ascii	"VTList\000"
 3805      737400
 3806 0152 AE040000 		.4byte	0x4ae
 3807 0156 52656164 		.ascii	"ReadyList\000"
 3807      794C6973 
 3807      7400
 3808 0160 B9040000 		.4byte	0x4b9
 3809 0164 4D757465 		.ascii	"Mutex\000"
 3809      7800
 3810 016a F6040000 		.4byte	0x4f6
 3811 016e 4D757465 		.ascii	"Mutex\000"
 3811      7800
 3812 0174 01050000 		.4byte	0x501
 3813 0178 4576656E 		.ascii	"EventListener\000"
 3813      744C6973 
 3813      74656E65 
 3813      7200
 3814 0186 0C050000 		.4byte	0x50c
 3815 018a 4576656E 		.ascii	"EventListener\000"
 3815      744C6973 
 3815      74656E65 
 3815      7200
 3816 0198 49050000 		.4byte	0x549
 3817 019c 4576656E 		.ascii	"EventSource\000"
 3817      74536F75 
 3817      72636500 
 3818 01a8 64050000 		.4byte	0x564
 3819 01ac 4576656E 		.ascii	"EventSource\000"
 3819      74536F75 
 3819      72636500 
 3820 01b8 2E010000 		.4byte	0x12e
 3821 01bc 54687265 		.ascii	"Thread\000"
 3821      616400
 3822 01c3 01060000 		.4byte	0x601
 3823 01c7 42617365 		.ascii	"BaseChannelVMT\000"
 3823      4368616E 
 3823      6E656C56 
 3823      4D5400
 3824 01d6 3B070000 		.4byte	0x73b
 3825 01da 42617365 		.ascii	"BaseChannel\000"
 3825      4368616E 
 3825      6E656C00 
 3826 01e6 4B070000 		.4byte	0x74b
 3827 01ea 7368656C 		.ascii	"shellcmd_t\000"
 3827      6C636D64 
 3827      5F7400
 3828 01f5 A3070000 		.4byte	0x7a3
 3829 01f9 5368656C 		.ascii	"ShellCommand\000"
 3829      6C436F6D 
 3829      6D616E64 
ARM GAS  /tmp/ccFcDX3k.s 			page 71


 3829      00
 3830 0206 DE070000 		.4byte	0x7de
 3831 020a 5368656C 		.ascii	"ShellConfig\000"
 3831      6C436F6E 
 3831      66696700 
 3832 0216 00000000 		.4byte	0x0
 3833              		.section	.debug_aranges,"",%progbits
 3834 0000 6C000000 		.4byte	0x6c
 3835 0004 0200     		.2byte	0x2
 3836 0006 00000000 		.4byte	.Ldebug_info0
 3837 000a 04       		.byte	0x4
 3838 000b 00       		.byte	0x0
 3839 000c 0000     		.2byte	0x0
 3840 000e 0000     		.2byte	0x0
 3841 0010 00000000 		.4byte	.LFB56
 3842 0014 0C000000 		.4byte	.LFE56-.LFB56
 3843 0018 00000000 		.4byte	.LFB59
 3844 001c 20000000 		.4byte	.LFE59-.LFB59
 3845 0020 00000000 		.4byte	.LFB58
 3846 0024 B8000000 		.4byte	.LFE58-.LFB58
 3847 0028 00000000 		.4byte	.LFB57
 3848 002c 20000000 		.4byte	.LFE57-.LFB57
 3849 0030 00000000 		.4byte	.LFB60
 3850 0034 36000000 		.4byte	.LFE60-.LFB60
 3851 0038 00000000 		.4byte	.LFB66
 3852 003c 3C000000 		.4byte	.LFE66-.LFB66
 3853 0040 00000000 		.4byte	.LFB62
 3854 0044 0C000000 		.4byte	.LFE62-.LFB62
 3855 0048 00000000 		.4byte	.LFB63
 3856 004c 14000000 		.4byte	.LFE63-.LFB63
 3857 0050 00000000 		.4byte	.LFB64
 3858 0054 18000000 		.4byte	.LFE64-.LFB64
 3859 0058 00000000 		.4byte	.LFB65
 3860 005c B0000000 		.4byte	.LFE65-.LFB65
 3861 0060 00000000 		.4byte	.LFB61
 3862 0064 5C010000 		.4byte	.LFE61-.LFB61
 3863 0068 00000000 		.4byte	0x0
 3864 006c 00000000 		.4byte	0x0
 3865              		.section	.debug_ranges,"",%progbits
 3866              	.Ldebug_ranges0:
 3867 0000 00000000 		.4byte	.LFB56
 3868 0004 0C000000 		.4byte	.LFE56
 3869 0008 00000000 		.4byte	.LFB59
 3870 000c 20000000 		.4byte	.LFE59
 3871 0010 00000000 		.4byte	.LFB58
 3872 0014 B8000000 		.4byte	.LFE58
 3873 0018 00000000 		.4byte	.LFB57
 3874 001c 20000000 		.4byte	.LFE57
 3875 0020 00000000 		.4byte	.LFB60
 3876 0024 36000000 		.4byte	.LFE60
 3877 0028 00000000 		.4byte	.LFB66
 3878 002c 3C000000 		.4byte	.LFE66
 3879 0030 00000000 		.4byte	.LFB62
 3880 0034 0C000000 		.4byte	.LFE62
 3881 0038 00000000 		.4byte	.LFB63
 3882 003c 14000000 		.4byte	.LFE63
 3883 0040 00000000 		.4byte	.LFB64
ARM GAS  /tmp/ccFcDX3k.s 			page 72


 3884 0044 18000000 		.4byte	.LFE64
 3885 0048 00000000 		.4byte	.LFB65
 3886 004c B0000000 		.4byte	.LFE65
 3887 0050 00000000 		.4byte	.LFB61
 3888 0054 5C010000 		.4byte	.LFE61
 3889 0058 00000000 		.4byte	0x0
 3890 005c 00000000 		.4byte	0x0
 3891              		.section	.debug_str,"MS",%progbits,1
 3892              	.LASF10:
 3893 0000 73697A65 		.ascii	"size_t\000"
 3893      5F7400
 3894              	.LASF14:
 3895 0007 75696E74 		.ascii	"uint64_t\000"
 3895      36345F74 
 3895      00
 3896              	.LASF115:
 3897 0010 76746C69 		.ascii	"vtlist\000"
 3897      737400
 3898              	.LASF66:
 3899 0017 52656164 		.ascii	"ReadyList\000"
 3899      794C6973 
 3899      7400
 3900              	.LASF6:
 3901 0021 6C6F6E67 		.ascii	"long long unsigned int\000"
 3901      206C6F6E 
 3901      6720756E 
 3901      7369676E 
 3901      65642069 
 3902              	.LASF81:
 3903 0038 42617365 		.ascii	"BaseChannelVMT\000"
 3903      4368616E 
 3903      6E656C56 
 3903      4D5400
 3904              	.LASF78:
 3905 0047 65786974 		.ascii	"exitcode\000"
 3905      636F6465 
 3905      00
 3906              	.LASF117:
 3907 0050 49544D5F 		.ascii	"ITM_RxBuffer\000"
 3907      52784275 
 3907      66666572 
 3907      00
 3908              	.LASF102:
 3909 005d 636D645F 		.ascii	"cmd_info\000"
 3909      696E666F 
 3909      00
 3910              	.LASF27:
 3911 0066 705F7072 		.ascii	"p_prio\000"
 3911      696F00
 3912              	.LASF87:
 3913 006d 72656164 		.ascii	"readt\000"
 3913      7400
 3914              	.LASF5:
 3915 0073 6C6F6E67 		.ascii	"long long int\000"
 3915      206C6F6E 
 3915      6720696E 
 3915      7400
ARM GAS  /tmp/ccFcDX3k.s 			page 73


 3916              	.LASF0:
 3917 0081 7369676E 		.ascii	"signed char\000"
 3917      65642063 
 3917      68617200 
 3918              	.LASF43:
 3919 008d 705F6D70 		.ascii	"p_mpool\000"
 3919      6F6F6C00 
 3920              	.LASF15:
 3921 0095 626F6F6C 		.ascii	"bool_t\000"
 3921      5F7400
 3922              	.LASF68:
 3923 009c 6D5F7175 		.ascii	"m_queue\000"
 3923      65756500 
 3924              	.LASF93:
 3925 00a4 73635F63 		.ascii	"sc_channel\000"
 3925      68616E6E 
 3925      656C00
 3926              	.LASF7:
 3927 00af 6C6F6E67 		.ascii	"long int\000"
 3927      20696E74 
 3927      00
 3928              	.LASF92:
 3929 00b8 5368656C 		.ascii	"ShellCommand\000"
 3929      6C436F6D 
 3929      6D616E64 
 3929      00
 3930              	.LASF17:
 3931 00c5 74737461 		.ascii	"tstate_t\000"
 3931      74655F74 
 3931      00
 3932              	.LASF35:
 3933 00ce 705F7265 		.ascii	"p_refs\000"
 3933      667300
 3934              	.LASF36:
 3935 00d5 705F7469 		.ascii	"p_time\000"
 3935      6D6500
 3936              	.LASF113:
 3937 00dc 746F6B70 		.ascii	"tokp\000"
 3937      00
 3938              	.LASF29:
 3939 00e1 705F6E65 		.ascii	"p_newer\000"
 3939      77657200 
 3940              	.LASF84:
 3941 00e9 70757477 		.ascii	"putwouldblock\000"
 3941      6F756C64 
 3941      626C6F63 
 3941      6B00
 3942              	.LASF3:
 3943 00f7 73686F72 		.ascii	"short unsigned int\000"
 3943      7420756E 
 3943      7369676E 
 3943      65642069 
 3943      6E7400
 3944              	.LASF110:
 3945 010a 6C696E65 		.ascii	"line\000"
 3945      00
 3946              	.LASF62:
ARM GAS  /tmp/ccFcDX3k.s 			page 74


 3947 010f 725F6E65 		.ascii	"r_newer\000"
 3947      77657200 
 3948              	.LASF46:
 3949 0117 72656761 		.ascii	"regarm_t\000"
 3949      726D5F74 
 3949      00
 3950              	.LASF53:
 3951 0120 76745F70 		.ascii	"vt_prev\000"
 3951      72657600 
 3952              	.LASF109:
 3953 0128 7368656C 		.ascii	"shellGetLine\000"
 3953      6C476574 
 3953      4C696E65 
 3953      00
 3954              	.LASF90:
 3955 0135 73635F6E 		.ascii	"sc_name\000"
 3955      616D6500 
 3956              	.LASF75:
 3957 013d 4576656E 		.ascii	"EventSource\000"
 3957      74536F75 
 3957      72636500 
 3958              	.LASF23:
 3959 0149 636E745F 		.ascii	"cnt_t\000"
 3959      7400
 3960              	.LASF32:
 3961 014f 705F7374 		.ascii	"p_stklimit\000"
 3961      6B6C696D 
 3961      697400
 3962              	.LASF4:
 3963 015a 756E7369 		.ascii	"unsigned int\000"
 3963      676E6564 
 3963      20696E74 
 3963      00
 3964              	.LASF52:
 3965 0167 76745F6E 		.ascii	"vt_next\000"
 3965      65787400 
 3966              	.LASF94:
 3967 016f 73635F63 		.ascii	"sc_commands\000"
 3967      6F6D6D61 
 3967      6E647300 
 3968              	.LASF38:
 3969 017b 705F6D73 		.ascii	"p_msgqueue\000"
 3969      67717565 
 3969      756500
 3970              	.LASF104:
 3971 0186 6E616D65 		.ascii	"name\000"
 3971      00
 3972              	.LASF51:
 3973 018b 56697274 		.ascii	"VirtualTimer\000"
 3973      75616C54 
 3973      696D6572 
 3973      00
 3974              	.LASF107:
 3975 0198 7368656C 		.ascii	"shellCreate\000"
 3975      6C437265 
 3975      61746500 
 3976              	.LASF105:
ARM GAS  /tmp/ccFcDX3k.s 			page 75


 3977 01a4 73697A65 		.ascii	"size\000"
 3977      00
 3978              	.LASF122:
 3979 01a9 2F686F6D 		.ascii	"/home/z80/projects/dfu.git/firmware-pawn-dev/firmwa"
 3979      652F7A38 
 3979      302F7072 
 3979      6F6A6563 
 3979      74732F64 
 3980 01dc 726500   		.ascii	"re\000"
 3981              	.LASF20:
 3982 01df 6D73675F 		.ascii	"msg_t\000"
 3982      7400
 3983              	.LASF72:
 3984 01e5 656C5F6E 		.ascii	"el_next\000"
 3984      65787400 
 3985              	.LASF86:
 3986 01ed 77726974 		.ascii	"writet\000"
 3986      657400
 3987              	.LASF16:
 3988 01f4 746D6F64 		.ascii	"tmode_t\000"
 3988      655F7400 
 3989              	.LASF45:
 3990 01fc 54687265 		.ascii	"ThreadsList\000"
 3990      6164734C 
 3990      69737400 
 3991              	.LASF21:
 3992 0208 6576656E 		.ascii	"eventmask_t\000"
 3992      746D6173 
 3992      6B5F7400 
 3993              	.LASF47:
 3994 0214 73746B61 		.ascii	"stkalign_t\000"
 3994      6C69676E 
 3994      5F7400
 3995              	.LASF82:
 3996 021f 77726974 		.ascii	"write\000"
 3996      6500
 3997              	.LASF54:
 3998 0225 76745F74 		.ascii	"vt_time\000"
 3998      696D6500 
 3999              	.LASF37:
 4000 022d 705F7761 		.ascii	"p_waiting\000"
 4000      6974696E 
 4000      6700
 4001              	.LASF67:
 4002 0237 4D757465 		.ascii	"Mutex\000"
 4002      7800
 4003              	.LASF89:
 4004 023d 7368656C 		.ascii	"shellcmd_t\000"
 4004      6C636D64 
 4004      5F7400
 4005              	.LASF74:
 4006 0248 656C5F6D 		.ascii	"el_mask\000"
 4006      61736B00 
 4007              	.LASF30:
 4008 0250 705F6F6C 		.ascii	"p_older\000"
 4008      64657200 
 4009              	.LASF61:
ARM GAS  /tmp/ccFcDX3k.s 			page 76


 4010 0258 725F6374 		.ascii	"r_ctx\000"
 4010      7800
 4011              	.LASF108:
 4012 025e 7368656C 		.ascii	"shellCreateStatic\000"
 4012      6C437265 
 4012      61746553 
 4012      74617469 
 4012      6300
 4013              	.LASF44:
 4014 0270 54687265 		.ascii	"ThreadsQueue\000"
 4014      61647351 
 4014      75657565 
 4014      00
 4015              	.LASF119:
 4016 027d 6C6F6361 		.ascii	"local_commands\000"
 4016      6C5F636F 
 4016      6D6D616E 
 4016      647300
 4017              	.LASF106:
 4018 028c 7072696F 		.ascii	"prio\000"
 4018      00
 4019              	.LASF63:
 4020 0291 725F6F6C 		.ascii	"r_older\000"
 4020      64657200 
 4021              	.LASF124:
 4022 0299 746F6B65 		.ascii	"token\000"
 4022      6E00
 4023              	.LASF18:
 4024 029f 74726566 		.ascii	"trefs_t\000"
 4024      735F7400 
 4025              	.LASF97:
 4026 02a7 73617665 		.ascii	"saveptr\000"
 4026      70747200 
 4027              	.LASF26:
 4028 02af 705F7072 		.ascii	"p_prev\000"
 4028      657600
 4029              	.LASF19:
 4030 02b6 74707269 		.ascii	"tprio_t\000"
 4030      6F5F7400 
 4031              	.LASF123:
 4032 02be 5F737472 		.ascii	"_strtok\000"
 4032      746F6B00 
 4033              	.LASF12:
 4034 02c6 696E7433 		.ascii	"int32_t\000"
 4034      325F7400 
 4035              	.LASF1:
 4036 02ce 756E7369 		.ascii	"unsigned char\000"
 4036      676E6564 
 4036      20636861 
 4036      7200
 4037              	.LASF73:
 4038 02dc 656C5F6C 		.ascii	"el_listener\000"
 4038      69737465 
 4038      6E657200 
 4039              	.LASF41:
 4040 02e8 705F6D74 		.ascii	"p_mtxlist\000"
 4040      786C6973 
ARM GAS  /tmp/ccFcDX3k.s 			page 77


 4040      7400
 4041              	.LASF2:
 4042 02f2 73686F72 		.ascii	"short int\000"
 4042      7420696E 
 4042      7400
 4043              	.LASF33:
 4044 02fc 705F7374 		.ascii	"p_state\000"
 4044      61746500 
 4045              	.LASF111:
 4046 0304 636D6465 		.ascii	"cmdexec\000"
 4046      78656300 
 4047              	.LASF60:
 4048 030c 725F7072 		.ascii	"r_prio\000"
 4048      696F00
 4049              	.LASF80:
 4050 0313 65776D61 		.ascii	"ewmask\000"
 4050      736B00
 4051              	.LASF25:
 4052 031a 705F6E65 		.ascii	"p_next\000"
 4052      787400
 4053              	.LASF96:
 4054 0321 64656C69 		.ascii	"delim\000"
 4054      6D00
 4055              	.LASF34:
 4056 0327 705F666C 		.ascii	"p_flags\000"
 4056      61677300 
 4057              	.LASF24:
 4058 032f 54687265 		.ascii	"Thread\000"
 4058      616400
 4059              	.LASF40:
 4060 0336 705F6570 		.ascii	"p_epending\000"
 4060      656E6469 
 4060      6E6700
 4061              	.LASF121:
 4062 0341 2E2E2F63 		.ascii	"../chibios/os/various/shell.c\000"
 4062      68696269 
 4062      6F732F6F 
 4062      732F7661 
 4062      72696F75 
 4063              	.LASF13:
 4064 035f 75696E74 		.ascii	"uint32_t\000"
 4064      33325F74 
 4064      00
 4065              	.LASF59:
 4066 0368 725F7175 		.ascii	"r_queue\000"
 4066      65756500 
 4067              	.LASF57:
 4068 0370 76745F73 		.ascii	"vt_systime\000"
 4068      79737469 
 4068      6D6500
 4069              	.LASF8:
 4070 037b 6C6F6E67 		.ascii	"long unsigned int\000"
 4070      20756E73 
 4070      69676E65 
 4070      6420696E 
 4070      7400
 4071              	.LASF65:
ARM GAS  /tmp/ccFcDX3k.s 			page 78


 4072 038d 725F6375 		.ascii	"r_current\000"
 4072      7272656E 
 4072      7400
 4073              	.LASF83:
 4074 0397 72656164 		.ascii	"read\000"
 4074      00
 4075              	.LASF9:
 4076 039c 63686172 		.ascii	"char\000"
 4076      00
 4077              	.LASF118:
 4078 03a1 7368656C 		.ascii	"shell_terminated\000"
 4078      6C5F7465 
 4078      726D696E 
 4078      61746564 
 4078      00
 4079              	.LASF125:
 4080 03b2 7368656C 		.ascii	"shellInit\000"
 4080      6C496E69 
 4080      7400
 4081              	.LASF70:
 4082 03bc 6D5F6E65 		.ascii	"m_next\000"
 4082      787400
 4083              	.LASF22:
 4084 03c3 73797374 		.ascii	"systime_t\000"
 4084      696D655F 
 4084      7400
 4085              	.LASF42:
 4086 03cd 705F7265 		.ascii	"p_realprio\000"
 4086      616C7072 
 4086      696F00
 4087              	.LASF50:
 4088 03d8 76746675 		.ascii	"vtfunc_t\000"
 4088      6E635F74 
 4088      00
 4089              	.LASF95:
 4090 03e1 5368656C 		.ascii	"ShellConfig\000"
 4090      6C436F6E 
 4090      66696700 
 4091              	.LASF64:
 4092 03ed 725F7072 		.ascii	"r_preempt\000"
 4092      65656D70 
 4092      7400
 4093              	.LASF31:
 4094 03f7 705F6E61 		.ascii	"p_name\000"
 4094      6D6500
 4095              	.LASF49:
 4096 03fe 636F6E74 		.ascii	"context\000"
 4096      65787400 
 4097              	.LASF39:
 4098 0406 705F6D73 		.ascii	"p_msg\000"
 4098      6700
 4099              	.LASF99:
 4100 040c 636D645F 		.ascii	"cmd_systime\000"
 4100      73797374 
 4100      696D6500 
 4101              	.LASF48:
 4102 0418 696E7463 		.ascii	"intctx\000"
ARM GAS  /tmp/ccFcDX3k.s 			page 79


 4102      747800
 4103              	.LASF98:
 4104 041f 75736167 		.ascii	"usage\000"
 4104      6500
 4105              	.LASF56:
 4106 0425 76745F70 		.ascii	"vt_par\000"
 4106      617200
 4107              	.LASF77:
 4108 042c 7264796D 		.ascii	"rdymsg\000"
 4108      736700
 4109              	.LASF76:
 4110 0433 65735F6E 		.ascii	"es_next\000"
 4110      65787400 
 4111              	.LASF112:
 4112 043b 7368656C 		.ascii	"shell_thread\000"
 4112      6C5F7468 
 4112      72656164 
 4112      00
 4113              	.LASF116:
 4114 0448 726C6973 		.ascii	"rlist\000"
 4114      7400
 4115              	.LASF11:
 4116 044e 75696E74 		.ascii	"uint8_t\000"
 4116      385F7400 
 4117              	.LASF88:
 4118 0456 42617365 		.ascii	"BaseChannel\000"
 4118      4368616E 
 4118      6E656C00 
 4119              	.LASF91:
 4120 0462 73635F66 		.ascii	"sc_function\000"
 4120      756E6374 
 4120      696F6E00 
 4121              	.LASF71:
 4122 046e 4576656E 		.ascii	"EventListener\000"
 4122      744C6973 
 4122      74656E65 
 4122      7200
 4123              	.LASF79:
 4124 047c 77746F62 		.ascii	"wtobjp\000"
 4124      6A7000
 4125              	.LASF120:
 4126 0483 474E5520 		.ascii	"GNU C 4.5.2\000"
 4126      4320342E 
 4126      352E3200 
 4127              	.LASF100:
 4128 048f 61726763 		.ascii	"argc\000"
 4128      00
 4129              	.LASF103:
 4130 0494 6C697374 		.ascii	"list_commands\000"
 4130      5F636F6D 
 4130      6D616E64 
 4130      7300
 4131              	.LASF85:
 4132 04a2 67657477 		.ascii	"getwouldblock\000"
 4132      6F756C64 
 4132      626C6F63 
 4132      6B00
ARM GAS  /tmp/ccFcDX3k.s 			page 80


 4133              	.LASF58:
 4134 04b0 56544C69 		.ascii	"VTList\000"
 4134      737400
 4135              	.LASF114:
 4136 04b7 61726773 		.ascii	"args\000"
 4136      00
 4137              	.LASF101:
 4138 04bc 61726776 		.ascii	"argv\000"
 4138      00
 4139              	.LASF69:
 4140 04c1 6D5F6F77 		.ascii	"m_owner\000"
 4140      6E657200 
 4141              	.LASF28:
 4142 04c9 705F6374 		.ascii	"p_ctx\000"
 4142      7800
 4143              	.LASF55:
 4144 04cf 76745F66 		.ascii	"vt_func\000"
 4144      756E6300 
 4145              		.ident	"GCC: (Sourcery G++ Lite 2011.03-42) 4.5.2"
ARM GAS  /tmp/ccFcDX3k.s 			page 81


DEFINED SYMBOLS
                            *ABS*:00000000 shell.c
     /tmp/ccFcDX3k.s:24     .text.usage:00000000 $t
     /tmp/ccFcDX3k.s:28     .text.usage:00000000 usage
     /tmp/ccFcDX3k.s:49     .text.usage:00000008 $d
     /tmp/ccFcDX3k.s:54     .text.cmd_systime:00000000 $t
     /tmp/ccFcDX3k.s:58     .text.cmd_systime:00000000 cmd_systime
     /tmp/ccFcDX3k.s:90     .text.cmd_systime:00000014 $d
     /tmp/ccFcDX3k.s:97     .text.cmd_info:00000000 $t
     /tmp/ccFcDX3k.s:101    .text.cmd_info:00000000 cmd_info
     /tmp/ccFcDX3k.s:182    .text.cmd_info:0000006c $d
     /tmp/ccFcDX3k.s:205    .text.list_commands:00000000 $t
     /tmp/ccFcDX3k.s:209    .text.list_commands:00000000 list_commands
     /tmp/ccFcDX3k.s:247    .text.list_commands:0000001c $d
     /tmp/ccFcDX3k.s:252    .text.cmdexec:00000000 $t
     /tmp/ccFcDX3k.s:256    .text.cmdexec:00000000 cmdexec
     /tmp/ccFcDX3k.s:314    .text._strtok.clone.0:00000000 $t
     /tmp/ccFcDX3k.s:318    .text._strtok.clone.0:00000000 _strtok.clone.0
     /tmp/ccFcDX3k.s:378    .text._strtok.clone.0:00000038 $d
     /tmp/ccFcDX3k.s:383    .text.shellInit:00000000 $t
     /tmp/ccFcDX3k.s:388    .text.shellInit:00000000 shellInit
     /tmp/ccFcDX3k.s:403    .text.shellInit:00000008 $d
     /tmp/ccFcDX3k.s:408    .text.shellCreate:00000000 $t
     /tmp/ccFcDX3k.s:413    .text.shellCreate:00000000 shellCreate
     /tmp/ccFcDX3k.s:439    .text.shellCreate:00000010 $d
     /tmp/ccFcDX3k.s:625    .text.shell_thread:00000000 shell_thread
     /tmp/ccFcDX3k.s:444    .text.shellCreateStatic:00000000 $t
     /tmp/ccFcDX3k.s:449    .text.shellCreateStatic:00000000 shellCreateStatic
     /tmp/ccFcDX3k.s:480    .text.shellCreateStatic:00000014 $d
     /tmp/ccFcDX3k.s:485    .text.shellGetLine:00000000 $t
     /tmp/ccFcDX3k.s:490    .text.shellGetLine:00000000 shellGetLine
     /tmp/ccFcDX3k.s:615    .text.shellGetLine:000000a8 $d
     /tmp/ccFcDX3k.s:621    .text.shell_thread:00000000 $t
     /tmp/ccFcDX3k.s:837    .text.shell_thread:00000124 $d
     /tmp/ccFcDX3k.s:947    .bss.shell_terminated:00000000 shell_terminated
     /tmp/ccFcDX3k.s:931    .data.local_commands:00000000 $d
     /tmp/ccFcDX3k.s:935    .data.local_commands:00000000 local_commands
     /tmp/ccFcDX3k.s:943    .bss.shell_terminated:00000000 $d
                     .debug_frame:00000010 $d

UNDEFINED SYMBOLS
chprintf
vtlist
strcasecmp
strspn
strchr
chThdCreateFromHeap
chThdCreateStatic
_port_lock
dbg_check_lock
chEvtBroadcastFlagsI
chThdExitS
rlist
