ARM GAS  /tmp/ccz3NjuA.s 			page 1


   1              		.syntax unified
   2              		.cpu cortex-m3
   3              		.fpu softvfp
   4              		.eabi_attribute 20, 1
   5              		.eabi_attribute 21, 1
   6              		.eabi_attribute 23, 3
   7              		.eabi_attribute 24, 1
   8              		.eabi_attribute 25, 1
   9              		.eabi_attribute 26, 1
  10              		.eabi_attribute 30, 4
  11              		.eabi_attribute 18, 4
  12              		.thumb
  13              		.file	"stm32f10x_flash.c"
  20 0000 6A040000 		.text
  20      02002D01 
  20      00000201 
  20      FB0E0D00 
  20      01010101 
  21              	.Ltext0:
  22              		.cfi_sections	.debug_frame
  23              		.section	.text.FLASH_SetLatency,"ax",%progbits
  24              		.align	1
  25              		.global	FLASH_SetLatency
  26              		.thumb
  27              		.thumb_func
  28              		.type	FLASH_SetLatency, %function
  29              	FLASH_SetLatency:
  30              	.LFB55:
  31              		.file 1 "stm32f10x_flash.c"
  32              		.loc 1 255 0
  33              		.cfi_startproc
  34              		@ args = 0, pretend = 0, frame = 0
  35              		@ frame_needed = 0, uses_anonymous_args = 0
  36              		@ link register save eliminated.
  37              	.LVL0:
  38              		.loc 1 262 0
  39 0000 034B     		ldr	r3, .L2
  40 0002 1A68     		ldr	r2, [r3, #0]
  41              	.LVL1:
  42              		.loc 1 265 0
  43 0004 02F03802 		and	r2, r2, #56
  44              	.LVL2:
  45              		.loc 1 266 0
  46 0008 40EA0202 		orr	r2, r0, r2
  47              	.LVL3:
  48              		.loc 1 269 0
  49 000c 1A60     		str	r2, [r3, #0]
  50              		.loc 1 270 0
  51 000e 7047     		bx	lr
  52              	.L3:
  53              		.align	2
ARM GAS  /tmp/ccz3NjuA.s 			page 2


  54              	.L2:
  55 0010 00200240 		.word	1073881088
  56              		.cfi_endproc
  57              	.LFE55:
  58              		.size	FLASH_SetLatency, .-FLASH_SetLatency
  59              		.section	.text.FLASH_HalfCycleAccessCmd,"ax",%progbits
  60              		.align	1
  61              		.global	FLASH_HalfCycleAccessCmd
  62              		.thumb
  63              		.thumb_func
  64              		.type	FLASH_HalfCycleAccessCmd, %function
  65              	FLASH_HalfCycleAccessCmd:
  66              	.LFB56:
  67              		.loc 1 282 0
  68              		.cfi_startproc
  69              		@ args = 0, pretend = 0, frame = 0
  70              		@ frame_needed = 0, uses_anonymous_args = 0
  71              		@ link register save eliminated.
  72              	.LVL4:
  73              		.loc 1 287 0
  74 0000 044B     		ldr	r3, .L5
  75 0002 1A68     		ldr	r2, [r3, #0]
  76 0004 22F00802 		bic	r2, r2, #8
  77 0008 1A60     		str	r2, [r3, #0]
  78              		.loc 1 288 0
  79 000a 1A68     		ldr	r2, [r3, #0]
  80 000c 40EA0202 		orr	r2, r0, r2
  81 0010 1A60     		str	r2, [r3, #0]
  82              		.loc 1 289 0
  83 0012 7047     		bx	lr
  84              	.L6:
  85              		.align	2
  86              	.L5:
  87 0014 00200240 		.word	1073881088
  88              		.cfi_endproc
  89              	.LFE56:
  90              		.size	FLASH_HalfCycleAccessCmd, .-FLASH_HalfCycleAccessCmd
  91              		.section	.text.FLASH_PrefetchBufferCmd,"ax",%progbits
  92              		.align	1
  93              		.global	FLASH_PrefetchBufferCmd
  94              		.thumb
  95              		.thumb_func
  96              		.type	FLASH_PrefetchBufferCmd, %function
  97              	FLASH_PrefetchBufferCmd:
  98              	.LFB57:
  99              		.loc 1 301 0
 100              		.cfi_startproc
 101              		@ args = 0, pretend = 0, frame = 0
 102              		@ frame_needed = 0, uses_anonymous_args = 0
 103              		@ link register save eliminated.
 104              	.LVL5:
 105              		.loc 1 306 0
 106 0000 044B     		ldr	r3, .L8
 107 0002 1A68     		ldr	r2, [r3, #0]
 108 0004 22F01002 		bic	r2, r2, #16
 109 0008 1A60     		str	r2, [r3, #0]
 110              		.loc 1 307 0
ARM GAS  /tmp/ccz3NjuA.s 			page 3


 111 000a 1A68     		ldr	r2, [r3, #0]
 112 000c 40EA0202 		orr	r2, r0, r2
 113 0010 1A60     		str	r2, [r3, #0]
 114              		.loc 1 308 0
 115 0012 7047     		bx	lr
 116              	.L9:
 117              		.align	2
 118              	.L8:
 119 0014 00200240 		.word	1073881088
 120              		.cfi_endproc
 121              	.LFE57:
 122              		.size	FLASH_PrefetchBufferCmd, .-FLASH_PrefetchBufferCmd
 123              		.section	.text.FLASH_Unlock,"ax",%progbits
 124              		.align	1
 125              		.global	FLASH_Unlock
 126              		.thumb
 127              		.thumb_func
 128              		.type	FLASH_Unlock, %function
 129              	FLASH_Unlock:
 130              	.LFB58:
 131              		.loc 1 320 0
 132              		.cfi_startproc
 133              		@ args = 0, pretend = 0, frame = 0
 134              		@ frame_needed = 0, uses_anonymous_args = 0
 135              		@ link register save eliminated.
 136              		.loc 1 322 0
 137 0000 024B     		ldr	r3, .L11
 138 0002 034A     		ldr	r2, .L11+4
 139 0004 5A60     		str	r2, [r3, #4]
 140              		.loc 1 323 0
 141 0006 034A     		ldr	r2, .L11+8
 142 0008 5A60     		str	r2, [r3, #4]
 143              		.loc 1 330 0
 144 000a 7047     		bx	lr
 145              	.L12:
 146              		.align	2
 147              	.L11:
 148 000c 00200240 		.word	1073881088
 149 0010 23016745 		.word	1164378403
 150 0014 AB89EFCD 		.word	-839939669
 151              		.cfi_endproc
 152              	.LFE58:
 153              		.size	FLASH_Unlock, .-FLASH_Unlock
 154              		.section	.text.FLASH_UnlockBank1,"ax",%progbits
 155              		.align	1
 156              		.global	FLASH_UnlockBank1
 157              		.thumb
 158              		.thumb_func
 159              		.type	FLASH_UnlockBank1, %function
 160              	FLASH_UnlockBank1:
 161              	.LFB59:
 162              		.loc 1 341 0
 163              		.cfi_startproc
 164              		@ args = 0, pretend = 0, frame = 0
 165              		@ frame_needed = 0, uses_anonymous_args = 0
 166              		@ link register save eliminated.
 167              		.loc 1 343 0
ARM GAS  /tmp/ccz3NjuA.s 			page 4


 168 0000 024B     		ldr	r3, .L14
 169 0002 034A     		ldr	r2, .L14+4
 170 0004 5A60     		str	r2, [r3, #4]
 171              		.loc 1 344 0
 172 0006 034A     		ldr	r2, .L14+8
 173 0008 5A60     		str	r2, [r3, #4]
 174              		.loc 1 345 0
 175 000a 7047     		bx	lr
 176              	.L15:
 177              		.align	2
 178              	.L14:
 179 000c 00200240 		.word	1073881088
 180 0010 23016745 		.word	1164378403
 181 0014 AB89EFCD 		.word	-839939669
 182              		.cfi_endproc
 183              	.LFE59:
 184              		.size	FLASH_UnlockBank1, .-FLASH_UnlockBank1
 185              		.section	.text.FLASH_Lock,"ax",%progbits
 186              		.align	1
 187              		.global	FLASH_Lock
 188              		.thumb
 189              		.thumb_func
 190              		.type	FLASH_Lock, %function
 191              	FLASH_Lock:
 192              	.LFB60:
 193              		.loc 1 373 0
 194              		.cfi_startproc
 195              		@ args = 0, pretend = 0, frame = 0
 196              		@ frame_needed = 0, uses_anonymous_args = 0
 197              		@ link register save eliminated.
 198              		.loc 1 375 0
 199 0000 024B     		ldr	r3, .L17
 200 0002 1A69     		ldr	r2, [r3, #16]
 201 0004 42F08002 		orr	r2, r2, #128
 202 0008 1A61     		str	r2, [r3, #16]
 203              		.loc 1 381 0
 204 000a 7047     		bx	lr
 205              	.L18:
 206              		.align	2
 207              	.L17:
 208 000c 00200240 		.word	1073881088
 209              		.cfi_endproc
 210              	.LFE60:
 211              		.size	FLASH_Lock, .-FLASH_Lock
 212              		.section	.text.FLASH_LockBank1,"ax",%progbits
 213              		.align	1
 214              		.global	FLASH_LockBank1
 215              		.thumb
 216              		.thumb_func
 217              		.type	FLASH_LockBank1, %function
 218              	FLASH_LockBank1:
 219              	.LFB61:
 220              		.loc 1 393 0
 221              		.cfi_startproc
 222              		@ args = 0, pretend = 0, frame = 0
 223              		@ frame_needed = 0, uses_anonymous_args = 0
 224              		@ link register save eliminated.
ARM GAS  /tmp/ccz3NjuA.s 			page 5


 225              		.loc 1 395 0
 226 0000 024B     		ldr	r3, .L20
 227 0002 1A69     		ldr	r2, [r3, #16]
 228 0004 42F08002 		orr	r2, r2, #128
 229 0008 1A61     		str	r2, [r3, #16]
 230              		.loc 1 396 0
 231 000a 7047     		bx	lr
 232              	.L21:
 233              		.align	2
 234              	.L20:
 235 000c 00200240 		.word	1073881088
 236              		.cfi_endproc
 237              	.LFE61:
 238              		.size	FLASH_LockBank1, .-FLASH_LockBank1
 239              		.section	.text.FLASH_GetUserOptionByte,"ax",%progbits
 240              		.align	1
 241              		.global	FLASH_GetUserOptionByte
 242              		.thumb
 243              		.thumb_func
 244              		.type	FLASH_GetUserOptionByte, %function
 245              	FLASH_GetUserOptionByte:
 246              	.LFB72:
 247              		.loc 1 1217 0
 248              		.cfi_startproc
 249              		@ args = 0, pretend = 0, frame = 0
 250              		@ frame_needed = 0, uses_anonymous_args = 0
 251              		@ link register save eliminated.
 252              		.loc 1 1219 0
 253 0000 014B     		ldr	r3, .L23
 254 0002 D869     		ldr	r0, [r3, #28]
 255              		.loc 1 1220 0
 256 0004 8008     		lsrs	r0, r0, #2
 257 0006 7047     		bx	lr
 258              	.L24:
 259              		.align	2
 260              	.L23:
 261 0008 00200240 		.word	1073881088
 262              		.cfi_endproc
 263              	.LFE72:
 264              		.size	FLASH_GetUserOptionByte, .-FLASH_GetUserOptionByte
 265              		.section	.text.FLASH_GetWriteProtectionOptionByte,"ax",%progbits
 266              		.align	1
 267              		.global	FLASH_GetWriteProtectionOptionByte
 268              		.thumb
 269              		.thumb_func
 270              		.type	FLASH_GetWriteProtectionOptionByte, %function
 271              	FLASH_GetWriteProtectionOptionByte:
 272              	.LFB73:
 273              		.loc 1 1229 0
 274              		.cfi_startproc
 275              		@ args = 0, pretend = 0, frame = 0
 276              		@ frame_needed = 0, uses_anonymous_args = 0
 277              		@ link register save eliminated.
 278              		.loc 1 1231 0
 279 0000 014B     		ldr	r3, .L26
 280 0002 186A     		ldr	r0, [r3, #32]
 281              		.loc 1 1232 0
ARM GAS  /tmp/ccz3NjuA.s 			page 6


 282 0004 7047     		bx	lr
 283              	.L27:
 284 0006 00BF     		.align	2
 285              	.L26:
 286 0008 00200240 		.word	1073881088
 287              		.cfi_endproc
 288              	.LFE73:
 289              		.size	FLASH_GetWriteProtectionOptionByte, .-FLASH_GetWriteProtectionOptionByte
 290              		.section	.text.FLASH_GetReadOutProtectionStatus,"ax",%progbits
 291              		.align	1
 292              		.global	FLASH_GetReadOutProtectionStatus
 293              		.thumb
 294              		.thumb_func
 295              		.type	FLASH_GetReadOutProtectionStatus, %function
 296              	FLASH_GetReadOutProtectionStatus:
 297              	.LFB74:
 298              		.loc 1 1241 0
 299              		.cfi_startproc
 300              		@ args = 0, pretend = 0, frame = 0
 301              		@ frame_needed = 0, uses_anonymous_args = 0
 302              		@ link register save eliminated.
 303              	.LVL6:
 304              		.loc 1 1243 0
 305 0000 024B     		ldr	r3, .L29
 306 0002 D869     		ldr	r0, [r3, #28]
 307              	.LVL7:
 308              		.loc 1 1252 0
 309 0004 C0F34000 		ubfx	r0, r0, #1, #1
 310              	.LVL8:
 311 0008 7047     		bx	lr
 312              	.L30:
 313 000a 00BF     		.align	2
 314              	.L29:
 315 000c 00200240 		.word	1073881088
 316              		.cfi_endproc
 317              	.LFE74:
 318              		.size	FLASH_GetReadOutProtectionStatus, .-FLASH_GetReadOutProtectionStatus
 319              		.section	.text.FLASH_GetPrefetchBufferStatus,"ax",%progbits
 320              		.align	1
 321              		.global	FLASH_GetPrefetchBufferStatus
 322              		.thumb
 323              		.thumb_func
 324              		.type	FLASH_GetPrefetchBufferStatus, %function
 325              	FLASH_GetPrefetchBufferStatus:
 326              	.LFB75:
 327              		.loc 1 1261 0
 328              		.cfi_startproc
 329              		@ args = 0, pretend = 0, frame = 0
 330              		@ frame_needed = 0, uses_anonymous_args = 0
 331              		@ link register save eliminated.
 332              	.LVL9:
 333              		.loc 1 1264 0
 334 0000 024B     		ldr	r3, .L32
 335 0002 1868     		ldr	r0, [r3, #0]
 336              	.LVL10:
 337              		.loc 1 1274 0
 338 0004 C0F34010 		ubfx	r0, r0, #5, #1
ARM GAS  /tmp/ccz3NjuA.s 			page 7


 339              	.LVL11:
 340 0008 7047     		bx	lr
 341              	.L33:
 342 000a 00BF     		.align	2
 343              	.L32:
 344 000c 00200240 		.word	1073881088
 345              		.cfi_endproc
 346              	.LFE75:
 347              		.size	FLASH_GetPrefetchBufferStatus, .-FLASH_GetPrefetchBufferStatus
 348              		.section	.text.FLASH_ITConfig,"ax",%progbits
 349              		.align	1
 350              		.global	FLASH_ITConfig
 351              		.thumb
 352              		.thumb_func
 353              		.type	FLASH_ITConfig, %function
 354              	FLASH_ITConfig:
 355              	.LFB76:
 356              		.loc 1 1291 0
 357              		.cfi_startproc
 358              		@ args = 0, pretend = 0, frame = 0
 359              		@ frame_needed = 0, uses_anonymous_args = 0
 360              		@ link register save eliminated.
 361              	.LVL12:
 362 0000 044B     		ldr	r3, .L38
 363              		.loc 1 1328 0
 364 0002 11B1     		cbz	r1, .L35
 365              		.loc 1 1331 0
 366 0004 1A69     		ldr	r2, [r3, #16]
 367 0006 1043     		orrs	r0, r0, r2
 368              	.LVL13:
 369 0008 02E0     		b	.L37
 370              	.LVL14:
 371              	.L35:
 372              		.loc 1 1336 0
 373 000a 1A69     		ldr	r2, [r3, #16]
 374 000c 22EA0000 		bic	r0, r2, r0
 375              	.LVL15:
 376              	.L37:
 377 0010 1861     		str	r0, [r3, #16]
 378 0012 7047     		bx	lr
 379              	.L39:
 380              		.align	2
 381              	.L38:
 382 0014 00200240 		.word	1073881088
 383              		.cfi_endproc
 384              	.LFE76:
 385              		.size	FLASH_ITConfig, .-FLASH_ITConfig
 386              		.section	.text.FLASH_GetFlagStatus,"ax",%progbits
 387              		.align	1
 388              		.global	FLASH_GetFlagStatus
 389              		.thumb
 390              		.thumb_func
 391              		.type	FLASH_GetFlagStatus, %function
 392              	FLASH_GetFlagStatus:
 393              	.LFB77:
 394              		.loc 1 1358 0
 395              		.cfi_startproc
ARM GAS  /tmp/ccz3NjuA.s 			page 8


 396              		@ args = 0, pretend = 0, frame = 0
 397              		@ frame_needed = 0, uses_anonymous_args = 0
 398              		@ link register save eliminated.
 399              	.LVL16:
 400              		.loc 1 1403 0
 401 0000 0128     		cmp	r0, #1
 402 0002 064B     		ldr	r3, .L43
 403 0004 03D1     		bne	.L41
 404              		.loc 1 1405 0
 405 0006 D869     		ldr	r0, [r3, #28]
 406              	.LVL17:
 407              		.loc 1 1411 0
 408 0008 00F00100 		and	r0, r0, #1
 409 000c 7047     		bx	lr
 410              	.LVL18:
 411              	.L41:
 412              		.loc 1 1416 0
 413 000e DB68     		ldr	r3, [r3, #12]
 414              		.loc 1 1411 0
 415 0010 1842     		tst	r0, r3
 416 0012 0CBF     		ite	eq
 417 0014 0020     		moveq	r0, #0
 418 0016 0120     		movne	r0, #1
 419              	.LVL19:
 420              		.loc 1 1429 0
 421 0018 7047     		bx	lr
 422              	.L44:
 423 001a 00BF     		.align	2
 424              	.L43:
 425 001c 00200240 		.word	1073881088
 426              		.cfi_endproc
 427              	.LFE77:
 428              		.size	FLASH_GetFlagStatus, .-FLASH_GetFlagStatus
 429              		.section	.text.FLASH_ClearFlag,"ax",%progbits
 430              		.align	1
 431              		.global	FLASH_ClearFlag
 432              		.thumb
 433              		.thumb_func
 434              		.type	FLASH_ClearFlag, %function
 435              	FLASH_ClearFlag:
 436              	.LFB78:
 437              		.loc 1 1444 0
 438              		.cfi_startproc
 439              		@ args = 0, pretend = 0, frame = 0
 440              		@ frame_needed = 0, uses_anonymous_args = 0
 441              		@ link register save eliminated.
 442              	.LVL20:
 443              		.loc 1 1465 0
 444 0000 014B     		ldr	r3, .L46
 445 0002 D860     		str	r0, [r3, #12]
 446              		.loc 1 1467 0
 447 0004 7047     		bx	lr
 448              	.L47:
 449 0006 00BF     		.align	2
 450              	.L46:
 451 0008 00200240 		.word	1073881088
 452              		.cfi_endproc
ARM GAS  /tmp/ccz3NjuA.s 			page 9


 453              	.LFE78:
 454              		.size	FLASH_ClearFlag, .-FLASH_ClearFlag
 455              		.section	.text.FLASH_GetStatus,"ax",%progbits
 456              		.align	1
 457              		.global	FLASH_GetStatus
 458              		.thumb
 459              		.thumb_func
 460              		.type	FLASH_GetStatus, %function
 461              	FLASH_GetStatus:
 462              	.LFB79:
 463              		.loc 1 1478 0
 464              		.cfi_startproc
 465              		@ args = 0, pretend = 0, frame = 0
 466              		@ frame_needed = 0, uses_anonymous_args = 0
 467              		@ link register save eliminated.
 468              	.LVL21:
 469              		.loc 1 1481 0
 470 0000 0A4B     		ldr	r3, .L53
 471 0002 DA68     		ldr	r2, [r3, #12]
 472 0004 12F0010F 		tst	r2, #1
 473 0008 0BD1     		bne	.L50
 474              		.loc 1 1487 0
 475 000a DA68     		ldr	r2, [r3, #12]
 476 000c 12F0040F 		tst	r2, #4
 477 0010 09D1     		bne	.L51
 478              		.loc 1 1493 0
 479 0012 D868     		ldr	r0, [r3, #12]
 480 0014 00F01000 		and	r0, r0, #16
 481              		.loc 1 1495 0
 482 0018 0028     		cmp	r0, #0
 483 001a 0CBF     		ite	eq
 484 001c 0420     		moveq	r0, #4
 485 001e 0320     		movne	r0, #3
 486 0020 7047     		bx	lr
 487              	.L50:
 488              		.loc 1 1483 0
 489 0022 0120     		movs	r0, #1
 490 0024 7047     		bx	lr
 491              	.L51:
 492              		.loc 1 1489 0
 493 0026 0220     		movs	r0, #2
 494              	.LVL22:
 495              		.loc 1 1505 0
 496 0028 7047     		bx	lr
 497              	.L54:
 498 002a 00BF     		.align	2
 499              	.L53:
 500 002c 00200240 		.word	1073881088
 501              		.cfi_endproc
 502              	.LFE79:
 503              		.size	FLASH_GetStatus, .-FLASH_GetStatus
 504              		.section	.text.FLASH_GetBank1Status,"ax",%progbits
 505              		.align	1
 506              		.global	FLASH_GetBank1Status
 507              		.thumb
 508              		.thumb_func
 509              		.type	FLASH_GetBank1Status, %function
ARM GAS  /tmp/ccz3NjuA.s 			page 10


 510              	FLASH_GetBank1Status:
 511              	.LFB80:
 512              		.loc 1 1516 0
 513              		.cfi_startproc
 514              		@ args = 0, pretend = 0, frame = 0
 515              		@ frame_needed = 0, uses_anonymous_args = 0
 516              		@ link register save eliminated.
 517              	.LVL23:
 518              		.loc 1 1519 0
 519 0000 0A4B     		ldr	r3, .L60
 520 0002 DA68     		ldr	r2, [r3, #12]
 521 0004 12F0010F 		tst	r2, #1
 522 0008 0BD1     		bne	.L57
 523              		.loc 1 1525 0
 524 000a DA68     		ldr	r2, [r3, #12]
 525 000c 12F0040F 		tst	r2, #4
 526 0010 09D1     		bne	.L58
 527              		.loc 1 1531 0
 528 0012 D868     		ldr	r0, [r3, #12]
 529 0014 00F01000 		and	r0, r0, #16
 530              		.loc 1 1533 0
 531 0018 0028     		cmp	r0, #0
 532 001a 0CBF     		ite	eq
 533 001c 0420     		moveq	r0, #4
 534 001e 0320     		movne	r0, #3
 535 0020 7047     		bx	lr
 536              	.L57:
 537              		.loc 1 1521 0
 538 0022 0120     		movs	r0, #1
 539 0024 7047     		bx	lr
 540              	.L58:
 541              		.loc 1 1527 0
 542 0026 0220     		movs	r0, #2
 543              	.LVL24:
 544              		.loc 1 1543 0
 545 0028 7047     		bx	lr
 546              	.L61:
 547 002a 00BF     		.align	2
 548              	.L60:
 549 002c 00200240 		.word	1073881088
 550              		.cfi_endproc
 551              	.LFE80:
 552              		.size	FLASH_GetBank1Status, .-FLASH_GetBank1Status
 553              		.section	.text.FLASH_WaitForLastOperation,"ax",%progbits
 554              		.align	1
 555              		.global	FLASH_WaitForLastOperation
 556              		.thumb
 557              		.thumb_func
 558              		.type	FLASH_WaitForLastOperation, %function
 559              	FLASH_WaitForLastOperation:
 560              	.LFB81:
 561              		.loc 1 1596 0
 562              		.cfi_startproc
 563              		@ args = 0, pretend = 0, frame = 0
 564              		@ frame_needed = 0, uses_anonymous_args = 0
 565              	.LVL25:
 566 0000 10B5     		push	{r4, lr}
ARM GAS  /tmp/ccz3NjuA.s 			page 11


 567              	.LCFI0:
 568              		.cfi_def_cfa_offset 8
 569              		.loc 1 1596 0
 570 0002 0446     		mov	r4, r0
 571              		.cfi_offset 14, -4
 572              		.cfi_offset 4, -8
 573              		.loc 1 1600 0
 574 0004 FFF7FEFF 		bl	FLASH_GetBank1Status
 575              	.LVL26:
 576              		.loc 1 1602 0
 577 0008 02E0     		b	.L63
 578              	.L65:
 579              		.loc 1 1604 0
 580 000a FFF7FEFF 		bl	FLASH_GetBank1Status
 581              	.LVL27:
 582              		.loc 1 1605 0
 583 000e 013C     		subs	r4, r4, #1
 584              	.LVL28:
 585              	.L63:
 586              		.loc 1 1602 0 discriminator 1
 587 0010 0128     		cmp	r0, #1
 588 0012 03D1     		bne	.L64
 589              		.loc 1 1602 0 is_stmt 0 discriminator 2
 590 0014 002C     		cmp	r4, #0
 591 0016 F8D1     		bne	.L65
 592              		.loc 1 1609 0 is_stmt 1
 593 0018 0430     		adds	r0, r0, #4
 594              	.LVL29:
 595 001a 10BD     		pop	{r4, pc}
 596              	.LVL30:
 597              	.L64:
 598 001c 002C     		cmp	r4, #0
 599 001e 08BF     		it	eq
 600 0020 0520     		moveq	r0, #5
 601              	.LVL31:
 602              		.loc 1 1613 0
 603 0022 10BD     		pop	{r4, pc}
 604              		.cfi_endproc
 605              	.LFE81:
 606              		.size	FLASH_WaitForLastOperation, .-FLASH_WaitForLastOperation
 607              		.section	.text.FLASH_UserOptionByteConfig,"ax",%progbits
 608              		.align	1
 609              		.global	FLASH_UserOptionByteConfig
 610              		.thumb
 611              		.thumb_func
 612              		.type	FLASH_UserOptionByteConfig, %function
 613              	FLASH_UserOptionByteConfig:
 614              	.LFB71:
 615              		.loc 1 1119 0
 616              		.cfi_startproc
 617              		@ args = 0, pretend = 0, frame = 0
 618              		@ frame_needed = 0, uses_anonymous_args = 0
 619              	.LVL32:
 620 0000 F8B5     		push	{r3, r4, r5, r6, r7, lr}
 621              	.LCFI1:
 622              		.cfi_def_cfa_offset 24
 623              		.loc 1 1128 0
ARM GAS  /tmp/ccz3NjuA.s 			page 12


 624 0002 124E     		ldr	r6, .L70
 625              		.cfi_offset 14, -4
 626              		.cfi_offset 7, -8
 627              		.cfi_offset 6, -12
 628              		.cfi_offset 5, -16
 629              		.cfi_offset 4, -20
 630              		.cfi_offset 3, -24
 631 0004 124B     		ldr	r3, .L70+4
 632              		.loc 1 1119 0
 633 0006 0446     		mov	r4, r0
 634              		.loc 1 1128 0
 635 0008 B360     		str	r3, [r6, #8]
 636              		.loc 1 1129 0
 637 000a 124B     		ldr	r3, .L70+8
 638              		.loc 1 1132 0
 639 000c 4FF40050 		mov	r0, #8192
 640              	.LVL33:
 641              		.loc 1 1129 0
 642 0010 B360     		str	r3, [r6, #8]
 643              		.loc 1 1119 0
 644 0012 0D46     		mov	r5, r1
 645 0014 1746     		mov	r7, r2
 646              		.loc 1 1132 0
 647 0016 FFF7FEFF 		bl	FLASH_WaitForLastOperation
 648              	.LVL34:
 649              		.loc 1 1134 0
 650 001a 0428     		cmp	r0, #4
 651 001c 15D1     		bne	.L69
 652              		.loc 1 1137 0
 653 001e 3369     		ldr	r3, [r6, #16]
 654              		.loc 1 1139 0
 655 0020 44F0F804 		orr	r4, r4, #248
 656              		.loc 1 1137 0
 657 0024 43F01003 		orr	r3, r3, #16
 658 0028 3361     		str	r3, [r6, #16]
 659              		.loc 1 1139 0
 660 002a 2543     		orrs	r5, r5, r4
 661 002c 0A4B     		ldr	r3, .L70+12
 662 002e 2F43     		orrs	r7, r7, r5
 663 0030 5F80     		strh	r7, [r3, #2]	@ movhi
 664              		.loc 1 1142 0
 665 0032 4FF40050 		mov	r0, #8192
 666              	.LVL35:
 667 0036 FFF7FEFF 		bl	FLASH_WaitForLastOperation
 668              	.LVL36:
 669              		.loc 1 1143 0
 670 003a 0528     		cmp	r0, #5
 671 003c 05D0     		beq	.L69
 672              		.loc 1 1146 0
 673 003e 3269     		ldr	r2, [r6, #16]
 674 0040 41F6EF73 		movw	r3, #8175
 675 0044 02EA0303 		and	r3, r2, r3
 676 0048 3361     		str	r3, [r6, #16]
 677              	.LVL37:
 678              	.L69:
 679              		.loc 1 1151 0
 680 004a F8BD     		pop	{r3, r4, r5, r6, r7, pc}
ARM GAS  /tmp/ccz3NjuA.s 			page 13


 681              	.L71:
 682              		.align	2
 683              	.L70:
 684 004c 00200240 		.word	1073881088
 685 0050 23016745 		.word	1164378403
 686 0054 AB89EFCD 		.word	-839939669
 687 0058 00F8FF1F 		.word	536868864
 688              		.cfi_endproc
 689              	.LFE71:
 690              		.size	FLASH_UserOptionByteConfig, .-FLASH_UserOptionByteConfig
 691              		.section	.text.FLASH_ReadOutProtection,"ax",%progbits
 692              		.align	1
 693              		.global	FLASH_ReadOutProtection
 694              		.thumb
 695              		.thumb_func
 696              		.type	FLASH_ReadOutProtection, %function
 697              	FLASH_ReadOutProtection:
 698              	.LFB70:
 699              		.loc 1 1050 0
 700              		.cfi_startproc
 701              		@ args = 0, pretend = 0, frame = 0
 702              		@ frame_needed = 0, uses_anonymous_args = 0
 703              	.LVL38:
 704 0000 38B5     		push	{r3, r4, r5, lr}
 705              	.LCFI2:
 706              		.cfi_def_cfa_offset 16
 707              		.loc 1 1050 0
 708 0002 0546     		mov	r5, r0
 709              		.cfi_offset 14, -4
 710              		.cfi_offset 5, -8
 711              		.cfi_offset 4, -12
 712              		.cfi_offset 3, -16
 713              		.loc 1 1054 0
 714 0004 4FF43020 		mov	r0, #720896
 715              	.LVL39:
 716 0008 FFF7FEFF 		bl	FLASH_WaitForLastOperation
 717              	.LVL40:
 718              		.loc 1 1055 0
 719 000c 0428     		cmp	r0, #4
 720 000e 38D1     		bne	.L73
 721              		.loc 1 1058 0
 722 0010 1C4C     		ldr	r4, .L78
 723 0012 1D4B     		ldr	r3, .L78+4
 724              		.loc 1 1063 0
 725 0014 4FF43020 		mov	r0, #720896
 726              	.LVL41:
 727              		.loc 1 1058 0
 728 0018 A360     		str	r3, [r4, #8]
 729              		.loc 1 1059 0
 730 001a 1C4B     		ldr	r3, .L78+8
 731 001c A360     		str	r3, [r4, #8]
 732              		.loc 1 1060 0
 733 001e 2369     		ldr	r3, [r4, #16]
 734 0020 43F02003 		orr	r3, r3, #32
 735 0024 2361     		str	r3, [r4, #16]
 736              		.loc 1 1061 0
 737 0026 2369     		ldr	r3, [r4, #16]
ARM GAS  /tmp/ccz3NjuA.s 			page 14


 738 0028 43F04003 		orr	r3, r3, #64
 739 002c 2361     		str	r3, [r4, #16]
 740              		.loc 1 1063 0
 741 002e FFF7FEFF 		bl	FLASH_WaitForLastOperation
 742              	.LVL42:
 743              		.loc 1 1064 0
 744 0032 0428     		cmp	r0, #4
 745 0034 1DD1     		bne	.L74
 746              		.loc 1 1067 0
 747 0036 2269     		ldr	r2, [r4, #16]
 748 0038 41F6DF73 		movw	r3, #8159
 749 003c 02EA0303 		and	r3, r2, r3
 750 0040 2361     		str	r3, [r4, #16]
 751              		.loc 1 1069 0
 752 0042 2369     		ldr	r3, [r4, #16]
 753 0044 43F01003 		orr	r3, r3, #16
 754 0048 2361     		str	r3, [r4, #16]
 755 004a 114B     		ldr	r3, .L78+12
 756              		.loc 1 1070 0
 757 004c 0DB1     		cbz	r5, .L75
 758              		.loc 1 1072 0
 759 004e 0022     		movs	r2, #0
 760 0050 00E0     		b	.L77
 761              	.L75:
 762              		.loc 1 1076 0
 763 0052 A522     		movs	r2, #165
 764              	.L77:
 765 0054 1A80     		strh	r2, [r3, #0]	@ movhi
 766              		.loc 1 1079 0
 767 0056 4FF43020 		mov	r0, #720896
 768              	.LVL43:
 769 005a FFF7FEFF 		bl	FLASH_WaitForLastOperation
 770              	.LVL44:
 771              		.loc 1 1081 0
 772 005e 0528     		cmp	r0, #5
 773 0060 0FD0     		beq	.L73
 774              		.loc 1 1084 0
 775 0062 084A     		ldr	r2, .L78
 776 0064 41F6EF73 		movw	r3, #8175
 777 0068 1169     		ldr	r1, [r2, #16]
 778 006a 01EA0303 		and	r3, r1, r3
 779 006e 1361     		str	r3, [r2, #16]
 780 0070 38BD     		pop	{r3, r4, r5, pc}
 781              	.L74:
 782              		.loc 1 1089 0
 783 0072 0528     		cmp	r0, #5
 784 0074 05D0     		beq	.L73
 785              		.loc 1 1092 0
 786 0076 2269     		ldr	r2, [r4, #16]
 787 0078 41F6DF73 		movw	r3, #8159
 788 007c 02EA0303 		and	r3, r2, r3
 789 0080 2361     		str	r3, [r4, #16]
 790              	.LVL45:
 791              	.L73:
 792              		.loc 1 1098 0
 793 0082 38BD     		pop	{r3, r4, r5, pc}
 794              	.L79:
ARM GAS  /tmp/ccz3NjuA.s 			page 15


 795              		.align	2
 796              	.L78:
 797 0084 00200240 		.word	1073881088
 798 0088 23016745 		.word	1164378403
 799 008c AB89EFCD 		.word	-839939669
 800 0090 00F8FF1F 		.word	536868864
 801              		.cfi_endproc
 802              	.LFE70:
 803              		.size	FLASH_ReadOutProtection, .-FLASH_ReadOutProtection
 804              		.section	.text.FLASH_EnableWriteProtection,"ax",%progbits
 805              		.align	1
 806              		.global	FLASH_EnableWriteProtection
 807              		.thumb
 808              		.thumb_func
 809              		.type	FLASH_EnableWriteProtection, %function
 810              	FLASH_EnableWriteProtection:
 811              	.LFB69:
 812              		.loc 1 976 0
 813              		.cfi_startproc
 814              		@ args = 0, pretend = 0, frame = 0
 815              		@ frame_needed = 0, uses_anonymous_args = 0
 816              	.LVL46:
 817 0000 10B5     		push	{r4, lr}
 818              	.LCFI3:
 819              		.cfi_def_cfa_offset 8
 820              		.loc 1 976 0
 821 0002 0446     		mov	r4, r0
 822              		.cfi_offset 14, -4
 823              		.cfi_offset 4, -8
 824              	.LVL47:
 825              		.loc 1 991 0
 826 0004 4FF40050 		mov	r0, #8192
 827              	.LVL48:
 828 0008 FFF7FEFF 		bl	FLASH_WaitForLastOperation
 829              	.LVL49:
 830              		.loc 1 993 0
 831 000c 0428     		cmp	r0, #4
 832 000e 42D1     		bne	.L81
 833              		.loc 1 996 0
 834 0010 214B     		ldr	r3, .L90
 835 0012 2249     		ldr	r1, .L90+4
 836              		.loc 1 984 0
 837 0014 E443     		mvns	r4, r4
 838              	.LVL50:
 839              		.loc 1 996 0
 840 0016 9960     		str	r1, [r3, #8]
 841              		.loc 1 997 0
 842 0018 2149     		ldr	r1, .L90+8
 843              		.loc 1 985 0
 844 001a E2B2     		uxtb	r2, r4
 845              		.loc 1 997 0
 846 001c 9960     		str	r1, [r3, #8]
 847              		.loc 1 998 0
 848 001e 1969     		ldr	r1, [r3, #16]
 849              		.loc 1 999 0
 850 0020 FF2A     		cmp	r2, #255
 851              		.loc 1 998 0
ARM GAS  /tmp/ccz3NjuA.s 			page 16


 852 0022 41F01001 		orr	r1, r1, #16
 853 0026 1961     		str	r1, [r3, #16]
 854              		.loc 1 999 0
 855 0028 07D0     		beq	.L82
 856              		.loc 1 1001 0
 857 002a 1E4B     		ldr	r3, .L90+12
 858              		.loc 1 1004 0
 859 002c 4FF40050 		mov	r0, #8192
 860              	.LVL51:
 861              		.loc 1 1001 0
 862 0030 1A81     		strh	r2, [r3, #8]	@ movhi
 863              		.loc 1 1004 0
 864 0032 FFF7FEFF 		bl	FLASH_WaitForLastOperation
 865              	.LVL52:
 866              		.loc 1 1006 0
 867 0036 0428     		cmp	r0, #4
 868 0038 22D1     		bne	.L86
 869              	.LVL53:
 870              	.L82:
 871              		.loc 1 986 0 discriminator 1
 872 003a 04F47F43 		and	r3, r4, #65280
 873 003e 1B0A     		lsrs	r3, r3, #8
 874              		.loc 1 1006 0 discriminator 1
 875 0040 FF2B     		cmp	r3, #255
 876 0042 07D0     		beq	.L84
 877              		.loc 1 1008 0
 878 0044 174A     		ldr	r2, .L90+12
 879              		.loc 1 1011 0
 880 0046 4FF40050 		mov	r0, #8192
 881              		.loc 1 1008 0
 882 004a 5381     		strh	r3, [r2, #10]	@ movhi
 883              		.loc 1 1011 0
 884 004c FFF7FEFF 		bl	FLASH_WaitForLastOperation
 885              	.LVL54:
 886              		.loc 1 1013 0
 887 0050 0428     		cmp	r0, #4
 888 0052 15D1     		bne	.L86
 889              	.LVL55:
 890              	.L84:
 891              		.loc 1 987 0 discriminator 1
 892 0054 04F47F03 		and	r3, r4, #16711680
 893 0058 1B0C     		lsrs	r3, r3, #16
 894              		.loc 1 1013 0 discriminator 1
 895 005a FF2B     		cmp	r3, #255
 896 005c 07D0     		beq	.L85
 897              		.loc 1 1015 0
 898 005e 114A     		ldr	r2, .L90+12
 899              		.loc 1 1018 0
 900 0060 4FF40050 		mov	r0, #8192
 901              		.loc 1 1015 0
 902 0064 9381     		strh	r3, [r2, #12]	@ movhi
 903              		.loc 1 1018 0
 904 0066 FFF7FEFF 		bl	FLASH_WaitForLastOperation
 905              	.LVL56:
 906              		.loc 1 1021 0
 907 006a 0428     		cmp	r0, #4
 908 006c 08D1     		bne	.L86
ARM GAS  /tmp/ccz3NjuA.s 			page 17


 909              	.LVL57:
 910              	.L85:
 911              		.loc 1 988 0 discriminator 1
 912 006e 240E     		lsrs	r4, r4, #24
 913              	.LVL58:
 914              		.loc 1 1021 0 discriminator 1
 915 0070 FF2C     		cmp	r4, #255
 916 0072 08D0     		beq	.L89
 917              		.loc 1 1023 0
 918 0074 0B4B     		ldr	r3, .L90+12
 919              		.loc 1 1026 0
 920 0076 4FF40050 		mov	r0, #8192
 921              		.loc 1 1023 0
 922 007a DC81     		strh	r4, [r3, #14]	@ movhi
 923              		.loc 1 1026 0
 924 007c FFF7FEFF 		bl	FLASH_WaitForLastOperation
 925              	.LVL59:
 926              	.L86:
 927              		.loc 1 1029 0
 928 0080 0528     		cmp	r0, #5
 929 0082 01D1     		bne	.L87
 930 0084 10BD     		pop	{r4, pc}
 931              	.LVL60:
 932              	.L89:
 933              		.loc 1 1021 0
 934 0086 0420     		movs	r0, #4
 935              	.L87:
 936              		.loc 1 1032 0
 937 0088 034A     		ldr	r2, .L90
 938 008a 41F6EF73 		movw	r3, #8175
 939 008e 1169     		ldr	r1, [r2, #16]
 940 0090 01EA0303 		and	r3, r1, r3
 941 0094 1361     		str	r3, [r2, #16]
 942              	.L81:
 943              	.LVL61:
 944              		.loc 1 1037 0
 945 0096 10BD     		pop	{r4, pc}
 946              	.L91:
 947              		.align	2
 948              	.L90:
 949 0098 00200240 		.word	1073881088
 950 009c 23016745 		.word	1164378403
 951 00a0 AB89EFCD 		.word	-839939669
 952 00a4 00F8FF1F 		.word	536868864
 953              		.cfi_endproc
 954              	.LFE69:
 955              		.size	FLASH_EnableWriteProtection, .-FLASH_EnableWriteProtection
 956              		.section	.text.FLASH_ProgramOptionByteData,"ax",%progbits
 957              		.align	1
 958              		.global	FLASH_ProgramOptionByteData
 959              		.thumb
 960              		.thumb_func
 961              		.type	FLASH_ProgramOptionByteData, %function
 962              	FLASH_ProgramOptionByteData:
 963              	.LFB68:
 964              		.loc 1 930 0
 965              		.cfi_startproc
ARM GAS  /tmp/ccz3NjuA.s 			page 18


 966              		@ args = 0, pretend = 0, frame = 0
 967              		@ frame_needed = 0, uses_anonymous_args = 0
 968              	.LVL62:
 969 0000 70B5     		push	{r4, r5, r6, lr}
 970              	.LCFI4:
 971              		.cfi_def_cfa_offset 16
 972              		.loc 1 930 0
 973 0002 0446     		mov	r4, r0
 974              		.cfi_offset 14, -4
 975              		.cfi_offset 6, -8
 976              		.cfi_offset 5, -12
 977              		.cfi_offset 4, -16
 978              		.loc 1 934 0
 979 0004 4FF40050 		mov	r0, #8192
 980              	.LVL63:
 981              		.loc 1 930 0
 982 0008 0E46     		mov	r6, r1
 983              		.loc 1 934 0
 984 000a FFF7FEFF 		bl	FLASH_WaitForLastOperation
 985              	.LVL64:
 986              		.loc 1 936 0
 987 000e 0428     		cmp	r0, #4
 988 0010 15D1     		bne	.L93
 989              		.loc 1 939 0
 990 0012 0B4D     		ldr	r5, .L94
 991 0014 0B4B     		ldr	r3, .L94+4
 992              		.loc 1 946 0
 993 0016 4FF40050 		mov	r0, #8192
 994              	.LVL65:
 995              		.loc 1 939 0
 996 001a AB60     		str	r3, [r5, #8]
 997              		.loc 1 940 0
 998 001c 0A4B     		ldr	r3, .L94+8
 999 001e AB60     		str	r3, [r5, #8]
 1000              		.loc 1 942 0
 1001 0020 2B69     		ldr	r3, [r5, #16]
 1002 0022 43F01003 		orr	r3, r3, #16
 1003 0026 2B61     		str	r3, [r5, #16]
 1004              		.loc 1 943 0
 1005 0028 2680     		strh	r6, [r4, #0]	@ movhi
 1006              		.loc 1 946 0
 1007 002a FFF7FEFF 		bl	FLASH_WaitForLastOperation
 1008              	.LVL66:
 1009              		.loc 1 947 0
 1010 002e 0528     		cmp	r0, #5
 1011 0030 05D0     		beq	.L93
 1012              		.loc 1 950 0
 1013 0032 2A69     		ldr	r2, [r5, #16]
 1014 0034 41F6EF73 		movw	r3, #8175
 1015 0038 02EA0303 		and	r3, r2, r3
 1016 003c 2B61     		str	r3, [r5, #16]
 1017              	.LVL67:
 1018              	.L93:
 1019              		.loc 1 955 0
 1020 003e 70BD     		pop	{r4, r5, r6, pc}
 1021              	.L95:
 1022              		.align	2
ARM GAS  /tmp/ccz3NjuA.s 			page 19


 1023              	.L94:
 1024 0040 00200240 		.word	1073881088
 1025 0044 23016745 		.word	1164378403
 1026 0048 AB89EFCD 		.word	-839939669
 1027              		.cfi_endproc
 1028              	.LFE68:
 1029              		.size	FLASH_ProgramOptionByteData, .-FLASH_ProgramOptionByteData
 1030              		.section	.text.FLASH_ProgramHalfWord,"ax",%progbits
 1031              		.align	1
 1032              		.global	FLASH_ProgramHalfWord
 1033              		.thumb
 1034              		.thumb_func
 1035              		.type	FLASH_ProgramHalfWord, %function
 1036              	FLASH_ProgramHalfWord:
 1037              	.LFB67:
 1038              		.loc 1 859 0
 1039              		.cfi_startproc
 1040              		@ args = 0, pretend = 0, frame = 0
 1041              		@ frame_needed = 0, uses_anonymous_args = 0
 1042              	.LVL68:
 1043 0000 70B5     		push	{r4, r5, r6, lr}
 1044              	.LCFI5:
 1045              		.cfi_def_cfa_offset 16
 1046              		.loc 1 859 0
 1047 0002 0446     		mov	r4, r0
 1048              		.cfi_offset 14, -4
 1049              		.cfi_offset 6, -8
 1050              		.cfi_offset 5, -12
 1051              		.cfi_offset 4, -16
 1052              		.loc 1 900 0
 1053 0004 4FF40050 		mov	r0, #8192
 1054              	.LVL69:
 1055              		.loc 1 859 0
 1056 0008 0E46     		mov	r6, r1
 1057              		.loc 1 900 0
 1058 000a FFF7FEFF 		bl	FLASH_WaitForLastOperation
 1059              	.LVL70:
 1060              		.loc 1 902 0
 1061 000e 0428     		cmp	r0, #4
 1062 0010 0FD1     		bne	.L97
 1063              		.loc 1 905 0
 1064 0012 084D     		ldr	r5, .L98
 1065              		.loc 1 909 0
 1066 0014 4FF40050 		mov	r0, #8192
 1067              	.LVL71:
 1068              		.loc 1 905 0
 1069 0018 2B69     		ldr	r3, [r5, #16]
 1070 001a 43F00103 		orr	r3, r3, #1
 1071 001e 2B61     		str	r3, [r5, #16]
 1072              		.loc 1 907 0
 1073 0020 2680     		strh	r6, [r4, #0]	@ movhi
 1074              		.loc 1 909 0
 1075 0022 FFF7FEFF 		bl	FLASH_WaitForLastOperation
 1076              	.LVL72:
 1077              		.loc 1 912 0
 1078 0026 2A69     		ldr	r2, [r5, #16]
 1079 0028 41F6FE73 		movw	r3, #8190
ARM GAS  /tmp/ccz3NjuA.s 			page 20


 1080 002c 02EA0303 		and	r3, r2, r3
 1081 0030 2B61     		str	r3, [r5, #16]
 1082              	.LVL73:
 1083              	.L97:
 1084              		.loc 1 918 0
 1085 0032 70BD     		pop	{r4, r5, r6, pc}
 1086              	.L99:
 1087              		.align	2
 1088              	.L98:
 1089 0034 00200240 		.word	1073881088
 1090              		.cfi_endproc
 1091              	.LFE67:
 1092              		.size	FLASH_ProgramHalfWord, .-FLASH_ProgramHalfWord
 1093              		.section	.text.FLASH_ProgramWord,"ax",%progbits
 1094              		.align	1
 1095              		.global	FLASH_ProgramWord
 1096              		.thumb
 1097              		.thumb_func
 1098              		.type	FLASH_ProgramWord, %function
 1099              	FLASH_ProgramWord:
 1100              	.LFB66:
 1101              		.loc 1 682 0
 1102              		.cfi_startproc
 1103              		@ args = 0, pretend = 0, frame = 8
 1104              		@ frame_needed = 0, uses_anonymous_args = 0
 1105              	.LVL74:
 1106 0000 73B5     		push	{r0, r1, r4, r5, r6, lr}
 1107              	.LCFI6:
 1108              		.cfi_def_cfa_offset 24
 1109              		.loc 1 684 0
 1110 0002 0023     		movs	r3, #0
 1111              		.loc 1 682 0
 1112 0004 0446     		mov	r4, r0
 1113              		.cfi_offset 14, -4
 1114              		.cfi_offset 6, -8
 1115              		.cfi_offset 5, -12
 1116              		.cfi_offset 4, -16
 1117              		.cfi_offset 1, -20
 1118              		.cfi_offset 0, -24
 1119              		.loc 1 812 0
 1120 0006 4FF40050 		mov	r0, #8192
 1121              	.LVL75:
 1122              		.loc 1 682 0
 1123 000a 0E46     		mov	r6, r1
 1124              		.loc 1 684 0
 1125 000c 0193     		str	r3, [sp, #4]
 1126              	.LVL76:
 1127              		.loc 1 812 0
 1128 000e FFF7FEFF 		bl	FLASH_WaitForLastOperation
 1129              	.LVL77:
 1130              		.loc 1 814 0
 1131 0012 0428     		cmp	r0, #4
 1132 0014 1AD1     		bne	.L101
 1133              		.loc 1 818 0
 1134 0016 0E4D     		ldr	r5, .L103
 1135              		.loc 1 822 0
 1136 0018 4FF40050 		mov	r0, #8192
ARM GAS  /tmp/ccz3NjuA.s 			page 21


 1137              	.LVL78:
 1138              		.loc 1 818 0
 1139 001c 2B69     		ldr	r3, [r5, #16]
 1140 001e 43F00103 		orr	r3, r3, #1
 1141 0022 2B61     		str	r3, [r5, #16]
 1142              		.loc 1 820 0
 1143 0024 2680     		strh	r6, [r4, #0]	@ movhi
 1144              		.loc 1 822 0
 1145 0026 FFF7FEFF 		bl	FLASH_WaitForLastOperation
 1146              	.LVL79:
 1147              		.loc 1 824 0
 1148 002a 0428     		cmp	r0, #4
 1149 002c 08D1     		bne	.L102
 1150              		.loc 1 828 0
 1151 002e 0234     		adds	r4, r4, #2
 1152              	.LVL80:
 1153 0030 0194     		str	r4, [sp, #4]
 1154              	.LVL81:
 1155              		.loc 1 830 0
 1156 0032 019B     		ldr	r3, [sp, #4]
 1157 0034 360C     		lsrs	r6, r6, #16
 1158              	.LVL82:
 1159 0036 1E80     		strh	r6, [r3, #0]	@ movhi
 1160              		.loc 1 833 0
 1161 0038 4FF40050 		mov	r0, #8192
 1162              	.LVL83:
 1163 003c FFF7FEFF 		bl	FLASH_WaitForLastOperation
 1164              	.LVL84:
 1165              	.L102:
 1166              		.loc 1 841 0
 1167 0040 2A69     		ldr	r2, [r5, #16]
 1168 0042 41F6FE73 		movw	r3, #8190
 1169 0046 02EA0303 		and	r3, r2, r3
 1170 004a 2B61     		str	r3, [r5, #16]
 1171              	.L101:
 1172              	.LVL85:
 1173              		.loc 1 848 0
 1174 004c 7CBD     		pop	{r2, r3, r4, r5, r6, pc}
 1175              	.L104:
 1176 004e 00BF     		.align	2
 1177              	.L103:
 1178 0050 00200240 		.word	1073881088
 1179              		.cfi_endproc
 1180              	.LFE66:
 1181              		.size	FLASH_ProgramWord, .-FLASH_ProgramWord
 1182              		.section	.text.FLASH_EraseOptionBytes,"ax",%progbits
 1183              		.align	1
 1184              		.global	FLASH_EraseOptionBytes
 1185              		.thumb
 1186              		.thumb_func
 1187              		.type	FLASH_EraseOptionBytes, %function
 1188              	FLASH_EraseOptionBytes:
 1189              	.LFB65:
 1190              		.loc 1 617 0
 1191              		.cfi_startproc
 1192              		@ args = 0, pretend = 0, frame = 0
 1193              		@ frame_needed = 0, uses_anonymous_args = 0
ARM GAS  /tmp/ccz3NjuA.s 			page 22


 1194              	.LVL86:
 1195 0000 38B5     		push	{r3, r4, r5, lr}
 1196              	.LCFI7:
 1197              		.cfi_def_cfa_offset 16
 1198              		.loc 1 623 0
 1199              		.cfi_offset 14, -4
 1200              		.cfi_offset 5, -8
 1201              		.cfi_offset 4, -12
 1202              		.cfi_offset 3, -16
 1203 0002 FFF7FEFF 		bl	FLASH_GetReadOutProtectionStatus
 1204              		.loc 1 618 0
 1205 0006 0028     		cmp	r0, #0
 1206 0008 0CBF     		ite	eq
 1207 000a A525     		moveq	r5, #165
 1208 000c 0025     		movne	r5, #0
 1209              	.LVL87:
 1210              		.loc 1 629 0
 1211 000e 4FF43020 		mov	r0, #720896
 1212 0012 FFF7FEFF 		bl	FLASH_WaitForLastOperation
 1213              	.LVL88:
 1214              		.loc 1 630 0
 1215 0016 0428     		cmp	r0, #4
 1216 0018 33D1     		bne	.L107
 1217              		.loc 1 633 0
 1218 001a 1A4C     		ldr	r4, .L110
 1219 001c 1A4B     		ldr	r3, .L110+4
 1220              		.loc 1 640 0
 1221 001e 4FF43020 		mov	r0, #720896
 1222              	.LVL89:
 1223              		.loc 1 633 0
 1224 0022 A360     		str	r3, [r4, #8]
 1225              		.loc 1 634 0
 1226 0024 194B     		ldr	r3, .L110+8
 1227 0026 A360     		str	r3, [r4, #8]
 1228              		.loc 1 637 0
 1229 0028 2369     		ldr	r3, [r4, #16]
 1230 002a 43F02003 		orr	r3, r3, #32
 1231 002e 2361     		str	r3, [r4, #16]
 1232              		.loc 1 638 0
 1233 0030 2369     		ldr	r3, [r4, #16]
 1234 0032 43F04003 		orr	r3, r3, #64
 1235 0036 2361     		str	r3, [r4, #16]
 1236              		.loc 1 640 0
 1237 0038 FFF7FEFF 		bl	FLASH_WaitForLastOperation
 1238              	.LVL90:
 1239              		.loc 1 642 0
 1240 003c 0428     		cmp	r0, #4
 1241 003e 18D1     		bne	.L108
 1242              		.loc 1 645 0
 1243 0040 2269     		ldr	r2, [r4, #16]
 1244 0042 41F6DF73 		movw	r3, #8159
 1245 0046 02EA0303 		and	r3, r2, r3
 1246 004a 2361     		str	r3, [r4, #16]
 1247              		.loc 1 648 0
 1248 004c 2369     		ldr	r3, [r4, #16]
 1249              		.loc 1 652 0
 1250 004e 4FF40050 		mov	r0, #8192
ARM GAS  /tmp/ccz3NjuA.s 			page 23


 1251              	.LVL91:
 1252              		.loc 1 648 0
 1253 0052 43F01003 		orr	r3, r3, #16
 1254 0056 2361     		str	r3, [r4, #16]
 1255              		.loc 1 650 0
 1256 0058 0D4B     		ldr	r3, .L110+12
 1257 005a 1D80     		strh	r5, [r3, #0]	@ movhi
 1258              		.loc 1 652 0
 1259 005c FFF7FEFF 		bl	FLASH_WaitForLastOperation
 1260              	.LVL92:
 1261              		.loc 1 654 0
 1262 0060 0528     		cmp	r0, #5
 1263 0062 0ED0     		beq	.L107
 1264              		.loc 1 657 0
 1265 0064 2269     		ldr	r2, [r4, #16]
 1266 0066 41F6EF73 		movw	r3, #8175
 1267 006a 02EA0303 		and	r3, r2, r3
 1268 006e 2361     		str	r3, [r4, #16]
 1269 0070 38BD     		pop	{r3, r4, r5, pc}
 1270              	.L108:
 1271              		.loc 1 662 0
 1272 0072 0528     		cmp	r0, #5
 1273 0074 05D0     		beq	.L107
 1274              		.loc 1 665 0
 1275 0076 2269     		ldr	r2, [r4, #16]
 1276 0078 41F6EF73 		movw	r3, #8175
 1277 007c 02EA0303 		and	r3, r2, r3
 1278 0080 2361     		str	r3, [r4, #16]
 1279              	.LVL93:
 1280              	.L107:
 1281              		.loc 1 671 0
 1282 0082 38BD     		pop	{r3, r4, r5, pc}
 1283              	.L111:
 1284              		.align	2
 1285              	.L110:
 1286 0084 00200240 		.word	1073881088
 1287 0088 23016745 		.word	1164378403
 1288 008c AB89EFCD 		.word	-839939669
 1289 0090 00F8FF1F 		.word	536868864
 1290              		.cfi_endproc
 1291              	.LFE65:
 1292              		.size	FLASH_EraseOptionBytes, .-FLASH_EraseOptionBytes
 1293              		.section	.text.FLASH_EraseAllPages,"ax",%progbits
 1294              		.align	1
 1295              		.global	FLASH_EraseAllPages
 1296              		.thumb
 1297              		.thumb_func
 1298              		.type	FLASH_EraseAllPages, %function
 1299              	FLASH_EraseAllPages:
 1300              	.LFB63:
 1301              		.loc 1 493 0
 1302              		.cfi_startproc
 1303              		@ args = 0, pretend = 0, frame = 0
 1304              		@ frame_needed = 0, uses_anonymous_args = 0
 1305              	.LVL94:
 1306 0000 10B5     		push	{r4, lr}
 1307              	.LCFI8:
ARM GAS  /tmp/ccz3NjuA.s 			page 24


 1308              		.cfi_def_cfa_offset 8
 1309              		.loc 1 526 0
 1310 0002 4FF43020 		mov	r0, #720896
 1311              		.cfi_offset 14, -4
 1312              		.cfi_offset 4, -8
 1313 0006 FFF7FEFF 		bl	FLASH_WaitForLastOperation
 1314              	.LVL95:
 1315              		.loc 1 527 0
 1316 000a 0428     		cmp	r0, #4
 1317 000c 12D1     		bne	.L113
 1318              		.loc 1 530 0
 1319 000e 0A4C     		ldr	r4, .L114
 1320              		.loc 1 534 0
 1321 0010 4FF43020 		mov	r0, #720896
 1322              	.LVL96:
 1323              		.loc 1 530 0
 1324 0014 2369     		ldr	r3, [r4, #16]
 1325 0016 43F00403 		orr	r3, r3, #4
 1326 001a 2361     		str	r3, [r4, #16]
 1327              		.loc 1 531 0
 1328 001c 2369     		ldr	r3, [r4, #16]
 1329 001e 43F04003 		orr	r3, r3, #64
 1330 0022 2361     		str	r3, [r4, #16]
 1331              		.loc 1 534 0
 1332 0024 FFF7FEFF 		bl	FLASH_WaitForLastOperation
 1333              	.LVL97:
 1334              		.loc 1 537 0
 1335 0028 2269     		ldr	r2, [r4, #16]
 1336 002a 41F6FB73 		movw	r3, #8187
 1337 002e 02EA0303 		and	r3, r2, r3
 1338 0032 2361     		str	r3, [r4, #16]
 1339              	.LVL98:
 1340              	.L113:
 1341              		.loc 1 543 0
 1342 0034 10BD     		pop	{r4, pc}
 1343              	.L115:
 1344 0036 00BF     		.align	2
 1345              	.L114:
 1346 0038 00200240 		.word	1073881088
 1347              		.cfi_endproc
 1348              	.LFE63:
 1349              		.size	FLASH_EraseAllPages, .-FLASH_EraseAllPages
 1350              		.section	.text.FLASH_ErasePage,"ax",%progbits
 1351              		.align	1
 1352              		.global	FLASH_ErasePage
 1353              		.thumb
 1354              		.thumb_func
 1355              		.type	FLASH_ErasePage, %function
 1356              	FLASH_ErasePage:
 1357              	.LFB62:
 1358              		.loc 1 420 0
 1359              		.cfi_startproc
 1360              		@ args = 0, pretend = 0, frame = 0
 1361              		@ frame_needed = 0, uses_anonymous_args = 0
 1362              	.LVL99:
 1363 0000 38B5     		push	{r3, r4, r5, lr}
 1364              	.LCFI9:
ARM GAS  /tmp/ccz3NjuA.s 			page 25


 1365              		.cfi_def_cfa_offset 16
 1366              		.loc 1 420 0
 1367 0002 0546     		mov	r5, r0
 1368              		.cfi_offset 14, -4
 1369              		.cfi_offset 5, -8
 1370              		.cfi_offset 4, -12
 1371              		.cfi_offset 3, -16
 1372              		.loc 1 464 0
 1373 0004 4FF43020 		mov	r0, #720896
 1374              	.LVL100:
 1375 0008 FFF7FEFF 		bl	FLASH_WaitForLastOperation
 1376              	.LVL101:
 1377              		.loc 1 466 0
 1378 000c 0428     		cmp	r0, #4
 1379 000e 13D1     		bne	.L117
 1380              		.loc 1 469 0
 1381 0010 0A4C     		ldr	r4, .L118
 1382              		.loc 1 474 0
 1383 0012 4FF43020 		mov	r0, #720896
 1384              	.LVL102:
 1385              		.loc 1 469 0
 1386 0016 2369     		ldr	r3, [r4, #16]
 1387 0018 43F00203 		orr	r3, r3, #2
 1388 001c 2361     		str	r3, [r4, #16]
 1389              		.loc 1 470 0
 1390 001e 6561     		str	r5, [r4, #20]
 1391              		.loc 1 471 0
 1392 0020 2369     		ldr	r3, [r4, #16]
 1393 0022 43F04003 		orr	r3, r3, #64
 1394 0026 2361     		str	r3, [r4, #16]
 1395              		.loc 1 474 0
 1396 0028 FFF7FEFF 		bl	FLASH_WaitForLastOperation
 1397              	.LVL103:
 1398              		.loc 1 477 0
 1399 002c 2269     		ldr	r2, [r4, #16]
 1400 002e 41F6FD73 		movw	r3, #8189
 1401 0032 02EA0303 		and	r3, r2, r3
 1402 0036 2361     		str	r3, [r4, #16]
 1403              	.LVL104:
 1404              	.L117:
 1405              		.loc 1 483 0
 1406 0038 38BD     		pop	{r3, r4, r5, pc}
 1407              	.L119:
 1408 003a 00BF     		.align	2
 1409              	.L118:
 1410 003c 00200240 		.word	1073881088
 1411              		.cfi_endproc
 1412              	.LFE62:
 1413              		.size	FLASH_ErasePage, .-FLASH_ErasePage
 1414              		.section	.text.FLASH_WaitForLastBank1Operation,"ax",%progbits
 1415              		.align	1
 1416              		.global	FLASH_WaitForLastBank1Operation
 1417              		.thumb
 1418              		.thumb_func
 1419              		.type	FLASH_WaitForLastBank1Operation, %function
 1420              	FLASH_WaitForLastBank1Operation:
 1421              	.LFB82:
ARM GAS  /tmp/ccz3NjuA.s 			page 26


 1422              		.loc 1 1624 0
 1423              		.cfi_startproc
 1424              		@ args = 0, pretend = 0, frame = 0
 1425              		@ frame_needed = 0, uses_anonymous_args = 0
 1426              	.LVL105:
 1427 0000 10B5     		push	{r4, lr}
 1428              	.LCFI10:
 1429              		.cfi_def_cfa_offset 8
 1430              		.loc 1 1624 0
 1431 0002 0446     		mov	r4, r0
 1432              		.cfi_offset 14, -4
 1433              		.cfi_offset 4, -8
 1434              		.loc 1 1628 0
 1435 0004 FFF7FEFF 		bl	FLASH_GetBank1Status
 1436              	.LVL106:
 1437              		.loc 1 1630 0
 1438 0008 02E0     		b	.L121
 1439              	.L123:
 1440              		.loc 1 1632 0
 1441 000a FFF7FEFF 		bl	FLASH_GetBank1Status
 1442              	.LVL107:
 1443              		.loc 1 1633 0
 1444 000e 013C     		subs	r4, r4, #1
 1445              	.LVL108:
 1446              	.L121:
 1447              		.loc 1 1630 0 discriminator 1
 1448 0010 0128     		cmp	r0, #1
 1449 0012 03D1     		bne	.L122
 1450              		.loc 1 1630 0 is_stmt 0 discriminator 2
 1451 0014 002C     		cmp	r4, #0
 1452 0016 F8D1     		bne	.L123
 1453              		.loc 1 1637 0 is_stmt 1
 1454 0018 0430     		adds	r0, r0, #4
 1455              	.LVL109:
 1456 001a 10BD     		pop	{r4, pc}
 1457              	.LVL110:
 1458              	.L122:
 1459 001c 002C     		cmp	r4, #0
 1460 001e 08BF     		it	eq
 1461 0020 0520     		moveq	r0, #5
 1462              	.LVL111:
 1463              		.loc 1 1641 0
 1464 0022 10BD     		pop	{r4, pc}
 1465              		.cfi_endproc
 1466              	.LFE82:
 1467              		.size	FLASH_WaitForLastBank1Operation, .-FLASH_WaitForLastBank1Operation
 1468              		.section	.text.FLASH_EraseAllBank1Pages,"ax",%progbits
 1469              		.align	1
 1470              		.global	FLASH_EraseAllBank1Pages
 1471              		.thumb
 1472              		.thumb_func
 1473              		.type	FLASH_EraseAllBank1Pages, %function
 1474              	FLASH_EraseAllBank1Pages:
 1475              	.LFB64:
 1476              		.loc 1 556 0
 1477              		.cfi_startproc
 1478              		@ args = 0, pretend = 0, frame = 0
ARM GAS  /tmp/ccz3NjuA.s 			page 27


 1479              		@ frame_needed = 0, uses_anonymous_args = 0
 1480              	.LVL112:
 1481 0000 10B5     		push	{r4, lr}
 1482              	.LCFI11:
 1483              		.cfi_def_cfa_offset 8
 1484              		.loc 1 559 0
 1485 0002 4FF43020 		mov	r0, #720896
 1486              		.cfi_offset 14, -4
 1487              		.cfi_offset 4, -8
 1488 0006 FFF7FEFF 		bl	FLASH_WaitForLastBank1Operation
 1489              	.LVL113:
 1490              		.loc 1 561 0
 1491 000a 0428     		cmp	r0, #4
 1492 000c 12D1     		bne	.L127
 1493              		.loc 1 564 0
 1494 000e 0A4C     		ldr	r4, .L128
 1495              		.loc 1 568 0
 1496 0010 4FF43020 		mov	r0, #720896
 1497              	.LVL114:
 1498              		.loc 1 564 0
 1499 0014 2369     		ldr	r3, [r4, #16]
 1500 0016 43F00403 		orr	r3, r3, #4
 1501 001a 2361     		str	r3, [r4, #16]
 1502              		.loc 1 565 0
 1503 001c 2369     		ldr	r3, [r4, #16]
 1504 001e 43F04003 		orr	r3, r3, #64
 1505 0022 2361     		str	r3, [r4, #16]
 1506              		.loc 1 568 0
 1507 0024 FFF7FEFF 		bl	FLASH_WaitForLastBank1Operation
 1508              	.LVL115:
 1509              		.loc 1 571 0
 1510 0028 2269     		ldr	r2, [r4, #16]
 1511 002a 41F6FB73 		movw	r3, #8187
 1512 002e 02EA0303 		and	r3, r2, r3
 1513 0032 2361     		str	r3, [r4, #16]
 1514              	.LVL116:
 1515              	.L127:
 1516              		.loc 1 575 0
 1517 0034 10BD     		pop	{r4, pc}
 1518              	.L129:
 1519 0036 00BF     		.align	2
 1520              	.L128:
 1521 0038 00200240 		.word	1073881088
 1522              		.cfi_endproc
 1523              	.LFE64:
 1524              		.size	FLASH_EraseAllBank1Pages, .-FLASH_EraseAllBank1Pages
 1525              		.text
 1526              	.Letext0: