ARM GAS  /tmp/ccz3NjuA.s 			page 1


   1              		.syntax unified
   2              		.cpu cortex-m3
   3              		.fpu softvfp
   4              		.eabi_attribute 20, 1
   5              		.eabi_attribute 21, 1
   6              		.eabi_attribute 23, 3
   7              		.eabi_attribute 24, 1
   8              		.eabi_attribute 25, 1
   9              		.eabi_attribute 26, 1
  10              		.eabi_attribute 30, 4
  11              		.eabi_attribute 18, 4
  12              		.thumb
  13              		.file	"stm32f10x_flash.c"
  14              		.section	.debug_abbrev,"",%progbits
  15              	.Ldebug_abbrev0:
  16              		.section	.debug_info,"",%progbits
  17              	.Ldebug_info0:
  18              		.section	.debug_line,"",%progbits
  19              	.Ldebug_line0:
  20 0000 6A040000 		.text
  20      02002D01 
  20      00000201 
  20      FB0E0D00 
  20      01010101 
  21              	.Ltext0:
  22              		.cfi_sections	.debug_frame
  23              		.section	.text.FLASH_SetLatency,"ax",%progbits
  24              		.align	1
  25              		.global	FLASH_SetLatency
  26              		.thumb
  27              		.thumb_func
  28              		.type	FLASH_SetLatency, %function
  29              	FLASH_SetLatency:
  30              	.LFB55:
  31              		.file 1 "stm32f10x_flash.c"
  32              		.loc 1 255 0
  33              		.cfi_startproc
  34              		@ args = 0, pretend = 0, frame = 0
  35              		@ frame_needed = 0, uses_anonymous_args = 0
  36              		@ link register save eliminated.
  37              	.LVL0:
  38              		.loc 1 262 0
  39 0000 034B     		ldr	r3, .L2
  40 0002 1A68     		ldr	r2, [r3, #0]
  41              	.LVL1:
  42              		.loc 1 265 0
  43 0004 02F03802 		and	r2, r2, #56
  44              	.LVL2:
  45              		.loc 1 266 0
  46 0008 40EA0202 		orr	r2, r0, r2
  47              	.LVL3:
  48              		.loc 1 269 0
  49 000c 1A60     		str	r2, [r3, #0]
  50              		.loc 1 270 0
  51 000e 7047     		bx	lr
  52              	.L3:
  53              		.align	2
ARM GAS  /tmp/ccz3NjuA.s 			page 2


  54              	.L2:
  55 0010 00200240 		.word	1073881088
  56              		.cfi_endproc
  57              	.LFE55:
  58              		.size	FLASH_SetLatency, .-FLASH_SetLatency
  59              		.section	.text.FLASH_HalfCycleAccessCmd,"ax",%progbits
  60              		.align	1
  61              		.global	FLASH_HalfCycleAccessCmd
  62              		.thumb
  63              		.thumb_func
  64              		.type	FLASH_HalfCycleAccessCmd, %function
  65              	FLASH_HalfCycleAccessCmd:
  66              	.LFB56:
  67              		.loc 1 282 0
  68              		.cfi_startproc
  69              		@ args = 0, pretend = 0, frame = 0
  70              		@ frame_needed = 0, uses_anonymous_args = 0
  71              		@ link register save eliminated.
  72              	.LVL4:
  73              		.loc 1 287 0
  74 0000 044B     		ldr	r3, .L5
  75 0002 1A68     		ldr	r2, [r3, #0]
  76 0004 22F00802 		bic	r2, r2, #8
  77 0008 1A60     		str	r2, [r3, #0]
  78              		.loc 1 288 0
  79 000a 1A68     		ldr	r2, [r3, #0]
  80 000c 40EA0202 		orr	r2, r0, r2
  81 0010 1A60     		str	r2, [r3, #0]
  82              		.loc 1 289 0
  83 0012 7047     		bx	lr
  84              	.L6:
  85              		.align	2
  86              	.L5:
  87 0014 00200240 		.word	1073881088
  88              		.cfi_endproc
  89              	.LFE56:
  90              		.size	FLASH_HalfCycleAccessCmd, .-FLASH_HalfCycleAccessCmd
  91              		.section	.text.FLASH_PrefetchBufferCmd,"ax",%progbits
  92              		.align	1
  93              		.global	FLASH_PrefetchBufferCmd
  94              		.thumb
  95              		.thumb_func
  96              		.type	FLASH_PrefetchBufferCmd, %function
  97              	FLASH_PrefetchBufferCmd:
  98              	.LFB57:
  99              		.loc 1 301 0
 100              		.cfi_startproc
 101              		@ args = 0, pretend = 0, frame = 0
 102              		@ frame_needed = 0, uses_anonymous_args = 0
 103              		@ link register save eliminated.
 104              	.LVL5:
 105              		.loc 1 306 0
 106 0000 044B     		ldr	r3, .L8
 107 0002 1A68     		ldr	r2, [r3, #0]
 108 0004 22F01002 		bic	r2, r2, #16
 109 0008 1A60     		str	r2, [r3, #0]
 110              		.loc 1 307 0
ARM GAS  /tmp/ccz3NjuA.s 			page 3


 111 000a 1A68     		ldr	r2, [r3, #0]
 112 000c 40EA0202 		orr	r2, r0, r2
 113 0010 1A60     		str	r2, [r3, #0]
 114              		.loc 1 308 0
 115 0012 7047     		bx	lr
 116              	.L9:
 117              		.align	2
 118              	.L8:
 119 0014 00200240 		.word	1073881088
 120              		.cfi_endproc
 121              	.LFE57:
 122              		.size	FLASH_PrefetchBufferCmd, .-FLASH_PrefetchBufferCmd
 123              		.section	.text.FLASH_Unlock,"ax",%progbits
 124              		.align	1
 125              		.global	FLASH_Unlock
 126              		.thumb
 127              		.thumb_func
 128              		.type	FLASH_Unlock, %function
 129              	FLASH_Unlock:
 130              	.LFB58:
 131              		.loc 1 320 0
 132              		.cfi_startproc
 133              		@ args = 0, pretend = 0, frame = 0
 134              		@ frame_needed = 0, uses_anonymous_args = 0
 135              		@ link register save eliminated.
 136              		.loc 1 322 0
 137 0000 024B     		ldr	r3, .L11
 138 0002 034A     		ldr	r2, .L11+4
 139 0004 5A60     		str	r2, [r3, #4]
 140              		.loc 1 323 0
 141 0006 034A     		ldr	r2, .L11+8
 142 0008 5A60     		str	r2, [r3, #4]
 143              		.loc 1 330 0
 144 000a 7047     		bx	lr
 145              	.L12:
 146              		.align	2
 147              	.L11:
 148 000c 00200240 		.word	1073881088
 149 0010 23016745 		.word	1164378403
 150 0014 AB89EFCD 		.word	-839939669
 151              		.cfi_endproc
 152              	.LFE58:
 153              		.size	FLASH_Unlock, .-FLASH_Unlock
 154              		.section	.text.FLASH_UnlockBank1,"ax",%progbits
 155              		.align	1
 156              		.global	FLASH_UnlockBank1
 157              		.thumb
 158              		.thumb_func
 159              		.type	FLASH_UnlockBank1, %function
 160              	FLASH_UnlockBank1:
 161              	.LFB59:
 162              		.loc 1 341 0
 163              		.cfi_startproc
 164              		@ args = 0, pretend = 0, frame = 0
 165              		@ frame_needed = 0, uses_anonymous_args = 0
 166              		@ link register save eliminated.
 167              		.loc 1 343 0
ARM GAS  /tmp/ccz3NjuA.s 			page 4


 168 0000 024B     		ldr	r3, .L14
 169 0002 034A     		ldr	r2, .L14+4
 170 0004 5A60     		str	r2, [r3, #4]
 171              		.loc 1 344 0
 172 0006 034A     		ldr	r2, .L14+8
 173 0008 5A60     		str	r2, [r3, #4]
 174              		.loc 1 345 0
 175 000a 7047     		bx	lr
 176              	.L15:
 177              		.align	2
 178              	.L14:
 179 000c 00200240 		.word	1073881088
 180 0010 23016745 		.word	1164378403
 181 0014 AB89EFCD 		.word	-839939669
 182              		.cfi_endproc
 183              	.LFE59:
 184              		.size	FLASH_UnlockBank1, .-FLASH_UnlockBank1
 185              		.section	.text.FLASH_Lock,"ax",%progbits
 186              		.align	1
 187              		.global	FLASH_Lock
 188              		.thumb
 189              		.thumb_func
 190              		.type	FLASH_Lock, %function
 191              	FLASH_Lock:
 192              	.LFB60:
 193              		.loc 1 373 0
 194              		.cfi_startproc
 195              		@ args = 0, pretend = 0, frame = 0
 196              		@ frame_needed = 0, uses_anonymous_args = 0
 197              		@ link register save eliminated.
 198              		.loc 1 375 0
 199 0000 024B     		ldr	r3, .L17
 200 0002 1A69     		ldr	r2, [r3, #16]
 201 0004 42F08002 		orr	r2, r2, #128
 202 0008 1A61     		str	r2, [r3, #16]
 203              		.loc 1 381 0
 204 000a 7047     		bx	lr
 205              	.L18:
 206              		.align	2
 207              	.L17:
 208 000c 00200240 		.word	1073881088
 209              		.cfi_endproc
 210              	.LFE60:
 211              		.size	FLASH_Lock, .-FLASH_Lock
 212              		.section	.text.FLASH_LockBank1,"ax",%progbits
 213              		.align	1
 214              		.global	FLASH_LockBank1
 215              		.thumb
 216              		.thumb_func
 217              		.type	FLASH_LockBank1, %function
 218              	FLASH_LockBank1:
 219              	.LFB61:
 220              		.loc 1 393 0
 221              		.cfi_startproc
 222              		@ args = 0, pretend = 0, frame = 0
 223              		@ frame_needed = 0, uses_anonymous_args = 0
 224              		@ link register save eliminated.
ARM GAS  /tmp/ccz3NjuA.s 			page 5


 225              		.loc 1 395 0
 226 0000 024B     		ldr	r3, .L20
 227 0002 1A69     		ldr	r2, [r3, #16]
 228 0004 42F08002 		orr	r2, r2, #128
 229 0008 1A61     		str	r2, [r3, #16]
 230              		.loc 1 396 0
 231 000a 7047     		bx	lr
 232              	.L21:
 233              		.align	2
 234              	.L20:
 235 000c 00200240 		.word	1073881088
 236              		.cfi_endproc
 237              	.LFE61:
 238              		.size	FLASH_LockBank1, .-FLASH_LockBank1
 239              		.section	.text.FLASH_GetUserOptionByte,"ax",%progbits
 240              		.align	1
 241              		.global	FLASH_GetUserOptionByte
 242              		.thumb
 243              		.thumb_func
 244              		.type	FLASH_GetUserOptionByte, %function
 245              	FLASH_GetUserOptionByte:
 246              	.LFB72:
 247              		.loc 1 1217 0
 248              		.cfi_startproc
 249              		@ args = 0, pretend = 0, frame = 0
 250              		@ frame_needed = 0, uses_anonymous_args = 0
 251              		@ link register save eliminated.
 252              		.loc 1 1219 0
 253 0000 014B     		ldr	r3, .L23
 254 0002 D869     		ldr	r0, [r3, #28]
 255              		.loc 1 1220 0
 256 0004 8008     		lsrs	r0, r0, #2
 257 0006 7047     		bx	lr
 258              	.L24:
 259              		.align	2
 260              	.L23:
 261 0008 00200240 		.word	1073881088
 262              		.cfi_endproc
 263              	.LFE72:
 264              		.size	FLASH_GetUserOptionByte, .-FLASH_GetUserOptionByte
 265              		.section	.text.FLASH_GetWriteProtectionOptionByte,"ax",%progbits
 266              		.align	1
 267              		.global	FLASH_GetWriteProtectionOptionByte
 268              		.thumb
 269              		.thumb_func
 270              		.type	FLASH_GetWriteProtectionOptionByte, %function
 271              	FLASH_GetWriteProtectionOptionByte:
 272              	.LFB73:
 273              		.loc 1 1229 0
 274              		.cfi_startproc
 275              		@ args = 0, pretend = 0, frame = 0
 276              		@ frame_needed = 0, uses_anonymous_args = 0
 277              		@ link register save eliminated.
 278              		.loc 1 1231 0
 279 0000 014B     		ldr	r3, .L26
 280 0002 186A     		ldr	r0, [r3, #32]
 281              		.loc 1 1232 0
ARM GAS  /tmp/ccz3NjuA.s 			page 6


 282 0004 7047     		bx	lr
 283              	.L27:
 284 0006 00BF     		.align	2
 285              	.L26:
 286 0008 00200240 		.word	1073881088
 287              		.cfi_endproc
 288              	.LFE73:
 289              		.size	FLASH_GetWriteProtectionOptionByte, .-FLASH_GetWriteProtectionOptionByte
 290              		.section	.text.FLASH_GetReadOutProtectionStatus,"ax",%progbits
 291              		.align	1
 292              		.global	FLASH_GetReadOutProtectionStatus
 293              		.thumb
 294              		.thumb_func
 295              		.type	FLASH_GetReadOutProtectionStatus, %function
 296              	FLASH_GetReadOutProtectionStatus:
 297              	.LFB74:
 298              		.loc 1 1241 0
 299              		.cfi_startproc
 300              		@ args = 0, pretend = 0, frame = 0
 301              		@ frame_needed = 0, uses_anonymous_args = 0
 302              		@ link register save eliminated.
 303              	.LVL6:
 304              		.loc 1 1243 0
 305 0000 024B     		ldr	r3, .L29
 306 0002 D869     		ldr	r0, [r3, #28]
 307              	.LVL7:
 308              		.loc 1 1252 0
 309 0004 C0F34000 		ubfx	r0, r0, #1, #1
 310              	.LVL8:
 311 0008 7047     		bx	lr
 312              	.L30:
 313 000a 00BF     		.align	2
 314              	.L29:
 315 000c 00200240 		.word	1073881088
 316              		.cfi_endproc
 317              	.LFE74:
 318              		.size	FLASH_GetReadOutProtectionStatus, .-FLASH_GetReadOutProtectionStatus
 319              		.section	.text.FLASH_GetPrefetchBufferStatus,"ax",%progbits
 320              		.align	1
 321              		.global	FLASH_GetPrefetchBufferStatus
 322              		.thumb
 323              		.thumb_func
 324              		.type	FLASH_GetPrefetchBufferStatus, %function
 325              	FLASH_GetPrefetchBufferStatus:
 326              	.LFB75:
 327              		.loc 1 1261 0
 328              		.cfi_startproc
 329              		@ args = 0, pretend = 0, frame = 0
 330              		@ frame_needed = 0, uses_anonymous_args = 0
 331              		@ link register save eliminated.
 332              	.LVL9:
 333              		.loc 1 1264 0
 334 0000 024B     		ldr	r3, .L32
 335 0002 1868     		ldr	r0, [r3, #0]
 336              	.LVL10:
 337              		.loc 1 1274 0
 338 0004 C0F34010 		ubfx	r0, r0, #5, #1
ARM GAS  /tmp/ccz3NjuA.s 			page 7


 339              	.LVL11:
 340 0008 7047     		bx	lr
 341              	.L33:
 342 000a 00BF     		.align	2
 343              	.L32:
 344 000c 00200240 		.word	1073881088
 345              		.cfi_endproc
 346              	.LFE75:
 347              		.size	FLASH_GetPrefetchBufferStatus, .-FLASH_GetPrefetchBufferStatus
 348              		.section	.text.FLASH_ITConfig,"ax",%progbits
 349              		.align	1
 350              		.global	FLASH_ITConfig
 351              		.thumb
 352              		.thumb_func
 353              		.type	FLASH_ITConfig, %function
 354              	FLASH_ITConfig:
 355              	.LFB76:
 356              		.loc 1 1291 0
 357              		.cfi_startproc
 358              		@ args = 0, pretend = 0, frame = 0
 359              		@ frame_needed = 0, uses_anonymous_args = 0
 360              		@ link register save eliminated.
 361              	.LVL12:
 362 0000 044B     		ldr	r3, .L38
 363              		.loc 1 1328 0
 364 0002 11B1     		cbz	r1, .L35
 365              		.loc 1 1331 0
 366 0004 1A69     		ldr	r2, [r3, #16]
 367 0006 1043     		orrs	r0, r0, r2
 368              	.LVL13:
 369 0008 02E0     		b	.L37
 370              	.LVL14:
 371              	.L35:
 372              		.loc 1 1336 0
 373 000a 1A69     		ldr	r2, [r3, #16]
 374 000c 22EA0000 		bic	r0, r2, r0
 375              	.LVL15:
 376              	.L37:
 377 0010 1861     		str	r0, [r3, #16]
 378 0012 7047     		bx	lr
 379              	.L39:
 380              		.align	2
 381              	.L38:
 382 0014 00200240 		.word	1073881088
 383              		.cfi_endproc
 384              	.LFE76:
 385              		.size	FLASH_ITConfig, .-FLASH_ITConfig
 386              		.section	.text.FLASH_GetFlagStatus,"ax",%progbits
 387              		.align	1
 388              		.global	FLASH_GetFlagStatus
 389              		.thumb
 390              		.thumb_func
 391              		.type	FLASH_GetFlagStatus, %function
 392              	FLASH_GetFlagStatus:
 393              	.LFB77:
 394              		.loc 1 1358 0
 395              		.cfi_startproc
ARM GAS  /tmp/ccz3NjuA.s 			page 8


 396              		@ args = 0, pretend = 0, frame = 0
 397              		@ frame_needed = 0, uses_anonymous_args = 0
 398              		@ link register save eliminated.
 399              	.LVL16:
 400              		.loc 1 1403 0
 401 0000 0128     		cmp	r0, #1
 402 0002 064B     		ldr	r3, .L43
 403 0004 03D1     		bne	.L41
 404              		.loc 1 1405 0
 405 0006 D869     		ldr	r0, [r3, #28]
 406              	.LVL17:
 407              		.loc 1 1411 0
 408 0008 00F00100 		and	r0, r0, #1
 409 000c 7047     		bx	lr
 410              	.LVL18:
 411              	.L41:
 412              		.loc 1 1416 0
 413 000e DB68     		ldr	r3, [r3, #12]
 414              		.loc 1 1411 0
 415 0010 1842     		tst	r0, r3
 416 0012 0CBF     		ite	eq
 417 0014 0020     		moveq	r0, #0
 418 0016 0120     		movne	r0, #1
 419              	.LVL19:
 420              		.loc 1 1429 0
 421 0018 7047     		bx	lr
 422              	.L44:
 423 001a 00BF     		.align	2
 424              	.L43:
 425 001c 00200240 		.word	1073881088
 426              		.cfi_endproc
 427              	.LFE77:
 428              		.size	FLASH_GetFlagStatus, .-FLASH_GetFlagStatus
 429              		.section	.text.FLASH_ClearFlag,"ax",%progbits
 430              		.align	1
 431              		.global	FLASH_ClearFlag
 432              		.thumb
 433              		.thumb_func
 434              		.type	FLASH_ClearFlag, %function
 435              	FLASH_ClearFlag:
 436              	.LFB78:
 437              		.loc 1 1444 0
 438              		.cfi_startproc
 439              		@ args = 0, pretend = 0, frame = 0
 440              		@ frame_needed = 0, uses_anonymous_args = 0
 441              		@ link register save eliminated.
 442              	.LVL20:
 443              		.loc 1 1465 0
 444 0000 014B     		ldr	r3, .L46
 445 0002 D860     		str	r0, [r3, #12]
 446              		.loc 1 1467 0
 447 0004 7047     		bx	lr
 448              	.L47:
 449 0006 00BF     		.align	2
 450              	.L46:
 451 0008 00200240 		.word	1073881088
 452              		.cfi_endproc
ARM GAS  /tmp/ccz3NjuA.s 			page 9


 453              	.LFE78:
 454              		.size	FLASH_ClearFlag, .-FLASH_ClearFlag
 455              		.section	.text.FLASH_GetStatus,"ax",%progbits
 456              		.align	1
 457              		.global	FLASH_GetStatus
 458              		.thumb
 459              		.thumb_func
 460              		.type	FLASH_GetStatus, %function
 461              	FLASH_GetStatus:
 462              	.LFB79:
 463              		.loc 1 1478 0
 464              		.cfi_startproc
 465              		@ args = 0, pretend = 0, frame = 0
 466              		@ frame_needed = 0, uses_anonymous_args = 0
 467              		@ link register save eliminated.
 468              	.LVL21:
 469              		.loc 1 1481 0
 470 0000 0A4B     		ldr	r3, .L53
 471 0002 DA68     		ldr	r2, [r3, #12]
 472 0004 12F0010F 		tst	r2, #1
 473 0008 0BD1     		bne	.L50
 474              		.loc 1 1487 0
 475 000a DA68     		ldr	r2, [r3, #12]
 476 000c 12F0040F 		tst	r2, #4
 477 0010 09D1     		bne	.L51
 478              		.loc 1 1493 0
 479 0012 D868     		ldr	r0, [r3, #12]
 480 0014 00F01000 		and	r0, r0, #16
 481              		.loc 1 1495 0
 482 0018 0028     		cmp	r0, #0
 483 001a 0CBF     		ite	eq
 484 001c 0420     		moveq	r0, #4
 485 001e 0320     		movne	r0, #3
 486 0020 7047     		bx	lr
 487              	.L50:
 488              		.loc 1 1483 0
 489 0022 0120     		movs	r0, #1
 490 0024 7047     		bx	lr
 491              	.L51:
 492              		.loc 1 1489 0
 493 0026 0220     		movs	r0, #2
 494              	.LVL22:
 495              		.loc 1 1505 0
 496 0028 7047     		bx	lr
 497              	.L54:
 498 002a 00BF     		.align	2
 499              	.L53:
 500 002c 00200240 		.word	1073881088
 501              		.cfi_endproc
 502              	.LFE79:
 503              		.size	FLASH_GetStatus, .-FLASH_GetStatus
 504              		.section	.text.FLASH_GetBank1Status,"ax",%progbits
 505              		.align	1
 506              		.global	FLASH_GetBank1Status
 507              		.thumb
 508              		.thumb_func
 509              		.type	FLASH_GetBank1Status, %function
ARM GAS  /tmp/ccz3NjuA.s 			page 10


 510              	FLASH_GetBank1Status:
 511              	.LFB80:
 512              		.loc 1 1516 0
 513              		.cfi_startproc
 514              		@ args = 0, pretend = 0, frame = 0
 515              		@ frame_needed = 0, uses_anonymous_args = 0
 516              		@ link register save eliminated.
 517              	.LVL23:
 518              		.loc 1 1519 0
 519 0000 0A4B     		ldr	r3, .L60
 520 0002 DA68     		ldr	r2, [r3, #12]
 521 0004 12F0010F 		tst	r2, #1
 522 0008 0BD1     		bne	.L57
 523              		.loc 1 1525 0
 524 000a DA68     		ldr	r2, [r3, #12]
 525 000c 12F0040F 		tst	r2, #4
 526 0010 09D1     		bne	.L58
 527              		.loc 1 1531 0
 528 0012 D868     		ldr	r0, [r3, #12]
 529 0014 00F01000 		and	r0, r0, #16
 530              		.loc 1 1533 0
 531 0018 0028     		cmp	r0, #0
 532 001a 0CBF     		ite	eq
 533 001c 0420     		moveq	r0, #4
 534 001e 0320     		movne	r0, #3
 535 0020 7047     		bx	lr
 536              	.L57:
 537              		.loc 1 1521 0
 538 0022 0120     		movs	r0, #1
 539 0024 7047     		bx	lr
 540              	.L58:
 541              		.loc 1 1527 0
 542 0026 0220     		movs	r0, #2
 543              	.LVL24:
 544              		.loc 1 1543 0
 545 0028 7047     		bx	lr
 546              	.L61:
 547 002a 00BF     		.align	2
 548              	.L60:
 549 002c 00200240 		.word	1073881088
 550              		.cfi_endproc
 551              	.LFE80:
 552              		.size	FLASH_GetBank1Status, .-FLASH_GetBank1Status
 553              		.section	.text.FLASH_WaitForLastOperation,"ax",%progbits
 554              		.align	1
 555              		.global	FLASH_WaitForLastOperation
 556              		.thumb
 557              		.thumb_func
 558              		.type	FLASH_WaitForLastOperation, %function
 559              	FLASH_WaitForLastOperation:
 560              	.LFB81:
 561              		.loc 1 1596 0
 562              		.cfi_startproc
 563              		@ args = 0, pretend = 0, frame = 0
 564              		@ frame_needed = 0, uses_anonymous_args = 0
 565              	.LVL25:
 566 0000 10B5     		push	{r4, lr}
ARM GAS  /tmp/ccz3NjuA.s 			page 11


 567              	.LCFI0:
 568              		.cfi_def_cfa_offset 8
 569              		.loc 1 1596 0
 570 0002 0446     		mov	r4, r0
 571              		.cfi_offset 14, -4
 572              		.cfi_offset 4, -8
 573              		.loc 1 1600 0
 574 0004 FFF7FEFF 		bl	FLASH_GetBank1Status
 575              	.LVL26:
 576              		.loc 1 1602 0
 577 0008 02E0     		b	.L63
 578              	.L65:
 579              		.loc 1 1604 0
 580 000a FFF7FEFF 		bl	FLASH_GetBank1Status
 581              	.LVL27:
 582              		.loc 1 1605 0
 583 000e 013C     		subs	r4, r4, #1
 584              	.LVL28:
 585              	.L63:
 586              		.loc 1 1602 0 discriminator 1
 587 0010 0128     		cmp	r0, #1
 588 0012 03D1     		bne	.L64
 589              		.loc 1 1602 0 is_stmt 0 discriminator 2
 590 0014 002C     		cmp	r4, #0
 591 0016 F8D1     		bne	.L65
 592              		.loc 1 1609 0 is_stmt 1
 593 0018 0430     		adds	r0, r0, #4
 594              	.LVL29:
 595 001a 10BD     		pop	{r4, pc}
 596              	.LVL30:
 597              	.L64:
 598 001c 002C     		cmp	r4, #0
 599 001e 08BF     		it	eq
 600 0020 0520     		moveq	r0, #5
 601              	.LVL31:
 602              		.loc 1 1613 0
 603 0022 10BD     		pop	{r4, pc}
 604              		.cfi_endproc
 605              	.LFE81:
 606              		.size	FLASH_WaitForLastOperation, .-FLASH_WaitForLastOperation
 607              		.section	.text.FLASH_UserOptionByteConfig,"ax",%progbits
 608              		.align	1
 609              		.global	FLASH_UserOptionByteConfig
 610              		.thumb
 611              		.thumb_func
 612              		.type	FLASH_UserOptionByteConfig, %function
 613              	FLASH_UserOptionByteConfig:
 614              	.LFB71:
 615              		.loc 1 1119 0
 616              		.cfi_startproc
 617              		@ args = 0, pretend = 0, frame = 0
 618              		@ frame_needed = 0, uses_anonymous_args = 0
 619              	.LVL32:
 620 0000 F8B5     		push	{r3, r4, r5, r6, r7, lr}
 621              	.LCFI1:
 622              		.cfi_def_cfa_offset 24
 623              		.loc 1 1128 0
ARM GAS  /tmp/ccz3NjuA.s 			page 12


 624 0002 124E     		ldr	r6, .L70
 625              		.cfi_offset 14, -4
 626              		.cfi_offset 7, -8
 627              		.cfi_offset 6, -12
 628              		.cfi_offset 5, -16
 629              		.cfi_offset 4, -20
 630              		.cfi_offset 3, -24
 631 0004 124B     		ldr	r3, .L70+4
 632              		.loc 1 1119 0
 633 0006 0446     		mov	r4, r0
 634              		.loc 1 1128 0
 635 0008 B360     		str	r3, [r6, #8]
 636              		.loc 1 1129 0
 637 000a 124B     		ldr	r3, .L70+8
 638              		.loc 1 1132 0
 639 000c 4FF40050 		mov	r0, #8192
 640              	.LVL33:
 641              		.loc 1 1129 0
 642 0010 B360     		str	r3, [r6, #8]
 643              		.loc 1 1119 0
 644 0012 0D46     		mov	r5, r1
 645 0014 1746     		mov	r7, r2
 646              		.loc 1 1132 0
 647 0016 FFF7FEFF 		bl	FLASH_WaitForLastOperation
 648              	.LVL34:
 649              		.loc 1 1134 0
 650 001a 0428     		cmp	r0, #4
 651 001c 15D1     		bne	.L69
 652              		.loc 1 1137 0
 653 001e 3369     		ldr	r3, [r6, #16]
 654              		.loc 1 1139 0
 655 0020 44F0F804 		orr	r4, r4, #248
 656              		.loc 1 1137 0
 657 0024 43F01003 		orr	r3, r3, #16
 658 0028 3361     		str	r3, [r6, #16]
 659              		.loc 1 1139 0
 660 002a 2543     		orrs	r5, r5, r4
 661 002c 0A4B     		ldr	r3, .L70+12
 662 002e 2F43     		orrs	r7, r7, r5
 663 0030 5F80     		strh	r7, [r3, #2]	@ movhi
 664              		.loc 1 1142 0
 665 0032 4FF40050 		mov	r0, #8192
 666              	.LVL35:
 667 0036 FFF7FEFF 		bl	FLASH_WaitForLastOperation
 668              	.LVL36:
 669              		.loc 1 1143 0
 670 003a 0528     		cmp	r0, #5
 671 003c 05D0     		beq	.L69
 672              		.loc 1 1146 0
 673 003e 3269     		ldr	r2, [r6, #16]
 674 0040 41F6EF73 		movw	r3, #8175
 675 0044 02EA0303 		and	r3, r2, r3
 676 0048 3361     		str	r3, [r6, #16]
 677              	.LVL37:
 678              	.L69:
 679              		.loc 1 1151 0
 680 004a F8BD     		pop	{r3, r4, r5, r6, r7, pc}
ARM GAS  /tmp/ccz3NjuA.s 			page 13


 681              	.L71:
 682              		.align	2
 683              	.L70:
 684 004c 00200240 		.word	1073881088
 685 0050 23016745 		.word	1164378403
 686 0054 AB89EFCD 		.word	-839939669
 687 0058 00F8FF1F 		.word	536868864
 688              		.cfi_endproc
 689              	.LFE71:
 690              		.size	FLASH_UserOptionByteConfig, .-FLASH_UserOptionByteConfig
 691              		.section	.text.FLASH_ReadOutProtection,"ax",%progbits
 692              		.align	1
 693              		.global	FLASH_ReadOutProtection
 694              		.thumb
 695              		.thumb_func
 696              		.type	FLASH_ReadOutProtection, %function
 697              	FLASH_ReadOutProtection:
 698              	.LFB70:
 699              		.loc 1 1050 0
 700              		.cfi_startproc
 701              		@ args = 0, pretend = 0, frame = 0
 702              		@ frame_needed = 0, uses_anonymous_args = 0
 703              	.LVL38:
 704 0000 38B5     		push	{r3, r4, r5, lr}
 705              	.LCFI2:
 706              		.cfi_def_cfa_offset 16
 707              		.loc 1 1050 0
 708 0002 0546     		mov	r5, r0
 709              		.cfi_offset 14, -4
 710              		.cfi_offset 5, -8
 711              		.cfi_offset 4, -12
 712              		.cfi_offset 3, -16
 713              		.loc 1 1054 0
 714 0004 4FF43020 		mov	r0, #720896
 715              	.LVL39:
 716 0008 FFF7FEFF 		bl	FLASH_WaitForLastOperation
 717              	.LVL40:
 718              		.loc 1 1055 0
 719 000c 0428     		cmp	r0, #4
 720 000e 38D1     		bne	.L73
 721              		.loc 1 1058 0
 722 0010 1C4C     		ldr	r4, .L78
 723 0012 1D4B     		ldr	r3, .L78+4
 724              		.loc 1 1063 0
 725 0014 4FF43020 		mov	r0, #720896
 726              	.LVL41:
 727              		.loc 1 1058 0
 728 0018 A360     		str	r3, [r4, #8]
 729              		.loc 1 1059 0
 730 001a 1C4B     		ldr	r3, .L78+8
 731 001c A360     		str	r3, [r4, #8]
 732              		.loc 1 1060 0
 733 001e 2369     		ldr	r3, [r4, #16]
 734 0020 43F02003 		orr	r3, r3, #32
 735 0024 2361     		str	r3, [r4, #16]
 736              		.loc 1 1061 0
 737 0026 2369     		ldr	r3, [r4, #16]
ARM GAS  /tmp/ccz3NjuA.s 			page 14


 738 0028 43F04003 		orr	r3, r3, #64
 739 002c 2361     		str	r3, [r4, #16]
 740              		.loc 1 1063 0
 741 002e FFF7FEFF 		bl	FLASH_WaitForLastOperation
 742              	.LVL42:
 743              		.loc 1 1064 0
 744 0032 0428     		cmp	r0, #4
 745 0034 1DD1     		bne	.L74
 746              		.loc 1 1067 0
 747 0036 2269     		ldr	r2, [r4, #16]
 748 0038 41F6DF73 		movw	r3, #8159
 749 003c 02EA0303 		and	r3, r2, r3
 750 0040 2361     		str	r3, [r4, #16]
 751              		.loc 1 1069 0
 752 0042 2369     		ldr	r3, [r4, #16]
 753 0044 43F01003 		orr	r3, r3, #16
 754 0048 2361     		str	r3, [r4, #16]
 755 004a 114B     		ldr	r3, .L78+12
 756              		.loc 1 1070 0
 757 004c 0DB1     		cbz	r5, .L75
 758              		.loc 1 1072 0
 759 004e 0022     		movs	r2, #0
 760 0050 00E0     		b	.L77
 761              	.L75:
 762              		.loc 1 1076 0
 763 0052 A522     		movs	r2, #165
 764              	.L77:
 765 0054 1A80     		strh	r2, [r3, #0]	@ movhi
 766              		.loc 1 1079 0
 767 0056 4FF43020 		mov	r0, #720896
 768              	.LVL43:
 769 005a FFF7FEFF 		bl	FLASH_WaitForLastOperation
 770              	.LVL44:
 771              		.loc 1 1081 0
 772 005e 0528     		cmp	r0, #5
 773 0060 0FD0     		beq	.L73
 774              		.loc 1 1084 0
 775 0062 084A     		ldr	r2, .L78
 776 0064 41F6EF73 		movw	r3, #8175
 777 0068 1169     		ldr	r1, [r2, #16]
 778 006a 01EA0303 		and	r3, r1, r3
 779 006e 1361     		str	r3, [r2, #16]
 780 0070 38BD     		pop	{r3, r4, r5, pc}
 781              	.L74:
 782              		.loc 1 1089 0
 783 0072 0528     		cmp	r0, #5
 784 0074 05D0     		beq	.L73
 785              		.loc 1 1092 0
 786 0076 2269     		ldr	r2, [r4, #16]
 787 0078 41F6DF73 		movw	r3, #8159
 788 007c 02EA0303 		and	r3, r2, r3
 789 0080 2361     		str	r3, [r4, #16]
 790              	.LVL45:
 791              	.L73:
 792              		.loc 1 1098 0
 793 0082 38BD     		pop	{r3, r4, r5, pc}
 794              	.L79:
ARM GAS  /tmp/ccz3NjuA.s 			page 15


 795              		.align	2
 796              	.L78:
 797 0084 00200240 		.word	1073881088
 798 0088 23016745 		.word	1164378403
 799 008c AB89EFCD 		.word	-839939669
 800 0090 00F8FF1F 		.word	536868864
 801              		.cfi_endproc
 802              	.LFE70:
 803              		.size	FLASH_ReadOutProtection, .-FLASH_ReadOutProtection
 804              		.section	.text.FLASH_EnableWriteProtection,"ax",%progbits
 805              		.align	1
 806              		.global	FLASH_EnableWriteProtection
 807              		.thumb
 808              		.thumb_func
 809              		.type	FLASH_EnableWriteProtection, %function
 810              	FLASH_EnableWriteProtection:
 811              	.LFB69:
 812              		.loc 1 976 0
 813              		.cfi_startproc
 814              		@ args = 0, pretend = 0, frame = 0
 815              		@ frame_needed = 0, uses_anonymous_args = 0
 816              	.LVL46:
 817 0000 10B5     		push	{r4, lr}
 818              	.LCFI3:
 819              		.cfi_def_cfa_offset 8
 820              		.loc 1 976 0
 821 0002 0446     		mov	r4, r0
 822              		.cfi_offset 14, -4
 823              		.cfi_offset 4, -8
 824              	.LVL47:
 825              		.loc 1 991 0
 826 0004 4FF40050 		mov	r0, #8192
 827              	.LVL48:
 828 0008 FFF7FEFF 		bl	FLASH_WaitForLastOperation
 829              	.LVL49:
 830              		.loc 1 993 0
 831 000c 0428     		cmp	r0, #4
 832 000e 42D1     		bne	.L81
 833              		.loc 1 996 0
 834 0010 214B     		ldr	r3, .L90
 835 0012 2249     		ldr	r1, .L90+4
 836              		.loc 1 984 0
 837 0014 E443     		mvns	r4, r4
 838              	.LVL50:
 839              		.loc 1 996 0
 840 0016 9960     		str	r1, [r3, #8]
 841              		.loc 1 997 0
 842 0018 2149     		ldr	r1, .L90+8
 843              		.loc 1 985 0
 844 001a E2B2     		uxtb	r2, r4
 845              		.loc 1 997 0
 846 001c 9960     		str	r1, [r3, #8]
 847              		.loc 1 998 0
 848 001e 1969     		ldr	r1, [r3, #16]
 849              		.loc 1 999 0
 850 0020 FF2A     		cmp	r2, #255
 851              		.loc 1 998 0
ARM GAS  /tmp/ccz3NjuA.s 			page 16


 852 0022 41F01001 		orr	r1, r1, #16
 853 0026 1961     		str	r1, [r3, #16]
 854              		.loc 1 999 0
 855 0028 07D0     		beq	.L82
 856              		.loc 1 1001 0
 857 002a 1E4B     		ldr	r3, .L90+12
 858              		.loc 1 1004 0
 859 002c 4FF40050 		mov	r0, #8192
 860              	.LVL51:
 861              		.loc 1 1001 0
 862 0030 1A81     		strh	r2, [r3, #8]	@ movhi
 863              		.loc 1 1004 0
 864 0032 FFF7FEFF 		bl	FLASH_WaitForLastOperation
 865              	.LVL52:
 866              		.loc 1 1006 0
 867 0036 0428     		cmp	r0, #4
 868 0038 22D1     		bne	.L86
 869              	.LVL53:
 870              	.L82:
 871              		.loc 1 986 0 discriminator 1
 872 003a 04F47F43 		and	r3, r4, #65280
 873 003e 1B0A     		lsrs	r3, r3, #8
 874              		.loc 1 1006 0 discriminator 1
 875 0040 FF2B     		cmp	r3, #255
 876 0042 07D0     		beq	.L84
 877              		.loc 1 1008 0
 878 0044 174A     		ldr	r2, .L90+12
 879              		.loc 1 1011 0
 880 0046 4FF40050 		mov	r0, #8192
 881              		.loc 1 1008 0
 882 004a 5381     		strh	r3, [r2, #10]	@ movhi
 883              		.loc 1 1011 0
 884 004c FFF7FEFF 		bl	FLASH_WaitForLastOperation
 885              	.LVL54:
 886              		.loc 1 1013 0
 887 0050 0428     		cmp	r0, #4
 888 0052 15D1     		bne	.L86
 889              	.LVL55:
 890              	.L84:
 891              		.loc 1 987 0 discriminator 1
 892 0054 04F47F03 		and	r3, r4, #16711680
 893 0058 1B0C     		lsrs	r3, r3, #16
 894              		.loc 1 1013 0 discriminator 1
 895 005a FF2B     		cmp	r3, #255
 896 005c 07D0     		beq	.L85
 897              		.loc 1 1015 0
 898 005e 114A     		ldr	r2, .L90+12
 899              		.loc 1 1018 0
 900 0060 4FF40050 		mov	r0, #8192
 901              		.loc 1 1015 0
 902 0064 9381     		strh	r3, [r2, #12]	@ movhi
 903              		.loc 1 1018 0
 904 0066 FFF7FEFF 		bl	FLASH_WaitForLastOperation
 905              	.LVL56:
 906              		.loc 1 1021 0
 907 006a 0428     		cmp	r0, #4
 908 006c 08D1     		bne	.L86
ARM GAS  /tmp/ccz3NjuA.s 			page 17


 909              	.LVL57:
 910              	.L85:
 911              		.loc 1 988 0 discriminator 1
 912 006e 240E     		lsrs	r4, r4, #24
 913              	.LVL58:
 914              		.loc 1 1021 0 discriminator 1
 915 0070 FF2C     		cmp	r4, #255
 916 0072 08D0     		beq	.L89
 917              		.loc 1 1023 0
 918 0074 0B4B     		ldr	r3, .L90+12
 919              		.loc 1 1026 0
 920 0076 4FF40050 		mov	r0, #8192
 921              		.loc 1 1023 0
 922 007a DC81     		strh	r4, [r3, #14]	@ movhi
 923              		.loc 1 1026 0
 924 007c FFF7FEFF 		bl	FLASH_WaitForLastOperation
 925              	.LVL59:
 926              	.L86:
 927              		.loc 1 1029 0
 928 0080 0528     		cmp	r0, #5
 929 0082 01D1     		bne	.L87
 930 0084 10BD     		pop	{r4, pc}
 931              	.LVL60:
 932              	.L89:
 933              		.loc 1 1021 0
 934 0086 0420     		movs	r0, #4
 935              	.L87:
 936              		.loc 1 1032 0
 937 0088 034A     		ldr	r2, .L90
 938 008a 41F6EF73 		movw	r3, #8175
 939 008e 1169     		ldr	r1, [r2, #16]
 940 0090 01EA0303 		and	r3, r1, r3
 941 0094 1361     		str	r3, [r2, #16]
 942              	.L81:
 943              	.LVL61:
 944              		.loc 1 1037 0
 945 0096 10BD     		pop	{r4, pc}
 946              	.L91:
 947              		.align	2
 948              	.L90:
 949 0098 00200240 		.word	1073881088
 950 009c 23016745 		.word	1164378403
 951 00a0 AB89EFCD 		.word	-839939669
 952 00a4 00F8FF1F 		.word	536868864
 953              		.cfi_endproc
 954              	.LFE69:
 955              		.size	FLASH_EnableWriteProtection, .-FLASH_EnableWriteProtection
 956              		.section	.text.FLASH_ProgramOptionByteData,"ax",%progbits
 957              		.align	1
 958              		.global	FLASH_ProgramOptionByteData
 959              		.thumb
 960              		.thumb_func
 961              		.type	FLASH_ProgramOptionByteData, %function
 962              	FLASH_ProgramOptionByteData:
 963              	.LFB68:
 964              		.loc 1 930 0
 965              		.cfi_startproc
ARM GAS  /tmp/ccz3NjuA.s 			page 18


 966              		@ args = 0, pretend = 0, frame = 0
 967              		@ frame_needed = 0, uses_anonymous_args = 0
 968              	.LVL62:
 969 0000 70B5     		push	{r4, r5, r6, lr}
 970              	.LCFI4:
 971              		.cfi_def_cfa_offset 16
 972              		.loc 1 930 0
 973 0002 0446     		mov	r4, r0
 974              		.cfi_offset 14, -4
 975              		.cfi_offset 6, -8
 976              		.cfi_offset 5, -12
 977              		.cfi_offset 4, -16
 978              		.loc 1 934 0
 979 0004 4FF40050 		mov	r0, #8192
 980              	.LVL63:
 981              		.loc 1 930 0
 982 0008 0E46     		mov	r6, r1
 983              		.loc 1 934 0
 984 000a FFF7FEFF 		bl	FLASH_WaitForLastOperation
 985              	.LVL64:
 986              		.loc 1 936 0
 987 000e 0428     		cmp	r0, #4
 988 0010 15D1     		bne	.L93
 989              		.loc 1 939 0
 990 0012 0B4D     		ldr	r5, .L94
 991 0014 0B4B     		ldr	r3, .L94+4
 992              		.loc 1 946 0
 993 0016 4FF40050 		mov	r0, #8192
 994              	.LVL65:
 995              		.loc 1 939 0
 996 001a AB60     		str	r3, [r5, #8]
 997              		.loc 1 940 0
 998 001c 0A4B     		ldr	r3, .L94+8
 999 001e AB60     		str	r3, [r5, #8]
 1000              		.loc 1 942 0
 1001 0020 2B69     		ldr	r3, [r5, #16]
 1002 0022 43F01003 		orr	r3, r3, #16
 1003 0026 2B61     		str	r3, [r5, #16]
 1004              		.loc 1 943 0
 1005 0028 2680     		strh	r6, [r4, #0]	@ movhi
 1006              		.loc 1 946 0
 1007 002a FFF7FEFF 		bl	FLASH_WaitForLastOperation
 1008              	.LVL66:
 1009              		.loc 1 947 0
 1010 002e 0528     		cmp	r0, #5
 1011 0030 05D0     		beq	.L93
 1012              		.loc 1 950 0
 1013 0032 2A69     		ldr	r2, [r5, #16]
 1014 0034 41F6EF73 		movw	r3, #8175
 1015 0038 02EA0303 		and	r3, r2, r3
 1016 003c 2B61     		str	r3, [r5, #16]
 1017              	.LVL67:
 1018              	.L93:
 1019              		.loc 1 955 0
 1020 003e 70BD     		pop	{r4, r5, r6, pc}
 1021              	.L95:
 1022              		.align	2
ARM GAS  /tmp/ccz3NjuA.s 			page 19


 1023              	.L94:
 1024 0040 00200240 		.word	1073881088
 1025 0044 23016745 		.word	1164378403
 1026 0048 AB89EFCD 		.word	-839939669
 1027              		.cfi_endproc
 1028              	.LFE68:
 1029              		.size	FLASH_ProgramOptionByteData, .-FLASH_ProgramOptionByteData
 1030              		.section	.text.FLASH_ProgramHalfWord,"ax",%progbits
 1031              		.align	1
 1032              		.global	FLASH_ProgramHalfWord
 1033              		.thumb
 1034              		.thumb_func
 1035              		.type	FLASH_ProgramHalfWord, %function
 1036              	FLASH_ProgramHalfWord:
 1037              	.LFB67:
 1038              		.loc 1 859 0
 1039              		.cfi_startproc
 1040              		@ args = 0, pretend = 0, frame = 0
 1041              		@ frame_needed = 0, uses_anonymous_args = 0
 1042              	.LVL68:
 1043 0000 70B5     		push	{r4, r5, r6, lr}
 1044              	.LCFI5:
 1045              		.cfi_def_cfa_offset 16
 1046              		.loc 1 859 0
 1047 0002 0446     		mov	r4, r0
 1048              		.cfi_offset 14, -4
 1049              		.cfi_offset 6, -8
 1050              		.cfi_offset 5, -12
 1051              		.cfi_offset 4, -16
 1052              		.loc 1 900 0
 1053 0004 4FF40050 		mov	r0, #8192
 1054              	.LVL69:
 1055              		.loc 1 859 0
 1056 0008 0E46     		mov	r6, r1
 1057              		.loc 1 900 0
 1058 000a FFF7FEFF 		bl	FLASH_WaitForLastOperation
 1059              	.LVL70:
 1060              		.loc 1 902 0
 1061 000e 0428     		cmp	r0, #4
 1062 0010 0FD1     		bne	.L97
 1063              		.loc 1 905 0
 1064 0012 084D     		ldr	r5, .L98
 1065              		.loc 1 909 0
 1066 0014 4FF40050 		mov	r0, #8192
 1067              	.LVL71:
 1068              		.loc 1 905 0
 1069 0018 2B69     		ldr	r3, [r5, #16]
 1070 001a 43F00103 		orr	r3, r3, #1
 1071 001e 2B61     		str	r3, [r5, #16]
 1072              		.loc 1 907 0
 1073 0020 2680     		strh	r6, [r4, #0]	@ movhi
 1074              		.loc 1 909 0
 1075 0022 FFF7FEFF 		bl	FLASH_WaitForLastOperation
 1076              	.LVL72:
 1077              		.loc 1 912 0
 1078 0026 2A69     		ldr	r2, [r5, #16]
 1079 0028 41F6FE73 		movw	r3, #8190
ARM GAS  /tmp/ccz3NjuA.s 			page 20


 1080 002c 02EA0303 		and	r3, r2, r3
 1081 0030 2B61     		str	r3, [r5, #16]
 1082              	.LVL73:
 1083              	.L97:
 1084              		.loc 1 918 0
 1085 0032 70BD     		pop	{r4, r5, r6, pc}
 1086              	.L99:
 1087              		.align	2
 1088              	.L98:
 1089 0034 00200240 		.word	1073881088
 1090              		.cfi_endproc
 1091              	.LFE67:
 1092              		.size	FLASH_ProgramHalfWord, .-FLASH_ProgramHalfWord
 1093              		.section	.text.FLASH_ProgramWord,"ax",%progbits
 1094              		.align	1
 1095              		.global	FLASH_ProgramWord
 1096              		.thumb
 1097              		.thumb_func
 1098              		.type	FLASH_ProgramWord, %function
 1099              	FLASH_ProgramWord:
 1100              	.LFB66:
 1101              		.loc 1 682 0
 1102              		.cfi_startproc
 1103              		@ args = 0, pretend = 0, frame = 8
 1104              		@ frame_needed = 0, uses_anonymous_args = 0
 1105              	.LVL74:
 1106 0000 73B5     		push	{r0, r1, r4, r5, r6, lr}
 1107              	.LCFI6:
 1108              		.cfi_def_cfa_offset 24
 1109              		.loc 1 684 0
 1110 0002 0023     		movs	r3, #0
 1111              		.loc 1 682 0
 1112 0004 0446     		mov	r4, r0
 1113              		.cfi_offset 14, -4
 1114              		.cfi_offset 6, -8
 1115              		.cfi_offset 5, -12
 1116              		.cfi_offset 4, -16
 1117              		.cfi_offset 1, -20
 1118              		.cfi_offset 0, -24
 1119              		.loc 1 812 0
 1120 0006 4FF40050 		mov	r0, #8192
 1121              	.LVL75:
 1122              		.loc 1 682 0
 1123 000a 0E46     		mov	r6, r1
 1124              		.loc 1 684 0
 1125 000c 0193     		str	r3, [sp, #4]
 1126              	.LVL76:
 1127              		.loc 1 812 0
 1128 000e FFF7FEFF 		bl	FLASH_WaitForLastOperation
 1129              	.LVL77:
 1130              		.loc 1 814 0
 1131 0012 0428     		cmp	r0, #4
 1132 0014 1AD1     		bne	.L101
 1133              		.loc 1 818 0
 1134 0016 0E4D     		ldr	r5, .L103
 1135              		.loc 1 822 0
 1136 0018 4FF40050 		mov	r0, #8192
ARM GAS  /tmp/ccz3NjuA.s 			page 21


 1137              	.LVL78:
 1138              		.loc 1 818 0
 1139 001c 2B69     		ldr	r3, [r5, #16]
 1140 001e 43F00103 		orr	r3, r3, #1
 1141 0022 2B61     		str	r3, [r5, #16]
 1142              		.loc 1 820 0
 1143 0024 2680     		strh	r6, [r4, #0]	@ movhi
 1144              		.loc 1 822 0
 1145 0026 FFF7FEFF 		bl	FLASH_WaitForLastOperation
 1146              	.LVL79:
 1147              		.loc 1 824 0
 1148 002a 0428     		cmp	r0, #4
 1149 002c 08D1     		bne	.L102
 1150              		.loc 1 828 0
 1151 002e 0234     		adds	r4, r4, #2
 1152              	.LVL80:
 1153 0030 0194     		str	r4, [sp, #4]
 1154              	.LVL81:
 1155              		.loc 1 830 0
 1156 0032 019B     		ldr	r3, [sp, #4]
 1157 0034 360C     		lsrs	r6, r6, #16
 1158              	.LVL82:
 1159 0036 1E80     		strh	r6, [r3, #0]	@ movhi
 1160              		.loc 1 833 0
 1161 0038 4FF40050 		mov	r0, #8192
 1162              	.LVL83:
 1163 003c FFF7FEFF 		bl	FLASH_WaitForLastOperation
 1164              	.LVL84:
 1165              	.L102:
 1166              		.loc 1 841 0
 1167 0040 2A69     		ldr	r2, [r5, #16]
 1168 0042 41F6FE73 		movw	r3, #8190
 1169 0046 02EA0303 		and	r3, r2, r3
 1170 004a 2B61     		str	r3, [r5, #16]
 1171              	.L101:
 1172              	.LVL85:
 1173              		.loc 1 848 0
 1174 004c 7CBD     		pop	{r2, r3, r4, r5, r6, pc}
 1175              	.L104:
 1176 004e 00BF     		.align	2
 1177              	.L103:
 1178 0050 00200240 		.word	1073881088
 1179              		.cfi_endproc
 1180              	.LFE66:
 1181              		.size	FLASH_ProgramWord, .-FLASH_ProgramWord
 1182              		.section	.text.FLASH_EraseOptionBytes,"ax",%progbits
 1183              		.align	1
 1184              		.global	FLASH_EraseOptionBytes
 1185              		.thumb
 1186              		.thumb_func
 1187              		.type	FLASH_EraseOptionBytes, %function
 1188              	FLASH_EraseOptionBytes:
 1189              	.LFB65:
 1190              		.loc 1 617 0
 1191              		.cfi_startproc
 1192              		@ args = 0, pretend = 0, frame = 0
 1193              		@ frame_needed = 0, uses_anonymous_args = 0
ARM GAS  /tmp/ccz3NjuA.s 			page 22


 1194              	.LVL86:
 1195 0000 38B5     		push	{r3, r4, r5, lr}
 1196              	.LCFI7:
 1197              		.cfi_def_cfa_offset 16
 1198              		.loc 1 623 0
 1199              		.cfi_offset 14, -4
 1200              		.cfi_offset 5, -8
 1201              		.cfi_offset 4, -12
 1202              		.cfi_offset 3, -16
 1203 0002 FFF7FEFF 		bl	FLASH_GetReadOutProtectionStatus
 1204              		.loc 1 618 0
 1205 0006 0028     		cmp	r0, #0
 1206 0008 0CBF     		ite	eq
 1207 000a A525     		moveq	r5, #165
 1208 000c 0025     		movne	r5, #0
 1209              	.LVL87:
 1210              		.loc 1 629 0
 1211 000e 4FF43020 		mov	r0, #720896
 1212 0012 FFF7FEFF 		bl	FLASH_WaitForLastOperation
 1213              	.LVL88:
 1214              		.loc 1 630 0
 1215 0016 0428     		cmp	r0, #4
 1216 0018 33D1     		bne	.L107
 1217              		.loc 1 633 0
 1218 001a 1A4C     		ldr	r4, .L110
 1219 001c 1A4B     		ldr	r3, .L110+4
 1220              		.loc 1 640 0
 1221 001e 4FF43020 		mov	r0, #720896
 1222              	.LVL89:
 1223              		.loc 1 633 0
 1224 0022 A360     		str	r3, [r4, #8]
 1225              		.loc 1 634 0
 1226 0024 194B     		ldr	r3, .L110+8
 1227 0026 A360     		str	r3, [r4, #8]
 1228              		.loc 1 637 0
 1229 0028 2369     		ldr	r3, [r4, #16]
 1230 002a 43F02003 		orr	r3, r3, #32
 1231 002e 2361     		str	r3, [r4, #16]
 1232              		.loc 1 638 0
 1233 0030 2369     		ldr	r3, [r4, #16]
 1234 0032 43F04003 		orr	r3, r3, #64
 1235 0036 2361     		str	r3, [r4, #16]
 1236              		.loc 1 640 0
 1237 0038 FFF7FEFF 		bl	FLASH_WaitForLastOperation
 1238              	.LVL90:
 1239              		.loc 1 642 0
 1240 003c 0428     		cmp	r0, #4
 1241 003e 18D1     		bne	.L108
 1242              		.loc 1 645 0
 1243 0040 2269     		ldr	r2, [r4, #16]
 1244 0042 41F6DF73 		movw	r3, #8159
 1245 0046 02EA0303 		and	r3, r2, r3
 1246 004a 2361     		str	r3, [r4, #16]
 1247              		.loc 1 648 0
 1248 004c 2369     		ldr	r3, [r4, #16]
 1249              		.loc 1 652 0
 1250 004e 4FF40050 		mov	r0, #8192
ARM GAS  /tmp/ccz3NjuA.s 			page 23


 1251              	.LVL91:
 1252              		.loc 1 648 0
 1253 0052 43F01003 		orr	r3, r3, #16
 1254 0056 2361     		str	r3, [r4, #16]
 1255              		.loc 1 650 0
 1256 0058 0D4B     		ldr	r3, .L110+12
 1257 005a 1D80     		strh	r5, [r3, #0]	@ movhi
 1258              		.loc 1 652 0
 1259 005c FFF7FEFF 		bl	FLASH_WaitForLastOperation
 1260              	.LVL92:
 1261              		.loc 1 654 0
 1262 0060 0528     		cmp	r0, #5
 1263 0062 0ED0     		beq	.L107
 1264              		.loc 1 657 0
 1265 0064 2269     		ldr	r2, [r4, #16]
 1266 0066 41F6EF73 		movw	r3, #8175
 1267 006a 02EA0303 		and	r3, r2, r3
 1268 006e 2361     		str	r3, [r4, #16]
 1269 0070 38BD     		pop	{r3, r4, r5, pc}
 1270              	.L108:
 1271              		.loc 1 662 0
 1272 0072 0528     		cmp	r0, #5
 1273 0074 05D0     		beq	.L107
 1274              		.loc 1 665 0
 1275 0076 2269     		ldr	r2, [r4, #16]
 1276 0078 41F6EF73 		movw	r3, #8175
 1277 007c 02EA0303 		and	r3, r2, r3
 1278 0080 2361     		str	r3, [r4, #16]
 1279              	.LVL93:
 1280              	.L107:
 1281              		.loc 1 671 0
 1282 0082 38BD     		pop	{r3, r4, r5, pc}
 1283              	.L111:
 1284              		.align	2
 1285              	.L110:
 1286 0084 00200240 		.word	1073881088
 1287 0088 23016745 		.word	1164378403
 1288 008c AB89EFCD 		.word	-839939669
 1289 0090 00F8FF1F 		.word	536868864
 1290              		.cfi_endproc
 1291              	.LFE65:
 1292              		.size	FLASH_EraseOptionBytes, .-FLASH_EraseOptionBytes
 1293              		.section	.text.FLASH_EraseAllPages,"ax",%progbits
 1294              		.align	1
 1295              		.global	FLASH_EraseAllPages
 1296              		.thumb
 1297              		.thumb_func
 1298              		.type	FLASH_EraseAllPages, %function
 1299              	FLASH_EraseAllPages:
 1300              	.LFB63:
 1301              		.loc 1 493 0
 1302              		.cfi_startproc
 1303              		@ args = 0, pretend = 0, frame = 0
 1304              		@ frame_needed = 0, uses_anonymous_args = 0
 1305              	.LVL94:
 1306 0000 10B5     		push	{r4, lr}
 1307              	.LCFI8:
ARM GAS  /tmp/ccz3NjuA.s 			page 24


 1308              		.cfi_def_cfa_offset 8
 1309              		.loc 1 526 0
 1310 0002 4FF43020 		mov	r0, #720896
 1311              		.cfi_offset 14, -4
 1312              		.cfi_offset 4, -8
 1313 0006 FFF7FEFF 		bl	FLASH_WaitForLastOperation
 1314              	.LVL95:
 1315              		.loc 1 527 0
 1316 000a 0428     		cmp	r0, #4
 1317 000c 12D1     		bne	.L113
 1318              		.loc 1 530 0
 1319 000e 0A4C     		ldr	r4, .L114
 1320              		.loc 1 534 0
 1321 0010 4FF43020 		mov	r0, #720896
 1322              	.LVL96:
 1323              		.loc 1 530 0
 1324 0014 2369     		ldr	r3, [r4, #16]
 1325 0016 43F00403 		orr	r3, r3, #4
 1326 001a 2361     		str	r3, [r4, #16]
 1327              		.loc 1 531 0
 1328 001c 2369     		ldr	r3, [r4, #16]
 1329 001e 43F04003 		orr	r3, r3, #64
 1330 0022 2361     		str	r3, [r4, #16]
 1331              		.loc 1 534 0
 1332 0024 FFF7FEFF 		bl	FLASH_WaitForLastOperation
 1333              	.LVL97:
 1334              		.loc 1 537 0
 1335 0028 2269     		ldr	r2, [r4, #16]
 1336 002a 41F6FB73 		movw	r3, #8187
 1337 002e 02EA0303 		and	r3, r2, r3
 1338 0032 2361     		str	r3, [r4, #16]
 1339              	.LVL98:
 1340              	.L113:
 1341              		.loc 1 543 0
 1342 0034 10BD     		pop	{r4, pc}
 1343              	.L115:
 1344 0036 00BF     		.align	2
 1345              	.L114:
 1346 0038 00200240 		.word	1073881088
 1347              		.cfi_endproc
 1348              	.LFE63:
 1349              		.size	FLASH_EraseAllPages, .-FLASH_EraseAllPages
 1350              		.section	.text.FLASH_ErasePage,"ax",%progbits
 1351              		.align	1
 1352              		.global	FLASH_ErasePage
 1353              		.thumb
 1354              		.thumb_func
 1355              		.type	FLASH_ErasePage, %function
 1356              	FLASH_ErasePage:
 1357              	.LFB62:
 1358              		.loc 1 420 0
 1359              		.cfi_startproc
 1360              		@ args = 0, pretend = 0, frame = 0
 1361              		@ frame_needed = 0, uses_anonymous_args = 0
 1362              	.LVL99:
 1363 0000 38B5     		push	{r3, r4, r5, lr}
 1364              	.LCFI9:
ARM GAS  /tmp/ccz3NjuA.s 			page 25


 1365              		.cfi_def_cfa_offset 16
 1366              		.loc 1 420 0
 1367 0002 0546     		mov	r5, r0
 1368              		.cfi_offset 14, -4
 1369              		.cfi_offset 5, -8
 1370              		.cfi_offset 4, -12
 1371              		.cfi_offset 3, -16
 1372              		.loc 1 464 0
 1373 0004 4FF43020 		mov	r0, #720896
 1374              	.LVL100:
 1375 0008 FFF7FEFF 		bl	FLASH_WaitForLastOperation
 1376              	.LVL101:
 1377              		.loc 1 466 0
 1378 000c 0428     		cmp	r0, #4
 1379 000e 13D1     		bne	.L117
 1380              		.loc 1 469 0
 1381 0010 0A4C     		ldr	r4, .L118
 1382              		.loc 1 474 0
 1383 0012 4FF43020 		mov	r0, #720896
 1384              	.LVL102:
 1385              		.loc 1 469 0
 1386 0016 2369     		ldr	r3, [r4, #16]
 1387 0018 43F00203 		orr	r3, r3, #2
 1388 001c 2361     		str	r3, [r4, #16]
 1389              		.loc 1 470 0
 1390 001e 6561     		str	r5, [r4, #20]
 1391              		.loc 1 471 0
 1392 0020 2369     		ldr	r3, [r4, #16]
 1393 0022 43F04003 		orr	r3, r3, #64
 1394 0026 2361     		str	r3, [r4, #16]
 1395              		.loc 1 474 0
 1396 0028 FFF7FEFF 		bl	FLASH_WaitForLastOperation
 1397              	.LVL103:
 1398              		.loc 1 477 0
 1399 002c 2269     		ldr	r2, [r4, #16]
 1400 002e 41F6FD73 		movw	r3, #8189
 1401 0032 02EA0303 		and	r3, r2, r3
 1402 0036 2361     		str	r3, [r4, #16]
 1403              	.LVL104:
 1404              	.L117:
 1405              		.loc 1 483 0
 1406 0038 38BD     		pop	{r3, r4, r5, pc}
 1407              	.L119:
 1408 003a 00BF     		.align	2
 1409              	.L118:
 1410 003c 00200240 		.word	1073881088
 1411              		.cfi_endproc
 1412              	.LFE62:
 1413              		.size	FLASH_ErasePage, .-FLASH_ErasePage
 1414              		.section	.text.FLASH_WaitForLastBank1Operation,"ax",%progbits
 1415              		.align	1
 1416              		.global	FLASH_WaitForLastBank1Operation
 1417              		.thumb
 1418              		.thumb_func
 1419              		.type	FLASH_WaitForLastBank1Operation, %function
 1420              	FLASH_WaitForLastBank1Operation:
 1421              	.LFB82:
ARM GAS  /tmp/ccz3NjuA.s 			page 26


 1422              		.loc 1 1624 0
 1423              		.cfi_startproc
 1424              		@ args = 0, pretend = 0, frame = 0
 1425              		@ frame_needed = 0, uses_anonymous_args = 0
 1426              	.LVL105:
 1427 0000 10B5     		push	{r4, lr}
 1428              	.LCFI10:
 1429              		.cfi_def_cfa_offset 8
 1430              		.loc 1 1624 0
 1431 0002 0446     		mov	r4, r0
 1432              		.cfi_offset 14, -4
 1433              		.cfi_offset 4, -8
 1434              		.loc 1 1628 0
 1435 0004 FFF7FEFF 		bl	FLASH_GetBank1Status
 1436              	.LVL106:
 1437              		.loc 1 1630 0
 1438 0008 02E0     		b	.L121
 1439              	.L123:
 1440              		.loc 1 1632 0
 1441 000a FFF7FEFF 		bl	FLASH_GetBank1Status
 1442              	.LVL107:
 1443              		.loc 1 1633 0
 1444 000e 013C     		subs	r4, r4, #1
 1445              	.LVL108:
 1446              	.L121:
 1447              		.loc 1 1630 0 discriminator 1
 1448 0010 0128     		cmp	r0, #1
 1449 0012 03D1     		bne	.L122
 1450              		.loc 1 1630 0 is_stmt 0 discriminator 2
 1451 0014 002C     		cmp	r4, #0
 1452 0016 F8D1     		bne	.L123
 1453              		.loc 1 1637 0 is_stmt 1
 1454 0018 0430     		adds	r0, r0, #4
 1455              	.LVL109:
 1456 001a 10BD     		pop	{r4, pc}
 1457              	.LVL110:
 1458              	.L122:
 1459 001c 002C     		cmp	r4, #0
 1460 001e 08BF     		it	eq
 1461 0020 0520     		moveq	r0, #5
 1462              	.LVL111:
 1463              		.loc 1 1641 0
 1464 0022 10BD     		pop	{r4, pc}
 1465              		.cfi_endproc
 1466              	.LFE82:
 1467              		.size	FLASH_WaitForLastBank1Operation, .-FLASH_WaitForLastBank1Operation
 1468              		.section	.text.FLASH_EraseAllBank1Pages,"ax",%progbits
 1469              		.align	1
 1470              		.global	FLASH_EraseAllBank1Pages
 1471              		.thumb
 1472              		.thumb_func
 1473              		.type	FLASH_EraseAllBank1Pages, %function
 1474              	FLASH_EraseAllBank1Pages:
 1475              	.LFB64:
 1476              		.loc 1 556 0
 1477              		.cfi_startproc
 1478              		@ args = 0, pretend = 0, frame = 0
ARM GAS  /tmp/ccz3NjuA.s 			page 27


 1479              		@ frame_needed = 0, uses_anonymous_args = 0
 1480              	.LVL112:
 1481 0000 10B5     		push	{r4, lr}
 1482              	.LCFI11:
 1483              		.cfi_def_cfa_offset 8
 1484              		.loc 1 559 0
 1485 0002 4FF43020 		mov	r0, #720896
 1486              		.cfi_offset 14, -4
 1487              		.cfi_offset 4, -8
 1488 0006 FFF7FEFF 		bl	FLASH_WaitForLastBank1Operation
 1489              	.LVL113:
 1490              		.loc 1 561 0
 1491 000a 0428     		cmp	r0, #4
 1492 000c 12D1     		bne	.L127
 1493              		.loc 1 564 0
 1494 000e 0A4C     		ldr	r4, .L128
 1495              		.loc 1 568 0
 1496 0010 4FF43020 		mov	r0, #720896
 1497              	.LVL114:
 1498              		.loc 1 564 0
 1499 0014 2369     		ldr	r3, [r4, #16]
 1500 0016 43F00403 		orr	r3, r3, #4
 1501 001a 2361     		str	r3, [r4, #16]
 1502              		.loc 1 565 0
 1503 001c 2369     		ldr	r3, [r4, #16]
 1504 001e 43F04003 		orr	r3, r3, #64
 1505 0022 2361     		str	r3, [r4, #16]
 1506              		.loc 1 568 0
 1507 0024 FFF7FEFF 		bl	FLASH_WaitForLastBank1Operation
 1508              	.LVL115:
 1509              		.loc 1 571 0
 1510 0028 2269     		ldr	r2, [r4, #16]
 1511 002a 41F6FB73 		movw	r3, #8187
 1512 002e 02EA0303 		and	r3, r2, r3
 1513 0032 2361     		str	r3, [r4, #16]
 1514              	.LVL116:
 1515              	.L127:
 1516              		.loc 1 575 0
 1517 0034 10BD     		pop	{r4, pc}
 1518              	.L129:
 1519 0036 00BF     		.align	2
 1520              	.L128:
 1521 0038 00200240 		.word	1073881088
 1522              		.cfi_endproc
 1523              	.LFE64:
 1524              		.size	FLASH_EraseAllBank1Pages, .-FLASH_EraseAllBank1Pages
 1525              		.text
 1526              	.Letext0:
 1527              		.section	.debug_loc,"",%progbits
 1528              	.Ldebug_loc0:
 1529              	.LLST0:
 1530 0000 00000000 		.4byte	.LVL0
 1531 0004 04000000 		.4byte	.LVL1
 1532 0008 0200     		.2byte	0x2
 1533 000a 30       		.byte	0x30
 1534 000b 9F       		.byte	0x9f
 1535 000c 04000000 		.4byte	.LVL1
ARM GAS  /tmp/ccz3NjuA.s 			page 28


 1536 0010 08000000 		.4byte	.LVL2
 1537 0014 0100     		.2byte	0x1
 1538 0016 52       		.byte	0x52
 1539 0017 08000000 		.4byte	.LVL2
 1540 001b 0C000000 		.4byte	.LVL3
 1541 001f 0100     		.2byte	0x1
 1542 0021 52       		.byte	0x52
 1543 0022 0C000000 		.4byte	.LVL3
 1544 0026 14000000 		.4byte	.LFE55
 1545 002a 0100     		.2byte	0x1
 1546 002c 52       		.byte	0x52
 1547 002d 00000000 		.4byte	0x0
 1548 0031 00000000 		.4byte	0x0
 1549              	.LLST1:
 1550 0035 00000000 		.4byte	.LVL6
 1551 0039 04000000 		.4byte	.LVL7
 1552 003d 0200     		.2byte	0x2
 1553 003f 30       		.byte	0x30
 1554 0040 9F       		.byte	0x9f
 1555 0041 04000000 		.4byte	.LVL7
 1556 0045 08000000 		.4byte	.LVL8
 1557 0049 0700     		.2byte	0x7
 1558 004b 70       		.byte	0x70
 1559 004c 00       		.sleb128 0
 1560 004d 32       		.byte	0x32
 1561 004e 1A       		.byte	0x1a
 1562 004f 30       		.byte	0x30
 1563 0050 2E       		.byte	0x2e
 1564 0051 9F       		.byte	0x9f
 1565 0052 00000000 		.4byte	0x0
 1566 0056 00000000 		.4byte	0x0
 1567              	.LLST2:
 1568 005a 00000000 		.4byte	.LVL9
 1569 005e 04000000 		.4byte	.LVL10
 1570 0062 0200     		.2byte	0x2
 1571 0064 30       		.byte	0x30
 1572 0065 9F       		.byte	0x9f
 1573 0066 04000000 		.4byte	.LVL10
 1574 006a 08000000 		.4byte	.LVL11
 1575 006e 0800     		.2byte	0x8
 1576 0070 70       		.byte	0x70
 1577 0071 00       		.sleb128 0
 1578 0072 08       		.byte	0x8
 1579 0073 20       		.byte	0x20
 1580 0074 1A       		.byte	0x1a
 1581 0075 30       		.byte	0x30
 1582 0076 2E       		.byte	0x2e
 1583 0077 9F       		.byte	0x9f
 1584 0078 00000000 		.4byte	0x0
 1585 007c 00000000 		.4byte	0x0
 1586              	.LLST3:
 1587 0080 00000000 		.4byte	.LVL12
 1588 0084 08000000 		.4byte	.LVL13
 1589 0088 0100     		.2byte	0x1
 1590 008a 50       		.byte	0x50
 1591 008b 0A000000 		.4byte	.LVL14
 1592 008f 10000000 		.4byte	.LVL15
ARM GAS  /tmp/ccz3NjuA.s 			page 29


 1593 0093 0100     		.2byte	0x1
 1594 0095 50       		.byte	0x50
 1595 0096 00000000 		.4byte	0x0
 1596 009a 00000000 		.4byte	0x0
 1597              	.LLST4:
 1598 009e 00000000 		.4byte	.LVL16
 1599 00a2 08000000 		.4byte	.LVL17
 1600 00a6 0100     		.2byte	0x1
 1601 00a8 50       		.byte	0x50
 1602 00a9 0E000000 		.4byte	.LVL18
 1603 00ad 18000000 		.4byte	.LVL19
 1604 00b1 0100     		.2byte	0x1
 1605 00b3 50       		.byte	0x50
 1606 00b4 00000000 		.4byte	0x0
 1607 00b8 00000000 		.4byte	0x0
 1608              	.LLST5:
 1609 00bc 00000000 		.4byte	.LVL16
 1610 00c0 18000000 		.4byte	.LVL19
 1611 00c4 0200     		.2byte	0x2
 1612 00c6 30       		.byte	0x30
 1613 00c7 9F       		.byte	0x9f
 1614 00c8 18000000 		.4byte	.LVL19
 1615 00cc 20000000 		.4byte	.LFE77
 1616 00d0 0100     		.2byte	0x1
 1617 00d2 50       		.byte	0x50
 1618 00d3 00000000 		.4byte	0x0
 1619 00d7 00000000 		.4byte	0x0
 1620              	.LLST6:
 1621 00db 00000000 		.4byte	.LVL21
 1622 00df 28000000 		.4byte	.LVL22
 1623 00e3 0200     		.2byte	0x2
 1624 00e5 34       		.byte	0x34
 1625 00e6 9F       		.byte	0x9f
 1626 00e7 28000000 		.4byte	.LVL22
 1627 00eb 30000000 		.4byte	.LFE79
 1628 00ef 0100     		.2byte	0x1
 1629 00f1 50       		.byte	0x50
 1630 00f2 00000000 		.4byte	0x0
 1631 00f6 00000000 		.4byte	0x0
 1632              	.LLST7:
 1633 00fa 00000000 		.4byte	.LVL23
 1634 00fe 28000000 		.4byte	.LVL24
 1635 0102 0200     		.2byte	0x2
 1636 0104 34       		.byte	0x34
 1637 0105 9F       		.byte	0x9f
 1638 0106 28000000 		.4byte	.LVL24
 1639 010a 30000000 		.4byte	.LFE80
 1640 010e 0100     		.2byte	0x1
 1641 0110 50       		.byte	0x50
 1642 0111 00000000 		.4byte	0x0
 1643 0115 00000000 		.4byte	0x0
 1644              	.LLST8:
 1645 0119 00000000 		.4byte	.LFB81
 1646 011d 02000000 		.4byte	.LCFI0
 1647 0121 0200     		.2byte	0x2
 1648 0123 7D       		.byte	0x7d
 1649 0124 00       		.sleb128 0
ARM GAS  /tmp/ccz3NjuA.s 			page 30


 1650 0125 02000000 		.4byte	.LCFI0
 1651 0129 24000000 		.4byte	.LFE81
 1652 012d 0200     		.2byte	0x2
 1653 012f 7D       		.byte	0x7d
 1654 0130 08       		.sleb128 8
 1655 0131 00000000 		.4byte	0x0
 1656 0135 00000000 		.4byte	0x0
 1657              	.LLST9:
 1658 0139 00000000 		.4byte	.LVL25
 1659 013d 07000000 		.4byte	.LVL26-1
 1660 0141 0100     		.2byte	0x1
 1661 0143 50       		.byte	0x50
 1662 0144 07000000 		.4byte	.LVL26-1
 1663 0148 10000000 		.4byte	.LVL28
 1664 014c 0100     		.2byte	0x1
 1665 014e 54       		.byte	0x54
 1666 014f 10000000 		.4byte	.LVL28
 1667 0153 24000000 		.4byte	.LFE81
 1668 0157 0100     		.2byte	0x1
 1669 0159 54       		.byte	0x54
 1670 015a 00000000 		.4byte	0x0
 1671 015e 00000000 		.4byte	0x0
 1672              	.LLST10:
 1673 0162 00000000 		.4byte	.LVL25
 1674 0166 08000000 		.4byte	.LVL26
 1675 016a 0200     		.2byte	0x2
 1676 016c 34       		.byte	0x34
 1677 016d 9F       		.byte	0x9f
 1678 016e 08000000 		.4byte	.LVL26
 1679 0172 0D000000 		.4byte	.LVL27-1
 1680 0176 0100     		.2byte	0x1
 1681 0178 50       		.byte	0x50
 1682 0179 0E000000 		.4byte	.LVL27
 1683 017d 10000000 		.4byte	.LVL28
 1684 0181 0100     		.2byte	0x1
 1685 0183 50       		.byte	0x50
 1686 0184 10000000 		.4byte	.LVL28
 1687 0188 1A000000 		.4byte	.LVL29
 1688 018c 0100     		.2byte	0x1
 1689 018e 50       		.byte	0x50
 1690 018f 1C000000 		.4byte	.LVL30
 1691 0193 22000000 		.4byte	.LVL31
 1692 0197 0100     		.2byte	0x1
 1693 0199 50       		.byte	0x50
 1694 019a 22000000 		.4byte	.LVL31
 1695 019e 24000000 		.4byte	.LFE81
 1696 01a2 0100     		.2byte	0x1
 1697 01a4 50       		.byte	0x50
 1698 01a5 00000000 		.4byte	0x0
 1699 01a9 00000000 		.4byte	0x0
 1700              	.LLST11:
 1701 01ad 00000000 		.4byte	.LFB71
 1702 01b1 02000000 		.4byte	.LCFI1
 1703 01b5 0200     		.2byte	0x2
 1704 01b7 7D       		.byte	0x7d
 1705 01b8 00       		.sleb128 0
 1706 01b9 02000000 		.4byte	.LCFI1
ARM GAS  /tmp/ccz3NjuA.s 			page 31


 1707 01bd 5C000000 		.4byte	.LFE71
 1708 01c1 0200     		.2byte	0x2
 1709 01c3 7D       		.byte	0x7d
 1710 01c4 18       		.sleb128 24
 1711 01c5 00000000 		.4byte	0x0
 1712 01c9 00000000 		.4byte	0x0
 1713              	.LLST12:
 1714 01cd 00000000 		.4byte	.LVL32
 1715 01d1 10000000 		.4byte	.LVL33
 1716 01d5 0100     		.2byte	0x1
 1717 01d7 50       		.byte	0x50
 1718 01d8 00000000 		.4byte	0x0
 1719 01dc 00000000 		.4byte	0x0
 1720              	.LLST13:
 1721 01e0 00000000 		.4byte	.LVL32
 1722 01e4 19000000 		.4byte	.LVL34-1
 1723 01e8 0100     		.2byte	0x1
 1724 01ea 51       		.byte	0x51
 1725 01eb 00000000 		.4byte	0x0
 1726 01ef 00000000 		.4byte	0x0
 1727              	.LLST14:
 1728 01f3 00000000 		.4byte	.LVL32
 1729 01f7 19000000 		.4byte	.LVL34-1
 1730 01fb 0100     		.2byte	0x1
 1731 01fd 52       		.byte	0x52
 1732 01fe 00000000 		.4byte	0x0
 1733 0202 00000000 		.4byte	0x0
 1734              	.LLST15:
 1735 0206 00000000 		.4byte	.LVL32
 1736 020a 1A000000 		.4byte	.LVL34
 1737 020e 0200     		.2byte	0x2
 1738 0210 34       		.byte	0x34
 1739 0211 9F       		.byte	0x9f
 1740 0212 1A000000 		.4byte	.LVL34
 1741 0216 36000000 		.4byte	.LVL35
 1742 021a 0100     		.2byte	0x1
 1743 021c 50       		.byte	0x50
 1744 021d 3A000000 		.4byte	.LVL36
 1745 0221 4A000000 		.4byte	.LVL37
 1746 0225 0100     		.2byte	0x1
 1747 0227 50       		.byte	0x50
 1748 0228 4A000000 		.4byte	.LVL37
 1749 022c 5C000000 		.4byte	.LFE71
 1750 0230 0100     		.2byte	0x1
 1751 0232 50       		.byte	0x50
 1752 0233 00000000 		.4byte	0x0
 1753 0237 00000000 		.4byte	0x0
 1754              	.LLST16:
 1755 023b 00000000 		.4byte	.LFB70
 1756 023f 02000000 		.4byte	.LCFI2
 1757 0243 0200     		.2byte	0x2
 1758 0245 7D       		.byte	0x7d
 1759 0246 00       		.sleb128 0
 1760 0247 02000000 		.4byte	.LCFI2
 1761 024b 94000000 		.4byte	.LFE70
 1762 024f 0200     		.2byte	0x2
 1763 0251 7D       		.byte	0x7d
ARM GAS  /tmp/ccz3NjuA.s 			page 32


 1764 0252 10       		.sleb128 16
 1765 0253 00000000 		.4byte	0x0
 1766 0257 00000000 		.4byte	0x0
 1767              	.LLST17:
 1768 025b 00000000 		.4byte	.LVL38
 1769 025f 08000000 		.4byte	.LVL39
 1770 0263 0100     		.2byte	0x1
 1771 0265 50       		.byte	0x50
 1772 0266 00000000 		.4byte	0x0
 1773 026a 00000000 		.4byte	0x0
 1774              	.LLST18:
 1775 026e 00000000 		.4byte	.LVL38
 1776 0272 0C000000 		.4byte	.LVL40
 1777 0276 0200     		.2byte	0x2
 1778 0278 34       		.byte	0x34
 1779 0279 9F       		.byte	0x9f
 1780 027a 0C000000 		.4byte	.LVL40
 1781 027e 18000000 		.4byte	.LVL41
 1782 0282 0100     		.2byte	0x1
 1783 0284 50       		.byte	0x50
 1784 0285 32000000 		.4byte	.LVL42
 1785 0289 5A000000 		.4byte	.LVL43
 1786 028d 0100     		.2byte	0x1
 1787 028f 50       		.byte	0x50
 1788 0290 5E000000 		.4byte	.LVL44
 1789 0294 82000000 		.4byte	.LVL45
 1790 0298 0100     		.2byte	0x1
 1791 029a 50       		.byte	0x50
 1792 029b 82000000 		.4byte	.LVL45
 1793 029f 94000000 		.4byte	.LFE70
 1794 02a3 0100     		.2byte	0x1
 1795 02a5 50       		.byte	0x50
 1796 02a6 00000000 		.4byte	0x0
 1797 02aa 00000000 		.4byte	0x0
 1798              	.LLST19:
 1799 02ae 00000000 		.4byte	.LFB69
 1800 02b2 02000000 		.4byte	.LCFI3
 1801 02b6 0200     		.2byte	0x2
 1802 02b8 7D       		.byte	0x7d
 1803 02b9 00       		.sleb128 0
 1804 02ba 02000000 		.4byte	.LCFI3
 1805 02be A8000000 		.4byte	.LFE69
 1806 02c2 0200     		.2byte	0x2
 1807 02c4 7D       		.byte	0x7d
 1808 02c5 08       		.sleb128 8
 1809 02c6 00000000 		.4byte	0x0
 1810 02ca 00000000 		.4byte	0x0
 1811              	.LLST20:
 1812 02ce 00000000 		.4byte	.LVL46
 1813 02d2 04000000 		.4byte	.LVL47
 1814 02d6 0100     		.2byte	0x1
 1815 02d8 50       		.byte	0x50
 1816 02d9 04000000 		.4byte	.LVL47
 1817 02dd 08000000 		.4byte	.LVL48
 1818 02e1 0400     		.2byte	0x4
 1819 02e3 70       		.byte	0x70
 1820 02e4 00       		.sleb128 0
ARM GAS  /tmp/ccz3NjuA.s 			page 33


 1821 02e5 20       		.byte	0x20
 1822 02e6 9F       		.byte	0x9f
 1823 02e7 08000000 		.4byte	.LVL48
 1824 02eb 16000000 		.4byte	.LVL50
 1825 02ef 0400     		.2byte	0x4
 1826 02f1 74       		.byte	0x74
 1827 02f2 00       		.sleb128 0
 1828 02f3 20       		.byte	0x20
 1829 02f4 9F       		.byte	0x9f
 1830 02f5 16000000 		.4byte	.LVL50
 1831 02f9 70000000 		.4byte	.LVL58
 1832 02fd 0100     		.2byte	0x1
 1833 02ff 54       		.byte	0x54
 1834 0300 00000000 		.4byte	0x0
 1835 0304 00000000 		.4byte	0x0
 1836              	.LLST21:
 1837 0308 04000000 		.4byte	.LVL47
 1838 030c 08000000 		.4byte	.LVL48
 1839 0310 0700     		.2byte	0x7
 1840 0312 70       		.byte	0x70
 1841 0313 00       		.sleb128 0
 1842 0314 20       		.byte	0x20
 1843 0315 08       		.byte	0x8
 1844 0316 FF       		.byte	0xff
 1845 0317 1A       		.byte	0x1a
 1846 0318 9F       		.byte	0x9f
 1847 0319 08000000 		.4byte	.LVL48
 1848 031d 16000000 		.4byte	.LVL50
 1849 0321 0700     		.2byte	0x7
 1850 0323 74       		.byte	0x74
 1851 0324 00       		.sleb128 0
 1852 0325 20       		.byte	0x20
 1853 0326 08       		.byte	0x8
 1854 0327 FF       		.byte	0xff
 1855 0328 1A       		.byte	0x1a
 1856 0329 9F       		.byte	0x9f
 1857 032a 16000000 		.4byte	.LVL50
 1858 032e 70000000 		.4byte	.LVL58
 1859 0332 0600     		.2byte	0x6
 1860 0334 74       		.byte	0x74
 1861 0335 00       		.sleb128 0
 1862 0336 08       		.byte	0x8
 1863 0337 FF       		.byte	0xff
 1864 0338 1A       		.byte	0x1a
 1865 0339 9F       		.byte	0x9f
 1866 033a 00000000 		.4byte	0x0
 1867 033e 00000000 		.4byte	0x0
 1868              	.LLST22:
 1869 0342 00000000 		.4byte	.LVL46
 1870 0346 0C000000 		.4byte	.LVL49
 1871 034a 0200     		.2byte	0x2
 1872 034c 34       		.byte	0x34
 1873 034d 9F       		.byte	0x9f
 1874 034e 0C000000 		.4byte	.LVL49
 1875 0352 30000000 		.4byte	.LVL51
 1876 0356 0100     		.2byte	0x1
 1877 0358 50       		.byte	0x50
ARM GAS  /tmp/ccz3NjuA.s 			page 34


 1878 0359 36000000 		.4byte	.LVL52
 1879 035d 3A000000 		.4byte	.LVL53
 1880 0361 0100     		.2byte	0x1
 1881 0363 50       		.byte	0x50
 1882 0364 50000000 		.4byte	.LVL54
 1883 0368 54000000 		.4byte	.LVL55
 1884 036c 0100     		.2byte	0x1
 1885 036e 50       		.byte	0x50
 1886 036f 6A000000 		.4byte	.LVL56
 1887 0373 6E000000 		.4byte	.LVL57
 1888 0377 0100     		.2byte	0x1
 1889 0379 50       		.byte	0x50
 1890 037a 80000000 		.4byte	.LVL59
 1891 037e 86000000 		.4byte	.LVL60
 1892 0382 0100     		.2byte	0x1
 1893 0384 50       		.byte	0x50
 1894 0385 96000000 		.4byte	.LVL61
 1895 0389 A8000000 		.4byte	.LFE69
 1896 038d 0100     		.2byte	0x1
 1897 038f 50       		.byte	0x50
 1898 0390 00000000 		.4byte	0x0
 1899 0394 00000000 		.4byte	0x0
 1900              	.LLST23:
 1901 0398 00000000 		.4byte	.LFB68
 1902 039c 02000000 		.4byte	.LCFI4
 1903 03a0 0200     		.2byte	0x2
 1904 03a2 7D       		.byte	0x7d
 1905 03a3 00       		.sleb128 0
 1906 03a4 02000000 		.4byte	.LCFI4
 1907 03a8 4C000000 		.4byte	.LFE68
 1908 03ac 0200     		.2byte	0x2
 1909 03ae 7D       		.byte	0x7d
 1910 03af 10       		.sleb128 16
 1911 03b0 00000000 		.4byte	0x0
 1912 03b4 00000000 		.4byte	0x0
 1913              	.LLST24:
 1914 03b8 00000000 		.4byte	.LVL62
 1915 03bc 08000000 		.4byte	.LVL63
 1916 03c0 0100     		.2byte	0x1
 1917 03c2 50       		.byte	0x50
 1918 03c3 08000000 		.4byte	.LVL63
 1919 03c7 4C000000 		.4byte	.LFE68
 1920 03cb 0100     		.2byte	0x1
 1921 03cd 54       		.byte	0x54
 1922 03ce 00000000 		.4byte	0x0
 1923 03d2 00000000 		.4byte	0x0
 1924              	.LLST25:
 1925 03d6 00000000 		.4byte	.LVL62
 1926 03da 0D000000 		.4byte	.LVL64-1
 1927 03de 0100     		.2byte	0x1
 1928 03e0 51       		.byte	0x51
 1929 03e1 00000000 		.4byte	0x0
 1930 03e5 00000000 		.4byte	0x0
 1931              	.LLST26:
 1932 03e9 00000000 		.4byte	.LVL62
 1933 03ed 0E000000 		.4byte	.LVL64
 1934 03f1 0200     		.2byte	0x2
ARM GAS  /tmp/ccz3NjuA.s 			page 35


 1935 03f3 34       		.byte	0x34
 1936 03f4 9F       		.byte	0x9f
 1937 03f5 0E000000 		.4byte	.LVL64
 1938 03f9 1A000000 		.4byte	.LVL65
 1939 03fd 0100     		.2byte	0x1
 1940 03ff 50       		.byte	0x50
 1941 0400 2E000000 		.4byte	.LVL66
 1942 0404 3E000000 		.4byte	.LVL67
 1943 0408 0100     		.2byte	0x1
 1944 040a 50       		.byte	0x50
 1945 040b 3E000000 		.4byte	.LVL67
 1946 040f 4C000000 		.4byte	.LFE68
 1947 0413 0100     		.2byte	0x1
 1948 0415 50       		.byte	0x50
 1949 0416 00000000 		.4byte	0x0
 1950 041a 00000000 		.4byte	0x0
 1951              	.LLST27:
 1952 041e 00000000 		.4byte	.LFB67
 1953 0422 02000000 		.4byte	.LCFI5
 1954 0426 0200     		.2byte	0x2
 1955 0428 7D       		.byte	0x7d
 1956 0429 00       		.sleb128 0
 1957 042a 02000000 		.4byte	.LCFI5
 1958 042e 38000000 		.4byte	.LFE67
 1959 0432 0200     		.2byte	0x2
 1960 0434 7D       		.byte	0x7d
 1961 0435 10       		.sleb128 16
 1962 0436 00000000 		.4byte	0x0
 1963 043a 00000000 		.4byte	0x0
 1964              	.LLST28:
 1965 043e 00000000 		.4byte	.LVL68
 1966 0442 08000000 		.4byte	.LVL69
 1967 0446 0100     		.2byte	0x1
 1968 0448 50       		.byte	0x50
 1969 0449 08000000 		.4byte	.LVL69
 1970 044d 38000000 		.4byte	.LFE67
 1971 0451 0100     		.2byte	0x1
 1972 0453 54       		.byte	0x54
 1973 0454 00000000 		.4byte	0x0
 1974 0458 00000000 		.4byte	0x0
 1975              	.LLST29:
 1976 045c 00000000 		.4byte	.LVL68
 1977 0460 0D000000 		.4byte	.LVL70-1
 1978 0464 0100     		.2byte	0x1
 1979 0466 51       		.byte	0x51
 1980 0467 00000000 		.4byte	0x0
 1981 046b 00000000 		.4byte	0x0
 1982              	.LLST30:
 1983 046f 00000000 		.4byte	.LVL68
 1984 0473 0E000000 		.4byte	.LVL70
 1985 0477 0200     		.2byte	0x2
 1986 0479 34       		.byte	0x34
 1987 047a 9F       		.byte	0x9f
 1988 047b 0E000000 		.4byte	.LVL70
 1989 047f 18000000 		.4byte	.LVL71
 1990 0483 0100     		.2byte	0x1
 1991 0485 50       		.byte	0x50
ARM GAS  /tmp/ccz3NjuA.s 			page 36


 1992 0486 26000000 		.4byte	.LVL72
 1993 048a 32000000 		.4byte	.LVL73
 1994 048e 0100     		.2byte	0x1
 1995 0490 50       		.byte	0x50
 1996 0491 32000000 		.4byte	.LVL73
 1997 0495 38000000 		.4byte	.LFE67
 1998 0499 0100     		.2byte	0x1
 1999 049b 50       		.byte	0x50
 2000 049c 00000000 		.4byte	0x0
 2001 04a0 00000000 		.4byte	0x0
 2002              	.LLST31:
 2003 04a4 00000000 		.4byte	.LFB66
 2004 04a8 02000000 		.4byte	.LCFI6
 2005 04ac 0200     		.2byte	0x2
 2006 04ae 7D       		.byte	0x7d
 2007 04af 00       		.sleb128 0
 2008 04b0 02000000 		.4byte	.LCFI6
 2009 04b4 54000000 		.4byte	.LFE66
 2010 04b8 0200     		.2byte	0x2
 2011 04ba 7D       		.byte	0x7d
 2012 04bb 18       		.sleb128 24
 2013 04bc 00000000 		.4byte	0x0
 2014 04c0 00000000 		.4byte	0x0
 2015              	.LLST32:
 2016 04c4 00000000 		.4byte	.LVL74
 2017 04c8 0A000000 		.4byte	.LVL75
 2018 04cc 0100     		.2byte	0x1
 2019 04ce 50       		.byte	0x50
 2020 04cf 0A000000 		.4byte	.LVL75
 2021 04d3 30000000 		.4byte	.LVL80
 2022 04d7 0100     		.2byte	0x1
 2023 04d9 54       		.byte	0x54
 2024 04da 30000000 		.4byte	.LVL80
 2025 04de 40000000 		.4byte	.LVL84
 2026 04e2 0300     		.2byte	0x3
 2027 04e4 74       		.byte	0x74
 2028 04e5 7E       		.sleb128 -2
 2029 04e6 9F       		.byte	0x9f
 2030 04e7 00000000 		.4byte	0x0
 2031 04eb 00000000 		.4byte	0x0
 2032              	.LLST33:
 2033 04ef 00000000 		.4byte	.LVL74
 2034 04f3 11000000 		.4byte	.LVL77-1
 2035 04f7 0100     		.2byte	0x1
 2036 04f9 51       		.byte	0x51
 2037 04fa 11000000 		.4byte	.LVL77-1
 2038 04fe 36000000 		.4byte	.LVL82
 2039 0502 0100     		.2byte	0x1
 2040 0504 56       		.byte	0x56
 2041 0505 00000000 		.4byte	0x0
 2042 0509 00000000 		.4byte	0x0
 2043              	.LLST34:
 2044 050d 00000000 		.4byte	.LVL74
 2045 0511 12000000 		.4byte	.LVL77
 2046 0515 0200     		.2byte	0x2
 2047 0517 34       		.byte	0x34
 2048 0518 9F       		.byte	0x9f
ARM GAS  /tmp/ccz3NjuA.s 			page 37


 2049 0519 12000000 		.4byte	.LVL77
 2050 051d 1C000000 		.4byte	.LVL78
 2051 0521 0100     		.2byte	0x1
 2052 0523 50       		.byte	0x50
 2053 0524 2A000000 		.4byte	.LVL79
 2054 0528 3C000000 		.4byte	.LVL83
 2055 052c 0100     		.2byte	0x1
 2056 052e 50       		.byte	0x50
 2057 052f 4C000000 		.4byte	.LVL85
 2058 0533 54000000 		.4byte	.LFE66
 2059 0537 0100     		.2byte	0x1
 2060 0539 50       		.byte	0x50
 2061 053a 00000000 		.4byte	0x0
 2062 053e 00000000 		.4byte	0x0
 2063              	.LLST35:
 2064 0542 0E000000 		.4byte	.LVL76
 2065 0546 30000000 		.4byte	.LVL80
 2066 054a 0200     		.2byte	0x2
 2067 054c 91       		.byte	0x91
 2068 054d 6C       		.sleb128 -20
 2069 054e 32000000 		.4byte	.LVL81
 2070 0552 54000000 		.4byte	.LFE66
 2071 0556 0100     		.2byte	0x1
 2072 0558 54       		.byte	0x54
 2073 0559 00000000 		.4byte	0x0
 2074 055d 00000000 		.4byte	0x0
 2075              	.LLST36:
 2076 0561 00000000 		.4byte	.LFB65
 2077 0565 02000000 		.4byte	.LCFI7
 2078 0569 0200     		.2byte	0x2
 2079 056b 7D       		.byte	0x7d
 2080 056c 00       		.sleb128 0
 2081 056d 02000000 		.4byte	.LCFI7
 2082 0571 94000000 		.4byte	.LFE65
 2083 0575 0200     		.2byte	0x2
 2084 0577 7D       		.byte	0x7d
 2085 0578 10       		.sleb128 16
 2086 0579 00000000 		.4byte	0x0
 2087 057d 00000000 		.4byte	0x0
 2088              	.LLST37:
 2089 0581 00000000 		.4byte	.LVL86
 2090 0585 0E000000 		.4byte	.LVL87
 2091 0589 0300     		.2byte	0x3
 2092 058b 08       		.byte	0x8
 2093 058c A5       		.byte	0xa5
 2094 058d 9F       		.byte	0x9f
 2095 058e 0E000000 		.4byte	.LVL87
 2096 0592 94000000 		.4byte	.LFE65
 2097 0596 0100     		.2byte	0x1
 2098 0598 55       		.byte	0x55
 2099 0599 00000000 		.4byte	0x0
 2100 059d 00000000 		.4byte	0x0
 2101              	.LLST38:
 2102 05a1 00000000 		.4byte	.LVL86
 2103 05a5 16000000 		.4byte	.LVL88
 2104 05a9 0200     		.2byte	0x2
 2105 05ab 34       		.byte	0x34
ARM GAS  /tmp/ccz3NjuA.s 			page 38


 2106 05ac 9F       		.byte	0x9f
 2107 05ad 16000000 		.4byte	.LVL88
 2108 05b1 22000000 		.4byte	.LVL89
 2109 05b5 0100     		.2byte	0x1
 2110 05b7 50       		.byte	0x50
 2111 05b8 3C000000 		.4byte	.LVL90
 2112 05bc 52000000 		.4byte	.LVL91
 2113 05c0 0100     		.2byte	0x1
 2114 05c2 50       		.byte	0x50
 2115 05c3 60000000 		.4byte	.LVL92
 2116 05c7 82000000 		.4byte	.LVL93
 2117 05cb 0100     		.2byte	0x1
 2118 05cd 50       		.byte	0x50
 2119 05ce 82000000 		.4byte	.LVL93
 2120 05d2 94000000 		.4byte	.LFE65
 2121 05d6 0100     		.2byte	0x1
 2122 05d8 50       		.byte	0x50
 2123 05d9 00000000 		.4byte	0x0
 2124 05dd 00000000 		.4byte	0x0
 2125              	.LLST39:
 2126 05e1 00000000 		.4byte	.LFB63
 2127 05e5 02000000 		.4byte	.LCFI8
 2128 05e9 0200     		.2byte	0x2
 2129 05eb 7D       		.byte	0x7d
 2130 05ec 00       		.sleb128 0
 2131 05ed 02000000 		.4byte	.LCFI8
 2132 05f1 3C000000 		.4byte	.LFE63
 2133 05f5 0200     		.2byte	0x2
 2134 05f7 7D       		.byte	0x7d
 2135 05f8 08       		.sleb128 8
 2136 05f9 00000000 		.4byte	0x0
 2137 05fd 00000000 		.4byte	0x0
 2138              	.LLST40:
 2139 0601 00000000 		.4byte	.LVL94
 2140 0605 0A000000 		.4byte	.LVL95
 2141 0609 0200     		.2byte	0x2
 2142 060b 34       		.byte	0x34
 2143 060c 9F       		.byte	0x9f
 2144 060d 0A000000 		.4byte	.LVL95
 2145 0611 14000000 		.4byte	.LVL96
 2146 0615 0100     		.2byte	0x1
 2147 0617 50       		.byte	0x50
 2148 0618 28000000 		.4byte	.LVL97
 2149 061c 34000000 		.4byte	.LVL98
 2150 0620 0100     		.2byte	0x1
 2151 0622 50       		.byte	0x50
 2152 0623 34000000 		.4byte	.LVL98
 2153 0627 3C000000 		.4byte	.LFE63
 2154 062b 0100     		.2byte	0x1
 2155 062d 50       		.byte	0x50
 2156 062e 00000000 		.4byte	0x0
 2157 0632 00000000 		.4byte	0x0
 2158              	.LLST41:
 2159 0636 00000000 		.4byte	.LFB62
 2160 063a 02000000 		.4byte	.LCFI9
 2161 063e 0200     		.2byte	0x2
 2162 0640 7D       		.byte	0x7d
ARM GAS  /tmp/ccz3NjuA.s 			page 39


 2163 0641 00       		.sleb128 0
 2164 0642 02000000 		.4byte	.LCFI9
 2165 0646 40000000 		.4byte	.LFE62
 2166 064a 0200     		.2byte	0x2
 2167 064c 7D       		.byte	0x7d
 2168 064d 10       		.sleb128 16
 2169 064e 00000000 		.4byte	0x0
 2170 0652 00000000 		.4byte	0x0
 2171              	.LLST42:
 2172 0656 00000000 		.4byte	.LVL99
 2173 065a 08000000 		.4byte	.LVL100
 2174 065e 0100     		.2byte	0x1
 2175 0660 50       		.byte	0x50
 2176 0661 08000000 		.4byte	.LVL100
 2177 0665 40000000 		.4byte	.LFE62
 2178 0669 0100     		.2byte	0x1
 2179 066b 55       		.byte	0x55
 2180 066c 00000000 		.4byte	0x0
 2181 0670 00000000 		.4byte	0x0
 2182              	.LLST43:
 2183 0674 00000000 		.4byte	.LVL99
 2184 0678 0C000000 		.4byte	.LVL101
 2185 067c 0200     		.2byte	0x2
 2186 067e 34       		.byte	0x34
 2187 067f 9F       		.byte	0x9f
 2188 0680 0C000000 		.4byte	.LVL101
 2189 0684 16000000 		.4byte	.LVL102
 2190 0688 0100     		.2byte	0x1
 2191 068a 50       		.byte	0x50
 2192 068b 2C000000 		.4byte	.LVL103
 2193 068f 38000000 		.4byte	.LVL104
 2194 0693 0100     		.2byte	0x1
 2195 0695 50       		.byte	0x50
 2196 0696 38000000 		.4byte	.LVL104
 2197 069a 40000000 		.4byte	.LFE62
 2198 069e 0100     		.2byte	0x1
 2199 06a0 50       		.byte	0x50
 2200 06a1 00000000 		.4byte	0x0
 2201 06a5 00000000 		.4byte	0x0
 2202              	.LLST44:
 2203 06a9 00000000 		.4byte	.LFB82
 2204 06ad 02000000 		.4byte	.LCFI10
 2205 06b1 0200     		.2byte	0x2
 2206 06b3 7D       		.byte	0x7d
 2207 06b4 00       		.sleb128 0
 2208 06b5 02000000 		.4byte	.LCFI10
 2209 06b9 24000000 		.4byte	.LFE82
 2210 06bd 0200     		.2byte	0x2
 2211 06bf 7D       		.byte	0x7d
 2212 06c0 08       		.sleb128 8
 2213 06c1 00000000 		.4byte	0x0
 2214 06c5 00000000 		.4byte	0x0
 2215              	.LLST45:
 2216 06c9 00000000 		.4byte	.LVL105
 2217 06cd 07000000 		.4byte	.LVL106-1
 2218 06d1 0100     		.2byte	0x1
 2219 06d3 50       		.byte	0x50
ARM GAS  /tmp/ccz3NjuA.s 			page 40


 2220 06d4 07000000 		.4byte	.LVL106-1
 2221 06d8 10000000 		.4byte	.LVL108
 2222 06dc 0100     		.2byte	0x1
 2223 06de 54       		.byte	0x54
 2224 06df 10000000 		.4byte	.LVL108
 2225 06e3 24000000 		.4byte	.LFE82
 2226 06e7 0100     		.2byte	0x1
 2227 06e9 54       		.byte	0x54
 2228 06ea 00000000 		.4byte	0x0
 2229 06ee 00000000 		.4byte	0x0
 2230              	.LLST46:
 2231 06f2 00000000 		.4byte	.LVL105
 2232 06f6 08000000 		.4byte	.LVL106
 2233 06fa 0200     		.2byte	0x2
 2234 06fc 34       		.byte	0x34
 2235 06fd 9F       		.byte	0x9f
 2236 06fe 08000000 		.4byte	.LVL106
 2237 0702 0D000000 		.4byte	.LVL107-1
 2238 0706 0100     		.2byte	0x1
 2239 0708 50       		.byte	0x50
 2240 0709 0E000000 		.4byte	.LVL107
 2241 070d 10000000 		.4byte	.LVL108
 2242 0711 0100     		.2byte	0x1
 2243 0713 50       		.byte	0x50
 2244 0714 10000000 		.4byte	.LVL108
 2245 0718 1A000000 		.4byte	.LVL109
 2246 071c 0100     		.2byte	0x1
 2247 071e 50       		.byte	0x50
 2248 071f 1C000000 		.4byte	.LVL110
 2249 0723 22000000 		.4byte	.LVL111
 2250 0727 0100     		.2byte	0x1
 2251 0729 50       		.byte	0x50
 2252 072a 22000000 		.4byte	.LVL111
 2253 072e 24000000 		.4byte	.LFE82
 2254 0732 0100     		.2byte	0x1
 2255 0734 50       		.byte	0x50
 2256 0735 00000000 		.4byte	0x0
 2257 0739 00000000 		.4byte	0x0
 2258              	.LLST47:
 2259 073d 00000000 		.4byte	.LFB64
 2260 0741 02000000 		.4byte	.LCFI11
 2261 0745 0200     		.2byte	0x2
 2262 0747 7D       		.byte	0x7d
 2263 0748 00       		.sleb128 0
 2264 0749 02000000 		.4byte	.LCFI11
 2265 074d 3C000000 		.4byte	.LFE64
 2266 0751 0200     		.2byte	0x2
 2267 0753 7D       		.byte	0x7d
 2268 0754 08       		.sleb128 8
 2269 0755 00000000 		.4byte	0x0
 2270 0759 00000000 		.4byte	0x0
 2271              	.LLST48:
 2272 075d 00000000 		.4byte	.LVL112
 2273 0761 0A000000 		.4byte	.LVL113
 2274 0765 0200     		.2byte	0x2
 2275 0767 34       		.byte	0x34
 2276 0768 9F       		.byte	0x9f
ARM GAS  /tmp/ccz3NjuA.s 			page 41


 2277 0769 0A000000 		.4byte	.LVL113
 2278 076d 14000000 		.4byte	.LVL114
 2279 0771 0100     		.2byte	0x1
 2280 0773 50       		.byte	0x50
 2281 0774 28000000 		.4byte	.LVL115
 2282 0778 34000000 		.4byte	.LVL116
 2283 077c 0100     		.2byte	0x1
 2284 077e 50       		.byte	0x50
 2285 077f 34000000 		.4byte	.LVL116
 2286 0783 3C000000 		.4byte	.LFE64
 2287 0787 0100     		.2byte	0x1
 2288 0789 50       		.byte	0x50
 2289 078a 00000000 		.4byte	0x0
 2290 078e 00000000 		.4byte	0x0
 2291              		.file 2 "/home/z80/programs/code-sourcery/2011.03-42/bin/../lib/gcc/arm-none-eabi/4.5.2/../../../.
 2292              		.file 3 "../chibios/os/hal/platforms/STM32F1xx/stm32f10x.h"
 2293              		.file 4 "stm32f10x_flash.h"
 2294              		.file 5 "../chibios/os/ports/common/ARMCMx/CMSIS/include/core_cm3.h"
 2295              		.section	.debug_info
 2296 0000 2B080000 		.4byte	0x82b
 2297 0004 0200     		.2byte	0x2
 2298 0006 00000000 		.4byte	.Ldebug_abbrev0
 2299 000a 04       		.byte	0x4
 2300 000b 01       		.uleb128 0x1
 2301 000c 8E040000 		.4byte	.LASF90
 2302 0010 01       		.byte	0x1
 2303 0011 01020000 		.4byte	.LASF91
 2304 0015 0F000000 		.4byte	.LASF92
 2305 0019 00000000 		.4byte	0x0
 2306 001d 00000000 		.4byte	0x0
 2307 0021 00000000 		.4byte	.Ldebug_ranges0+0x0
 2308 0025 00000000 		.4byte	.Ldebug_line0
 2309 0029 02       		.uleb128 0x2
 2310 002a 01       		.byte	0x1
 2311 002b 06       		.byte	0x6
 2312 002c 8C020000 		.4byte	.LASF0
 2313 0030 03       		.uleb128 0x3
 2314 0031 15010000 		.4byte	.LASF3
 2315 0035 02       		.byte	0x2
 2316 0036 2A       		.byte	0x2a
 2317 0037 3B000000 		.4byte	0x3b
 2318 003b 02       		.uleb128 0x2
 2319 003c 01       		.byte	0x1
 2320 003d 08       		.byte	0x8
 2321 003e 35020000 		.4byte	.LASF1
 2322 0042 02       		.uleb128 0x2
 2323 0043 02       		.byte	0x2
 2324 0044 05       		.byte	0x5
 2325 0045 CA000000 		.4byte	.LASF2
 2326 0049 03       		.uleb128 0x3
 2327 004a 99030000 		.4byte	.LASF4
 2328 004e 02       		.byte	0x2
 2329 004f 36       		.byte	0x36
 2330 0050 54000000 		.4byte	0x54
 2331 0054 02       		.uleb128 0x2
 2332 0055 02       		.byte	0x2
 2333 0056 07       		.byte	0x7
ARM GAS  /tmp/ccz3NjuA.s 			page 42


 2334 0057 34030000 		.4byte	.LASF5
 2335 005b 03       		.uleb128 0x3
 2336 005c AC030000 		.4byte	.LASF6
 2337 0060 02       		.byte	0x2
 2338 0061 4F       		.byte	0x4f
 2339 0062 66000000 		.4byte	0x66
 2340 0066 02       		.uleb128 0x2
 2341 0067 04       		.byte	0x4
 2342 0068 05       		.byte	0x5
 2343 0069 F8010000 		.4byte	.LASF7
 2344 006d 03       		.uleb128 0x3
 2345 006e C3020000 		.4byte	.LASF8
 2346 0072 02       		.byte	0x2
 2347 0073 50       		.byte	0x50
 2348 0074 78000000 		.4byte	0x78
 2349 0078 02       		.uleb128 0x2
 2350 0079 04       		.byte	0x4
 2351 007a 07       		.byte	0x7
 2352 007b 0D030000 		.4byte	.LASF9
 2353 007f 02       		.uleb128 0x2
 2354 0080 08       		.byte	0x8
 2355 0081 05       		.byte	0x5
 2356 0082 B7010000 		.4byte	.LASF10
 2357 0086 02       		.uleb128 0x2
 2358 0087 08       		.byte	0x8
 2359 0088 07       		.byte	0x7
 2360 0089 AC020000 		.4byte	.LASF11
 2361 008d 04       		.uleb128 0x4
 2362 008e 04       		.byte	0x4
 2363 008f 05       		.byte	0x5
 2364 0090 696E7400 		.ascii	"int\000"
 2365 0094 02       		.uleb128 0x2
 2366 0095 04       		.byte	0x4
 2367 0096 07       		.byte	0x7
 2368 0097 DC020000 		.4byte	.LASF12
 2369 009b 05       		.uleb128 0x5
 2370 009c 6D000000 		.4byte	0x6d
 2371 00a0 05       		.uleb128 0x5
 2372 00a1 49000000 		.4byte	0x49
 2373 00a5 05       		.uleb128 0x5
 2374 00a6 5B000000 		.4byte	0x5b
 2375 00aa 06       		.uleb128 0x6
 2376 00ab 01       		.byte	0x1
 2377 00ac 03       		.byte	0x3
 2378 00ad 1602     		.2byte	0x216
 2379 00af C0000000 		.4byte	0xc0
 2380 00b3 07       		.uleb128 0x7
 2381 00b4 B6040000 		.4byte	.LASF13
 2382 00b8 00       		.sleb128 0
 2383 00b9 08       		.uleb128 0x8
 2384 00ba 53455400 		.ascii	"SET\000"
 2385 00be 01       		.sleb128 1
 2386 00bf 00       		.byte	0x0
 2387 00c0 09       		.uleb128 0x9
 2388 00c1 40050000 		.4byte	.LASF14
 2389 00c5 03       		.byte	0x3
 2390 00c6 1602     		.2byte	0x216
ARM GAS  /tmp/ccz3NjuA.s 			page 43


 2391 00c8 AA000000 		.4byte	0xaa
 2392 00cc 06       		.uleb128 0x6
 2393 00cd 01       		.byte	0x1
 2394 00ce 03       		.byte	0x3
 2395 00cf 1802     		.2byte	0x218
 2396 00d1 E2000000 		.4byte	0xe2
 2397 00d5 07       		.uleb128 0x7
 2398 00d6 72010000 		.4byte	.LASF15
 2399 00da 00       		.sleb128 0
 2400 00db 07       		.uleb128 0x7
 2401 00dc 4B050000 		.4byte	.LASF16
 2402 00e0 01       		.sleb128 1
 2403 00e1 00       		.byte	0x0
 2404 00e2 09       		.uleb128 0x9
 2405 00e3 71040000 		.4byte	.LASF17
 2406 00e7 03       		.byte	0x3
 2407 00e8 1802     		.2byte	0x218
 2408 00ea CC000000 		.4byte	0xcc
 2409 00ee 0A       		.uleb128 0xa
 2410 00ef 24       		.byte	0x24
 2411 00f0 03       		.byte	0x3
 2412 00f1 9403     		.2byte	0x394
 2413 00f3 7C010000 		.4byte	0x17c
 2414 00f7 0B       		.uleb128 0xb
 2415 00f8 41435200 		.ascii	"ACR\000"
 2416 00fc 03       		.byte	0x3
 2417 00fd 9603     		.2byte	0x396
 2418 00ff 9B000000 		.4byte	0x9b
 2419 0103 02       		.byte	0x2
 2420 0104 23       		.byte	0x23
 2421 0105 00       		.uleb128 0x0
 2422 0106 0C       		.uleb128 0xc
 2423 0107 D9000000 		.4byte	.LASF18
 2424 010b 03       		.byte	0x3
 2425 010c 9703     		.2byte	0x397
 2426 010e 9B000000 		.4byte	0x9b
 2427 0112 02       		.byte	0x2
 2428 0113 23       		.byte	0x23
 2429 0114 04       		.uleb128 0x4
 2430 0115 0C       		.uleb128 0xc
 2431 0116 AF010000 		.4byte	.LASF19
 2432 011a 03       		.byte	0x3
 2433 011b 9803     		.2byte	0x398
 2434 011d 9B000000 		.4byte	0x9b
 2435 0121 02       		.byte	0x2
 2436 0122 23       		.byte	0x23
 2437 0123 08       		.uleb128 0x8
 2438 0124 0B       		.uleb128 0xb
 2439 0125 535200   		.ascii	"SR\000"
 2440 0128 03       		.byte	0x3
 2441 0129 9903     		.2byte	0x399
 2442 012b 9B000000 		.4byte	0x9b
 2443 012f 02       		.byte	0x2
 2444 0130 23       		.byte	0x23
 2445 0131 0C       		.uleb128 0xc
 2446 0132 0B       		.uleb128 0xb
 2447 0133 435200   		.ascii	"CR\000"
ARM GAS  /tmp/ccz3NjuA.s 			page 44


 2448 0136 03       		.byte	0x3
 2449 0137 9A03     		.2byte	0x39a
 2450 0139 9B000000 		.4byte	0x9b
 2451 013d 02       		.byte	0x2
 2452 013e 23       		.byte	0x23
 2453 013f 10       		.uleb128 0x10
 2454 0140 0B       		.uleb128 0xb
 2455 0141 415200   		.ascii	"AR\000"
 2456 0144 03       		.byte	0x3
 2457 0145 9B03     		.2byte	0x39b
 2458 0147 9B000000 		.4byte	0x9b
 2459 014b 02       		.byte	0x2
 2460 014c 23       		.byte	0x23
 2461 014d 14       		.uleb128 0x14
 2462 014e 0C       		.uleb128 0xc
 2463 014f F4040000 		.4byte	.LASF20
 2464 0153 03       		.byte	0x3
 2465 0154 9C03     		.2byte	0x39c
 2466 0156 9B000000 		.4byte	0x9b
 2467 015a 02       		.byte	0x2
 2468 015b 23       		.byte	0x23
 2469 015c 18       		.uleb128 0x18
 2470 015d 0B       		.uleb128 0xb
 2471 015e 4F425200 		.ascii	"OBR\000"
 2472 0162 03       		.byte	0x3
 2473 0163 9D03     		.2byte	0x39d
 2474 0165 9B000000 		.4byte	0x9b
 2475 0169 02       		.byte	0x2
 2476 016a 23       		.byte	0x23
 2477 016b 1C       		.uleb128 0x1c
 2478 016c 0C       		.uleb128 0xc
 2479 016d D4000000 		.4byte	.LASF21
 2480 0171 03       		.byte	0x3
 2481 0172 9E03     		.2byte	0x39e
 2482 0174 9B000000 		.4byte	0x9b
 2483 0178 02       		.byte	0x2
 2484 0179 23       		.byte	0x23
 2485 017a 20       		.uleb128 0x20
 2486 017b 00       		.byte	0x0
 2487 017c 09       		.uleb128 0x9
 2488 017d FD040000 		.4byte	.LASF22
 2489 0181 03       		.byte	0x3
 2490 0182 A703     		.2byte	0x3a7
 2491 0184 EE000000 		.4byte	0xee
 2492 0188 0A       		.uleb128 0xa
 2493 0189 10       		.byte	0x10
 2494 018a 03       		.byte	0x3
 2495 018b AD03     		.2byte	0x3ad
 2496 018d 0A020000 		.4byte	0x20a
 2497 0191 0B       		.uleb128 0xb
 2498 0192 52445000 		.ascii	"RDP\000"
 2499 0196 03       		.byte	0x3
 2500 0197 AF03     		.2byte	0x3af
 2501 0199 A0000000 		.4byte	0xa0
 2502 019d 02       		.byte	0x2
 2503 019e 23       		.byte	0x23
 2504 019f 00       		.uleb128 0x0
ARM GAS  /tmp/ccz3NjuA.s 			page 45


 2505 01a0 0C       		.uleb128 0xc
 2506 01a1 BC040000 		.4byte	.LASF23
 2507 01a5 03       		.byte	0x3
 2508 01a6 B003     		.2byte	0x3b0
 2509 01a8 A0000000 		.4byte	0xa0
 2510 01ac 02       		.byte	0x2
 2511 01ad 23       		.byte	0x23
 2512 01ae 02       		.uleb128 0x2
 2513 01af 0C       		.uleb128 0xc
 2514 01b0 C1040000 		.4byte	.LASF24
 2515 01b4 03       		.byte	0x3
 2516 01b5 B103     		.2byte	0x3b1
 2517 01b7 A0000000 		.4byte	0xa0
 2518 01bb 02       		.byte	0x2
 2519 01bc 23       		.byte	0x23
 2520 01bd 04       		.uleb128 0x4
 2521 01be 0C       		.uleb128 0xc
 2522 01bf C7040000 		.4byte	.LASF25
 2523 01c3 03       		.byte	0x3
 2524 01c4 B203     		.2byte	0x3b2
 2525 01c6 A0000000 		.4byte	0xa0
 2526 01ca 02       		.byte	0x2
 2527 01cb 23       		.byte	0x23
 2528 01cc 06       		.uleb128 0x6
 2529 01cd 0C       		.uleb128 0xc
 2530 01ce 26050000 		.4byte	.LASF26
 2531 01d2 03       		.byte	0x3
 2532 01d3 B303     		.2byte	0x3b3
 2533 01d5 A0000000 		.4byte	0xa0
 2534 01d9 02       		.byte	0x2
 2535 01da 23       		.byte	0x23
 2536 01db 08       		.uleb128 0x8
 2537 01dc 0C       		.uleb128 0xc
 2538 01dd 63010000 		.4byte	.LASF27
 2539 01e1 03       		.byte	0x3
 2540 01e2 B403     		.2byte	0x3b4
 2541 01e4 A0000000 		.4byte	0xa0
 2542 01e8 02       		.byte	0x2
 2543 01e9 23       		.byte	0x23
 2544 01ea 0A       		.uleb128 0xa
 2545 01eb 0C       		.uleb128 0xc
 2546 01ec 68010000 		.4byte	.LASF28
 2547 01f0 03       		.byte	0x3
 2548 01f1 B503     		.2byte	0x3b5
 2549 01f3 A0000000 		.4byte	0xa0
 2550 01f7 02       		.byte	0x2
 2551 01f8 23       		.byte	0x23
 2552 01f9 0C       		.uleb128 0xc
 2553 01fa 0C       		.uleb128 0xc
 2554 01fb 6D010000 		.4byte	.LASF29
 2555 01ff 03       		.byte	0x3
 2556 0200 B603     		.2byte	0x3b6
 2557 0202 A0000000 		.4byte	0xa0
 2558 0206 02       		.byte	0x2
 2559 0207 23       		.byte	0x23
 2560 0208 0E       		.uleb128 0xe
 2561 0209 00       		.byte	0x0
ARM GAS  /tmp/ccz3NjuA.s 			page 46


 2562 020a 09       		.uleb128 0x9
 2563 020b C4030000 		.4byte	.LASF30
 2564 020f 03       		.byte	0x3
 2565 0210 B703     		.2byte	0x3b7
 2566 0212 88010000 		.4byte	0x188
 2567 0216 0D       		.uleb128 0xd
 2568 0217 01       		.byte	0x1
 2569 0218 04       		.byte	0x4
 2570 0219 33       		.byte	0x33
 2571 021a 3D020000 		.4byte	0x23d
 2572 021e 07       		.uleb128 0x7
 2573 021f F8020000 		.4byte	.LASF31
 2574 0223 01       		.sleb128 1
 2575 0224 07       		.uleb128 0x7
 2576 0225 50020000 		.4byte	.LASF32
 2577 0229 02       		.sleb128 2
 2578 022a 07       		.uleb128 0x7
 2579 022b 76000000 		.4byte	.LASF33
 2580 022f 03       		.sleb128 3
 2581 0230 07       		.uleb128 0x7
 2582 0231 E9020000 		.4byte	.LASF34
 2583 0235 04       		.sleb128 4
 2584 0236 07       		.uleb128 0x7
 2585 0237 1F030000 		.4byte	.LASF35
 2586 023b 05       		.sleb128 5
 2587 023c 00       		.byte	0x0
 2588 023d 03       		.uleb128 0x3
 2589 023e 1D010000 		.4byte	.LASF36
 2590 0242 04       		.byte	0x4
 2591 0243 39       		.byte	0x39
 2592 0244 16020000 		.4byte	0x216
 2593 0248 0E       		.uleb128 0xe
 2594 0249 01       		.byte	0x1
 2595 024a CF030000 		.4byte	.LASF37
 2596 024e 01       		.byte	0x1
 2597 024f FE       		.byte	0xfe
 2598 0250 01       		.byte	0x1
 2599 0251 00000000 		.4byte	.LFB55
 2600 0255 14000000 		.4byte	.LFE55
 2601 0259 02       		.byte	0x2
 2602 025a 7D       		.byte	0x7d
 2603 025b 00       		.sleb128 0
 2604 025c 7E020000 		.4byte	0x27e
 2605 0260 0F       		.uleb128 0xf
 2606 0261 96000000 		.4byte	.LASF39
 2607 0265 01       		.byte	0x1
 2608 0266 FE       		.byte	0xfe
 2609 0267 6D000000 		.4byte	0x6d
 2610 026b 01       		.byte	0x1
 2611 026c 50       		.byte	0x50
 2612 026d 10       		.uleb128 0x10
 2613 026e 24020000 		.4byte	.LASF49
 2614 0272 01       		.byte	0x1
 2615 0273 0001     		.2byte	0x100
 2616 0275 6D000000 		.4byte	0x6d
 2617 0279 00000000 		.4byte	.LLST0
 2618 027d 00       		.byte	0x0
ARM GAS  /tmp/ccz3NjuA.s 			page 47


 2619 027e 11       		.uleb128 0x11
 2620 027f 01       		.byte	0x1
 2621 0280 E0030000 		.4byte	.LASF38
 2622 0284 01       		.byte	0x1
 2623 0285 1901     		.2byte	0x119
 2624 0287 01       		.byte	0x1
 2625 0288 00000000 		.4byte	.LFB56
 2626 028c 18000000 		.4byte	.LFE56
 2627 0290 02       		.byte	0x2
 2628 0291 7D       		.byte	0x7d
 2629 0292 00       		.sleb128 0
 2630 0293 A6020000 		.4byte	0x2a6
 2631 0297 12       		.uleb128 0x12
 2632 0298 EB000000 		.4byte	.LASF40
 2633 029c 01       		.byte	0x1
 2634 029d 1901     		.2byte	0x119
 2635 029f 6D000000 		.4byte	0x6d
 2636 02a3 01       		.byte	0x1
 2637 02a4 50       		.byte	0x50
 2638 02a5 00       		.byte	0x0
 2639 02a6 11       		.uleb128 0x11
 2640 02a7 01       		.byte	0x1
 2641 02a8 74020000 		.4byte	.LASF41
 2642 02ac 01       		.byte	0x1
 2643 02ad 2C01     		.2byte	0x12c
 2644 02af 01       		.byte	0x1
 2645 02b0 00000000 		.4byte	.LFB57
 2646 02b4 18000000 		.4byte	.LFE57
 2647 02b8 02       		.byte	0x2
 2648 02b9 7D       		.byte	0x7d
 2649 02ba 00       		.sleb128 0
 2650 02bb CE020000 		.4byte	0x2ce
 2651 02bf 12       		.uleb128 0x12
 2652 02c0 2B050000 		.4byte	.LASF42
 2653 02c4 01       		.byte	0x1
 2654 02c5 2C01     		.2byte	0x12c
 2655 02c7 6D000000 		.4byte	0x6d
 2656 02cb 01       		.byte	0x1
 2657 02cc 50       		.byte	0x50
 2658 02cd 00       		.byte	0x0
 2659 02ce 13       		.uleb128 0x13
 2660 02cf 01       		.byte	0x1
 2661 02d0 DE000000 		.4byte	.LASF43
 2662 02d4 01       		.byte	0x1
 2663 02d5 3F01     		.2byte	0x13f
 2664 02d7 01       		.byte	0x1
 2665 02d8 00000000 		.4byte	.LFB58
 2666 02dc 18000000 		.4byte	.LFE58
 2667 02e0 02       		.byte	0x2
 2668 02e1 7D       		.byte	0x7d
 2669 02e2 00       		.sleb128 0
 2670 02e3 13       		.uleb128 0x13
 2671 02e4 01       		.byte	0x1
 2672 02e5 7A010000 		.4byte	.LASF44
 2673 02e9 01       		.byte	0x1
 2674 02ea 5401     		.2byte	0x154
 2675 02ec 01       		.byte	0x1
ARM GAS  /tmp/ccz3NjuA.s 			page 48


 2676 02ed 00000000 		.4byte	.LFB59
 2677 02f1 18000000 		.4byte	.LFE59
 2678 02f5 02       		.byte	0x2
 2679 02f6 7D       		.byte	0x7d
 2680 02f7 00       		.sleb128 0
 2681 02f8 13       		.uleb128 0x13
 2682 02f9 01       		.byte	0x1
 2683 02fa 5F020000 		.4byte	.LASF45
 2684 02fe 01       		.byte	0x1
 2685 02ff 7401     		.2byte	0x174
 2686 0301 01       		.byte	0x1
 2687 0302 00000000 		.4byte	.LFB60
 2688 0306 10000000 		.4byte	.LFE60
 2689 030a 02       		.byte	0x2
 2690 030b 7D       		.byte	0x7d
 2691 030c 00       		.sleb128 0
 2692 030d 13       		.uleb128 0x13
 2693 030e 01       		.byte	0x1
 2694 030f 53010000 		.4byte	.LASF46
 2695 0313 01       		.byte	0x1
 2696 0314 8801     		.2byte	0x188
 2697 0316 01       		.byte	0x1
 2698 0317 00000000 		.4byte	.LFB61
 2699 031b 10000000 		.4byte	.LFE61
 2700 031f 02       		.byte	0x2
 2701 0320 7D       		.byte	0x7d
 2702 0321 00       		.sleb128 0
 2703 0322 14       		.uleb128 0x14
 2704 0323 01       		.byte	0x1
 2705 0324 15040000 		.4byte	.LASF47
 2706 0328 01       		.byte	0x1
 2707 0329 C004     		.2byte	0x4c0
 2708 032b 01       		.byte	0x1
 2709 032c 6D000000 		.4byte	0x6d
 2710 0330 00000000 		.4byte	.LFB72
 2711 0334 0C000000 		.4byte	.LFE72
 2712 0338 02       		.byte	0x2
 2713 0339 7D       		.byte	0x7d
 2714 033a 00       		.sleb128 0
 2715 033b 14       		.uleb128 0x14
 2716 033c 01       		.byte	0x1
 2717 033d 8C010000 		.4byte	.LASF48
 2718 0341 01       		.byte	0x1
 2719 0342 CC04     		.2byte	0x4cc
 2720 0344 01       		.byte	0x1
 2721 0345 6D000000 		.4byte	0x6d
 2722 0349 00000000 		.4byte	.LFB73
 2723 034d 0C000000 		.4byte	.LFE73
 2724 0351 02       		.byte	0x2
 2725 0352 7D       		.byte	0x7d
 2726 0353 00       		.sleb128 0
 2727 0354 15       		.uleb128 0x15
 2728 0355 01       		.byte	0x1
 2729 0356 6F030000 		.4byte	.LASF51
 2730 035a 01       		.byte	0x1
 2731 035b D804     		.2byte	0x4d8
 2732 035d 01       		.byte	0x1
ARM GAS  /tmp/ccz3NjuA.s 			page 49


 2733 035e C0000000 		.4byte	0xc0
 2734 0362 00000000 		.4byte	.LFB74
 2735 0366 10000000 		.4byte	.LFE74
 2736 036a 02       		.byte	0x2
 2737 036b 7D       		.byte	0x7d
 2738 036c 00       		.sleb128 0
 2739 036d 82030000 		.4byte	0x382
 2740 0371 10       		.uleb128 0x10
 2741 0372 2D040000 		.4byte	.LASF50
 2742 0376 01       		.byte	0x1
 2743 0377 DA04     		.2byte	0x4da
 2744 0379 C0000000 		.4byte	0xc0
 2745 037d 35000000 		.4byte	.LLST1
 2746 0381 00       		.byte	0x0
 2747 0382 15       		.uleb128 0x15
 2748 0383 01       		.byte	0x1
 2749 0384 A4000000 		.4byte	.LASF52
 2750 0388 01       		.byte	0x1
 2751 0389 EC04     		.2byte	0x4ec
 2752 038b 01       		.byte	0x1
 2753 038c C0000000 		.4byte	0xc0
 2754 0390 00000000 		.4byte	.LFB75
 2755 0394 10000000 		.4byte	.LFE75
 2756 0398 02       		.byte	0x2
 2757 0399 7D       		.byte	0x7d
 2758 039a 00       		.sleb128 0
 2759 039b B0030000 		.4byte	0x3b0
 2760 039f 10       		.uleb128 0x10
 2761 03a0 2B020000 		.4byte	.LASF53
 2762 03a4 01       		.byte	0x1
 2763 03a5 EE04     		.2byte	0x4ee
 2764 03a7 C0000000 		.4byte	0xc0
 2765 03ab 5A000000 		.4byte	.LLST2
 2766 03af 00       		.byte	0x0
 2767 03b0 11       		.uleb128 0x11
 2768 03b1 01       		.byte	0x1
 2769 03b2 00000000 		.4byte	.LASF54
 2770 03b6 01       		.byte	0x1
 2771 03b7 0A05     		.2byte	0x50a
 2772 03b9 01       		.byte	0x1
 2773 03ba 00000000 		.4byte	.LFB76
 2774 03be 18000000 		.4byte	.LFE76
 2775 03c2 02       		.byte	0x2
 2776 03c3 7D       		.byte	0x7d
 2777 03c4 00       		.sleb128 0
 2778 03c5 E8030000 		.4byte	0x3e8
 2779 03c9 16       		.uleb128 0x16
 2780 03ca D9040000 		.4byte	.LASF55
 2781 03ce 01       		.byte	0x1
 2782 03cf 0A05     		.2byte	0x50a
 2783 03d1 6D000000 		.4byte	0x6d
 2784 03d5 80000000 		.4byte	.LLST3
 2785 03d9 12       		.uleb128 0x12
 2786 03da 4A010000 		.4byte	.LASF56
 2787 03de 01       		.byte	0x1
 2788 03df 0A05     		.2byte	0x50a
 2789 03e1 E2000000 		.4byte	0xe2
ARM GAS  /tmp/ccz3NjuA.s 			page 50


 2790 03e5 01       		.byte	0x1
 2791 03e6 51       		.byte	0x51
 2792 03e7 00       		.byte	0x0
 2793 03e8 15       		.uleb128 0x15
 2794 03e9 01       		.byte	0x1
 2795 03ea 98020000 		.4byte	.LASF57
 2796 03ee 01       		.byte	0x1
 2797 03ef 4D05     		.2byte	0x54d
 2798 03f1 01       		.byte	0x1
 2799 03f2 C0000000 		.4byte	0xc0
 2800 03f6 00000000 		.4byte	.LFB77
 2801 03fa 20000000 		.4byte	.LFE77
 2802 03fe 02       		.byte	0x2
 2803 03ff 7D       		.byte	0x7d
 2804 0400 00       		.sleb128 0
 2805 0401 26040000 		.4byte	0x426
 2806 0405 16       		.uleb128 0x16
 2807 0406 66040000 		.4byte	.LASF58
 2808 040a 01       		.byte	0x1
 2809 040b 4D05     		.2byte	0x54d
 2810 040d 6D000000 		.4byte	0x6d
 2811 0411 9E000000 		.4byte	.LLST4
 2812 0415 10       		.uleb128 0x10
 2813 0416 2B020000 		.4byte	.LASF53
 2814 041a 01       		.byte	0x1
 2815 041b 4F05     		.2byte	0x54f
 2816 041d C0000000 		.4byte	0xc0
 2817 0421 BC000000 		.4byte	.LLST5
 2818 0425 00       		.byte	0x0
 2819 0426 11       		.uleb128 0x11
 2820 0427 01       		.byte	0x1
 2821 0428 CC020000 		.4byte	.LASF59
 2822 042c 01       		.byte	0x1
 2823 042d A305     		.2byte	0x5a3
 2824 042f 01       		.byte	0x1
 2825 0430 00000000 		.4byte	.LFB78
 2826 0434 0C000000 		.4byte	.LFE78
 2827 0438 02       		.byte	0x2
 2828 0439 7D       		.byte	0x7d
 2829 043a 00       		.sleb128 0
 2830 043b 4E040000 		.4byte	0x44e
 2831 043f 12       		.uleb128 0x12
 2832 0440 66040000 		.4byte	.LASF58
 2833 0444 01       		.byte	0x1
 2834 0445 A305     		.2byte	0x5a3
 2835 0447 6D000000 		.4byte	0x6d
 2836 044b 01       		.byte	0x1
 2837 044c 50       		.byte	0x50
 2838 044d 00       		.byte	0x0
 2839 044e 15       		.uleb128 0x15
 2840 044f 01       		.byte	0x1
 2841 0450 B4030000 		.4byte	.LASF60
 2842 0454 01       		.byte	0x1
 2843 0455 C505     		.2byte	0x5c5
 2844 0457 01       		.byte	0x1
 2845 0458 3D020000 		.4byte	0x23d
 2846 045c 00000000 		.4byte	.LFB79
ARM GAS  /tmp/ccz3NjuA.s 			page 51


 2847 0460 30000000 		.4byte	.LFE79
 2848 0464 02       		.byte	0x2
 2849 0465 7D       		.byte	0x7d
 2850 0466 00       		.sleb128 0
 2851 0467 7C040000 		.4byte	0x47c
 2852 046b 10       		.uleb128 0x10
 2853 046c 13020000 		.4byte	.LASF61
 2854 0470 01       		.byte	0x1
 2855 0471 C705     		.2byte	0x5c7
 2856 0473 3D020000 		.4byte	0x23d
 2857 0477 DB000000 		.4byte	.LLST6
 2858 047b 00       		.byte	0x0
 2859 047c 15       		.uleb128 0x15
 2860 047d 01       		.byte	0x1
 2861 047e 3B040000 		.4byte	.LASF62
 2862 0482 01       		.byte	0x1
 2863 0483 EB05     		.2byte	0x5eb
 2864 0485 01       		.byte	0x1
 2865 0486 3D020000 		.4byte	0x23d
 2866 048a 00000000 		.4byte	.LFB80
 2867 048e 30000000 		.4byte	.LFE80
 2868 0492 02       		.byte	0x2
 2869 0493 7D       		.byte	0x7d
 2870 0494 00       		.sleb128 0
 2871 0495 AA040000 		.4byte	0x4aa
 2872 0499 10       		.uleb128 0x10
 2873 049a 13020000 		.4byte	.LASF61
 2874 049e 01       		.byte	0x1
 2875 049f ED05     		.2byte	0x5ed
 2876 04a1 3D020000 		.4byte	0x23d
 2877 04a5 FA000000 		.4byte	.LLST7
 2878 04a9 00       		.byte	0x0
 2879 04aa 17       		.uleb128 0x17
 2880 04ab 01       		.byte	0x1
 2881 04ac 0B050000 		.4byte	.LASF63
 2882 04b0 01       		.byte	0x1
 2883 04b1 3B06     		.2byte	0x63b
 2884 04b3 01       		.byte	0x1
 2885 04b4 3D020000 		.4byte	0x23d
 2886 04b8 00000000 		.4byte	.LFB81
 2887 04bc 24000000 		.4byte	.LFE81
 2888 04c0 19010000 		.4byte	.LLST8
 2889 04c4 E9040000 		.4byte	0x4e9
 2890 04c8 16       		.uleb128 0x16
 2891 04c9 47030000 		.4byte	.LASF64
 2892 04cd 01       		.byte	0x1
 2893 04ce 3B06     		.2byte	0x63b
 2894 04d0 6D000000 		.4byte	0x6d
 2895 04d4 39010000 		.4byte	.LLST9
 2896 04d8 10       		.uleb128 0x10
 2897 04d9 2D030000 		.4byte	.LASF65
 2898 04dd 01       		.byte	0x1
 2899 04de 3D06     		.2byte	0x63d
 2900 04e0 3D020000 		.4byte	0x23d
 2901 04e4 62010000 		.4byte	.LLST10
 2902 04e8 00       		.byte	0x0
 2903 04e9 17       		.uleb128 0x17
ARM GAS  /tmp/ccz3NjuA.s 			page 52


 2904 04ea 01       		.byte	0x1
 2905 04eb C5010000 		.4byte	.LASF66
 2906 04ef 01       		.byte	0x1
 2907 04f0 5E04     		.2byte	0x45e
 2908 04f2 01       		.byte	0x1
 2909 04f3 3D020000 		.4byte	0x23d
 2910 04f7 00000000 		.4byte	.LFB71
 2911 04fb 5C000000 		.4byte	.LFE71
 2912 04ff AD010000 		.4byte	.LLST11
 2913 0503 48050000 		.4byte	0x548
 2914 0507 16       		.uleb128 0x16
 2915 0508 45000000 		.4byte	.LASF67
 2916 050c 01       		.byte	0x1
 2917 050d 5E04     		.2byte	0x45e
 2918 050f 49000000 		.4byte	0x49
 2919 0513 CD010000 		.4byte	.LLST12
 2920 0517 16       		.uleb128 0x16
 2921 0518 57000000 		.4byte	.LASF68
 2922 051c 01       		.byte	0x1
 2923 051d 5E04     		.2byte	0x45e
 2924 051f 49000000 		.4byte	0x49
 2925 0523 E0010000 		.4byte	.LLST13
 2926 0527 16       		.uleb128 0x16
 2927 0528 90030000 		.4byte	.LASF69
 2928 052c 01       		.byte	0x1
 2929 052d 5E04     		.2byte	0x45e
 2930 052f 49000000 		.4byte	0x49
 2931 0533 F3010000 		.4byte	.LLST14
 2932 0537 10       		.uleb128 0x10
 2933 0538 2D030000 		.4byte	.LASF65
 2934 053c 01       		.byte	0x1
 2935 053d 6004     		.2byte	0x460
 2936 053f 3D020000 		.4byte	0x23d
 2937 0543 06020000 		.4byte	.LLST15
 2938 0547 00       		.byte	0x0
 2939 0548 17       		.uleb128 0x17
 2940 0549 01       		.byte	0x1
 2941 054a E0010000 		.4byte	.LASF70
 2942 054e 01       		.byte	0x1
 2943 054f 1904     		.2byte	0x419
 2944 0551 01       		.byte	0x1
 2945 0552 3D020000 		.4byte	0x23d
 2946 0556 00000000 		.4byte	.LFB70
 2947 055a 94000000 		.4byte	.LFE70
 2948 055e 3B020000 		.4byte	.LLST16
 2949 0562 87050000 		.4byte	0x587
 2950 0566 16       		.uleb128 0x16
 2951 0567 4A010000 		.4byte	.LASF56
 2952 056b 01       		.byte	0x1
 2953 056c 1904     		.2byte	0x419
 2954 056e E2000000 		.4byte	0xe2
 2955 0572 5B020000 		.4byte	.LLST17
 2956 0576 10       		.uleb128 0x10
 2957 0577 2D030000 		.4byte	.LASF65
 2958 057b 01       		.byte	0x1
 2959 057c 1B04     		.2byte	0x41b
 2960 057e 3D020000 		.4byte	0x23d
ARM GAS  /tmp/ccz3NjuA.s 			page 53


 2961 0582 6E020000 		.4byte	.LLST18
 2962 0586 00       		.byte	0x0
 2963 0587 17       		.uleb128 0x17
 2964 0588 01       		.byte	0x1
 2965 0589 9A040000 		.4byte	.LASF71
 2966 058d 01       		.byte	0x1
 2967 058e CF03     		.2byte	0x3cf
 2968 0590 01       		.byte	0x1
 2969 0591 3D020000 		.4byte	0x23d
 2970 0595 00000000 		.4byte	.LFB69
 2971 0599 A8000000 		.4byte	.LFE69
 2972 059d AE020000 		.4byte	.LLST19
 2973 05a1 FA050000 		.4byte	0x5fa
 2974 05a5 16       		.uleb128 0x16
 2975 05a6 CD040000 		.4byte	.LASF72
 2976 05aa 01       		.byte	0x1
 2977 05ab CF03     		.2byte	0x3cf
 2978 05ad 6D000000 		.4byte	0x6d
 2979 05b1 CE020000 		.4byte	.LLST20
 2980 05b5 10       		.uleb128 0x10
 2981 05b6 A2030000 		.4byte	.LASF73
 2982 05ba 01       		.byte	0x1
 2983 05bb D103     		.2byte	0x3d1
 2984 05bd 49000000 		.4byte	0x49
 2985 05c1 08030000 		.4byte	.LLST21
 2986 05c5 18       		.uleb128 0x18
 2987 05c6 03030000 		.4byte	.LASF74
 2988 05ca 01       		.byte	0x1
 2989 05cb D103     		.2byte	0x3d1
 2990 05cd 49000000 		.4byte	0x49
 2991 05d1 18       		.uleb128 0x18
 2992 05d2 4D000000 		.4byte	.LASF75
 2993 05d6 01       		.byte	0x1
 2994 05d7 D103     		.2byte	0x3d1
 2995 05d9 49000000 		.4byte	0x49
 2996 05dd 18       		.uleb128 0x18
 2997 05de 6A020000 		.4byte	.LASF76
 2998 05e2 01       		.byte	0x1
 2999 05e3 D103     		.2byte	0x3d1
 3000 05e5 49000000 		.4byte	0x49
 3001 05e9 10       		.uleb128 0x10
 3002 05ea 2D030000 		.4byte	.LASF65
 3003 05ee 01       		.byte	0x1
 3004 05ef D303     		.2byte	0x3d3
 3005 05f1 3D020000 		.4byte	0x23d
 3006 05f5 42030000 		.4byte	.LLST22
 3007 05f9 00       		.byte	0x0
 3008 05fa 17       		.uleb128 0x17
 3009 05fb 01       		.byte	0x1
 3010 05fc F9030000 		.4byte	.LASF77
 3011 0600 01       		.byte	0x1
 3012 0601 A103     		.2byte	0x3a1
 3013 0603 01       		.byte	0x1
 3014 0604 3D020000 		.4byte	0x23d
 3015 0608 00000000 		.4byte	.LFB68
 3016 060c 4C000000 		.4byte	.LFE68
 3017 0610 98030000 		.4byte	.LLST23
ARM GAS  /tmp/ccz3NjuA.s 			page 54


 3018 0614 49060000 		.4byte	0x649
 3019 0618 16       		.uleb128 0x16
 3020 0619 C2000000 		.4byte	.LASF78
 3021 061d 01       		.byte	0x1
 3022 061e A103     		.2byte	0x3a1
 3023 0620 6D000000 		.4byte	0x6d
 3024 0624 B8030000 		.4byte	.LLST24
 3025 0628 16       		.uleb128 0x16
 3026 0629 1F020000 		.4byte	.LASF79
 3027 062d 01       		.byte	0x1
 3028 062e A103     		.2byte	0x3a1
 3029 0630 30000000 		.4byte	0x30
 3030 0634 D6030000 		.4byte	.LLST25
 3031 0638 10       		.uleb128 0x10
 3032 0639 2D030000 		.4byte	.LASF65
 3033 063d 01       		.byte	0x1
 3034 063e A303     		.2byte	0x3a3
 3035 0640 3D020000 		.4byte	0x23d
 3036 0644 E9030000 		.4byte	.LLST26
 3037 0648 00       		.byte	0x0
 3038 0649 17       		.uleb128 0x17
 3039 064a 01       		.byte	0x1
 3040 064b 50040000 		.4byte	.LASF80
 3041 064f 01       		.byte	0x1
 3042 0650 5A03     		.2byte	0x35a
 3043 0652 01       		.byte	0x1
 3044 0653 3D020000 		.4byte	0x23d
 3045 0657 00000000 		.4byte	.LFB67
 3046 065b 38000000 		.4byte	.LFE67
 3047 065f 1E040000 		.4byte	.LLST27
 3048 0663 98060000 		.4byte	0x698
 3049 0667 16       		.uleb128 0x16
 3050 0668 C2000000 		.4byte	.LASF78
 3051 066c 01       		.byte	0x1
 3052 066d 5A03     		.2byte	0x35a
 3053 066f 6D000000 		.4byte	0x6d
 3054 0673 3E040000 		.4byte	.LLST28
 3055 0677 16       		.uleb128 0x16
 3056 0678 1F020000 		.4byte	.LASF79
 3057 067c 01       		.byte	0x1
 3058 067d 5A03     		.2byte	0x35a
 3059 067f 49000000 		.4byte	0x49
 3060 0683 5C040000 		.4byte	.LLST29
 3061 0687 10       		.uleb128 0x10
 3062 0688 2D030000 		.4byte	.LASF65
 3063 068c 01       		.byte	0x1
 3064 068d 5C03     		.2byte	0x35c
 3065 068f 3D020000 		.4byte	0x23d
 3066 0693 6F040000 		.4byte	.LLST30
 3067 0697 00       		.byte	0x0
 3068 0698 17       		.uleb128 0x17
 3069 0699 01       		.byte	0x1
 3070 069a E2040000 		.4byte	.LASF81
 3071 069e 01       		.byte	0x1
 3072 069f A902     		.2byte	0x2a9
 3073 06a1 01       		.byte	0x1
 3074 06a2 3D020000 		.4byte	0x23d
ARM GAS  /tmp/ccz3NjuA.s 			page 55


 3075 06a6 00000000 		.4byte	.LFB66
 3076 06aa 54000000 		.4byte	.LFE66
 3077 06ae A4040000 		.4byte	.LLST31
 3078 06b2 F7060000 		.4byte	0x6f7
 3079 06b6 16       		.uleb128 0x16
 3080 06b7 C2000000 		.4byte	.LASF78
 3081 06bb 01       		.byte	0x1
 3082 06bc A902     		.2byte	0x2a9
 3083 06be 6D000000 		.4byte	0x6d
 3084 06c2 C4040000 		.4byte	.LLST32
 3085 06c6 16       		.uleb128 0x16
 3086 06c7 1F020000 		.4byte	.LASF79
 3087 06cb 01       		.byte	0x1
 3088 06cc A902     		.2byte	0x2a9
 3089 06ce 6D000000 		.4byte	0x6d
 3090 06d2 EF040000 		.4byte	.LLST33
 3091 06d6 10       		.uleb128 0x10
 3092 06d7 2D030000 		.4byte	.LASF65
 3093 06db 01       		.byte	0x1
 3094 06dc AB02     		.2byte	0x2ab
 3095 06de 3D020000 		.4byte	0x23d
 3096 06e2 0D050000 		.4byte	.LLST34
 3097 06e6 19       		.uleb128 0x19
 3098 06e7 746D7000 		.ascii	"tmp\000"
 3099 06eb 01       		.byte	0x1
 3100 06ec AC02     		.2byte	0x2ac
 3101 06ee 9B000000 		.4byte	0x9b
 3102 06f2 42050000 		.4byte	.LLST35
 3103 06f6 00       		.byte	0x0
 3104 06f7 17       		.uleb128 0x17
 3105 06f8 01       		.byte	0x1
 3106 06f9 5F000000 		.4byte	.LASF82
 3107 06fd 01       		.byte	0x1
 3108 06fe 6802     		.2byte	0x268
 3109 0700 01       		.byte	0x1
 3110 0701 3D020000 		.4byte	0x23d
 3111 0705 00000000 		.4byte	.LFB65
 3112 0709 94000000 		.4byte	.LFE65
 3113 070d 61050000 		.4byte	.LLST36
 3114 0711 36070000 		.4byte	0x736
 3115 0715 10       		.uleb128 0x10
 3116 0716 2A010000 		.4byte	.LASF83
 3117 071a 01       		.byte	0x1
 3118 071b 6A02     		.2byte	0x26a
 3119 071d 49000000 		.4byte	0x49
 3120 0721 81050000 		.4byte	.LLST37
 3121 0725 10       		.uleb128 0x10
 3122 0726 2D030000 		.4byte	.LASF65
 3123 072a 01       		.byte	0x1
 3124 072b 6C02     		.2byte	0x26c
 3125 072d 3D020000 		.4byte	0x23d
 3126 0731 A1050000 		.4byte	.LLST38
 3127 0735 00       		.byte	0x0
 3128 0736 17       		.uleb128 0x17
 3129 0737 01       		.byte	0x1
 3130 0738 01010000 		.4byte	.LASF84
 3131 073c 01       		.byte	0x1
ARM GAS  /tmp/ccz3NjuA.s 			page 56


 3132 073d EC01     		.2byte	0x1ec
 3133 073f 01       		.byte	0x1
 3134 0740 3D020000 		.4byte	0x23d
 3135 0744 00000000 		.4byte	.LFB63
 3136 0748 3C000000 		.4byte	.LFE63
 3137 074c E1050000 		.4byte	.LLST39
 3138 0750 65070000 		.4byte	0x765
 3139 0754 10       		.uleb128 0x10
 3140 0755 2D030000 		.4byte	.LASF65
 3141 0759 01       		.byte	0x1
 3142 075a EE01     		.2byte	0x1ee
 3143 075c 3D020000 		.4byte	0x23d
 3144 0760 01060000 		.4byte	.LLST40
 3145 0764 00       		.byte	0x0
 3146 0765 17       		.uleb128 0x17
 3147 0766 01       		.byte	0x1
 3148 0767 86000000 		.4byte	.LASF85
 3149 076b 01       		.byte	0x1
 3150 076c A301     		.2byte	0x1a3
 3151 076e 01       		.byte	0x1
 3152 076f 3D020000 		.4byte	0x23d
 3153 0773 00000000 		.4byte	.LFB62
 3154 0777 40000000 		.4byte	.LFE62
 3155 077b 36060000 		.4byte	.LLST41
 3156 077f A4070000 		.4byte	0x7a4
 3157 0783 16       		.uleb128 0x16
 3158 0784 43020000 		.4byte	.LASF86
 3159 0788 01       		.byte	0x1
 3160 0789 A301     		.2byte	0x1a3
 3161 078b 6D000000 		.4byte	0x6d
 3162 078f 56060000 		.4byte	.LLST42
 3163 0793 10       		.uleb128 0x10
 3164 0794 2D030000 		.4byte	.LASF65
 3165 0798 01       		.byte	0x1
 3166 0799 A501     		.2byte	0x1a5
 3167 079b 3D020000 		.4byte	0x23d
 3168 079f 74060000 		.4byte	.LLST43
 3169 07a3 00       		.byte	0x0
 3170 07a4 17       		.uleb128 0x17
 3171 07a5 01       		.byte	0x1
 3172 07a6 4F030000 		.4byte	.LASF87
 3173 07aa 01       		.byte	0x1
 3174 07ab 5706     		.2byte	0x657
 3175 07ad 01       		.byte	0x1
 3176 07ae 3D020000 		.4byte	0x23d
 3177 07b2 00000000 		.4byte	.LFB82
 3178 07b6 24000000 		.4byte	.LFE82
 3179 07ba A9060000 		.4byte	.LLST44
 3180 07be E3070000 		.4byte	0x7e3
 3181 07c2 16       		.uleb128 0x16
 3182 07c3 47030000 		.4byte	.LASF64
 3183 07c7 01       		.byte	0x1
 3184 07c8 5706     		.2byte	0x657
 3185 07ca 6D000000 		.4byte	0x6d
 3186 07ce C9060000 		.4byte	.LLST45
 3187 07d2 10       		.uleb128 0x10
 3188 07d3 2D030000 		.4byte	.LASF65
ARM GAS  /tmp/ccz3NjuA.s 			page 57


 3189 07d7 01       		.byte	0x1
 3190 07d8 5906     		.2byte	0x659
 3191 07da 3D020000 		.4byte	0x23d
 3192 07de F2060000 		.4byte	.LLST46
 3193 07e2 00       		.byte	0x0
 3194 07e3 17       		.uleb128 0x17
 3195 07e4 01       		.byte	0x1
 3196 07e5 31010000 		.4byte	.LASF88
 3197 07e9 01       		.byte	0x1
 3198 07ea 2B02     		.2byte	0x22b
 3199 07ec 01       		.byte	0x1
 3200 07ed 3D020000 		.4byte	0x23d
 3201 07f1 00000000 		.4byte	.LFB64
 3202 07f5 3C000000 		.4byte	.LFE64
 3203 07f9 3D070000 		.4byte	.LLST47
 3204 07fd 12080000 		.4byte	0x812
 3205 0801 10       		.uleb128 0x10
 3206 0802 2D030000 		.4byte	.LASF65
 3207 0806 01       		.byte	0x1
 3208 0807 2D02     		.2byte	0x22d
 3209 0809 3D020000 		.4byte	0x23d
 3210 080d 5D070000 		.4byte	.LLST48
 3211 0811 00       		.byte	0x0
 3212 0812 1A       		.uleb128 0x1a
 3213 0813 81040000 		.4byte	.LASF89
 3214 0817 05       		.byte	0x5
 3215 0818 9404     		.2byte	0x494
 3216 081a A5000000 		.4byte	0xa5
 3217 081e 01       		.byte	0x1
 3218 081f 01       		.byte	0x1
 3219 0820 1A       		.uleb128 0x1a
 3220 0821 81040000 		.4byte	.LASF89
 3221 0825 05       		.byte	0x5
 3222 0826 9404     		.2byte	0x494
 3223 0828 A5000000 		.4byte	0xa5
 3224 082c 01       		.byte	0x1
 3225 082d 01       		.byte	0x1
 3226 082e 00       		.byte	0x0
 3227              		.section	.debug_abbrev
 3228 0000 01       		.uleb128 0x1
 3229 0001 11       		.uleb128 0x11
 3230 0002 01       		.byte	0x1
 3231 0003 25       		.uleb128 0x25
 3232 0004 0E       		.uleb128 0xe
 3233 0005 13       		.uleb128 0x13
 3234 0006 0B       		.uleb128 0xb
 3235 0007 03       		.uleb128 0x3
 3236 0008 0E       		.uleb128 0xe
 3237 0009 1B       		.uleb128 0x1b
 3238 000a 0E       		.uleb128 0xe
 3239 000b 11       		.uleb128 0x11
 3240 000c 01       		.uleb128 0x1
 3241 000d 52       		.uleb128 0x52
 3242 000e 01       		.uleb128 0x1
 3243 000f 55       		.uleb128 0x55
 3244 0010 06       		.uleb128 0x6
 3245 0011 10       		.uleb128 0x10
ARM GAS  /tmp/ccz3NjuA.s 			page 58


 3246 0012 06       		.uleb128 0x6
 3247 0013 00       		.byte	0x0
 3248 0014 00       		.byte	0x0
 3249 0015 02       		.uleb128 0x2
 3250 0016 24       		.uleb128 0x24
 3251 0017 00       		.byte	0x0
 3252 0018 0B       		.uleb128 0xb
 3253 0019 0B       		.uleb128 0xb
 3254 001a 3E       		.uleb128 0x3e
 3255 001b 0B       		.uleb128 0xb
 3256 001c 03       		.uleb128 0x3
 3257 001d 0E       		.uleb128 0xe
 3258 001e 00       		.byte	0x0
 3259 001f 00       		.byte	0x0
 3260 0020 03       		.uleb128 0x3
 3261 0021 16       		.uleb128 0x16
 3262 0022 00       		.byte	0x0
 3263 0023 03       		.uleb128 0x3
 3264 0024 0E       		.uleb128 0xe
 3265 0025 3A       		.uleb128 0x3a
 3266 0026 0B       		.uleb128 0xb
 3267 0027 3B       		.uleb128 0x3b
 3268 0028 0B       		.uleb128 0xb
 3269 0029 49       		.uleb128 0x49
 3270 002a 13       		.uleb128 0x13
 3271 002b 00       		.byte	0x0
 3272 002c 00       		.byte	0x0
 3273 002d 04       		.uleb128 0x4
 3274 002e 24       		.uleb128 0x24
 3275 002f 00       		.byte	0x0
 3276 0030 0B       		.uleb128 0xb
 3277 0031 0B       		.uleb128 0xb
 3278 0032 3E       		.uleb128 0x3e
 3279 0033 0B       		.uleb128 0xb
 3280 0034 03       		.uleb128 0x3
 3281 0035 08       		.uleb128 0x8
 3282 0036 00       		.byte	0x0
 3283 0037 00       		.byte	0x0
 3284 0038 05       		.uleb128 0x5
 3285 0039 35       		.uleb128 0x35
 3286 003a 00       		.byte	0x0
 3287 003b 49       		.uleb128 0x49
 3288 003c 13       		.uleb128 0x13
 3289 003d 00       		.byte	0x0
 3290 003e 00       		.byte	0x0
 3291 003f 06       		.uleb128 0x6
 3292 0040 04       		.uleb128 0x4
 3293 0041 01       		.byte	0x1
 3294 0042 0B       		.uleb128 0xb
 3295 0043 0B       		.uleb128 0xb
 3296 0044 3A       		.uleb128 0x3a
 3297 0045 0B       		.uleb128 0xb
 3298 0046 3B       		.uleb128 0x3b
 3299 0047 05       		.uleb128 0x5
 3300 0048 01       		.uleb128 0x1
 3301 0049 13       		.uleb128 0x13
 3302 004a 00       		.byte	0x0
ARM GAS  /tmp/ccz3NjuA.s 			page 59


 3303 004b 00       		.byte	0x0
 3304 004c 07       		.uleb128 0x7
 3305 004d 28       		.uleb128 0x28
 3306 004e 00       		.byte	0x0
 3307 004f 03       		.uleb128 0x3
 3308 0050 0E       		.uleb128 0xe
 3309 0051 1C       		.uleb128 0x1c
 3310 0052 0D       		.uleb128 0xd
 3311 0053 00       		.byte	0x0
 3312 0054 00       		.byte	0x0
 3313 0055 08       		.uleb128 0x8
 3314 0056 28       		.uleb128 0x28
 3315 0057 00       		.byte	0x0
 3316 0058 03       		.uleb128 0x3
 3317 0059 08       		.uleb128 0x8
 3318 005a 1C       		.uleb128 0x1c
 3319 005b 0D       		.uleb128 0xd
 3320 005c 00       		.byte	0x0
 3321 005d 00       		.byte	0x0
 3322 005e 09       		.uleb128 0x9
 3323 005f 16       		.uleb128 0x16
 3324 0060 00       		.byte	0x0
 3325 0061 03       		.uleb128 0x3
 3326 0062 0E       		.uleb128 0xe
 3327 0063 3A       		.uleb128 0x3a
 3328 0064 0B       		.uleb128 0xb
 3329 0065 3B       		.uleb128 0x3b
 3330 0066 05       		.uleb128 0x5
 3331 0067 49       		.uleb128 0x49
 3332 0068 13       		.uleb128 0x13
 3333 0069 00       		.byte	0x0
 3334 006a 00       		.byte	0x0
 3335 006b 0A       		.uleb128 0xa
 3336 006c 13       		.uleb128 0x13
 3337 006d 01       		.byte	0x1
 3338 006e 0B       		.uleb128 0xb
 3339 006f 0B       		.uleb128 0xb
 3340 0070 3A       		.uleb128 0x3a
 3341 0071 0B       		.uleb128 0xb
 3342 0072 3B       		.uleb128 0x3b
 3343 0073 05       		.uleb128 0x5
 3344 0074 01       		.uleb128 0x1
 3345 0075 13       		.uleb128 0x13
 3346 0076 00       		.byte	0x0
 3347 0077 00       		.byte	0x0
 3348 0078 0B       		.uleb128 0xb
 3349 0079 0D       		.uleb128 0xd
 3350 007a 00       		.byte	0x0
 3351 007b 03       		.uleb128 0x3
 3352 007c 08       		.uleb128 0x8
 3353 007d 3A       		.uleb128 0x3a
 3354 007e 0B       		.uleb128 0xb
 3355 007f 3B       		.uleb128 0x3b
 3356 0080 05       		.uleb128 0x5
 3357 0081 49       		.uleb128 0x49
 3358 0082 13       		.uleb128 0x13
 3359 0083 38       		.uleb128 0x38
ARM GAS  /tmp/ccz3NjuA.s 			page 60


 3360 0084 0A       		.uleb128 0xa
 3361 0085 00       		.byte	0x0
 3362 0086 00       		.byte	0x0
 3363 0087 0C       		.uleb128 0xc
 3364 0088 0D       		.uleb128 0xd
 3365 0089 00       		.byte	0x0
 3366 008a 03       		.uleb128 0x3
 3367 008b 0E       		.uleb128 0xe
 3368 008c 3A       		.uleb128 0x3a
 3369 008d 0B       		.uleb128 0xb
 3370 008e 3B       		.uleb128 0x3b
 3371 008f 05       		.uleb128 0x5
 3372 0090 49       		.uleb128 0x49
 3373 0091 13       		.uleb128 0x13
 3374 0092 38       		.uleb128 0x38
 3375 0093 0A       		.uleb128 0xa
 3376 0094 00       		.byte	0x0
 3377 0095 00       		.byte	0x0
 3378 0096 0D       		.uleb128 0xd
 3379 0097 04       		.uleb128 0x4
 3380 0098 01       		.byte	0x1
 3381 0099 0B       		.uleb128 0xb
 3382 009a 0B       		.uleb128 0xb
 3383 009b 3A       		.uleb128 0x3a
 3384 009c 0B       		.uleb128 0xb
 3385 009d 3B       		.uleb128 0x3b
 3386 009e 0B       		.uleb128 0xb
 3387 009f 01       		.uleb128 0x1
 3388 00a0 13       		.uleb128 0x13
 3389 00a1 00       		.byte	0x0
 3390 00a2 00       		.byte	0x0
 3391 00a3 0E       		.uleb128 0xe
 3392 00a4 2E       		.uleb128 0x2e
 3393 00a5 01       		.byte	0x1
 3394 00a6 3F       		.uleb128 0x3f
 3395 00a7 0C       		.uleb128 0xc
 3396 00a8 03       		.uleb128 0x3
 3397 00a9 0E       		.uleb128 0xe
 3398 00aa 3A       		.uleb128 0x3a
 3399 00ab 0B       		.uleb128 0xb
 3400 00ac 3B       		.uleb128 0x3b
 3401 00ad 0B       		.uleb128 0xb
 3402 00ae 27       		.uleb128 0x27
 3403 00af 0C       		.uleb128 0xc
 3404 00b0 11       		.uleb128 0x11
 3405 00b1 01       		.uleb128 0x1
 3406 00b2 12       		.uleb128 0x12
 3407 00b3 01       		.uleb128 0x1
 3408 00b4 40       		.uleb128 0x40
 3409 00b5 0A       		.uleb128 0xa
 3410 00b6 01       		.uleb128 0x1
 3411 00b7 13       		.uleb128 0x13
 3412 00b8 00       		.byte	0x0
 3413 00b9 00       		.byte	0x0
 3414 00ba 0F       		.uleb128 0xf
 3415 00bb 05       		.uleb128 0x5
 3416 00bc 00       		.byte	0x0
ARM GAS  /tmp/ccz3NjuA.s 			page 61


 3417 00bd 03       		.uleb128 0x3
 3418 00be 0E       		.uleb128 0xe
 3419 00bf 3A       		.uleb128 0x3a
 3420 00c0 0B       		.uleb128 0xb
 3421 00c1 3B       		.uleb128 0x3b
 3422 00c2 0B       		.uleb128 0xb
 3423 00c3 49       		.uleb128 0x49
 3424 00c4 13       		.uleb128 0x13
 3425 00c5 02       		.uleb128 0x2
 3426 00c6 0A       		.uleb128 0xa
 3427 00c7 00       		.byte	0x0
 3428 00c8 00       		.byte	0x0
 3429 00c9 10       		.uleb128 0x10
 3430 00ca 34       		.uleb128 0x34
 3431 00cb 00       		.byte	0x0
 3432 00cc 03       		.uleb128 0x3
 3433 00cd 0E       		.uleb128 0xe
 3434 00ce 3A       		.uleb128 0x3a
 3435 00cf 0B       		.uleb128 0xb
 3436 00d0 3B       		.uleb128 0x3b
 3437 00d1 05       		.uleb128 0x5
 3438 00d2 49       		.uleb128 0x49
 3439 00d3 13       		.uleb128 0x13
 3440 00d4 02       		.uleb128 0x2
 3441 00d5 06       		.uleb128 0x6
 3442 00d6 00       		.byte	0x0
 3443 00d7 00       		.byte	0x0
 3444 00d8 11       		.uleb128 0x11
 3445 00d9 2E       		.uleb128 0x2e
 3446 00da 01       		.byte	0x1
 3447 00db 3F       		.uleb128 0x3f
 3448 00dc 0C       		.uleb128 0xc
 3449 00dd 03       		.uleb128 0x3
 3450 00de 0E       		.uleb128 0xe
 3451 00df 3A       		.uleb128 0x3a
 3452 00e0 0B       		.uleb128 0xb
 3453 00e1 3B       		.uleb128 0x3b
 3454 00e2 05       		.uleb128 0x5
 3455 00e3 27       		.uleb128 0x27
 3456 00e4 0C       		.uleb128 0xc
 3457 00e5 11       		.uleb128 0x11
 3458 00e6 01       		.uleb128 0x1
 3459 00e7 12       		.uleb128 0x12
 3460 00e8 01       		.uleb128 0x1
 3461 00e9 40       		.uleb128 0x40
 3462 00ea 0A       		.uleb128 0xa
 3463 00eb 01       		.uleb128 0x1
 3464 00ec 13       		.uleb128 0x13
 3465 00ed 00       		.byte	0x0
 3466 00ee 00       		.byte	0x0
 3467 00ef 12       		.uleb128 0x12
 3468 00f0 05       		.uleb128 0x5
 3469 00f1 00       		.byte	0x0
 3470 00f2 03       		.uleb128 0x3
 3471 00f3 0E       		.uleb128 0xe
 3472 00f4 3A       		.uleb128 0x3a
 3473 00f5 0B       		.uleb128 0xb
ARM GAS  /tmp/ccz3NjuA.s 			page 62


 3474 00f6 3B       		.uleb128 0x3b
 3475 00f7 05       		.uleb128 0x5
 3476 00f8 49       		.uleb128 0x49
 3477 00f9 13       		.uleb128 0x13
 3478 00fa 02       		.uleb128 0x2
 3479 00fb 0A       		.uleb128 0xa
 3480 00fc 00       		.byte	0x0
 3481 00fd 00       		.byte	0x0
 3482 00fe 13       		.uleb128 0x13
 3483 00ff 2E       		.uleb128 0x2e
 3484 0100 00       		.byte	0x0
 3485 0101 3F       		.uleb128 0x3f
 3486 0102 0C       		.uleb128 0xc
 3487 0103 03       		.uleb128 0x3
 3488 0104 0E       		.uleb128 0xe
 3489 0105 3A       		.uleb128 0x3a
 3490 0106 0B       		.uleb128 0xb
 3491 0107 3B       		.uleb128 0x3b
 3492 0108 05       		.uleb128 0x5
 3493 0109 27       		.uleb128 0x27
 3494 010a 0C       		.uleb128 0xc
 3495 010b 11       		.uleb128 0x11
 3496 010c 01       		.uleb128 0x1
 3497 010d 12       		.uleb128 0x12
 3498 010e 01       		.uleb128 0x1
 3499 010f 40       		.uleb128 0x40
 3500 0110 0A       		.uleb128 0xa
 3501 0111 00       		.byte	0x0
 3502 0112 00       		.byte	0x0
 3503 0113 14       		.uleb128 0x14
 3504 0114 2E       		.uleb128 0x2e
 3505 0115 00       		.byte	0x0
 3506 0116 3F       		.uleb128 0x3f
 3507 0117 0C       		.uleb128 0xc
 3508 0118 03       		.uleb128 0x3
 3509 0119 0E       		.uleb128 0xe
 3510 011a 3A       		.uleb128 0x3a
 3511 011b 0B       		.uleb128 0xb
 3512 011c 3B       		.uleb128 0x3b
 3513 011d 05       		.uleb128 0x5
 3514 011e 27       		.uleb128 0x27
 3515 011f 0C       		.uleb128 0xc
 3516 0120 49       		.uleb128 0x49
 3517 0121 13       		.uleb128 0x13
 3518 0122 11       		.uleb128 0x11
 3519 0123 01       		.uleb128 0x1
 3520 0124 12       		.uleb128 0x12
 3521 0125 01       		.uleb128 0x1
 3522 0126 40       		.uleb128 0x40
 3523 0127 0A       		.uleb128 0xa
 3524 0128 00       		.byte	0x0
 3525 0129 00       		.byte	0x0
 3526 012a 15       		.uleb128 0x15
 3527 012b 2E       		.uleb128 0x2e
 3528 012c 01       		.byte	0x1
 3529 012d 3F       		.uleb128 0x3f
 3530 012e 0C       		.uleb128 0xc
ARM GAS  /tmp/ccz3NjuA.s 			page 63


 3531 012f 03       		.uleb128 0x3
 3532 0130 0E       		.uleb128 0xe
 3533 0131 3A       		.uleb128 0x3a
 3534 0132 0B       		.uleb128 0xb
 3535 0133 3B       		.uleb128 0x3b
 3536 0134 05       		.uleb128 0x5
 3537 0135 27       		.uleb128 0x27
 3538 0136 0C       		.uleb128 0xc
 3539 0137 49       		.uleb128 0x49
 3540 0138 13       		.uleb128 0x13
 3541 0139 11       		.uleb128 0x11
 3542 013a 01       		.uleb128 0x1
 3543 013b 12       		.uleb128 0x12
 3544 013c 01       		.uleb128 0x1
 3545 013d 40       		.uleb128 0x40
 3546 013e 0A       		.uleb128 0xa
 3547 013f 01       		.uleb128 0x1
 3548 0140 13       		.uleb128 0x13
 3549 0141 00       		.byte	0x0
 3550 0142 00       		.byte	0x0
 3551 0143 16       		.uleb128 0x16
 3552 0144 05       		.uleb128 0x5
 3553 0145 00       		.byte	0x0
 3554 0146 03       		.uleb128 0x3
 3555 0147 0E       		.uleb128 0xe
 3556 0148 3A       		.uleb128 0x3a
 3557 0149 0B       		.uleb128 0xb
 3558 014a 3B       		.uleb128 0x3b
 3559 014b 05       		.uleb128 0x5
 3560 014c 49       		.uleb128 0x49
 3561 014d 13       		.uleb128 0x13
 3562 014e 02       		.uleb128 0x2
 3563 014f 06       		.uleb128 0x6
 3564 0150 00       		.byte	0x0
 3565 0151 00       		.byte	0x0
 3566 0152 17       		.uleb128 0x17
 3567 0153 2E       		.uleb128 0x2e
 3568 0154 01       		.byte	0x1
 3569 0155 3F       		.uleb128 0x3f
 3570 0156 0C       		.uleb128 0xc
 3571 0157 03       		.uleb128 0x3
 3572 0158 0E       		.uleb128 0xe
 3573 0159 3A       		.uleb128 0x3a
 3574 015a 0B       		.uleb128 0xb
 3575 015b 3B       		.uleb128 0x3b
 3576 015c 05       		.uleb128 0x5
 3577 015d 27       		.uleb128 0x27
 3578 015e 0C       		.uleb128 0xc
 3579 015f 49       		.uleb128 0x49
 3580 0160 13       		.uleb128 0x13
 3581 0161 11       		.uleb128 0x11
 3582 0162 01       		.uleb128 0x1
 3583 0163 12       		.uleb128 0x12
 3584 0164 01       		.uleb128 0x1
 3585 0165 40       		.uleb128 0x40
 3586 0166 06       		.uleb128 0x6
 3587 0167 01       		.uleb128 0x1
ARM GAS  /tmp/ccz3NjuA.s 			page 64


 3588 0168 13       		.uleb128 0x13
 3589 0169 00       		.byte	0x0
 3590 016a 00       		.byte	0x0
 3591 016b 18       		.uleb128 0x18
 3592 016c 34       		.uleb128 0x34
 3593 016d 00       		.byte	0x0
 3594 016e 03       		.uleb128 0x3
 3595 016f 0E       		.uleb128 0xe
 3596 0170 3A       		.uleb128 0x3a
 3597 0171 0B       		.uleb128 0xb
 3598 0172 3B       		.uleb128 0x3b
 3599 0173 05       		.uleb128 0x5
 3600 0174 49       		.uleb128 0x49
 3601 0175 13       		.uleb128 0x13
 3602 0176 00       		.byte	0x0
 3603 0177 00       		.byte	0x0
 3604 0178 19       		.uleb128 0x19
 3605 0179 34       		.uleb128 0x34
 3606 017a 00       		.byte	0x0
 3607 017b 03       		.uleb128 0x3
 3608 017c 08       		.uleb128 0x8
 3609 017d 3A       		.uleb128 0x3a
 3610 017e 0B       		.uleb128 0xb
 3611 017f 3B       		.uleb128 0x3b
 3612 0180 05       		.uleb128 0x5
 3613 0181 49       		.uleb128 0x49
 3614 0182 13       		.uleb128 0x13
 3615 0183 02       		.uleb128 0x2
 3616 0184 06       		.uleb128 0x6
 3617 0185 00       		.byte	0x0
 3618 0186 00       		.byte	0x0
 3619 0187 1A       		.uleb128 0x1a
 3620 0188 34       		.uleb128 0x34
 3621 0189 00       		.byte	0x0
 3622 018a 03       		.uleb128 0x3
 3623 018b 0E       		.uleb128 0xe
 3624 018c 3A       		.uleb128 0x3a
 3625 018d 0B       		.uleb128 0xb
 3626 018e 3B       		.uleb128 0x3b
 3627 018f 05       		.uleb128 0x5
 3628 0190 49       		.uleb128 0x49
 3629 0191 13       		.uleb128 0x13
 3630 0192 3F       		.uleb128 0x3f
 3631 0193 0C       		.uleb128 0xc
 3632 0194 3C       		.uleb128 0x3c
 3633 0195 0C       		.uleb128 0xc
 3634 0196 00       		.byte	0x0
 3635 0197 00       		.byte	0x0
 3636 0198 00       		.byte	0x0
 3637              		.section	.debug_pubnames,"",%progbits
 3638 0000 EE020000 		.4byte	0x2ee
 3639 0004 0200     		.2byte	0x2
 3640 0006 00000000 		.4byte	.Ldebug_info0
 3641 000a 2F080000 		.4byte	0x82f
 3642 000e 48020000 		.4byte	0x248
 3643 0012 464C4153 		.ascii	"FLASH_SetLatency\000"
 3643      485F5365 
ARM GAS  /tmp/ccz3NjuA.s 			page 65


 3643      744C6174 
 3643      656E6379 
 3643      00
 3644 0023 7E020000 		.4byte	0x27e
 3645 0027 464C4153 		.ascii	"FLASH_HalfCycleAccessCmd\000"
 3645      485F4861 
 3645      6C664379 
 3645      636C6541 
 3645      63636573 
 3646 0040 A6020000 		.4byte	0x2a6
 3647 0044 464C4153 		.ascii	"FLASH_PrefetchBufferCmd\000"
 3647      485F5072 
 3647      65666574 
 3647      63684275 
 3647      66666572 
 3648 005c CE020000 		.4byte	0x2ce
 3649 0060 464C4153 		.ascii	"FLASH_Unlock\000"
 3649      485F556E 
 3649      6C6F636B 
 3649      00
 3650 006d E3020000 		.4byte	0x2e3
 3651 0071 464C4153 		.ascii	"FLASH_UnlockBank1\000"
 3651      485F556E 
 3651      6C6F636B 
 3651      42616E6B 
 3651      3100
 3652 0083 F8020000 		.4byte	0x2f8
 3653 0087 464C4153 		.ascii	"FLASH_Lock\000"
 3653      485F4C6F 
 3653      636B00
 3654 0092 0D030000 		.4byte	0x30d
 3655 0096 464C4153 		.ascii	"FLASH_LockBank1\000"
 3655      485F4C6F 
 3655      636B4261 
 3655      6E6B3100 
 3656 00a6 22030000 		.4byte	0x322
 3657 00aa 464C4153 		.ascii	"FLASH_GetUserOptionByte\000"
 3657      485F4765 
 3657      74557365 
 3657      724F7074 
 3657      696F6E42 
 3658 00c2 3B030000 		.4byte	0x33b
 3659 00c6 464C4153 		.ascii	"FLASH_GetWriteProtectionOptionByte\000"
 3659      485F4765 
 3659      74577269 
 3659      74655072 
 3659      6F746563 
 3660 00e9 54030000 		.4byte	0x354
 3661 00ed 464C4153 		.ascii	"FLASH_GetReadOutProtectionStatus\000"
 3661      485F4765 
 3661      74526561 
 3661      644F7574 
 3661      50726F74 
 3662 010e 82030000 		.4byte	0x382
 3663 0112 464C4153 		.ascii	"FLASH_GetPrefetchBufferStatus\000"
 3663      485F4765 
 3663      74507265 
ARM GAS  /tmp/ccz3NjuA.s 			page 66


 3663      66657463 
 3663      68427566 
 3664 0130 B0030000 		.4byte	0x3b0
 3665 0134 464C4153 		.ascii	"FLASH_ITConfig\000"
 3665      485F4954 
 3665      436F6E66 
 3665      696700
 3666 0143 E8030000 		.4byte	0x3e8
 3667 0147 464C4153 		.ascii	"FLASH_GetFlagStatus\000"
 3667      485F4765 
 3667      74466C61 
 3667      67537461 
 3667      74757300 
 3668 015b 26040000 		.4byte	0x426
 3669 015f 464C4153 		.ascii	"FLASH_ClearFlag\000"
 3669      485F436C 
 3669      65617246 
 3669      6C616700 
 3670 016f 4E040000 		.4byte	0x44e
 3671 0173 464C4153 		.ascii	"FLASH_GetStatus\000"
 3671      485F4765 
 3671      74537461 
 3671      74757300 
 3672 0183 7C040000 		.4byte	0x47c
 3673 0187 464C4153 		.ascii	"FLASH_GetBank1Status\000"
 3673      485F4765 
 3673      7442616E 
 3673      6B315374 
 3673      61747573 
 3674 019c AA040000 		.4byte	0x4aa
 3675 01a0 464C4153 		.ascii	"FLASH_WaitForLastOperation\000"
 3675      485F5761 
 3675      6974466F 
 3675      724C6173 
 3675      744F7065 
 3676 01bb E9040000 		.4byte	0x4e9
 3677 01bf 464C4153 		.ascii	"FLASH_UserOptionByteConfig\000"
 3677      485F5573 
 3677      65724F70 
 3677      74696F6E 
 3677      42797465 
 3678 01da 48050000 		.4byte	0x548
 3679 01de 464C4153 		.ascii	"FLASH_ReadOutProtection\000"
 3679      485F5265 
 3679      61644F75 
 3679      7450726F 
 3679      74656374 
 3680 01f6 87050000 		.4byte	0x587
 3681 01fa 464C4153 		.ascii	"FLASH_EnableWriteProtection\000"
 3681      485F456E 
 3681      61626C65 
 3681      57726974 
 3681      6550726F 
 3682 0216 FA050000 		.4byte	0x5fa
 3683 021a 464C4153 		.ascii	"FLASH_ProgramOptionByteData\000"
 3683      485F5072 
 3683      6F677261 
ARM GAS  /tmp/ccz3NjuA.s 			page 67


 3683      6D4F7074 
 3683      696F6E42 
 3684 0236 49060000 		.4byte	0x649
 3685 023a 464C4153 		.ascii	"FLASH_ProgramHalfWord\000"
 3685      485F5072 
 3685      6F677261 
 3685      6D48616C 
 3685      66576F72 
 3686 0250 98060000 		.4byte	0x698
 3687 0254 464C4153 		.ascii	"FLASH_ProgramWord\000"
 3687      485F5072 
 3687      6F677261 
 3687      6D576F72 
 3687      6400
 3688 0266 F7060000 		.4byte	0x6f7
 3689 026a 464C4153 		.ascii	"FLASH_EraseOptionBytes\000"
 3689      485F4572 
 3689      6173654F 
 3689      7074696F 
 3689      6E427974 
 3690 0281 36070000 		.4byte	0x736
 3691 0285 464C4153 		.ascii	"FLASH_EraseAllPages\000"
 3691      485F4572 
 3691      61736541 
 3691      6C6C5061 
 3691      67657300 
 3692 0299 65070000 		.4byte	0x765
 3693 029d 464C4153 		.ascii	"FLASH_ErasePage\000"
 3693      485F4572 
 3693      61736550 
 3693      61676500 
 3694 02ad A4070000 		.4byte	0x7a4
 3695 02b1 464C4153 		.ascii	"FLASH_WaitForLastBank1Operation\000"
 3695      485F5761 
 3695      6974466F 
 3695      724C6173 
 3695      7442616E 
 3696 02d1 E3070000 		.4byte	0x7e3
 3697 02d5 464C4153 		.ascii	"FLASH_EraseAllBank1Pages\000"
 3697      485F4572 
 3697      61736541 
 3697      6C6C4261 
 3697      6E6B3150 
 3698 02ee 00000000 		.4byte	0x0
 3699              		.section	.debug_pubtypes,"",%progbits
 3700 0000 95000000 		.4byte	0x95
 3701 0004 0200     		.2byte	0x2
 3702 0006 00000000 		.4byte	.Ldebug_info0
 3703 000a 2F080000 		.4byte	0x82f
 3704 000e 30000000 		.4byte	0x30
 3705 0012 75696E74 		.ascii	"uint8_t\000"
 3705      385F7400 
 3706 001a 49000000 		.4byte	0x49
 3707 001e 75696E74 		.ascii	"uint16_t\000"
 3707      31365F74 
 3707      00
 3708 0027 5B000000 		.4byte	0x5b
ARM GAS  /tmp/ccz3NjuA.s 			page 68


 3709 002b 696E7433 		.ascii	"int32_t\000"
 3709      325F7400 
 3710 0033 6D000000 		.4byte	0x6d
 3711 0037 75696E74 		.ascii	"uint32_t\000"
 3711      33325F74 
 3711      00
 3712 0040 C0000000 		.4byte	0xc0
 3713 0044 466C6167 		.ascii	"FlagStatus\000"
 3713      53746174 
 3713      757300
 3714 004f E2000000 		.4byte	0xe2
 3715 0053 46756E63 		.ascii	"FunctionalState\000"
 3715      74696F6E 
 3715      616C5374 
 3715      61746500 
 3716 0063 7C010000 		.4byte	0x17c
 3717 0067 464C4153 		.ascii	"FLASH_TypeDef\000"
 3717      485F5479 
 3717      70654465 
 3717      6600
 3718 0075 0A020000 		.4byte	0x20a
 3719 0079 4F425F54 		.ascii	"OB_TypeDef\000"
 3719      79706544 
 3719      656600
 3720 0084 3D020000 		.4byte	0x23d
 3721 0088 464C4153 		.ascii	"FLASH_Status\000"
 3721      485F5374 
 3721      61747573 
 3721      00
 3722 0095 00000000 		.4byte	0x0
 3723              		.section	.debug_aranges,"",%progbits
 3724 0000 F4000000 		.4byte	0xf4
 3725 0004 0200     		.2byte	0x2
 3726 0006 00000000 		.4byte	.Ldebug_info0
 3727 000a 04       		.byte	0x4
 3728 000b 00       		.byte	0x0
 3729 000c 0000     		.2byte	0x0
 3730 000e 0000     		.2byte	0x0
 3731 0010 00000000 		.4byte	.LFB55
 3732 0014 14000000 		.4byte	.LFE55-.LFB55
 3733 0018 00000000 		.4byte	.LFB56
 3734 001c 18000000 		.4byte	.LFE56-.LFB56
 3735 0020 00000000 		.4byte	.LFB57
 3736 0024 18000000 		.4byte	.LFE57-.LFB57
 3737 0028 00000000 		.4byte	.LFB58
 3738 002c 18000000 		.4byte	.LFE58-.LFB58
 3739 0030 00000000 		.4byte	.LFB59
 3740 0034 18000000 		.4byte	.LFE59-.LFB59
 3741 0038 00000000 		.4byte	.LFB60
 3742 003c 10000000 		.4byte	.LFE60-.LFB60
 3743 0040 00000000 		.4byte	.LFB61
 3744 0044 10000000 		.4byte	.LFE61-.LFB61
 3745 0048 00000000 		.4byte	.LFB72
 3746 004c 0C000000 		.4byte	.LFE72-.LFB72
 3747 0050 00000000 		.4byte	.LFB73
 3748 0054 0C000000 		.4byte	.LFE73-.LFB73
 3749 0058 00000000 		.4byte	.LFB74
ARM GAS  /tmp/ccz3NjuA.s 			page 69


 3750 005c 10000000 		.4byte	.LFE74-.LFB74
 3751 0060 00000000 		.4byte	.LFB75
 3752 0064 10000000 		.4byte	.LFE75-.LFB75
 3753 0068 00000000 		.4byte	.LFB76
 3754 006c 18000000 		.4byte	.LFE76-.LFB76
 3755 0070 00000000 		.4byte	.LFB77
 3756 0074 20000000 		.4byte	.LFE77-.LFB77
 3757 0078 00000000 		.4byte	.LFB78
 3758 007c 0C000000 		.4byte	.LFE78-.LFB78
 3759 0080 00000000 		.4byte	.LFB79
 3760 0084 30000000 		.4byte	.LFE79-.LFB79
 3761 0088 00000000 		.4byte	.LFB80
 3762 008c 30000000 		.4byte	.LFE80-.LFB80
 3763 0090 00000000 		.4byte	.LFB81
 3764 0094 24000000 		.4byte	.LFE81-.LFB81
 3765 0098 00000000 		.4byte	.LFB71
 3766 009c 5C000000 		.4byte	.LFE71-.LFB71
 3767 00a0 00000000 		.4byte	.LFB70
 3768 00a4 94000000 		.4byte	.LFE70-.LFB70
 3769 00a8 00000000 		.4byte	.LFB69
 3770 00ac A8000000 		.4byte	.LFE69-.LFB69
 3771 00b0 00000000 		.4byte	.LFB68
 3772 00b4 4C000000 		.4byte	.LFE68-.LFB68
 3773 00b8 00000000 		.4byte	.LFB67
 3774 00bc 38000000 		.4byte	.LFE67-.LFB67
 3775 00c0 00000000 		.4byte	.LFB66
 3776 00c4 54000000 		.4byte	.LFE66-.LFB66
 3777 00c8 00000000 		.4byte	.LFB65
 3778 00cc 94000000 		.4byte	.LFE65-.LFB65
 3779 00d0 00000000 		.4byte	.LFB63
 3780 00d4 3C000000 		.4byte	.LFE63-.LFB63
 3781 00d8 00000000 		.4byte	.LFB62
 3782 00dc 40000000 		.4byte	.LFE62-.LFB62
 3783 00e0 00000000 		.4byte	.LFB82
 3784 00e4 24000000 		.4byte	.LFE82-.LFB82
 3785 00e8 00000000 		.4byte	.LFB64
 3786 00ec 3C000000 		.4byte	.LFE64-.LFB64
 3787 00f0 00000000 		.4byte	0x0
 3788 00f4 00000000 		.4byte	0x0
 3789              		.section	.debug_ranges,"",%progbits
 3790              	.Ldebug_ranges0:
 3791 0000 00000000 		.4byte	.LFB55
 3792 0004 14000000 		.4byte	.LFE55
 3793 0008 00000000 		.4byte	.LFB56
 3794 000c 18000000 		.4byte	.LFE56
 3795 0010 00000000 		.4byte	.LFB57
 3796 0014 18000000 		.4byte	.LFE57
 3797 0018 00000000 		.4byte	.LFB58
 3798 001c 18000000 		.4byte	.LFE58
 3799 0020 00000000 		.4byte	.LFB59
 3800 0024 18000000 		.4byte	.LFE59
 3801 0028 00000000 		.4byte	.LFB60
 3802 002c 10000000 		.4byte	.LFE60
 3803 0030 00000000 		.4byte	.LFB61
 3804 0034 10000000 		.4byte	.LFE61
 3805 0038 00000000 		.4byte	.LFB72
 3806 003c 0C000000 		.4byte	.LFE72
ARM GAS  /tmp/ccz3NjuA.s 			page 70


 3807 0040 00000000 		.4byte	.LFB73
 3808 0044 0C000000 		.4byte	.LFE73
 3809 0048 00000000 		.4byte	.LFB74
 3810 004c 10000000 		.4byte	.LFE74
 3811 0050 00000000 		.4byte	.LFB75
 3812 0054 10000000 		.4byte	.LFE75
 3813 0058 00000000 		.4byte	.LFB76
 3814 005c 18000000 		.4byte	.LFE76
 3815 0060 00000000 		.4byte	.LFB77
 3816 0064 20000000 		.4byte	.LFE77
 3817 0068 00000000 		.4byte	.LFB78
 3818 006c 0C000000 		.4byte	.LFE78
 3819 0070 00000000 		.4byte	.LFB79
 3820 0074 30000000 		.4byte	.LFE79
 3821 0078 00000000 		.4byte	.LFB80
 3822 007c 30000000 		.4byte	.LFE80
 3823 0080 00000000 		.4byte	.LFB81
 3824 0084 24000000 		.4byte	.LFE81
 3825 0088 00000000 		.4byte	.LFB71
 3826 008c 5C000000 		.4byte	.LFE71
 3827 0090 00000000 		.4byte	.LFB70
 3828 0094 94000000 		.4byte	.LFE70
 3829 0098 00000000 		.4byte	.LFB69
 3830 009c A8000000 		.4byte	.LFE69
 3831 00a0 00000000 		.4byte	.LFB68
 3832 00a4 4C000000 		.4byte	.LFE68
 3833 00a8 00000000 		.4byte	.LFB67
 3834 00ac 38000000 		.4byte	.LFE67
 3835 00b0 00000000 		.4byte	.LFB66
 3836 00b4 54000000 		.4byte	.LFE66
 3837 00b8 00000000 		.4byte	.LFB65
 3838 00bc 94000000 		.4byte	.LFE65
 3839 00c0 00000000 		.4byte	.LFB63
 3840 00c4 3C000000 		.4byte	.LFE63
 3841 00c8 00000000 		.4byte	.LFB62
 3842 00cc 40000000 		.4byte	.LFE62
 3843 00d0 00000000 		.4byte	.LFB82
 3844 00d4 24000000 		.4byte	.LFE82
 3845 00d8 00000000 		.4byte	.LFB64
 3846 00dc 3C000000 		.4byte	.LFE64
 3847 00e0 00000000 		.4byte	0x0
 3848 00e4 00000000 		.4byte	0x0
 3849              		.section	.debug_str,"MS",%progbits,1
 3850              	.LASF54:
 3851 0000 464C4153 		.ascii	"FLASH_ITConfig\000"
 3851      485F4954 
 3851      436F6E66 
 3851      696700
 3852              	.LASF92:
 3853 000f 2F686F6D 		.ascii	"/home/z80/projects/dfu.git/firmware-pawn-dev/firmwa"
 3853      652F7A38 
 3853      302F7072 
 3853      6F6A6563 
 3853      74732F64 
 3854 0042 726500   		.ascii	"re\000"
 3855              	.LASF67:
 3856 0045 4F425F49 		.ascii	"OB_IWDG\000"
ARM GAS  /tmp/ccz3NjuA.s 			page 71


 3856      57444700 
 3857              	.LASF75:
 3858 004d 57525032 		.ascii	"WRP2_Data\000"
 3858      5F446174 
 3858      6100
 3859              	.LASF68:
 3860 0057 4F425F53 		.ascii	"OB_STOP\000"
 3860      544F5000 
 3861              	.LASF82:
 3862 005f 464C4153 		.ascii	"FLASH_EraseOptionBytes\000"
 3862      485F4572 
 3862      6173654F 
 3862      7074696F 
 3862      6E427974 
 3863              	.LASF33:
 3864 0076 464C4153 		.ascii	"FLASH_ERROR_WRP\000"
 3864      485F4552 
 3864      524F525F 
 3864      57525000 
 3865              	.LASF85:
 3866 0086 464C4153 		.ascii	"FLASH_ErasePage\000"
 3866      485F4572 
 3866      61736550 
 3866      61676500 
 3867              	.LASF39:
 3868 0096 464C4153 		.ascii	"FLASH_Latency\000"
 3868      485F4C61 
 3868      74656E63 
 3868      7900
 3869              	.LASF52:
 3870 00a4 464C4153 		.ascii	"FLASH_GetPrefetchBufferStatus\000"
 3870      485F4765 
 3870      74507265 
 3870      66657463 
 3870      68427566 
 3871              	.LASF78:
 3872 00c2 41646472 		.ascii	"Address\000"
 3872      65737300 
 3873              	.LASF2:
 3874 00ca 73686F72 		.ascii	"short int\000"
 3874      7420696E 
 3874      7400
 3875              	.LASF21:
 3876 00d4 57525052 		.ascii	"WRPR\000"
 3876      00
 3877              	.LASF18:
 3878 00d9 4B455952 		.ascii	"KEYR\000"
 3878      00
 3879              	.LASF43:
 3880 00de 464C4153 		.ascii	"FLASH_Unlock\000"
 3880      485F556E 
 3880      6C6F636B 
 3880      00
 3881              	.LASF40:
 3882 00eb 464C4153 		.ascii	"FLASH_HalfCycleAccess\000"
 3882      485F4861 
 3882      6C664379 
ARM GAS  /tmp/ccz3NjuA.s 			page 72


 3882      636C6541 
 3882      63636573 
 3883              	.LASF84:
 3884 0101 464C4153 		.ascii	"FLASH_EraseAllPages\000"
 3884      485F4572 
 3884      61736541 
 3884      6C6C5061 
 3884      67657300 
 3885              	.LASF3:
 3886 0115 75696E74 		.ascii	"uint8_t\000"
 3886      385F7400 
 3887              	.LASF36:
 3888 011d 464C4153 		.ascii	"FLASH_Status\000"
 3888      485F5374 
 3888      61747573 
 3888      00
 3889              	.LASF83:
 3890 012a 72647074 		.ascii	"rdptmp\000"
 3890      6D7000
 3891              	.LASF88:
 3892 0131 464C4153 		.ascii	"FLASH_EraseAllBank1Pages\000"
 3892      485F4572 
 3892      61736541 
 3892      6C6C4261 
 3892      6E6B3150 
 3893              	.LASF56:
 3894 014a 4E657753 		.ascii	"NewState\000"
 3894      74617465 
 3894      00
 3895              	.LASF46:
 3896 0153 464C4153 		.ascii	"FLASH_LockBank1\000"
 3896      485F4C6F 
 3896      636B4261 
 3896      6E6B3100 
 3897              	.LASF27:
 3898 0163 57525031 		.ascii	"WRP1\000"
 3898      00
 3899              	.LASF28:
 3900 0168 57525032 		.ascii	"WRP2\000"
 3900      00
 3901              	.LASF29:
 3902 016d 57525033 		.ascii	"WRP3\000"
 3902      00
 3903              	.LASF15:
 3904 0172 44495341 		.ascii	"DISABLE\000"
 3904      424C4500 
 3905              	.LASF44:
 3906 017a 464C4153 		.ascii	"FLASH_UnlockBank1\000"
 3906      485F556E 
 3906      6C6F636B 
 3906      42616E6B 
 3906      3100
 3907              	.LASF48:
 3908 018c 464C4153 		.ascii	"FLASH_GetWriteProtectionOptionByte\000"
 3908      485F4765 
 3908      74577269 
 3908      74655072 
ARM GAS  /tmp/ccz3NjuA.s 			page 73


 3908      6F746563 
 3909              	.LASF19:
 3910 01af 4F50544B 		.ascii	"OPTKEYR\000"
 3910      45595200 
 3911              	.LASF10:
 3912 01b7 6C6F6E67 		.ascii	"long long int\000"
 3912      206C6F6E 
 3912      6720696E 
 3912      7400
 3913              	.LASF66:
 3914 01c5 464C4153 		.ascii	"FLASH_UserOptionByteConfig\000"
 3914      485F5573 
 3914      65724F70 
 3914      74696F6E 
 3914      42797465 
 3915              	.LASF70:
 3916 01e0 464C4153 		.ascii	"FLASH_ReadOutProtection\000"
 3916      485F5265 
 3916      61644F75 
 3916      7450726F 
 3916      74656374 
 3917              	.LASF7:
 3918 01f8 6C6F6E67 		.ascii	"long int\000"
 3918      20696E74 
 3918      00
 3919              	.LASF91:
 3920 0201 73746D33 		.ascii	"stm32f10x_flash.c\000"
 3920      32663130 
 3920      785F666C 
 3920      6173682E 
 3920      6300
 3921              	.LASF61:
 3922 0213 666C6173 		.ascii	"flashstatus\000"
 3922      68737461 
 3922      74757300 
 3923              	.LASF79:
 3924 021f 44617461 		.ascii	"Data\000"
 3924      00
 3925              	.LASF49:
 3926 0224 746D7072 		.ascii	"tmpreg\000"
 3926      656700
 3927              	.LASF53:
 3928 022b 62697473 		.ascii	"bitstatus\000"
 3928      74617475 
 3928      7300
 3929              	.LASF1:
 3930 0235 756E7369 		.ascii	"unsigned char\000"
 3930      676E6564 
 3930      20636861 
 3930      7200
 3931              	.LASF86:
 3932 0243 50616765 		.ascii	"Page_Address\000"
 3932      5F416464 
 3932      72657373 
 3932      00
 3933              	.LASF32:
 3934 0250 464C4153 		.ascii	"FLASH_ERROR_PG\000"
ARM GAS  /tmp/ccz3NjuA.s 			page 74


 3934      485F4552 
 3934      524F525F 
 3934      504700
 3935              	.LASF45:
 3936 025f 464C4153 		.ascii	"FLASH_Lock\000"
 3936      485F4C6F 
 3936      636B00
 3937              	.LASF76:
 3938 026a 57525033 		.ascii	"WRP3_Data\000"
 3938      5F446174 
 3938      6100
 3939              	.LASF41:
 3940 0274 464C4153 		.ascii	"FLASH_PrefetchBufferCmd\000"
 3940      485F5072 
 3940      65666574 
 3940      63684275 
 3940      66666572 
 3941              	.LASF0:
 3942 028c 7369676E 		.ascii	"signed char\000"
 3942      65642063 
 3942      68617200 
 3943              	.LASF57:
 3944 0298 464C4153 		.ascii	"FLASH_GetFlagStatus\000"
 3944      485F4765 
 3944      74466C61 
 3944      67537461 
 3944      74757300 
 3945              	.LASF11:
 3946 02ac 6C6F6E67 		.ascii	"long long unsigned int\000"
 3946      206C6F6E 
 3946      6720756E 
 3946      7369676E 
 3946      65642069 
 3947              	.LASF8:
 3948 02c3 75696E74 		.ascii	"uint32_t\000"
 3948      33325F74 
 3948      00
 3949              	.LASF59:
 3950 02cc 464C4153 		.ascii	"FLASH_ClearFlag\000"
 3950      485F436C 
 3950      65617246 
 3950      6C616700 
 3951              	.LASF12:
 3952 02dc 756E7369 		.ascii	"unsigned int\000"
 3952      676E6564 
 3952      20696E74 
 3952      00
 3953              	.LASF34:
 3954 02e9 464C4153 		.ascii	"FLASH_COMPLETE\000"
 3954      485F434F 
 3954      4D504C45 
 3954      544500
 3955              	.LASF31:
 3956 02f8 464C4153 		.ascii	"FLASH_BUSY\000"
 3956      485F4255 
 3956      535900
 3957              	.LASF74:
ARM GAS  /tmp/ccz3NjuA.s 			page 75


 3958 0303 57525031 		.ascii	"WRP1_Data\000"
 3958      5F446174 
 3958      6100
 3959              	.LASF9:
 3960 030d 6C6F6E67 		.ascii	"long unsigned int\000"
 3960      20756E73 
 3960      69676E65 
 3960      6420696E 
 3960      7400
 3961              	.LASF35:
 3962 031f 464C4153 		.ascii	"FLASH_TIMEOUT\000"
 3962      485F5449 
 3962      4D454F55 
 3962      5400
 3963              	.LASF65:
 3964 032d 73746174 		.ascii	"status\000"
 3964      757300
 3965              	.LASF5:
 3966 0334 73686F72 		.ascii	"short unsigned int\000"
 3966      7420756E 
 3966      7369676E 
 3966      65642069 
 3966      6E7400
 3967              	.LASF64:
 3968 0347 54696D65 		.ascii	"Timeout\000"
 3968      6F757400 
 3969              	.LASF87:
 3970 034f 464C4153 		.ascii	"FLASH_WaitForLastBank1Operation\000"
 3970      485F5761 
 3970      6974466F 
 3970      724C6173 
 3970      7442616E 
 3971              	.LASF51:
 3972 036f 464C4153 		.ascii	"FLASH_GetReadOutProtectionStatus\000"
 3972      485F4765 
 3972      74526561 
 3972      644F7574 
 3972      50726F74 
 3973              	.LASF69:
 3974 0390 4F425F53 		.ascii	"OB_STDBY\000"
 3974      54444259 
 3974      00
 3975              	.LASF4:
 3976 0399 75696E74 		.ascii	"uint16_t\000"
 3976      31365F74 
 3976      00
 3977              	.LASF73:
 3978 03a2 57525030 		.ascii	"WRP0_Data\000"
 3978      5F446174 
 3978      6100
 3979              	.LASF6:
 3980 03ac 696E7433 		.ascii	"int32_t\000"
 3980      325F7400 
 3981              	.LASF60:
 3982 03b4 464C4153 		.ascii	"FLASH_GetStatus\000"
 3982      485F4765 
 3982      74537461 
ARM GAS  /tmp/ccz3NjuA.s 			page 76


 3982      74757300 
 3983              	.LASF30:
 3984 03c4 4F425F54 		.ascii	"OB_TypeDef\000"
 3984      79706544 
 3984      656600
 3985              	.LASF37:
 3986 03cf 464C4153 		.ascii	"FLASH_SetLatency\000"
 3986      485F5365 
 3986      744C6174 
 3986      656E6379 
 3986      00
 3987              	.LASF38:
 3988 03e0 464C4153 		.ascii	"FLASH_HalfCycleAccessCmd\000"
 3988      485F4861 
 3988      6C664379 
 3988      636C6541 
 3988      63636573 
 3989              	.LASF77:
 3990 03f9 464C4153 		.ascii	"FLASH_ProgramOptionByteData\000"
 3990      485F5072 
 3990      6F677261 
 3990      6D4F7074 
 3990      696F6E42 
 3991              	.LASF47:
 3992 0415 464C4153 		.ascii	"FLASH_GetUserOptionByte\000"
 3992      485F4765 
 3992      74557365 
 3992      724F7074 
 3992      696F6E42 
 3993              	.LASF50:
 3994 042d 72656164 		.ascii	"readoutstatus\000"
 3994      6F757473 
 3994      74617475 
 3994      7300
 3995              	.LASF62:
 3996 043b 464C4153 		.ascii	"FLASH_GetBank1Status\000"
 3996      485F4765 
 3996      7442616E 
 3996      6B315374 
 3996      61747573 
 3997              	.LASF80:
 3998 0450 464C4153 		.ascii	"FLASH_ProgramHalfWord\000"
 3998      485F5072 
 3998      6F677261 
 3998      6D48616C 
 3998      66576F72 
 3999              	.LASF58:
 4000 0466 464C4153 		.ascii	"FLASH_FLAG\000"
 4000      485F464C 
 4000      414700
 4001              	.LASF17:
 4002 0471 46756E63 		.ascii	"FunctionalState\000"
 4002      74696F6E 
 4002      616C5374 
 4002      61746500 
 4003              	.LASF89:
 4004 0481 49544D5F 		.ascii	"ITM_RxBuffer\000"
ARM GAS  /tmp/ccz3NjuA.s 			page 77


 4004      52784275 
 4004      66666572 
 4004      00
 4005              	.LASF90:
 4006 048e 474E5520 		.ascii	"GNU C 4.5.2\000"
 4006      4320342E 
 4006      352E3200 
 4007              	.LASF71:
 4008 049a 464C4153 		.ascii	"FLASH_EnableWriteProtection\000"
 4008      485F456E 
 4008      61626C65 
 4008      57726974 
 4008      6550726F 
 4009              	.LASF13:
 4010 04b6 52455345 		.ascii	"RESET\000"
 4010      5400
 4011              	.LASF23:
 4012 04bc 55534552 		.ascii	"USER\000"
 4012      00
 4013              	.LASF24:
 4014 04c1 44617461 		.ascii	"Data0\000"
 4014      3000
 4015              	.LASF25:
 4016 04c7 44617461 		.ascii	"Data1\000"
 4016      3100
 4017              	.LASF72:
 4018 04cd 464C4153 		.ascii	"FLASH_Pages\000"
 4018      485F5061 
 4018      67657300 
 4019              	.LASF55:
 4020 04d9 464C4153 		.ascii	"FLASH_IT\000"
 4020      485F4954 
 4020      00
 4021              	.LASF81:
 4022 04e2 464C4153 		.ascii	"FLASH_ProgramWord\000"
 4022      485F5072 
 4022      6F677261 
 4022      6D576F72 
 4022      6400
 4023              	.LASF20:
 4024 04f4 52455345 		.ascii	"RESERVED\000"
 4024      52564544 
 4024      00
 4025              	.LASF22:
 4026 04fd 464C4153 		.ascii	"FLASH_TypeDef\000"
 4026      485F5479 
 4026      70654465 
 4026      6600
 4027              	.LASF63:
 4028 050b 464C4153 		.ascii	"FLASH_WaitForLastOperation\000"
 4028      485F5761 
 4028      6974466F 
 4028      724C6173 
 4028      744F7065 
 4029              	.LASF26:
 4030 0526 57525030 		.ascii	"WRP0\000"
 4030      00
ARM GAS  /tmp/ccz3NjuA.s 			page 78


 4031              	.LASF42:
 4032 052b 464C4153 		.ascii	"FLASH_PrefetchBuffer\000"
 4032      485F5072 
 4032      65666574 
 4032      63684275 
 4032      66666572 
 4033              	.LASF14:
 4034 0540 466C6167 		.ascii	"FlagStatus\000"
 4034      53746174 
 4034      757300
 4035              	.LASF16:
 4036 054b 454E4142 		.ascii	"ENABLE\000"
 4036      4C4500
 4037              		.ident	"GCC: (Sourcery G++ Lite 2011.03-42) 4.5.2"
ARM GAS  /tmp/ccz3NjuA.s 			page 79


DEFINED SYMBOLS
                            *ABS*:00000000 stm32f10x_flash.c
     /tmp/ccz3NjuA.s:24     .text.FLASH_SetLatency:00000000 $t
     /tmp/ccz3NjuA.s:29     .text.FLASH_SetLatency:00000000 FLASH_SetLatency
     /tmp/ccz3NjuA.s:55     .text.FLASH_SetLatency:00000010 $d
     /tmp/ccz3NjuA.s:60     .text.FLASH_HalfCycleAccessCmd:00000000 $t
     /tmp/ccz3NjuA.s:65     .text.FLASH_HalfCycleAccessCmd:00000000 FLASH_HalfCycleAccessCmd
     /tmp/ccz3NjuA.s:87     .text.FLASH_HalfCycleAccessCmd:00000014 $d
     /tmp/ccz3NjuA.s:92     .text.FLASH_PrefetchBufferCmd:00000000 $t
     /tmp/ccz3NjuA.s:97     .text.FLASH_PrefetchBufferCmd:00000000 FLASH_PrefetchBufferCmd
     /tmp/ccz3NjuA.s:119    .text.FLASH_PrefetchBufferCmd:00000014 $d
     /tmp/ccz3NjuA.s:124    .text.FLASH_Unlock:00000000 $t
     /tmp/ccz3NjuA.s:129    .text.FLASH_Unlock:00000000 FLASH_Unlock
     /tmp/ccz3NjuA.s:148    .text.FLASH_Unlock:0000000c $d
     /tmp/ccz3NjuA.s:155    .text.FLASH_UnlockBank1:00000000 $t
     /tmp/ccz3NjuA.s:160    .text.FLASH_UnlockBank1:00000000 FLASH_UnlockBank1
     /tmp/ccz3NjuA.s:179    .text.FLASH_UnlockBank1:0000000c $d
     /tmp/ccz3NjuA.s:186    .text.FLASH_Lock:00000000 $t
     /tmp/ccz3NjuA.s:191    .text.FLASH_Lock:00000000 FLASH_Lock
     /tmp/ccz3NjuA.s:208    .text.FLASH_Lock:0000000c $d
     /tmp/ccz3NjuA.s:213    .text.FLASH_LockBank1:00000000 $t
     /tmp/ccz3NjuA.s:218    .text.FLASH_LockBank1:00000000 FLASH_LockBank1
     /tmp/ccz3NjuA.s:235    .text.FLASH_LockBank1:0000000c $d
     /tmp/ccz3NjuA.s:240    .text.FLASH_GetUserOptionByte:00000000 $t
     /tmp/ccz3NjuA.s:245    .text.FLASH_GetUserOptionByte:00000000 FLASH_GetUserOptionByte
     /tmp/ccz3NjuA.s:261    .text.FLASH_GetUserOptionByte:00000008 $d
     /tmp/ccz3NjuA.s:266    .text.FLASH_GetWriteProtectionOptionByte:00000000 $t
     /tmp/ccz3NjuA.s:271    .text.FLASH_GetWriteProtectionOptionByte:00000000 FLASH_GetWriteProtectionOptionByte
     /tmp/ccz3NjuA.s:286    .text.FLASH_GetWriteProtectionOptionByte:00000008 $d
     /tmp/ccz3NjuA.s:291    .text.FLASH_GetReadOutProtectionStatus:00000000 $t
     /tmp/ccz3NjuA.s:296    .text.FLASH_GetReadOutProtectionStatus:00000000 FLASH_GetReadOutProtectionStatus
     /tmp/ccz3NjuA.s:315    .text.FLASH_GetReadOutProtectionStatus:0000000c $d
     /tmp/ccz3NjuA.s:320    .text.FLASH_GetPrefetchBufferStatus:00000000 $t
     /tmp/ccz3NjuA.s:325    .text.FLASH_GetPrefetchBufferStatus:00000000 FLASH_GetPrefetchBufferStatus
     /tmp/ccz3NjuA.s:344    .text.FLASH_GetPrefetchBufferStatus:0000000c $d
     /tmp/ccz3NjuA.s:349    .text.FLASH_ITConfig:00000000 $t
     /tmp/ccz3NjuA.s:354    .text.FLASH_ITConfig:00000000 FLASH_ITConfig
     /tmp/ccz3NjuA.s:382    .text.FLASH_ITConfig:00000014 $d
     /tmp/ccz3NjuA.s:387    .text.FLASH_GetFlagStatus:00000000 $t
     /tmp/ccz3NjuA.s:392    .text.FLASH_GetFlagStatus:00000000 FLASH_GetFlagStatus
     /tmp/ccz3NjuA.s:425    .text.FLASH_GetFlagStatus:0000001c $d
     /tmp/ccz3NjuA.s:430    .text.FLASH_ClearFlag:00000000 $t
     /tmp/ccz3NjuA.s:435    .text.FLASH_ClearFlag:00000000 FLASH_ClearFlag
     /tmp/ccz3NjuA.s:451    .text.FLASH_ClearFlag:00000008 $d
     /tmp/ccz3NjuA.s:456    .text.FLASH_GetStatus:00000000 $t
     /tmp/ccz3NjuA.s:461    .text.FLASH_GetStatus:00000000 FLASH_GetStatus
     /tmp/ccz3NjuA.s:500    .text.FLASH_GetStatus:0000002c $d
     /tmp/ccz3NjuA.s:505    .text.FLASH_GetBank1Status:00000000 $t
     /tmp/ccz3NjuA.s:510    .text.FLASH_GetBank1Status:00000000 FLASH_GetBank1Status
     /tmp/ccz3NjuA.s:549    .text.FLASH_GetBank1Status:0000002c $d
     /tmp/ccz3NjuA.s:554    .text.FLASH_WaitForLastOperation:00000000 $t
     /tmp/ccz3NjuA.s:559    .text.FLASH_WaitForLastOperation:00000000 FLASH_WaitForLastOperation
     /tmp/ccz3NjuA.s:608    .text.FLASH_UserOptionByteConfig:00000000 $t
     /tmp/ccz3NjuA.s:613    .text.FLASH_UserOptionByteConfig:00000000 FLASH_UserOptionByteConfig
     /tmp/ccz3NjuA.s:684    .text.FLASH_UserOptionByteConfig:0000004c $d
     /tmp/ccz3NjuA.s:692    .text.FLASH_ReadOutProtection:00000000 $t
     /tmp/ccz3NjuA.s:697    .text.FLASH_ReadOutProtection:00000000 FLASH_ReadOutProtection
ARM GAS  /tmp/ccz3NjuA.s 			page 80


     /tmp/ccz3NjuA.s:797    .text.FLASH_ReadOutProtection:00000084 $d
     /tmp/ccz3NjuA.s:805    .text.FLASH_EnableWriteProtection:00000000 $t
     /tmp/ccz3NjuA.s:810    .text.FLASH_EnableWriteProtection:00000000 FLASH_EnableWriteProtection
     /tmp/ccz3NjuA.s:949    .text.FLASH_EnableWriteProtection:00000098 $d
     /tmp/ccz3NjuA.s:957    .text.FLASH_ProgramOptionByteData:00000000 $t
     /tmp/ccz3NjuA.s:962    .text.FLASH_ProgramOptionByteData:00000000 FLASH_ProgramOptionByteData
     /tmp/ccz3NjuA.s:1024   .text.FLASH_ProgramOptionByteData:00000040 $d
     /tmp/ccz3NjuA.s:1031   .text.FLASH_ProgramHalfWord:00000000 $t
     /tmp/ccz3NjuA.s:1036   .text.FLASH_ProgramHalfWord:00000000 FLASH_ProgramHalfWord
     /tmp/ccz3NjuA.s:1089   .text.FLASH_ProgramHalfWord:00000034 $d
     /tmp/ccz3NjuA.s:1094   .text.FLASH_ProgramWord:00000000 $t
     /tmp/ccz3NjuA.s:1099   .text.FLASH_ProgramWord:00000000 FLASH_ProgramWord
     /tmp/ccz3NjuA.s:1178   .text.FLASH_ProgramWord:00000050 $d
     /tmp/ccz3NjuA.s:1183   .text.FLASH_EraseOptionBytes:00000000 $t
     /tmp/ccz3NjuA.s:1188   .text.FLASH_EraseOptionBytes:00000000 FLASH_EraseOptionBytes
     /tmp/ccz3NjuA.s:1286   .text.FLASH_EraseOptionBytes:00000084 $d
     /tmp/ccz3NjuA.s:1294   .text.FLASH_EraseAllPages:00000000 $t
     /tmp/ccz3NjuA.s:1299   .text.FLASH_EraseAllPages:00000000 FLASH_EraseAllPages
     /tmp/ccz3NjuA.s:1346   .text.FLASH_EraseAllPages:00000038 $d
     /tmp/ccz3NjuA.s:1351   .text.FLASH_ErasePage:00000000 $t
     /tmp/ccz3NjuA.s:1356   .text.FLASH_ErasePage:00000000 FLASH_ErasePage
     /tmp/ccz3NjuA.s:1410   .text.FLASH_ErasePage:0000003c $d
     /tmp/ccz3NjuA.s:1415   .text.FLASH_WaitForLastBank1Operation:00000000 $t
     /tmp/ccz3NjuA.s:1420   .text.FLASH_WaitForLastBank1Operation:00000000 FLASH_WaitForLastBank1Operation
     /tmp/ccz3NjuA.s:1469   .text.FLASH_EraseAllBank1Pages:00000000 $t
     /tmp/ccz3NjuA.s:1474   .text.FLASH_EraseAllBank1Pages:00000000 FLASH_EraseAllBank1Pages
     /tmp/ccz3NjuA.s:1521   .text.FLASH_EraseAllBank1Pages:00000038 $d
                     .debug_frame:00000010 $d

NO UNDEFINED SYMBOLS
