ARM GAS  /tmp/cczHDNsg.s 			page 1


   1              		.syntax unified
   2              		.cpu cortex-m3
   3              		.fpu softvfp
   4              		.eabi_attribute 20, 1
   5              		.eabi_attribute 21, 1
   6              		.eabi_attribute 23, 3
   7              		.eabi_attribute 24, 1
   8              		.eabi_attribute 25, 1
   9              		.eabi_attribute 26, 1
  10              		.eabi_attribute 30, 4
  11              		.eabi_attribute 18, 4
  12              		.thumb
  13              		.file	"syscalls.c"
  14              		.section	.debug_abbrev,"",%progbits
  15              	.Ldebug_abbrev0:
  16              		.section	.debug_info,"",%progbits
  17              	.Ldebug_info0:
  18              		.section	.debug_line,"",%progbits
  19              	.Ldebug_line0:
  20 0000 D9010000 		.text
  20      02004501 
  20      00000201 
  20      FB0E0D00 
  20      01010101 
  21              	.Ltext0:
  22              		.cfi_sections	.debug_frame
  23              		.section	.text._read_r,"ax",%progbits
  24              		.align	1
  25              		.global	_read_r
  26              		.thumb
  27              		.thumb_func
  28              		.type	_read_r, %function
  29              	_read_r:
  30              	.LFB0:
  31              		.file 1 "../chibios/os/various/syscalls.c"
  32              		.loc 1 82 0
  33              		.cfi_startproc
  34              		@ args = 0, pretend = 0, frame = 0
  35              		@ frame_needed = 0, uses_anonymous_args = 0
  36              		@ link register save eliminated.
  37              	.LVL0:
  38              		.loc 1 95 0
  39 0000 1623     		movs	r3, #22
  40              	.LVL1:
  41 0002 0360     		str	r3, [r0, #0]
  42              		.loc 1 98 0
  43 0004 4FF0FF30 		mov	r0, #-1
  44              	.LVL2:
  45 0008 7047     		bx	lr
  46              		.cfi_endproc
  47              	.LFE0:
  48              		.size	_read_r, .-_read_r
  49              		.section	.text._lseek_r,"ax",%progbits
  50              		.align	1
  51              		.global	_lseek_r
  52              		.thumb
  53              		.thumb_func
ARM GAS  /tmp/cczHDNsg.s 			page 2


  54              		.type	_lseek_r, %function
  55              	_lseek_r:
  56              	.LFB1:
  57              		.loc 1 103 0
  58              		.cfi_startproc
  59              		@ args = 0, pretend = 0, frame = 0
  60              		@ frame_needed = 0, uses_anonymous_args = 0
  61              		@ link register save eliminated.
  62              	.LVL3:
  63              		.loc 1 110 0
  64 0000 0020     		movs	r0, #0
  65              	.LVL4:
  66 0002 7047     		bx	lr
  67              		.cfi_endproc
  68              	.LFE1:
  69              		.size	_lseek_r, .-_lseek_r
  70              		.section	.text._write_r,"ax",%progbits
  71              		.align	1
  72              		.global	_write_r
  73              		.thumb
  74              		.thumb_func
  75              		.type	_write_r, %function
  76              	_write_r:
  77              	.LFB2:
  78              		.loc 1 115 0
  79              		.cfi_startproc
  80              		@ args = 0, pretend = 0, frame = 0
  81              		@ frame_needed = 0, uses_anonymous_args = 0
  82              		@ link register save eliminated.
  83              	.LVL5:
  84              		.loc 1 127 0
  85 0000 1846     		mov	r0, r3
  86              	.LVL6:
  87 0002 7047     		bx	lr
  88              		.cfi_endproc
  89              	.LFE2:
  90              		.size	_write_r, .-_write_r
  91              		.section	.text._close_r,"ax",%progbits
  92              		.align	1
  93              		.global	_close_r
  94              		.thumb
  95              		.thumb_func
  96              		.type	_close_r, %function
  97              	_close_r:
  98              	.LFB3:
  99              		.loc 1 132 0
 100              		.cfi_startproc
 101              		@ args = 0, pretend = 0, frame = 0
 102              		@ frame_needed = 0, uses_anonymous_args = 0
 103              		@ link register save eliminated.
 104              	.LVL7:
 105              		.loc 1 137 0
 106 0000 0020     		movs	r0, #0
 107              	.LVL8:
 108 0002 7047     		bx	lr
 109              		.cfi_endproc
 110              	.LFE3:
ARM GAS  /tmp/cczHDNsg.s 			page 3


 111              		.size	_close_r, .-_close_r
 112              		.section	.text._sbrk_r,"ax",%progbits
 113              		.align	1
 114              		.global	_sbrk_r
 115              		.thumb
 116              		.thumb_func
 117              		.type	_sbrk_r, %function
 118              	_sbrk_r:
 119              	.LFB4:
 120              		.loc 1 142 0
 121              		.cfi_startproc
 122              		@ args = 0, pretend = 0, frame = 0
 123              		@ frame_needed = 0, uses_anonymous_args = 0
 124              	.LVL9:
 125 0000 38B5     		push	{r3, r4, r5, lr}
 126              	.LCFI0:
 127              		.cfi_def_cfa_offset 16
 128              		.loc 1 145 0
 129 0002 0D1E     		subs	r5, r1, #0
 130              		.cfi_offset 14, -4
 131              		.cfi_offset 5, -8
 132              		.cfi_offset 4, -12
 133              		.cfi_offset 3, -16
 134              		.loc 1 142 0
 135 0004 0446     		mov	r4, r0
 136              		.loc 1 145 0
 137 0006 02DC     		bgt	.L6
 138              		.loc 1 145 0 is_stmt 0 discriminator 1
 139 0008 0548     		ldr	r0, .L9
 140              	.LVL10:
 141 000a FFF7FEFF 		bl	chDbgPanic
 142              	.LVL11:
 143              	.L6:
 144              		.loc 1 148 0 is_stmt 1
 145 000e 2846     		mov	r0, r5
 146 0010 FFF7FEFF 		bl	chCoreAlloc
 147              	.LVL12:
 148              		.loc 1 149 0
 149 0014 10B9     		cbnz	r0, .L8
 150              		.loc 1 150 0
 151 0016 0C23     		movs	r3, #12
 152 0018 2360     		str	r3, [r4, #0]
 153              		.loc 1 151 0
 154 001a 0138     		subs	r0, r0, #1
 155              	.LVL13:
 156              	.L8:
 157              		.loc 1 154 0
 158 001c 38BD     		pop	{r3, r4, r5, pc}
 159              	.L10:
 160 001e 00BF     		.align	2
 161              	.L9:
 162 0020 00000000 		.word	.LC0
 163              		.cfi_endproc
 164              	.LFE4:
 165              		.size	_sbrk_r, .-_sbrk_r
 166              		.section	.text._fstat_r,"ax",%progbits
 167              		.align	1
ARM GAS  /tmp/cczHDNsg.s 			page 4


 168              		.global	_fstat_r
 169              		.thumb
 170              		.thumb_func
 171              		.type	_fstat_r, %function
 172              	_fstat_r:
 173              	.LFB5:
 174              		.loc 1 159 0
 175              		.cfi_startproc
 176              		@ args = 0, pretend = 0, frame = 0
 177              		@ frame_needed = 0, uses_anonymous_args = 0
 178              	.LVL14:
 179 0000 10B5     		push	{r4, lr}
 180              	.LCFI1:
 181              		.cfi_def_cfa_offset 8
 182              		.loc 1 163 0
 183 0002 1046     		mov	r0, r2
 184              	.LVL15:
 185              		.loc 1 159 0
 186 0004 1446     		mov	r4, r2
 187              		.cfi_offset 14, -4
 188              		.cfi_offset 4, -8
 189              		.loc 1 163 0
 190 0006 0021     		movs	r1, #0
 191              	.LVL16:
 192 0008 3C22     		movs	r2, #60
 193              	.LVL17:
 194 000a FFF7FEFF 		bl	memset
 195              	.LVL18:
 196              		.loc 1 164 0
 197 000e 4FF40053 		mov	r3, #8192
 198 0012 6360     		str	r3, [r4, #4]
 199              		.loc 1 166 0
 200 0014 0020     		movs	r0, #0
 201 0016 10BD     		pop	{r4, pc}
 202              		.cfi_endproc
 203              	.LFE5:
 204              		.size	_fstat_r, .-_fstat_r
 205              		.section	.text._isatty_r,"ax",%progbits
 206              		.align	1
 207              		.global	_isatty_r
 208              		.thumb
 209              		.thumb_func
 210              		.type	_isatty_r, %function
 211              	_isatty_r:
 212              	.LFB6:
 213              		.loc 1 171 0
 214              		.cfi_startproc
 215              		@ args = 0, pretend = 0, frame = 0
 216              		@ frame_needed = 0, uses_anonymous_args = 0
 217              		@ link register save eliminated.
 218              	.LVL19:
 219              		.loc 1 176 0
 220 0000 0120     		movs	r0, #1
 221              	.LVL20:
 222 0002 7047     		bx	lr
 223              		.cfi_endproc
 224              	.LFE6:
ARM GAS  /tmp/cczHDNsg.s 			page 5


 225              		.size	_isatty_r, .-_isatty_r
 226              		.section	.rodata.str1.1,"aMS",%progbits,1
 227              	.LC0:
 228 0000 225F7362 		.ascii	"\"_sbrk_r\"()\000"
 228      726B5F72 
 228      22282900 
 229              		.text
 230              	.Letext0:
 231              		.section	.debug_loc,"",%progbits
 232              	.Ldebug_loc0:
 233              	.LLST0:
 234 0000 00000000 		.4byte	.LVL0
 235 0004 08000000 		.4byte	.LVL2
 236 0008 0100     		.2byte	0x1
 237 000a 50       		.byte	0x50
 238 000b 00000000 		.4byte	0x0
 239 000f 00000000 		.4byte	0x0
 240              	.LLST1:
 241 0013 00000000 		.4byte	.LVL0
 242 0017 02000000 		.4byte	.LVL1
 243 001b 0100     		.2byte	0x1
 244 001d 53       		.byte	0x53
 245 001e 00000000 		.4byte	0x0
 246 0022 00000000 		.4byte	0x0
 247              	.LLST2:
 248 0026 00000000 		.4byte	.LVL3
 249 002a 02000000 		.4byte	.LVL4
 250 002e 0100     		.2byte	0x1
 251 0030 50       		.byte	0x50
 252 0031 00000000 		.4byte	0x0
 253 0035 00000000 		.4byte	0x0
 254              	.LLST3:
 255 0039 00000000 		.4byte	.LVL5
 256 003d 02000000 		.4byte	.LVL6
 257 0041 0100     		.2byte	0x1
 258 0043 50       		.byte	0x50
 259 0044 00000000 		.4byte	0x0
 260 0048 00000000 		.4byte	0x0
 261              	.LLST4:
 262 004c 00000000 		.4byte	.LVL7
 263 0050 02000000 		.4byte	.LVL8
 264 0054 0100     		.2byte	0x1
 265 0056 50       		.byte	0x50
 266 0057 00000000 		.4byte	0x0
 267 005b 00000000 		.4byte	0x0
 268              	.LLST5:
 269 005f 00000000 		.4byte	.LFB4
 270 0063 02000000 		.4byte	.LCFI0
 271 0067 0200     		.2byte	0x2
 272 0069 7D       		.byte	0x7d
 273 006a 00       		.sleb128 0
 274 006b 02000000 		.4byte	.LCFI0
 275 006f 24000000 		.4byte	.LFE4
 276 0073 0200     		.2byte	0x2
 277 0075 7D       		.byte	0x7d
 278 0076 10       		.sleb128 16
 279 0077 00000000 		.4byte	0x0
ARM GAS  /tmp/cczHDNsg.s 			page 6


 280 007b 00000000 		.4byte	0x0
 281              	.LLST6:
 282 007f 00000000 		.4byte	.LVL9
 283 0083 0A000000 		.4byte	.LVL10
 284 0087 0100     		.2byte	0x1
 285 0089 50       		.byte	0x50
 286 008a 0A000000 		.4byte	.LVL10
 287 008e 24000000 		.4byte	.LFE4
 288 0092 0100     		.2byte	0x1
 289 0094 54       		.byte	0x54
 290 0095 00000000 		.4byte	0x0
 291 0099 00000000 		.4byte	0x0
 292              	.LLST7:
 293 009d 00000000 		.4byte	.LVL9
 294 00a1 0D000000 		.4byte	.LVL11-1
 295 00a5 0100     		.2byte	0x1
 296 00a7 51       		.byte	0x51
 297 00a8 0D000000 		.4byte	.LVL11-1
 298 00ac 24000000 		.4byte	.LFE4
 299 00b0 0100     		.2byte	0x1
 300 00b2 55       		.byte	0x55
 301 00b3 00000000 		.4byte	0x0
 302 00b7 00000000 		.4byte	0x0
 303              	.LLST8:
 304 00bb 14000000 		.4byte	.LVL12
 305 00bf 1C000000 		.4byte	.LVL13
 306 00c3 0100     		.2byte	0x1
 307 00c5 50       		.byte	0x50
 308 00c6 00000000 		.4byte	0x0
 309 00ca 00000000 		.4byte	0x0
 310              	.LLST9:
 311 00ce 00000000 		.4byte	.LFB5
 312 00d2 02000000 		.4byte	.LCFI1
 313 00d6 0200     		.2byte	0x2
 314 00d8 7D       		.byte	0x7d
 315 00d9 00       		.sleb128 0
 316 00da 02000000 		.4byte	.LCFI1
 317 00de 18000000 		.4byte	.LFE5
 318 00e2 0200     		.2byte	0x2
 319 00e4 7D       		.byte	0x7d
 320 00e5 08       		.sleb128 8
 321 00e6 00000000 		.4byte	0x0
 322 00ea 00000000 		.4byte	0x0
 323              	.LLST10:
 324 00ee 00000000 		.4byte	.LVL14
 325 00f2 04000000 		.4byte	.LVL15
 326 00f6 0100     		.2byte	0x1
 327 00f8 50       		.byte	0x50
 328 00f9 00000000 		.4byte	0x0
 329 00fd 00000000 		.4byte	0x0
 330              	.LLST11:
 331 0101 00000000 		.4byte	.LVL14
 332 0105 08000000 		.4byte	.LVL16
 333 0109 0100     		.2byte	0x1
 334 010b 51       		.byte	0x51
 335 010c 00000000 		.4byte	0x0
 336 0110 00000000 		.4byte	0x0
ARM GAS  /tmp/cczHDNsg.s 			page 7


 337              	.LLST12:
 338 0114 00000000 		.4byte	.LVL14
 339 0118 0A000000 		.4byte	.LVL17
 340 011c 0100     		.2byte	0x1
 341 011e 52       		.byte	0x52
 342 011f 0A000000 		.4byte	.LVL17
 343 0123 0D000000 		.4byte	.LVL18-1
 344 0127 0100     		.2byte	0x1
 345 0129 50       		.byte	0x50
 346 012a 0D000000 		.4byte	.LVL18-1
 347 012e 18000000 		.4byte	.LFE5
 348 0132 0100     		.2byte	0x1
 349 0134 54       		.byte	0x54
 350 0135 00000000 		.4byte	0x0
 351 0139 00000000 		.4byte	0x0
 352              	.LLST13:
 353 013d 00000000 		.4byte	.LVL19
 354 0141 02000000 		.4byte	.LVL20
 355 0145 0100     		.2byte	0x1
 356 0147 50       		.byte	0x50
 357 0148 00000000 		.4byte	0x0
 358 014c 00000000 		.4byte	0x0
 359              		.file 2 "/home/z80/programs/code-sourcery/2011.03-42/bin/../lib/gcc/arm-none-eabi/4.5.2/include/st
 360              		.file 3 "/home/z80/programs/code-sourcery/2011.03-42/bin/../lib/gcc/arm-none-eabi/4.5.2/../../../.
 361              		.file 4 "/home/z80/programs/code-sourcery/2011.03-42/bin/../lib/gcc/arm-none-eabi/4.5.2/../../../.
 362              		.file 5 "/home/z80/programs/code-sourcery/2011.03-42/bin/../lib/gcc/arm-none-eabi/4.5.2/../../../.
 363              		.file 6 "/home/z80/programs/code-sourcery/2011.03-42/bin/../lib/gcc/arm-none-eabi/4.5.2/../../../.
 364              		.file 7 "/home/z80/programs/code-sourcery/2011.03-42/bin/../lib/gcc/arm-none-eabi/4.5.2/../../../.
 365              		.section	.debug_info
 366 0000 2D0C0000 		.4byte	0xc2d
 367 0004 0200     		.2byte	0x2
 368 0006 00000000 		.4byte	.Ldebug_abbrev0
 369 000a 04       		.byte	0x4
 370 000b 01       		.uleb128 0x1
 371 000c 60020000 		.4byte	.LASF153
 372 0010 01       		.byte	0x1
 373 0011 83010000 		.4byte	.LASF154
 374 0015 33030000 		.4byte	.LASF155
 375 0019 00000000 		.4byte	0x0
 376 001d 00000000 		.4byte	0x0
 377 0021 00000000 		.4byte	.Ldebug_ranges0+0x0
 378 0025 00000000 		.4byte	.Ldebug_line0
 379 0029 02       		.uleb128 0x2
 380 002a BB010000 		.4byte	.LASF7
 381 002e 02       		.byte	0x2
 382 002f D3       		.byte	0xd3
 383 0030 34000000 		.4byte	0x34
 384 0034 03       		.uleb128 0x3
 385 0035 04       		.byte	0x4
 386 0036 07       		.byte	0x7
 387 0037 4D000000 		.4byte	.LASF0
 388 003b 03       		.uleb128 0x3
 389 003c 01       		.byte	0x1
 390 003d 06       		.byte	0x6
 391 003e 4B050000 		.4byte	.LASF1
 392 0042 03       		.uleb128 0x3
 393 0043 01       		.byte	0x1
ARM GAS  /tmp/cczHDNsg.s 			page 8


 394 0044 08       		.byte	0x8
 395 0045 EB040000 		.4byte	.LASF2
 396 0049 03       		.uleb128 0x3
 397 004a 02       		.byte	0x2
 398 004b 05       		.byte	0x5
 399 004c FB030000 		.4byte	.LASF3
 400 0050 03       		.uleb128 0x3
 401 0051 02       		.byte	0x2
 402 0052 07       		.byte	0x7
 403 0053 6B050000 		.4byte	.LASF4
 404 0057 04       		.uleb128 0x4
 405 0058 04       		.byte	0x4
 406 0059 05       		.byte	0x5
 407 005a 696E7400 		.ascii	"int\000"
 408 005e 03       		.uleb128 0x3
 409 005f 08       		.byte	0x8
 410 0060 05       		.byte	0x5
 411 0061 DE020000 		.4byte	.LASF5
 412 0065 03       		.uleb128 0x3
 413 0066 08       		.byte	0x8
 414 0067 07       		.byte	0x7
 415 0068 28010000 		.4byte	.LASF6
 416 006c 02       		.uleb128 0x2
 417 006d 7C000000 		.4byte	.LASF8
 418 0071 03       		.byte	0x3
 419 0072 07       		.byte	0x7
 420 0073 57000000 		.4byte	0x57
 421 0077 02       		.uleb128 0x2
 422 0078 8D050000 		.4byte	.LASF9
 423 007c 04       		.byte	0x4
 424 007d 10       		.byte	0x10
 425 007e 82000000 		.4byte	0x82
 426 0082 03       		.uleb128 0x3
 427 0083 04       		.byte	0x4
 428 0084 05       		.byte	0x5
 429 0085 05040000 		.4byte	.LASF10
 430 0089 02       		.uleb128 0x2
 431 008a FC020000 		.4byte	.LASF11
 432 008e 04       		.byte	0x4
 433 008f 18       		.byte	0x18
 434 0090 49000000 		.4byte	0x49
 435 0094 02       		.uleb128 0x2
 436 0095 56040000 		.4byte	.LASF12
 437 0099 04       		.byte	0x4
 438 009a 1D       		.byte	0x1d
 439 009b 50000000 		.4byte	0x50
 440 009f 02       		.uleb128 0x2
 441 00a0 D3030000 		.4byte	.LASF13
 442 00a4 04       		.byte	0x4
 443 00a5 20       		.byte	0x20
 444 00a6 50000000 		.4byte	0x50
 445 00aa 02       		.uleb128 0x2
 446 00ab B9000000 		.4byte	.LASF14
 447 00af 04       		.byte	0x4
 448 00b0 2C       		.byte	0x2c
 449 00b1 82000000 		.4byte	0x82
 450 00b5 05       		.uleb128 0x5
ARM GAS  /tmp/cczHDNsg.s 			page 9


 451 00b6 C8040000 		.4byte	.LASF15
 452 00ba 02       		.byte	0x2
 453 00bb 6001     		.2byte	0x160
 454 00bd 34000000 		.4byte	0x34
 455 00c1 06       		.uleb128 0x6
 456 00c2 04       		.byte	0x4
 457 00c3 04       		.byte	0x4
 458 00c4 46       		.byte	0x46
 459 00c5 E0000000 		.4byte	0xe0
 460 00c9 07       		.uleb128 0x7
 461 00ca 8A020000 		.4byte	.LASF16
 462 00ce 04       		.byte	0x4
 463 00cf 48       		.byte	0x48
 464 00d0 B5000000 		.4byte	0xb5
 465 00d4 07       		.uleb128 0x7
 466 00d5 2A040000 		.4byte	.LASF17
 467 00d9 04       		.byte	0x4
 468 00da 49       		.byte	0x49
 469 00db E0000000 		.4byte	0xe0
 470 00df 00       		.byte	0x0
 471 00e0 08       		.uleb128 0x8
 472 00e1 42000000 		.4byte	0x42
 473 00e5 F0000000 		.4byte	0xf0
 474 00e9 09       		.uleb128 0x9
 475 00ea 34000000 		.4byte	0x34
 476 00ee 03       		.byte	0x3
 477 00ef 00       		.byte	0x0
 478 00f0 0A       		.uleb128 0xa
 479 00f1 08       		.byte	0x8
 480 00f2 04       		.byte	0x4
 481 00f3 43       		.byte	0x43
 482 00f4 15010000 		.4byte	0x115
 483 00f8 0B       		.uleb128 0xb
 484 00f9 00010000 		.4byte	.LASF18
 485 00fd 04       		.byte	0x4
 486 00fe 45       		.byte	0x45
 487 00ff 57000000 		.4byte	0x57
 488 0103 02       		.byte	0x2
 489 0104 23       		.byte	0x23
 490 0105 00       		.uleb128 0x0
 491 0106 0B       		.uleb128 0xb
 492 0107 1C020000 		.4byte	.LASF19
 493 010b 04       		.byte	0x4
 494 010c 4A       		.byte	0x4a
 495 010d C1000000 		.4byte	0xc1
 496 0111 02       		.byte	0x2
 497 0112 23       		.byte	0x23
 498 0113 04       		.uleb128 0x4
 499 0114 00       		.byte	0x0
 500 0115 02       		.uleb128 0x2
 501 0116 73030000 		.4byte	.LASF20
 502 011a 04       		.byte	0x4
 503 011b 4B       		.byte	0x4b
 504 011c F0000000 		.4byte	0xf0
 505 0120 02       		.uleb128 0x2
 506 0121 73020000 		.4byte	.LASF21
 507 0125 04       		.byte	0x4
ARM GAS  /tmp/cczHDNsg.s 			page 10


 508 0126 4F       		.byte	0x4f
 509 0127 6C000000 		.4byte	0x6c
 510 012b 0C       		.uleb128 0xc
 511 012c 04       		.byte	0x4
 512 012d 02       		.uleb128 0x2
 513 012e 0A030000 		.4byte	.LASF22
 514 0132 05       		.byte	0x5
 515 0133 15       		.byte	0x15
 516 0134 38010000 		.4byte	0x138
 517 0138 03       		.uleb128 0x3
 518 0139 04       		.byte	0x4
 519 013a 07       		.byte	0x7
 520 013b AF040000 		.4byte	.LASF23
 521 013f 0D       		.uleb128 0xd
 522 0140 CE000000 		.4byte	.LASF28
 523 0144 18       		.byte	0x18
 524 0145 05       		.byte	0x5
 525 0146 2C       		.byte	0x2c
 526 0147 9E010000 		.4byte	0x19e
 527 014b 0B       		.uleb128 0xb
 528 014c E6010000 		.4byte	.LASF24
 529 0150 05       		.byte	0x5
 530 0151 2E       		.byte	0x2e
 531 0152 9E010000 		.4byte	0x19e
 532 0156 02       		.byte	0x2
 533 0157 23       		.byte	0x23
 534 0158 00       		.uleb128 0x0
 535 0159 0E       		.uleb128 0xe
 536 015a 5F6B00   		.ascii	"_k\000"
 537 015d 05       		.byte	0x5
 538 015e 2F       		.byte	0x2f
 539 015f 57000000 		.4byte	0x57
 540 0163 02       		.byte	0x2
 541 0164 23       		.byte	0x23
 542 0165 04       		.uleb128 0x4
 543 0166 0B       		.uleb128 0xb
 544 0167 6F040000 		.4byte	.LASF25
 545 016b 05       		.byte	0x5
 546 016c 2F       		.byte	0x2f
 547 016d 57000000 		.4byte	0x57
 548 0171 02       		.byte	0x2
 549 0172 23       		.byte	0x23
 550 0173 08       		.uleb128 0x8
 551 0174 0B       		.uleb128 0xb
 552 0175 0E040000 		.4byte	.LASF26
 553 0179 05       		.byte	0x5
 554 017a 2F       		.byte	0x2f
 555 017b 57000000 		.4byte	0x57
 556 017f 02       		.byte	0x2
 557 0180 23       		.byte	0x23
 558 0181 0C       		.uleb128 0xc
 559 0182 0B       		.uleb128 0xb
 560 0183 5E010000 		.4byte	.LASF27
 561 0187 05       		.byte	0x5
 562 0188 2F       		.byte	0x2f
 563 0189 57000000 		.4byte	0x57
 564 018d 02       		.byte	0x2
ARM GAS  /tmp/cczHDNsg.s 			page 11


 565 018e 23       		.byte	0x23
 566 018f 10       		.uleb128 0x10
 567 0190 0E       		.uleb128 0xe
 568 0191 5F7800   		.ascii	"_x\000"
 569 0194 05       		.byte	0x5
 570 0195 30       		.byte	0x30
 571 0196 A4010000 		.4byte	0x1a4
 572 019a 02       		.byte	0x2
 573 019b 23       		.byte	0x23
 574 019c 14       		.uleb128 0x14
 575 019d 00       		.byte	0x0
 576 019e 0F       		.uleb128 0xf
 577 019f 04       		.byte	0x4
 578 01a0 3F010000 		.4byte	0x13f
 579 01a4 08       		.uleb128 0x8
 580 01a5 2D010000 		.4byte	0x12d
 581 01a9 B4010000 		.4byte	0x1b4
 582 01ad 09       		.uleb128 0x9
 583 01ae 34000000 		.4byte	0x34
 584 01b2 00       		.byte	0x0
 585 01b3 00       		.byte	0x0
 586 01b4 0D       		.uleb128 0xd
 587 01b5 A4040000 		.4byte	.LASF29
 588 01b9 24       		.byte	0x24
 589 01ba 05       		.byte	0x5
 590 01bb 34       		.byte	0x34
 591 01bc 3F020000 		.4byte	0x23f
 592 01c0 0B       		.uleb128 0xb
 593 01c1 C2010000 		.4byte	.LASF30
 594 01c5 05       		.byte	0x5
 595 01c6 36       		.byte	0x36
 596 01c7 57000000 		.4byte	0x57
 597 01cb 02       		.byte	0x2
 598 01cc 23       		.byte	0x23
 599 01cd 00       		.uleb128 0x0
 600 01ce 0B       		.uleb128 0xb
 601 01cf 08010000 		.4byte	.LASF31
 602 01d3 05       		.byte	0x5
 603 01d4 37       		.byte	0x37
 604 01d5 57000000 		.4byte	0x57
 605 01d9 02       		.byte	0x2
 606 01da 23       		.byte	0x23
 607 01db 04       		.uleb128 0x4
 608 01dc 0B       		.uleb128 0xb
 609 01dd EE000000 		.4byte	.LASF32
 610 01e1 05       		.byte	0x5
 611 01e2 38       		.byte	0x38
 612 01e3 57000000 		.4byte	0x57
 613 01e7 02       		.byte	0x2
 614 01e8 23       		.byte	0x23
 615 01e9 08       		.uleb128 0x8
 616 01ea 0B       		.uleb128 0xb
 617 01eb 4C020000 		.4byte	.LASF33
 618 01ef 05       		.byte	0x5
 619 01f0 39       		.byte	0x39
 620 01f1 57000000 		.4byte	0x57
 621 01f5 02       		.byte	0x2
ARM GAS  /tmp/cczHDNsg.s 			page 12


 622 01f6 23       		.byte	0x23
 623 01f7 0C       		.uleb128 0xc
 624 01f8 0B       		.uleb128 0xb
 625 01f9 C1030000 		.4byte	.LASF34
 626 01fd 05       		.byte	0x5
 627 01fe 3A       		.byte	0x3a
 628 01ff 57000000 		.4byte	0x57
 629 0203 02       		.byte	0x2
 630 0204 23       		.byte	0x23
 631 0205 10       		.uleb128 0x10
 632 0206 0B       		.uleb128 0xb
 633 0207 31040000 		.4byte	.LASF35
 634 020b 05       		.byte	0x5
 635 020c 3B       		.byte	0x3b
 636 020d 57000000 		.4byte	0x57
 637 0211 02       		.byte	0x2
 638 0212 23       		.byte	0x23
 639 0213 14       		.uleb128 0x14
 640 0214 0B       		.uleb128 0xb
 641 0215 D6000000 		.4byte	.LASF36
 642 0219 05       		.byte	0x5
 643 021a 3C       		.byte	0x3c
 644 021b 57000000 		.4byte	0x57
 645 021f 02       		.byte	0x2
 646 0220 23       		.byte	0x23
 647 0221 18       		.uleb128 0x18
 648 0222 0B       		.uleb128 0xb
 649 0223 CB010000 		.4byte	.LASF37
 650 0227 05       		.byte	0x5
 651 0228 3D       		.byte	0x3d
 652 0229 57000000 		.4byte	0x57
 653 022d 02       		.byte	0x2
 654 022e 23       		.byte	0x23
 655 022f 1C       		.uleb128 0x1c
 656 0230 0B       		.uleb128 0xb
 657 0231 85030000 		.4byte	.LASF38
 658 0235 05       		.byte	0x5
 659 0236 3E       		.byte	0x3e
 660 0237 57000000 		.4byte	0x57
 661 023b 02       		.byte	0x2
 662 023c 23       		.byte	0x23
 663 023d 20       		.uleb128 0x20
 664 023e 00       		.byte	0x0
 665 023f 10       		.uleb128 0x10
 666 0240 06000000 		.4byte	.LASF39
 667 0244 0801     		.2byte	0x108
 668 0246 05       		.byte	0x5
 669 0247 47       		.byte	0x47
 670 0248 88020000 		.4byte	0x288
 671 024c 0B       		.uleb128 0xb
 672 024d 43050000 		.4byte	.LASF40
 673 0251 05       		.byte	0x5
 674 0252 48       		.byte	0x48
 675 0253 88020000 		.4byte	0x288
 676 0257 02       		.byte	0x2
 677 0258 23       		.byte	0x23
 678 0259 00       		.uleb128 0x0
ARM GAS  /tmp/cczHDNsg.s 			page 13


 679 025a 0B       		.uleb128 0xb
 680 025b CF040000 		.4byte	.LASF41
 681 025f 05       		.byte	0x5
 682 0260 49       		.byte	0x49
 683 0261 88020000 		.4byte	0x288
 684 0265 03       		.byte	0x3
 685 0266 23       		.byte	0x23
 686 0267 8001     		.uleb128 0x80
 687 0269 0B       		.uleb128 0xb
 688 026a 7E050000 		.4byte	.LASF42
 689 026e 05       		.byte	0x5
 690 026f 4B       		.byte	0x4b
 691 0270 2D010000 		.4byte	0x12d
 692 0274 03       		.byte	0x3
 693 0275 23       		.byte	0x23
 694 0276 8002     		.uleb128 0x100
 695 0278 0B       		.uleb128 0xb
 696 0279 AA050000 		.4byte	.LASF43
 697 027d 05       		.byte	0x5
 698 027e 4E       		.byte	0x4e
 699 027f 2D010000 		.4byte	0x12d
 700 0283 03       		.byte	0x3
 701 0284 23       		.byte	0x23
 702 0285 8402     		.uleb128 0x104
 703 0287 00       		.byte	0x0
 704 0288 08       		.uleb128 0x8
 705 0289 2B010000 		.4byte	0x12b
 706 028d 98020000 		.4byte	0x298
 707 0291 09       		.uleb128 0x9
 708 0292 34000000 		.4byte	0x34
 709 0296 1F       		.byte	0x1f
 710 0297 00       		.byte	0x0
 711 0298 0D       		.uleb128 0xd
 712 0299 EA030000 		.4byte	.LASF44
 713 029d 8C       		.byte	0x8c
 714 029e 05       		.byte	0x5
 715 029f 52       		.byte	0x52
 716 02a0 DE020000 		.4byte	0x2de
 717 02a4 0B       		.uleb128 0xb
 718 02a5 E6010000 		.4byte	.LASF24
 719 02a9 05       		.byte	0x5
 720 02aa 53       		.byte	0x53
 721 02ab DE020000 		.4byte	0x2de
 722 02af 02       		.byte	0x2
 723 02b0 23       		.byte	0x23
 724 02b1 00       		.uleb128 0x0
 725 02b2 0B       		.uleb128 0xb
 726 02b3 DA010000 		.4byte	.LASF45
 727 02b7 05       		.byte	0x5
 728 02b8 54       		.byte	0x54
 729 02b9 57000000 		.4byte	0x57
 730 02bd 02       		.byte	0x2
 731 02be 23       		.byte	0x23
 732 02bf 04       		.uleb128 0x4
 733 02c0 0B       		.uleb128 0xb
 734 02c1 C1000000 		.4byte	.LASF46
 735 02c5 05       		.byte	0x5
ARM GAS  /tmp/cczHDNsg.s 			page 14


 736 02c6 55       		.byte	0x55
 737 02c7 E4020000 		.4byte	0x2e4
 738 02cb 02       		.byte	0x2
 739 02cc 23       		.byte	0x23
 740 02cd 08       		.uleb128 0x8
 741 02ce 0B       		.uleb128 0xb
 742 02cf 96020000 		.4byte	.LASF47
 743 02d3 05       		.byte	0x5
 744 02d4 56       		.byte	0x56
 745 02d5 FC020000 		.4byte	0x2fc
 746 02d9 03       		.byte	0x3
 747 02da 23       		.byte	0x23
 748 02db 8801     		.uleb128 0x88
 749 02dd 00       		.byte	0x0
 750 02de 0F       		.uleb128 0xf
 751 02df 04       		.byte	0x4
 752 02e0 98020000 		.4byte	0x298
 753 02e4 08       		.uleb128 0x8
 754 02e5 F6020000 		.4byte	0x2f6
 755 02e9 F4020000 		.4byte	0x2f4
 756 02ed 09       		.uleb128 0x9
 757 02ee 34000000 		.4byte	0x34
 758 02f2 1F       		.byte	0x1f
 759 02f3 00       		.byte	0x0
 760 02f4 11       		.uleb128 0x11
 761 02f5 01       		.byte	0x1
 762 02f6 0F       		.uleb128 0xf
 763 02f7 04       		.byte	0x4
 764 02f8 F4020000 		.4byte	0x2f4
 765 02fc 0F       		.uleb128 0xf
 766 02fd 04       		.byte	0x4
 767 02fe 3F020000 		.4byte	0x23f
 768 0302 0D       		.uleb128 0xd
 769 0303 0B050000 		.4byte	.LASF48
 770 0307 08       		.byte	0x8
 771 0308 05       		.byte	0x5
 772 0309 69       		.byte	0x69
 773 030a 2B030000 		.4byte	0x32b
 774 030e 0B       		.uleb128 0xb
 775 030f EC020000 		.4byte	.LASF49
 776 0313 05       		.byte	0x5
 777 0314 6A       		.byte	0x6a
 778 0315 2B030000 		.4byte	0x32b
 779 0319 02       		.byte	0x2
 780 031a 23       		.byte	0x23
 781 031b 00       		.uleb128 0x0
 782 031c 0B       		.uleb128 0xb
 783 031d 87050000 		.4byte	.LASF50
 784 0321 05       		.byte	0x5
 785 0322 6B       		.byte	0x6b
 786 0323 57000000 		.4byte	0x57
 787 0327 02       		.byte	0x2
 788 0328 23       		.byte	0x23
 789 0329 04       		.uleb128 0x4
 790 032a 00       		.byte	0x0
 791 032b 0F       		.uleb128 0xf
 792 032c 04       		.byte	0x4
ARM GAS  /tmp/cczHDNsg.s 			page 15


 793 032d 42000000 		.4byte	0x42
 794 0331 12       		.uleb128 0x12
 795 0332 5E050000 		.4byte	.LASF51
 796 0336 F0       		.byte	0xf0
 797 0337 05       		.byte	0x5
 798 0338 7B01     		.2byte	0x17b
 799 033a AB040000 		.4byte	0x4ab
 800 033e 13       		.uleb128 0x13
 801 033f 75000000 		.4byte	.LASF52
 802 0343 05       		.byte	0x5
 803 0344 7F01     		.2byte	0x17f
 804 0346 57000000 		.4byte	0x57
 805 034a 02       		.byte	0x2
 806 034b 23       		.byte	0x23
 807 034c 00       		.uleb128 0x0
 808 034d 13       		.uleb128 0x13
 809 034e C8020000 		.4byte	.LASF53
 810 0352 05       		.byte	0x5
 811 0353 8401     		.2byte	0x184
 812 0355 1A070000 		.4byte	0x71a
 813 0359 02       		.byte	0x2
 814 035a 23       		.byte	0x23
 815 035b 04       		.uleb128 0x4
 816 035c 13       		.uleb128 0x13
 817 035d B1000000 		.4byte	.LASF54
 818 0361 05       		.byte	0x5
 819 0362 8401     		.2byte	0x184
 820 0364 1A070000 		.4byte	0x71a
 821 0368 02       		.byte	0x2
 822 0369 23       		.byte	0x23
 823 036a 08       		.uleb128 0x8
 824 036b 13       		.uleb128 0x13
 825 036c C9050000 		.4byte	.LASF55
 826 0370 05       		.byte	0x5
 827 0371 8401     		.2byte	0x184
 828 0373 1A070000 		.4byte	0x71a
 829 0377 02       		.byte	0x2
 830 0378 23       		.byte	0x23
 831 0379 0C       		.uleb128 0xc
 832 037a 13       		.uleb128 0x13
 833 037b D5010000 		.4byte	.LASF56
 834 037f 05       		.byte	0x5
 835 0380 8601     		.2byte	0x186
 836 0382 57000000 		.4byte	0x57
 837 0386 02       		.byte	0x2
 838 0387 23       		.byte	0x23
 839 0388 10       		.uleb128 0x10
 840 0389 13       		.uleb128 0x13
 841 038a A9010000 		.4byte	.LASF57
 842 038e 05       		.byte	0x5
 843 038f 8801     		.2byte	0x188
 844 0391 2A060000 		.4byte	0x62a
 845 0395 02       		.byte	0x2
 846 0396 23       		.byte	0x23
 847 0397 14       		.uleb128 0x14
 848 0398 13       		.uleb128 0x13
 849 0399 B6020000 		.4byte	.LASF58
ARM GAS  /tmp/cczHDNsg.s 			page 16


 850 039d 05       		.byte	0x5
 851 039e 8A01     		.2byte	0x18a
 852 03a0 57000000 		.4byte	0x57
 853 03a4 02       		.byte	0x2
 854 03a5 23       		.byte	0x23
 855 03a6 18       		.uleb128 0x18
 856 03a7 13       		.uleb128 0x13
 857 03a8 81040000 		.4byte	.LASF59
 858 03ac 05       		.byte	0x5
 859 03ad 8C01     		.2byte	0x18c
 860 03af 57000000 		.4byte	0x57
 861 03b3 02       		.byte	0x2
 862 03b4 23       		.byte	0x23
 863 03b5 1C       		.uleb128 0x1c
 864 03b6 13       		.uleb128 0x13
 865 03b7 14040000 		.4byte	.LASF60
 866 03bb 05       		.byte	0x5
 867 03bc 8D01     		.2byte	0x18d
 868 03be 5C060000 		.4byte	0x65c
 869 03c2 02       		.byte	0x2
 870 03c3 23       		.byte	0x23
 871 03c4 20       		.uleb128 0x20
 872 03c5 14       		.uleb128 0x14
 873 03c6 5F6D7000 		.ascii	"_mp\000"
 874 03ca 05       		.byte	0x5
 875 03cb 8F01     		.2byte	0x18f
 876 03cd 8D080000 		.4byte	0x88d
 877 03d1 02       		.byte	0x2
 878 03d2 23       		.byte	0x23
 879 03d3 24       		.uleb128 0x24
 880 03d4 13       		.uleb128 0x13
 881 03d5 69030000 		.4byte	.LASF61
 882 03d9 05       		.byte	0x5
 883 03da 9101     		.2byte	0x191
 884 03dc 9F080000 		.4byte	0x89f
 885 03e0 02       		.byte	0x2
 886 03e1 23       		.byte	0x23
 887 03e2 28       		.uleb128 0x28
 888 03e3 13       		.uleb128 0x13
 889 03e4 CF020000 		.4byte	.LASF62
 890 03e8 05       		.byte	0x5
 891 03e9 9301     		.2byte	0x193
 892 03eb 57000000 		.4byte	0x57
 893 03ef 02       		.byte	0x2
 894 03f0 23       		.byte	0x23
 895 03f1 2C       		.uleb128 0x2c
 896 03f2 13       		.uleb128 0x13
 897 03f3 67040000 		.4byte	.LASF63
 898 03f7 05       		.byte	0x5
 899 03f8 9601     		.2byte	0x196
 900 03fa 57000000 		.4byte	0x57
 901 03fe 02       		.byte	0x2
 902 03ff 23       		.byte	0x23
 903 0400 30       		.uleb128 0x30
 904 0401 13       		.uleb128 0x13
 905 0402 E3040000 		.4byte	.LASF64
 906 0406 05       		.byte	0x5
ARM GAS  /tmp/cczHDNsg.s 			page 17


 907 0407 9701     		.2byte	0x197
 908 0409 2A060000 		.4byte	0x62a
 909 040d 02       		.byte	0x2
 910 040e 23       		.byte	0x23
 911 040f 34       		.uleb128 0x34
 912 0410 13       		.uleb128 0x13
 913 0411 33000000 		.4byte	.LASF65
 914 0415 05       		.byte	0x5
 915 0416 9901     		.2byte	0x199
 916 0418 A5080000 		.4byte	0x8a5
 917 041c 02       		.byte	0x2
 918 041d 23       		.byte	0x23
 919 041e 38       		.uleb128 0x38
 920 041f 13       		.uleb128 0x13
 921 0420 47040000 		.4byte	.LASF66
 922 0424 05       		.byte	0x5
 923 0425 9A01     		.2byte	0x19a
 924 0427 AB080000 		.4byte	0x8ab
 925 042b 02       		.byte	0x2
 926 042c 23       		.byte	0x23
 927 042d 3C       		.uleb128 0x3c
 928 042e 13       		.uleb128 0x13
 929 042f 49010000 		.4byte	.LASF67
 930 0433 05       		.byte	0x5
 931 0434 9B01     		.2byte	0x19b
 932 0436 2A060000 		.4byte	0x62a
 933 043a 02       		.byte	0x2
 934 043b 23       		.byte	0x23
 935 043c 40       		.uleb128 0x40
 936 043d 13       		.uleb128 0x13
 937 043e 56020000 		.4byte	.LASF68
 938 0442 05       		.byte	0x5
 939 0443 9E01     		.2byte	0x19e
 940 0445 BD080000 		.4byte	0x8bd
 941 0449 02       		.byte	0x2
 942 044a 23       		.byte	0x23
 943 044b 44       		.uleb128 0x44
 944 044c 13       		.uleb128 0x13
 945 044d EA030000 		.4byte	.LASF44
 946 0451 05       		.byte	0x5
 947 0452 A101     		.2byte	0x1a1
 948 0454 DE020000 		.4byte	0x2de
 949 0458 02       		.byte	0x2
 950 0459 23       		.byte	0x23
 951 045a 48       		.uleb128 0x48
 952 045b 13       		.uleb128 0x13
 953 045c DB030000 		.4byte	.LASF69
 954 0460 05       		.byte	0x5
 955 0461 A201     		.2byte	0x1a2
 956 0463 98020000 		.4byte	0x298
 957 0467 02       		.byte	0x2
 958 0468 23       		.byte	0x23
 959 0469 4C       		.uleb128 0x4c
 960 046a 13       		.uleb128 0x13
 961 046b 20050000 		.4byte	.LASF70
 962 046f 05       		.byte	0x5
 963 0470 A401     		.2byte	0x1a4
ARM GAS  /tmp/cczHDNsg.s 			page 18


 964 0472 D9060000 		.4byte	0x6d9
 965 0476 03       		.byte	0x3
 966 0477 23       		.byte	0x23
 967 0478 D801     		.uleb128 0xd8
 968 047a 13       		.uleb128 0x13
 969 047b 11010000 		.4byte	.LASF71
 970 047f 05       		.byte	0x5
 971 0480 A501     		.2byte	0x1a5
 972 0482 1A070000 		.4byte	0x71a
 973 0486 03       		.byte	0x3
 974 0487 23       		.byte	0x23
 975 0488 E401     		.uleb128 0xe4
 976 048a 13       		.uleb128 0x13
 977 048b 00000000 		.4byte	.LASF72
 978 048f 05       		.byte	0x5
 979 0490 A601     		.2byte	0x1a6
 980 0492 C9080000 		.4byte	0x8c9
 981 0496 03       		.byte	0x3
 982 0497 23       		.byte	0x23
 983 0498 E801     		.uleb128 0xe8
 984 049a 13       		.uleb128 0x13
 985 049b 41000000 		.4byte	.LASF73
 986 049f 05       		.byte	0x5
 987 04a0 A701     		.2byte	0x1a7
 988 04a2 2A060000 		.4byte	0x62a
 989 04a6 03       		.byte	0x3
 990 04a7 23       		.byte	0x23
 991 04a8 EC01     		.uleb128 0xec
 992 04aa 00       		.byte	0x0
 993 04ab 0F       		.uleb128 0xf
 994 04ac 04       		.byte	0x4
 995 04ad 31030000 		.4byte	0x331
 996 04b1 0D       		.uleb128 0xd
 997 04b2 56010000 		.4byte	.LASF74
 998 04b6 68       		.byte	0x68
 999 04b7 05       		.byte	0x5
 1000 04b8 B3       		.byte	0xb3
 1001 04b9 0B060000 		.4byte	0x60b
 1002 04bd 0E       		.uleb128 0xe
 1003 04be 5F7000   		.ascii	"_p\000"
 1004 04c1 05       		.byte	0x5
 1005 04c2 B4       		.byte	0xb4
 1006 04c3 2B030000 		.4byte	0x32b
 1007 04c7 02       		.byte	0x2
 1008 04c8 23       		.byte	0x23
 1009 04c9 00       		.uleb128 0x0
 1010 04ca 0E       		.uleb128 0xe
 1011 04cb 5F7200   		.ascii	"_r\000"
 1012 04ce 05       		.byte	0x5
 1013 04cf B5       		.byte	0xb5
 1014 04d0 57000000 		.4byte	0x57
 1015 04d4 02       		.byte	0x2
 1016 04d5 23       		.byte	0x23
 1017 04d6 04       		.uleb128 0x4
 1018 04d7 0E       		.uleb128 0xe
 1019 04d8 5F7700   		.ascii	"_w\000"
 1020 04db 05       		.byte	0x5
ARM GAS  /tmp/cczHDNsg.s 			page 19


 1021 04dc B6       		.byte	0xb6
 1022 04dd 57000000 		.4byte	0x57
 1023 04e1 02       		.byte	0x2
 1024 04e2 23       		.byte	0x23
 1025 04e3 08       		.uleb128 0x8
 1026 04e4 0B       		.uleb128 0xb
 1027 04e5 6E000000 		.4byte	.LASF75
 1028 04e9 05       		.byte	0x5
 1029 04ea B7       		.byte	0xb7
 1030 04eb 49000000 		.4byte	0x49
 1031 04ef 02       		.byte	0x2
 1032 04f0 23       		.byte	0x23
 1033 04f1 0C       		.uleb128 0xc
 1034 04f2 0B       		.uleb128 0xb
 1035 04f3 2D030000 		.4byte	.LASF76
 1036 04f7 05       		.byte	0x5
 1037 04f8 B8       		.byte	0xb8
 1038 04f9 49000000 		.4byte	0x49
 1039 04fd 02       		.byte	0x2
 1040 04fe 23       		.byte	0x23
 1041 04ff 0E       		.uleb128 0xe
 1042 0500 0E       		.uleb128 0xe
 1043 0501 5F626600 		.ascii	"_bf\000"
 1044 0505 05       		.byte	0x5
 1045 0506 B9       		.byte	0xb9
 1046 0507 02030000 		.4byte	0x302
 1047 050b 02       		.byte	0x2
 1048 050c 23       		.byte	0x23
 1049 050d 10       		.uleb128 0x10
 1050 050e 0B       		.uleb128 0xb
 1051 050f 65000000 		.4byte	.LASF77
 1052 0513 05       		.byte	0x5
 1053 0514 BA       		.byte	0xba
 1054 0515 57000000 		.4byte	0x57
 1055 0519 02       		.byte	0x2
 1056 051a 23       		.byte	0x23
 1057 051b 18       		.uleb128 0x18
 1058 051c 0B       		.uleb128 0xb
 1059 051d 24040000 		.4byte	.LASF78
 1060 0521 05       		.byte	0x5
 1061 0522 BD       		.byte	0xbd
 1062 0523 AB040000 		.4byte	0x4ab
 1063 0527 02       		.byte	0x2
 1064 0528 23       		.byte	0x23
 1065 0529 1C       		.uleb128 0x1c
 1066 052a 0B       		.uleb128 0xb
 1067 052b C6000000 		.4byte	.LASF79
 1068 052f 05       		.byte	0x5
 1069 0530 C1       		.byte	0xc1
 1070 0531 2B010000 		.4byte	0x12b
 1071 0535 02       		.byte	0x2
 1072 0536 23       		.byte	0x23
 1073 0537 20       		.uleb128 0x20
 1074 0538 0B       		.uleb128 0xb
 1075 0539 9D000000 		.4byte	.LASF80
 1076 053d 05       		.byte	0x5
 1077 053e C3       		.byte	0xc3
ARM GAS  /tmp/cczHDNsg.s 			page 20


 1078 053f 37060000 		.4byte	0x637
 1079 0543 02       		.byte	0x2
 1080 0544 23       		.byte	0x23
 1081 0545 24       		.uleb128 0x24
 1082 0546 0B       		.uleb128 0xb
 1083 0547 14000000 		.4byte	.LASF81
 1084 054b 05       		.byte	0x5
 1085 054c C5       		.byte	0xc5
 1086 054d 67060000 		.4byte	0x667
 1087 0551 02       		.byte	0x2
 1088 0552 23       		.byte	0x23
 1089 0553 28       		.uleb128 0x28
 1090 0554 0B       		.uleb128 0xb
 1091 0555 C3050000 		.4byte	.LASF82
 1092 0559 05       		.byte	0x5
 1093 055a C7       		.byte	0xc7
 1094 055b 8C060000 		.4byte	0x68c
 1095 055f 02       		.byte	0x2
 1096 0560 23       		.byte	0x23
 1097 0561 2C       		.uleb128 0x2c
 1098 0562 0B       		.uleb128 0xb
 1099 0563 AF020000 		.4byte	.LASF83
 1100 0567 05       		.byte	0x5
 1101 0568 C8       		.byte	0xc8
 1102 0569 A7060000 		.4byte	0x6a7
 1103 056d 02       		.byte	0x2
 1104 056e 23       		.byte	0x23
 1105 056f 30       		.uleb128 0x30
 1106 0570 0E       		.uleb128 0xe
 1107 0571 5F756200 		.ascii	"_ub\000"
 1108 0575 05       		.byte	0x5
 1109 0576 CB       		.byte	0xcb
 1110 0577 02030000 		.4byte	0x302
 1111 057b 02       		.byte	0x2
 1112 057c 23       		.byte	0x23
 1113 057d 34       		.uleb128 0x34
 1114 057e 0E       		.uleb128 0xe
 1115 057f 5F757000 		.ascii	"_up\000"
 1116 0583 05       		.byte	0x5
 1117 0584 CC       		.byte	0xcc
 1118 0585 2B030000 		.4byte	0x32b
 1119 0589 02       		.byte	0x2
 1120 058a 23       		.byte	0x23
 1121 058b 3C       		.uleb128 0x3c
 1122 058c 0E       		.uleb128 0xe
 1123 058d 5F757200 		.ascii	"_ur\000"
 1124 0591 05       		.byte	0x5
 1125 0592 CD       		.byte	0xcd
 1126 0593 57000000 		.4byte	0x57
 1127 0597 02       		.byte	0x2
 1128 0598 23       		.byte	0x23
 1129 0599 40       		.uleb128 0x40
 1130 059a 0B       		.uleb128 0xb
 1131 059b D1050000 		.4byte	.LASF84
 1132 059f 05       		.byte	0x5
 1133 05a0 D0       		.byte	0xd0
 1134 05a1 AD060000 		.4byte	0x6ad
ARM GAS  /tmp/cczHDNsg.s 			page 21


 1135 05a5 02       		.byte	0x2
 1136 05a6 23       		.byte	0x23
 1137 05a7 44       		.uleb128 0x44
 1138 05a8 0B       		.uleb128 0xb
 1139 05a9 94050000 		.4byte	.LASF85
 1140 05ad 05       		.byte	0x5
 1141 05ae D1       		.byte	0xd1
 1142 05af BD060000 		.4byte	0x6bd
 1143 05b3 02       		.byte	0x2
 1144 05b4 23       		.byte	0x23
 1145 05b5 47       		.uleb128 0x47
 1146 05b6 0E       		.uleb128 0xe
 1147 05b7 5F6C6200 		.ascii	"_lb\000"
 1148 05bb 05       		.byte	0x5
 1149 05bc D4       		.byte	0xd4
 1150 05bd 02030000 		.4byte	0x302
 1151 05c1 02       		.byte	0x2
 1152 05c2 23       		.byte	0x23
 1153 05c3 48       		.uleb128 0x48
 1154 05c4 0B       		.uleb128 0xb
 1155 05c5 9B040000 		.4byte	.LASF86
 1156 05c9 05       		.byte	0x5
 1157 05ca D7       		.byte	0xd7
 1158 05cb 57000000 		.4byte	0x57
 1159 05cf 02       		.byte	0x2
 1160 05d0 23       		.byte	0x23
 1161 05d1 50       		.uleb128 0x50
 1162 05d2 0B       		.uleb128 0xb
 1163 05d3 7B010000 		.4byte	.LASF87
 1164 05d7 05       		.byte	0x5
 1165 05d8 D8       		.byte	0xd8
 1166 05d9 57000000 		.4byte	0x57
 1167 05dd 02       		.byte	0x2
 1168 05de 23       		.byte	0x23
 1169 05df 54       		.uleb128 0x54
 1170 05e0 0B       		.uleb128 0xb
 1171 05e1 A9040000 		.4byte	.LASF88
 1172 05e5 05       		.byte	0x5
 1173 05e6 DF       		.byte	0xdf
 1174 05e7 20010000 		.4byte	0x120
 1175 05eb 02       		.byte	0x2
 1176 05ec 23       		.byte	0x23
 1177 05ed 58       		.uleb128 0x58
 1178 05ee 0B       		.uleb128 0xb
 1179 05ef F2030000 		.4byte	.LASF89
 1180 05f3 05       		.byte	0x5
 1181 05f4 E1       		.byte	0xe1
 1182 05f5 15010000 		.4byte	0x115
 1183 05f9 02       		.byte	0x2
 1184 05fa 23       		.byte	0x23
 1185 05fb 5C       		.uleb128 0x5c
 1186 05fc 0B       		.uleb128 0xb
 1187 05fd A2050000 		.4byte	.LASF90
 1188 0601 05       		.byte	0x5
 1189 0602 E2       		.byte	0xe2
 1190 0603 57000000 		.4byte	0x57
 1191 0607 02       		.byte	0x2
ARM GAS  /tmp/cczHDNsg.s 			page 22


 1192 0608 23       		.byte	0x23
 1193 0609 64       		.uleb128 0x64
 1194 060a 00       		.byte	0x0
 1195 060b 15       		.uleb128 0x15
 1196 060c 01       		.byte	0x1
 1197 060d 57000000 		.4byte	0x57
 1198 0611 2A060000 		.4byte	0x62a
 1199 0615 16       		.uleb128 0x16
 1200 0616 AB040000 		.4byte	0x4ab
 1201 061a 16       		.uleb128 0x16
 1202 061b 2B010000 		.4byte	0x12b
 1203 061f 16       		.uleb128 0x16
 1204 0620 2A060000 		.4byte	0x62a
 1205 0624 16       		.uleb128 0x16
 1206 0625 57000000 		.4byte	0x57
 1207 0629 00       		.byte	0x0
 1208 062a 0F       		.uleb128 0xf
 1209 062b 04       		.byte	0x4
 1210 062c 30060000 		.4byte	0x630
 1211 0630 03       		.uleb128 0x3
 1212 0631 01       		.byte	0x1
 1213 0632 08       		.byte	0x8
 1214 0633 47020000 		.4byte	.LASF91
 1215 0637 0F       		.uleb128 0xf
 1216 0638 04       		.byte	0x4
 1217 0639 0B060000 		.4byte	0x60b
 1218 063d 15       		.uleb128 0x15
 1219 063e 01       		.byte	0x1
 1220 063f 57000000 		.4byte	0x57
 1221 0643 5C060000 		.4byte	0x65c
 1222 0647 16       		.uleb128 0x16
 1223 0648 AB040000 		.4byte	0x4ab
 1224 064c 16       		.uleb128 0x16
 1225 064d 2B010000 		.4byte	0x12b
 1226 0651 16       		.uleb128 0x16
 1227 0652 5C060000 		.4byte	0x65c
 1228 0656 16       		.uleb128 0x16
 1229 0657 57000000 		.4byte	0x57
 1230 065b 00       		.byte	0x0
 1231 065c 0F       		.uleb128 0xf
 1232 065d 04       		.byte	0x4
 1233 065e 62060000 		.4byte	0x662
 1234 0662 17       		.uleb128 0x17
 1235 0663 30060000 		.4byte	0x630
 1236 0667 0F       		.uleb128 0xf
 1237 0668 04       		.byte	0x4
 1238 0669 3D060000 		.4byte	0x63d
 1239 066d 15       		.uleb128 0x15
 1240 066e 01       		.byte	0x1
 1241 066f AA000000 		.4byte	0xaa
 1242 0673 8C060000 		.4byte	0x68c
 1243 0677 16       		.uleb128 0x16
 1244 0678 AB040000 		.4byte	0x4ab
 1245 067c 16       		.uleb128 0x16
 1246 067d 2B010000 		.4byte	0x12b
 1247 0681 16       		.uleb128 0x16
 1248 0682 AA000000 		.4byte	0xaa
ARM GAS  /tmp/cczHDNsg.s 			page 23


 1249 0686 16       		.uleb128 0x16
 1250 0687 57000000 		.4byte	0x57
 1251 068b 00       		.byte	0x0
 1252 068c 0F       		.uleb128 0xf
 1253 068d 04       		.byte	0x4
 1254 068e 6D060000 		.4byte	0x66d
 1255 0692 15       		.uleb128 0x15
 1256 0693 01       		.byte	0x1
 1257 0694 57000000 		.4byte	0x57
 1258 0698 A7060000 		.4byte	0x6a7
 1259 069c 16       		.uleb128 0x16
 1260 069d AB040000 		.4byte	0x4ab
 1261 06a1 16       		.uleb128 0x16
 1262 06a2 2B010000 		.4byte	0x12b
 1263 06a6 00       		.byte	0x0
 1264 06a7 0F       		.uleb128 0xf
 1265 06a8 04       		.byte	0x4
 1266 06a9 92060000 		.4byte	0x692
 1267 06ad 08       		.uleb128 0x8
 1268 06ae 42000000 		.4byte	0x42
 1269 06b2 BD060000 		.4byte	0x6bd
 1270 06b6 09       		.uleb128 0x9
 1271 06b7 34000000 		.4byte	0x34
 1272 06bb 02       		.byte	0x2
 1273 06bc 00       		.byte	0x0
 1274 06bd 08       		.uleb128 0x8
 1275 06be 42000000 		.4byte	0x42
 1276 06c2 CD060000 		.4byte	0x6cd
 1277 06c6 09       		.uleb128 0x9
 1278 06c7 34000000 		.4byte	0x34
 1279 06cb 00       		.byte	0x0
 1280 06cc 00       		.byte	0x0
 1281 06cd 05       		.uleb128 0x5
 1282 06ce 74010000 		.4byte	.LASF92
 1283 06d2 05       		.byte	0x5
 1284 06d3 1E01     		.2byte	0x11e
 1285 06d5 B1040000 		.4byte	0x4b1
 1286 06d9 12       		.uleb128 0x12
 1287 06da 1A050000 		.4byte	.LASF93
 1288 06de 0C       		.byte	0xc
 1289 06df 05       		.byte	0x5
 1290 06e0 2201     		.2byte	0x122
 1291 06e2 14070000 		.4byte	0x714
 1292 06e6 13       		.uleb128 0x13
 1293 06e7 E6010000 		.4byte	.LASF24
 1294 06eb 05       		.byte	0x5
 1295 06ec 2401     		.2byte	0x124
 1296 06ee 14070000 		.4byte	0x714
 1297 06f2 02       		.byte	0x2
 1298 06f3 23       		.byte	0x23
 1299 06f4 00       		.uleb128 0x0
 1300 06f5 13       		.uleb128 0x13
 1301 06f6 C1040000 		.4byte	.LASF94
 1302 06fa 05       		.byte	0x5
 1303 06fb 2501     		.2byte	0x125
 1304 06fd 57000000 		.4byte	0x57
 1305 0701 02       		.byte	0x2
ARM GAS  /tmp/cczHDNsg.s 			page 24


 1306 0702 23       		.byte	0x23
 1307 0703 04       		.uleb128 0x4
 1308 0704 13       		.uleb128 0x13
 1309 0705 90020000 		.4byte	.LASF95
 1310 0709 05       		.byte	0x5
 1311 070a 2601     		.2byte	0x126
 1312 070c 1A070000 		.4byte	0x71a
 1313 0710 02       		.byte	0x2
 1314 0711 23       		.byte	0x23
 1315 0712 08       		.uleb128 0x8
 1316 0713 00       		.byte	0x0
 1317 0714 0F       		.uleb128 0xf
 1318 0715 04       		.byte	0x4
 1319 0716 D9060000 		.4byte	0x6d9
 1320 071a 0F       		.uleb128 0xf
 1321 071b 04       		.byte	0x4
 1322 071c CD060000 		.4byte	0x6cd
 1323 0720 12       		.uleb128 0x12
 1324 0721 16010000 		.4byte	.LASF96
 1325 0725 18       		.byte	0x18
 1326 0726 05       		.byte	0x5
 1327 0727 3E01     		.2byte	0x13e
 1328 0729 6A070000 		.4byte	0x76a
 1329 072d 13       		.uleb128 0x13
 1330 072e B2050000 		.4byte	.LASF97
 1331 0732 05       		.byte	0x5
 1332 0733 3F01     		.2byte	0x13f
 1333 0735 6A070000 		.4byte	0x76a
 1334 0739 02       		.byte	0x2
 1335 073a 23       		.byte	0x23
 1336 073b 00       		.uleb128 0x0
 1337 073c 13       		.uleb128 0x13
 1338 073d 04030000 		.4byte	.LASF98
 1339 0741 05       		.byte	0x5
 1340 0742 4001     		.2byte	0x140
 1341 0744 6A070000 		.4byte	0x76a
 1342 0748 02       		.byte	0x2
 1343 0749 23       		.byte	0x23
 1344 074a 06       		.uleb128 0x6
 1345 074b 13       		.uleb128 0x13
 1346 074c 06050000 		.4byte	.LASF99
 1347 0750 05       		.byte	0x5
 1348 0751 4101     		.2byte	0x141
 1349 0753 50000000 		.4byte	0x50
 1350 0757 02       		.byte	0x2
 1351 0758 23       		.byte	0x23
 1352 0759 0C       		.uleb128 0xc
 1353 075a 13       		.uleb128 0x13
 1354 075b B8050000 		.4byte	.LASF100
 1355 075f 05       		.byte	0x5
 1356 0760 4401     		.2byte	0x144
 1357 0762 65000000 		.4byte	0x65
 1358 0766 02       		.byte	0x2
 1359 0767 23       		.byte	0x23
 1360 0768 10       		.uleb128 0x10
 1361 0769 00       		.byte	0x0
 1362 076a 08       		.uleb128 0x8
ARM GAS  /tmp/cczHDNsg.s 			page 25


 1363 076b 50000000 		.4byte	0x50
 1364 076f 7A070000 		.4byte	0x77a
 1365 0773 09       		.uleb128 0x9
 1366 0774 34000000 		.4byte	0x34
 1367 0778 02       		.byte	0x2
 1368 0779 00       		.byte	0x0
 1369 077a 12       		.uleb128 0x12
 1370 077b 7E030000 		.4byte	.LASF101
 1371 077f 10       		.byte	0x10
 1372 0780 05       		.byte	0x5
 1373 0781 5F01     		.2byte	0x15f
 1374 0783 C4070000 		.4byte	0x7c4
 1375 0787 13       		.uleb128 0x13
 1376 0788 E0000000 		.4byte	.LASF102
 1377 078c 05       		.byte	0x5
 1378 078d 6201     		.2byte	0x162
 1379 078f 9E010000 		.4byte	0x19e
 1380 0793 02       		.byte	0x2
 1381 0794 23       		.byte	0x23
 1382 0795 00       		.uleb128 0x0
 1383 0796 13       		.uleb128 0x13
 1384 0797 1E010000 		.4byte	.LASF103
 1385 079b 05       		.byte	0x5
 1386 079c 6301     		.2byte	0x163
 1387 079e 57000000 		.4byte	0x57
 1388 07a2 02       		.byte	0x2
 1389 07a3 23       		.byte	0x23
 1390 07a4 04       		.uleb128 0x4
 1391 07a5 13       		.uleb128 0x13
 1392 07a6 24020000 		.4byte	.LASF104
 1393 07aa 05       		.byte	0x5
 1394 07ab 6401     		.2byte	0x164
 1395 07ad 9E010000 		.4byte	0x19e
 1396 07b1 02       		.byte	0x2
 1397 07b2 23       		.byte	0x23
 1398 07b3 08       		.uleb128 0x8
 1399 07b4 13       		.uleb128 0x13
 1400 07b5 F2020000 		.4byte	.LASF105
 1401 07b9 05       		.byte	0x5
 1402 07ba 6501     		.2byte	0x165
 1403 07bc C4070000 		.4byte	0x7c4
 1404 07c0 02       		.byte	0x2
 1405 07c1 23       		.byte	0x23
 1406 07c2 0C       		.uleb128 0xc
 1407 07c3 00       		.byte	0x0
 1408 07c4 0F       		.uleb128 0xf
 1409 07c5 04       		.byte	0x4
 1410 07c6 9E010000 		.4byte	0x19e
 1411 07ca 12       		.uleb128 0x12
 1412 07cb 3B040000 		.4byte	.LASF106
 1413 07cf 50       		.byte	0x50
 1414 07d0 05       		.byte	0x5
 1415 07d1 6901     		.2byte	0x169
 1416 07d3 7D080000 		.4byte	0x87d
 1417 07d7 13       		.uleb128 0x13
 1418 07d8 28050000 		.4byte	.LASF107
 1419 07dc 05       		.byte	0x5
ARM GAS  /tmp/cczHDNsg.s 			page 26


 1420 07dd 6C01     		.2byte	0x16c
 1421 07df 2A060000 		.4byte	0x62a
 1422 07e3 02       		.byte	0x2
 1423 07e4 23       		.byte	0x23
 1424 07e5 00       		.uleb128 0x0
 1425 07e6 13       		.uleb128 0x13
 1426 07e7 3A020000 		.4byte	.LASF108
 1427 07eb 05       		.byte	0x5
 1428 07ec 6D01     		.2byte	0x16d
 1429 07ee 15010000 		.4byte	0x115
 1430 07f2 02       		.byte	0x2
 1431 07f3 23       		.byte	0x23
 1432 07f4 04       		.uleb128 0x4
 1433 07f5 13       		.uleb128 0x13
 1434 07f6 1B000000 		.4byte	.LASF109
 1435 07fa 05       		.byte	0x5
 1436 07fb 6E01     		.2byte	0x16e
 1437 07fd 15010000 		.4byte	0x115
 1438 0801 02       		.byte	0x2
 1439 0802 23       		.byte	0x23
 1440 0803 0C       		.uleb128 0xc
 1441 0804 13       		.uleb128 0x13
 1442 0805 35050000 		.4byte	.LASF110
 1443 0809 05       		.byte	0x5
 1444 080a 6F01     		.2byte	0x16f
 1445 080c 15010000 		.4byte	0x115
 1446 0810 02       		.byte	0x2
 1447 0811 23       		.byte	0x23
 1448 0812 14       		.uleb128 0x14
 1449 0813 13       		.uleb128 0x13
 1450 0814 77040000 		.4byte	.LASF111
 1451 0818 05       		.byte	0x5
 1452 0819 7001     		.2byte	0x170
 1453 081b 7D080000 		.4byte	0x87d
 1454 081f 02       		.byte	0x2
 1455 0820 23       		.byte	0x23
 1456 0821 1C       		.uleb128 0x1c
 1457 0822 13       		.uleb128 0x13
 1458 0823 F9040000 		.4byte	.LASF112
 1459 0827 05       		.byte	0x5
 1460 0828 7101     		.2byte	0x171
 1461 082a 57000000 		.4byte	0x57
 1462 082e 02       		.byte	0x2
 1463 082f 23       		.byte	0x23
 1464 0830 24       		.uleb128 0x24
 1465 0831 13       		.uleb128 0x13
 1466 0832 A3000000 		.4byte	.LASF113
 1467 0836 05       		.byte	0x5
 1468 0837 7201     		.2byte	0x172
 1469 0839 15010000 		.4byte	0x115
 1470 083d 02       		.byte	0x2
 1471 083e 23       		.byte	0x23
 1472 083f 28       		.uleb128 0x28
 1473 0840 13       		.uleb128 0x13
 1474 0841 8E000000 		.4byte	.LASF114
 1475 0845 05       		.byte	0x5
 1476 0846 7301     		.2byte	0x173
ARM GAS  /tmp/cczHDNsg.s 			page 27


 1477 0848 15010000 		.4byte	0x115
 1478 084c 02       		.byte	0x2
 1479 084d 23       		.byte	0x23
 1480 084e 30       		.uleb128 0x30
 1481 084f 13       		.uleb128 0x13
 1482 0850 F4010000 		.4byte	.LASF115
 1483 0854 05       		.byte	0x5
 1484 0855 7401     		.2byte	0x174
 1485 0857 15010000 		.4byte	0x115
 1486 085b 02       		.byte	0x2
 1487 085c 23       		.byte	0x23
 1488 085d 38       		.uleb128 0x38
 1489 085e 13       		.uleb128 0x13
 1490 085f 12030000 		.4byte	.LASF116
 1491 0863 05       		.byte	0x5
 1492 0864 7501     		.2byte	0x175
 1493 0866 15010000 		.4byte	0x115
 1494 086a 02       		.byte	0x2
 1495 086b 23       		.byte	0x23
 1496 086c 40       		.uleb128 0x40
 1497 086d 13       		.uleb128 0x13
 1498 086e 29020000 		.4byte	.LASF117
 1499 0872 05       		.byte	0x5
 1500 0873 7601     		.2byte	0x176
 1501 0875 15010000 		.4byte	0x115
 1502 0879 02       		.byte	0x2
 1503 087a 23       		.byte	0x23
 1504 087b 48       		.uleb128 0x48
 1505 087c 00       		.byte	0x0
 1506 087d 08       		.uleb128 0x8
 1507 087e 30060000 		.4byte	0x630
 1508 0882 8D080000 		.4byte	0x88d
 1509 0886 09       		.uleb128 0x9
 1510 0887 34000000 		.4byte	0x34
 1511 088b 07       		.byte	0x7
 1512 088c 00       		.byte	0x0
 1513 088d 0F       		.uleb128 0xf
 1514 088e 04       		.byte	0x4
 1515 088f 7A070000 		.4byte	0x77a
 1516 0893 18       		.uleb128 0x18
 1517 0894 01       		.byte	0x1
 1518 0895 9F080000 		.4byte	0x89f
 1519 0899 16       		.uleb128 0x16
 1520 089a AB040000 		.4byte	0x4ab
 1521 089e 00       		.byte	0x0
 1522 089f 0F       		.uleb128 0xf
 1523 08a0 04       		.byte	0x4
 1524 08a1 93080000 		.4byte	0x893
 1525 08a5 0F       		.uleb128 0xf
 1526 08a6 04       		.byte	0x4
 1527 08a7 20070000 		.4byte	0x720
 1528 08ab 0F       		.uleb128 0xf
 1529 08ac 04       		.byte	0x4
 1530 08ad B4010000 		.4byte	0x1b4
 1531 08b1 18       		.uleb128 0x18
 1532 08b2 01       		.byte	0x1
 1533 08b3 BD080000 		.4byte	0x8bd
ARM GAS  /tmp/cczHDNsg.s 			page 28


 1534 08b7 16       		.uleb128 0x16
 1535 08b8 57000000 		.4byte	0x57
 1536 08bc 00       		.byte	0x0
 1537 08bd 0F       		.uleb128 0xf
 1538 08be 04       		.byte	0x4
 1539 08bf C3080000 		.4byte	0x8c3
 1540 08c3 0F       		.uleb128 0xf
 1541 08c4 04       		.byte	0x4
 1542 08c5 B1080000 		.4byte	0x8b1
 1543 08c9 0F       		.uleb128 0xf
 1544 08ca 04       		.byte	0x4
 1545 08cb CA070000 		.4byte	0x7ca
 1546 08cf 02       		.uleb128 0x2
 1547 08d0 A8020000 		.4byte	.LASF118
 1548 08d4 06       		.byte	0x6
 1549 08d5 6D       		.byte	0x6d
 1550 08d6 82000000 		.4byte	0x82
 1551 08da 02       		.uleb128 0x2
 1552 08db 93040000 		.4byte	.LASF119
 1553 08df 06       		.byte	0x6
 1554 08e0 7E       		.byte	0x7e
 1555 08e1 2A060000 		.4byte	0x62a
 1556 08e5 02       		.uleb128 0x2
 1557 08e6 E8000000 		.4byte	.LASF120
 1558 08ea 06       		.byte	0x6
 1559 08eb 85       		.byte	0x85
 1560 08ec 50000000 		.4byte	0x50
 1561 08f0 02       		.uleb128 0x2
 1562 08f1 65050000 		.4byte	.LASF121
 1563 08f5 06       		.byte	0x6
 1564 08f6 A2       		.byte	0xa2
 1565 08f7 77000000 		.4byte	0x77
 1566 08fb 02       		.uleb128 0x2
 1567 08fc 27030000 		.4byte	.LASF122
 1568 0900 06       		.byte	0x6
 1569 0901 A3       		.byte	0xa3
 1570 0902 89000000 		.4byte	0x89
 1571 0906 02       		.uleb128 0x2
 1572 0907 21030000 		.4byte	.LASF123
 1573 090b 06       		.byte	0x6
 1574 090c A4       		.byte	0xa4
 1575 090d 94000000 		.4byte	0x94
 1576 0911 02       		.uleb128 0x2
 1577 0912 E4030000 		.4byte	.LASF124
 1578 0916 06       		.byte	0x6
 1579 0917 A5       		.byte	0xa5
 1580 0918 9F000000 		.4byte	0x9f
 1581 091c 02       		.uleb128 0x2
 1582 091d 57050000 		.4byte	.LASF125
 1583 0921 06       		.byte	0x6
 1584 0922 BF       		.byte	0xbf
 1585 0923 34000000 		.4byte	0x34
 1586 0927 02       		.uleb128 0x2
 1587 0928 DB040000 		.4byte	.LASF126
 1588 092c 06       		.byte	0x6
 1589 092d C4       		.byte	0xc4
 1590 092e 50000000 		.4byte	0x50
ARM GAS  /tmp/cczHDNsg.s 			page 29


 1591 0932 0D       		.uleb128 0xd
 1592 0933 A4010000 		.4byte	.LASF127
 1593 0937 3C       		.byte	0x3c
 1594 0938 07       		.byte	0x7
 1595 0939 19       		.byte	0x19
 1596 093a 2D0A0000 		.4byte	0xa2d
 1597 093e 0B       		.uleb128 0xb
 1598 093f B4010000 		.4byte	.LASF128
 1599 0943 07       		.byte	0x7
 1600 0944 1B       		.byte	0x1b
 1601 0945 FB080000 		.4byte	0x8fb
 1602 0949 02       		.byte	0x2
 1603 094a 23       		.byte	0x23
 1604 094b 00       		.uleb128 0x0
 1605 094c 0B       		.uleb128 0xb
 1606 094d C1020000 		.4byte	.LASF129
 1607 0951 07       		.byte	0x7
 1608 0952 1C       		.byte	0x1c
 1609 0953 E5080000 		.4byte	0x8e5
 1610 0957 02       		.byte	0x2
 1611 0958 23       		.byte	0x23
 1612 0959 02       		.uleb128 0x2
 1613 095a 0B       		.uleb128 0xb
 1614 095b EC010000 		.4byte	.LASF130
 1615 095f 07       		.byte	0x7
 1616 0960 1D       		.byte	0x1d
 1617 0961 1C090000 		.4byte	0x91c
 1618 0965 02       		.byte	0x2
 1619 0966 23       		.byte	0x23
 1620 0967 04       		.uleb128 0x4
 1621 0968 0B       		.uleb128 0xb
 1622 0969 05020000 		.4byte	.LASF131
 1623 096d 07       		.byte	0x7
 1624 096e 1E       		.byte	0x1e
 1625 096f 27090000 		.4byte	0x927
 1626 0973 02       		.byte	0x2
 1627 0974 23       		.byte	0x23
 1628 0975 08       		.uleb128 0x8
 1629 0976 0B       		.uleb128 0xb
 1630 0977 6C020000 		.4byte	.LASF132
 1631 097b 07       		.byte	0x7
 1632 097c 1F       		.byte	0x1f
 1633 097d 06090000 		.4byte	0x906
 1634 0981 02       		.byte	0x2
 1635 0982 23       		.byte	0x23
 1636 0983 0A       		.uleb128 0xa
 1637 0984 0B       		.uleb128 0xb
 1638 0985 DF010000 		.4byte	.LASF133
 1639 0989 07       		.byte	0x7
 1640 098a 20       		.byte	0x20
 1641 098b 11090000 		.4byte	0x911
 1642 098f 02       		.byte	0x2
 1643 0990 23       		.byte	0x23
 1644 0991 0C       		.uleb128 0xc
 1645 0992 0B       		.uleb128 0xb
 1646 0993 9A050000 		.4byte	.LASF134
 1647 0997 07       		.byte	0x7
ARM GAS  /tmp/cczHDNsg.s 			page 30


 1648 0998 21       		.byte	0x21
 1649 0999 FB080000 		.4byte	0x8fb
 1650 099d 02       		.byte	0x2
 1651 099e 23       		.byte	0x23
 1652 099f 0E       		.uleb128 0xe
 1653 09a0 0B       		.uleb128 0xb
 1654 09a1 12050000 		.4byte	.LASF135
 1655 09a5 07       		.byte	0x7
 1656 09a6 22       		.byte	0x22
 1657 09a7 F0080000 		.4byte	0x8f0
 1658 09ab 02       		.byte	0x2
 1659 09ac 23       		.byte	0x23
 1660 09ad 10       		.uleb128 0x10
 1661 09ae 0B       		.uleb128 0xb
 1662 09af 7C020000 		.4byte	.LASF136
 1663 09b3 07       		.byte	0x7
 1664 09b4 30       		.byte	0x30
 1665 09b5 CF080000 		.4byte	0x8cf
 1666 09b9 02       		.byte	0x2
 1667 09ba 23       		.byte	0x23
 1668 09bb 14       		.uleb128 0x14
 1669 09bc 0B       		.uleb128 0xb
 1670 09bd 90030000 		.4byte	.LASF137
 1671 09c1 07       		.byte	0x7
 1672 09c2 31       		.byte	0x31
 1673 09c3 82000000 		.4byte	0x82
 1674 09c7 02       		.byte	0x2
 1675 09c8 23       		.byte	0x23
 1676 09c9 18       		.uleb128 0x18
 1677 09ca 0B       		.uleb128 0xb
 1678 09cb 6B010000 		.4byte	.LASF138
 1679 09cf 07       		.byte	0x7
 1680 09d0 32       		.byte	0x32
 1681 09d1 CF080000 		.4byte	0x8cf
 1682 09d5 02       		.byte	0x2
 1683 09d6 23       		.byte	0x23
 1684 09d7 1C       		.uleb128 0x1c
 1685 09d8 0B       		.uleb128 0xb
 1686 09d9 9A030000 		.4byte	.LASF139
 1687 09dd 07       		.byte	0x7
 1688 09de 33       		.byte	0x33
 1689 09df 82000000 		.4byte	0x82
 1690 09e3 02       		.byte	0x2
 1691 09e4 23       		.byte	0x23
 1692 09e5 20       		.uleb128 0x20
 1693 09e6 0B       		.uleb128 0xb
 1694 09e7 5E040000 		.4byte	.LASF140
 1695 09eb 07       		.byte	0x7
 1696 09ec 34       		.byte	0x34
 1697 09ed CF080000 		.4byte	0x8cf
 1698 09f1 02       		.byte	0x2
 1699 09f2 23       		.byte	0x23
 1700 09f3 24       		.uleb128 0x24
 1701 09f4 0B       		.uleb128 0xb
 1702 09f5 A4030000 		.4byte	.LASF141
 1703 09f9 07       		.byte	0x7
 1704 09fa 35       		.byte	0x35
ARM GAS  /tmp/cczHDNsg.s 			page 31


 1705 09fb 82000000 		.4byte	0x82
 1706 09ff 02       		.byte	0x2
 1707 0a00 23       		.byte	0x23
 1708 0a01 28       		.uleb128 0x28
 1709 0a02 0B       		.uleb128 0xb
 1710 0a03 5A000000 		.4byte	.LASF142
 1711 0a07 07       		.byte	0x7
 1712 0a08 36       		.byte	0x36
 1713 0a09 82000000 		.4byte	0x82
 1714 0a0d 02       		.byte	0x2
 1715 0a0e 23       		.byte	0x23
 1716 0a0f 2C       		.uleb128 0x2c
 1717 0a10 0B       		.uleb128 0xb
 1718 0a11 3F010000 		.4byte	.LASF143
 1719 0a15 07       		.byte	0x7
 1720 0a16 37       		.byte	0x37
 1721 0a17 82000000 		.4byte	0x82
 1722 0a1b 02       		.byte	0x2
 1723 0a1c 23       		.byte	0x23
 1724 0a1d 30       		.uleb128 0x30
 1725 0a1e 0B       		.uleb128 0xb
 1726 0a1f AE030000 		.4byte	.LASF144
 1727 0a23 07       		.byte	0x7
 1728 0a24 38       		.byte	0x38
 1729 0a25 2D0A0000 		.4byte	0xa2d
 1730 0a29 02       		.byte	0x2
 1731 0a2a 23       		.byte	0x23
 1732 0a2b 34       		.uleb128 0x34
 1733 0a2c 00       		.byte	0x0
 1734 0a2d 08       		.uleb128 0x8
 1735 0a2e 82000000 		.4byte	0x82
 1736 0a32 3D0A0000 		.4byte	0xa3d
 1737 0a36 09       		.uleb128 0x9
 1738 0a37 34000000 		.4byte	0x34
 1739 0a3b 01       		.byte	0x1
 1740 0a3c 00       		.byte	0x0
 1741 0a3d 19       		.uleb128 0x19
 1742 0a3e 01       		.byte	0x1
 1743 0a3f F8000000 		.4byte	.LASF146
 1744 0a43 01       		.byte	0x1
 1745 0a44 51       		.byte	0x51
 1746 0a45 01       		.byte	0x1
 1747 0a46 57000000 		.4byte	0x57
 1748 0a4a 00000000 		.4byte	.LFB0
 1749 0a4e 0A000000 		.4byte	.LFE0
 1750 0a52 02       		.byte	0x2
 1751 0a53 7D       		.byte	0x7d
 1752 0a54 00       		.sleb128 0
 1753 0a55 900A0000 		.4byte	0xa90
 1754 0a59 1A       		.uleb128 0x1a
 1755 0a5a 7200     		.ascii	"r\000"
 1756 0a5c 01       		.byte	0x1
 1757 0a5d 51       		.byte	0x51
 1758 0a5e AB040000 		.4byte	0x4ab
 1759 0a62 00000000 		.4byte	.LLST0
 1760 0a66 1B       		.uleb128 0x1b
 1761 0a67 85020000 		.4byte	.LASF145
ARM GAS  /tmp/cczHDNsg.s 			page 32


 1762 0a6b 01       		.byte	0x1
 1763 0a6c 51       		.byte	0x51
 1764 0a6d 57000000 		.4byte	0x57
 1765 0a71 01       		.byte	0x1
 1766 0a72 51       		.byte	0x51
 1767 0a73 1C       		.uleb128 0x1c
 1768 0a74 70747200 		.ascii	"ptr\000"
 1769 0a78 01       		.byte	0x1
 1770 0a79 51       		.byte	0x51
 1771 0a7a 2A060000 		.4byte	0x62a
 1772 0a7e 01       		.byte	0x1
 1773 0a7f 52       		.byte	0x52
 1774 0a80 1A       		.uleb128 0x1a
 1775 0a81 6C656E00 		.ascii	"len\000"
 1776 0a85 01       		.byte	0x1
 1777 0a86 51       		.byte	0x51
 1778 0a87 57000000 		.4byte	0x57
 1779 0a8b 13000000 		.4byte	.LLST1
 1780 0a8f 00       		.byte	0x0
 1781 0a90 19       		.uleb128 0x19
 1782 0a91 01       		.byte	0x1
 1783 0a92 CA030000 		.4byte	.LASF147
 1784 0a96 01       		.byte	0x1
 1785 0a97 66       		.byte	0x66
 1786 0a98 01       		.byte	0x1
 1787 0a99 57000000 		.4byte	0x57
 1788 0a9d 00000000 		.4byte	.LFB1
 1789 0aa1 04000000 		.4byte	.LFE1
 1790 0aa5 02       		.byte	0x2
 1791 0aa6 7D       		.byte	0x7d
 1792 0aa7 00       		.sleb128 0
 1793 0aa8 E10A0000 		.4byte	0xae1
 1794 0aac 1A       		.uleb128 0x1a
 1795 0aad 7200     		.ascii	"r\000"
 1796 0aaf 01       		.byte	0x1
 1797 0ab0 66       		.byte	0x66
 1798 0ab1 AB040000 		.4byte	0x4ab
 1799 0ab5 26000000 		.4byte	.LLST2
 1800 0ab9 1B       		.uleb128 0x1b
 1801 0aba 85020000 		.4byte	.LASF145
 1802 0abe 01       		.byte	0x1
 1803 0abf 66       		.byte	0x66
 1804 0ac0 57000000 		.4byte	0x57
 1805 0ac4 01       		.byte	0x1
 1806 0ac5 51       		.byte	0x51
 1807 0ac6 1C       		.uleb128 0x1c
 1808 0ac7 70747200 		.ascii	"ptr\000"
 1809 0acb 01       		.byte	0x1
 1810 0acc 66       		.byte	0x66
 1811 0acd 57000000 		.4byte	0x57
 1812 0ad1 01       		.byte	0x1
 1813 0ad2 52       		.byte	0x52
 1814 0ad3 1C       		.uleb128 0x1c
 1815 0ad4 64697200 		.ascii	"dir\000"
 1816 0ad8 01       		.byte	0x1
 1817 0ad9 66       		.byte	0x66
 1818 0ada 57000000 		.4byte	0x57
ARM GAS  /tmp/cczHDNsg.s 			page 33


 1819 0ade 01       		.byte	0x1
 1820 0adf 53       		.byte	0x53
 1821 0ae0 00       		.byte	0x0
 1822 0ae1 19       		.uleb128 0x19
 1823 0ae2 01       		.byte	0x1
 1824 0ae3 38000000 		.4byte	.LASF148
 1825 0ae7 01       		.byte	0x1
 1826 0ae8 72       		.byte	0x72
 1827 0ae9 01       		.byte	0x1
 1828 0aea 57000000 		.4byte	0x57
 1829 0aee 00000000 		.4byte	.LFB2
 1830 0af2 04000000 		.4byte	.LFE2
 1831 0af6 02       		.byte	0x2
 1832 0af7 7D       		.byte	0x7d
 1833 0af8 00       		.sleb128 0
 1834 0af9 320B0000 		.4byte	0xb32
 1835 0afd 1A       		.uleb128 0x1a
 1836 0afe 7200     		.ascii	"r\000"
 1837 0b00 01       		.byte	0x1
 1838 0b01 72       		.byte	0x72
 1839 0b02 AB040000 		.4byte	0x4ab
 1840 0b06 39000000 		.4byte	.LLST3
 1841 0b0a 1B       		.uleb128 0x1b
 1842 0b0b 85020000 		.4byte	.LASF145
 1843 0b0f 01       		.byte	0x1
 1844 0b10 72       		.byte	0x72
 1845 0b11 57000000 		.4byte	0x57
 1846 0b15 01       		.byte	0x1
 1847 0b16 51       		.byte	0x51
 1848 0b17 1C       		.uleb128 0x1c
 1849 0b18 70747200 		.ascii	"ptr\000"
 1850 0b1c 01       		.byte	0x1
 1851 0b1d 72       		.byte	0x72
 1852 0b1e 2A060000 		.4byte	0x62a
 1853 0b22 01       		.byte	0x1
 1854 0b23 52       		.byte	0x52
 1855 0b24 1C       		.uleb128 0x1c
 1856 0b25 6C656E00 		.ascii	"len\000"
 1857 0b29 01       		.byte	0x1
 1858 0b2a 72       		.byte	0x72
 1859 0b2b 57000000 		.4byte	0x57
 1860 0b2f 01       		.byte	0x1
 1861 0b30 53       		.byte	0x53
 1862 0b31 00       		.byte	0x0
 1863 0b32 19       		.uleb128 0x19
 1864 0b33 01       		.byte	0x1
 1865 0b34 B8030000 		.4byte	.LASF149
 1866 0b38 01       		.byte	0x1
 1867 0b39 83       		.byte	0x83
 1868 0b3a 01       		.byte	0x1
 1869 0b3b 57000000 		.4byte	0x57
 1870 0b3f 00000000 		.4byte	.LFB3
 1871 0b43 04000000 		.4byte	.LFE3
 1872 0b47 02       		.byte	0x2
 1873 0b48 7D       		.byte	0x7d
 1874 0b49 00       		.sleb128 0
 1875 0b4a 690B0000 		.4byte	0xb69
ARM GAS  /tmp/cczHDNsg.s 			page 34


 1876 0b4e 1A       		.uleb128 0x1a
 1877 0b4f 7200     		.ascii	"r\000"
 1878 0b51 01       		.byte	0x1
 1879 0b52 83       		.byte	0x83
 1880 0b53 AB040000 		.4byte	0x4ab
 1881 0b57 4C000000 		.4byte	.LLST4
 1882 0b5b 1B       		.uleb128 0x1b
 1883 0b5c 85020000 		.4byte	.LASF145
 1884 0b60 01       		.byte	0x1
 1885 0b61 83       		.byte	0x83
 1886 0b62 57000000 		.4byte	0x57
 1887 0b66 01       		.byte	0x1
 1888 0b67 51       		.byte	0x51
 1889 0b68 00       		.byte	0x0
 1890 0b69 1D       		.uleb128 0x1d
 1891 0b6a 01       		.byte	0x1
 1892 0b6b 63010000 		.4byte	.LASF150
 1893 0b6f 01       		.byte	0x1
 1894 0b70 8D       		.byte	0x8d
 1895 0b71 01       		.byte	0x1
 1896 0b72 DA080000 		.4byte	0x8da
 1897 0b76 00000000 		.4byte	.LFB4
 1898 0b7a 24000000 		.4byte	.LFE4
 1899 0b7e 5F000000 		.4byte	.LLST5
 1900 0b82 B00B0000 		.4byte	0xbb0
 1901 0b86 1A       		.uleb128 0x1a
 1902 0b87 7200     		.ascii	"r\000"
 1903 0b89 01       		.byte	0x1
 1904 0b8a 8D       		.byte	0x8d
 1905 0b8b AB040000 		.4byte	0x4ab
 1906 0b8f 7F000000 		.4byte	.LLST6
 1907 0b93 1E       		.uleb128 0x1e
 1908 0b94 17020000 		.4byte	.LASF151
 1909 0b98 01       		.byte	0x1
 1910 0b99 8D       		.byte	0x8d
 1911 0b9a 57000000 		.4byte	0x57
 1912 0b9e 9D000000 		.4byte	.LLST7
 1913 0ba2 1F       		.uleb128 0x1f
 1914 0ba3 7000     		.ascii	"p\000"
 1915 0ba5 01       		.byte	0x1
 1916 0ba6 8F       		.byte	0x8f
 1917 0ba7 2B010000 		.4byte	0x12b
 1918 0bab BB000000 		.4byte	.LLST8
 1919 0baf 00       		.byte	0x0
 1920 0bb0 1D       		.uleb128 0x1d
 1921 0bb1 01       		.byte	0x1
 1922 0bb2 0E020000 		.4byte	.LASF152
 1923 0bb6 01       		.byte	0x1
 1924 0bb7 9E       		.byte	0x9e
 1925 0bb8 01       		.byte	0x1
 1926 0bb9 57000000 		.4byte	0x57
 1927 0bbd 00000000 		.4byte	.LFB5
 1928 0bc1 18000000 		.4byte	.LFE5
 1929 0bc5 CE000000 		.4byte	.LLST9
 1930 0bc9 F80B0000 		.4byte	0xbf8
 1931 0bcd 1A       		.uleb128 0x1a
 1932 0bce 7200     		.ascii	"r\000"
ARM GAS  /tmp/cczHDNsg.s 			page 35


 1933 0bd0 01       		.byte	0x1
 1934 0bd1 9E       		.byte	0x9e
 1935 0bd2 AB040000 		.4byte	0x4ab
 1936 0bd6 EE000000 		.4byte	.LLST10
 1937 0bda 1E       		.uleb128 0x1e
 1938 0bdb 85020000 		.4byte	.LASF145
 1939 0bdf 01       		.byte	0x1
 1940 0be0 9E       		.byte	0x9e
 1941 0be1 57000000 		.4byte	0x57
 1942 0be5 01010000 		.4byte	.LLST11
 1943 0be9 1A       		.uleb128 0x1a
 1944 0bea 737400   		.ascii	"st\000"
 1945 0bed 01       		.byte	0x1
 1946 0bee 9E       		.byte	0x9e
 1947 0bef F80B0000 		.4byte	0xbf8
 1948 0bf3 14010000 		.4byte	.LLST12
 1949 0bf7 00       		.byte	0x0
 1950 0bf8 0F       		.uleb128 0xf
 1951 0bf9 04       		.byte	0x4
 1952 0bfa 32090000 		.4byte	0x932
 1953 0bfe 20       		.uleb128 0x20
 1954 0bff 01       		.byte	0x1
 1955 0c00 29000000 		.4byte	.LASF156
 1956 0c04 01       		.byte	0x1
 1957 0c05 AA       		.byte	0xaa
 1958 0c06 01       		.byte	0x1
 1959 0c07 57000000 		.4byte	0x57
 1960 0c0b 00000000 		.4byte	.LFB6
 1961 0c0f 04000000 		.4byte	.LFE6
 1962 0c13 02       		.byte	0x2
 1963 0c14 7D       		.byte	0x7d
 1964 0c15 00       		.sleb128 0
 1965 0c16 1A       		.uleb128 0x1a
 1966 0c17 7200     		.ascii	"r\000"
 1967 0c19 01       		.byte	0x1
 1968 0c1a AA       		.byte	0xaa
 1969 0c1b AB040000 		.4byte	0x4ab
 1970 0c1f 3D010000 		.4byte	.LLST13
 1971 0c23 1C       		.uleb128 0x1c
 1972 0c24 666400   		.ascii	"fd\000"
 1973 0c27 01       		.byte	0x1
 1974 0c28 AA       		.byte	0xaa
 1975 0c29 57000000 		.4byte	0x57
 1976 0c2d 01       		.byte	0x1
 1977 0c2e 51       		.byte	0x51
 1978 0c2f 00       		.byte	0x0
 1979 0c30 00       		.byte	0x0
 1980              		.section	.debug_abbrev
 1981 0000 01       		.uleb128 0x1
 1982 0001 11       		.uleb128 0x11
 1983 0002 01       		.byte	0x1
 1984 0003 25       		.uleb128 0x25
 1985 0004 0E       		.uleb128 0xe
 1986 0005 13       		.uleb128 0x13
 1987 0006 0B       		.uleb128 0xb
 1988 0007 03       		.uleb128 0x3
 1989 0008 0E       		.uleb128 0xe
ARM GAS  /tmp/cczHDNsg.s 			page 36


 1990 0009 1B       		.uleb128 0x1b
 1991 000a 0E       		.uleb128 0xe
 1992 000b 11       		.uleb128 0x11
 1993 000c 01       		.uleb128 0x1
 1994 000d 52       		.uleb128 0x52
 1995 000e 01       		.uleb128 0x1
 1996 000f 55       		.uleb128 0x55
 1997 0010 06       		.uleb128 0x6
 1998 0011 10       		.uleb128 0x10
 1999 0012 06       		.uleb128 0x6
 2000 0013 00       		.byte	0x0
 2001 0014 00       		.byte	0x0
 2002 0015 02       		.uleb128 0x2
 2003 0016 16       		.uleb128 0x16
 2004 0017 00       		.byte	0x0
 2005 0018 03       		.uleb128 0x3
 2006 0019 0E       		.uleb128 0xe
 2007 001a 3A       		.uleb128 0x3a
 2008 001b 0B       		.uleb128 0xb
 2009 001c 3B       		.uleb128 0x3b
 2010 001d 0B       		.uleb128 0xb
 2011 001e 49       		.uleb128 0x49
 2012 001f 13       		.uleb128 0x13
 2013 0020 00       		.byte	0x0
 2014 0021 00       		.byte	0x0
 2015 0022 03       		.uleb128 0x3
 2016 0023 24       		.uleb128 0x24
 2017 0024 00       		.byte	0x0
 2018 0025 0B       		.uleb128 0xb
 2019 0026 0B       		.uleb128 0xb
 2020 0027 3E       		.uleb128 0x3e
 2021 0028 0B       		.uleb128 0xb
 2022 0029 03       		.uleb128 0x3
 2023 002a 0E       		.uleb128 0xe
 2024 002b 00       		.byte	0x0
 2025 002c 00       		.byte	0x0
 2026 002d 04       		.uleb128 0x4
 2027 002e 24       		.uleb128 0x24
 2028 002f 00       		.byte	0x0
 2029 0030 0B       		.uleb128 0xb
 2030 0031 0B       		.uleb128 0xb
 2031 0032 3E       		.uleb128 0x3e
 2032 0033 0B       		.uleb128 0xb
 2033 0034 03       		.uleb128 0x3
 2034 0035 08       		.uleb128 0x8
 2035 0036 00       		.byte	0x0
 2036 0037 00       		.byte	0x0
 2037 0038 05       		.uleb128 0x5
 2038 0039 16       		.uleb128 0x16
 2039 003a 00       		.byte	0x0
 2040 003b 03       		.uleb128 0x3
 2041 003c 0E       		.uleb128 0xe
 2042 003d 3A       		.uleb128 0x3a
 2043 003e 0B       		.uleb128 0xb
 2044 003f 3B       		.uleb128 0x3b
 2045 0040 05       		.uleb128 0x5
 2046 0041 49       		.uleb128 0x49
ARM GAS  /tmp/cczHDNsg.s 			page 37


 2047 0042 13       		.uleb128 0x13
 2048 0043 00       		.byte	0x0
 2049 0044 00       		.byte	0x0
 2050 0045 06       		.uleb128 0x6
 2051 0046 17       		.uleb128 0x17
 2052 0047 01       		.byte	0x1
 2053 0048 0B       		.uleb128 0xb
 2054 0049 0B       		.uleb128 0xb
 2055 004a 3A       		.uleb128 0x3a
 2056 004b 0B       		.uleb128 0xb
 2057 004c 3B       		.uleb128 0x3b
 2058 004d 0B       		.uleb128 0xb
 2059 004e 01       		.uleb128 0x1
 2060 004f 13       		.uleb128 0x13
 2061 0050 00       		.byte	0x0
 2062 0051 00       		.byte	0x0
 2063 0052 07       		.uleb128 0x7
 2064 0053 0D       		.uleb128 0xd
 2065 0054 00       		.byte	0x0
 2066 0055 03       		.uleb128 0x3
 2067 0056 0E       		.uleb128 0xe
 2068 0057 3A       		.uleb128 0x3a
 2069 0058 0B       		.uleb128 0xb
 2070 0059 3B       		.uleb128 0x3b
 2071 005a 0B       		.uleb128 0xb
 2072 005b 49       		.uleb128 0x49
 2073 005c 13       		.uleb128 0x13
 2074 005d 00       		.byte	0x0
 2075 005e 00       		.byte	0x0
 2076 005f 08       		.uleb128 0x8
 2077 0060 01       		.uleb128 0x1
 2078 0061 01       		.byte	0x1
 2079 0062 49       		.uleb128 0x49
 2080 0063 13       		.uleb128 0x13
 2081 0064 01       		.uleb128 0x1
 2082 0065 13       		.uleb128 0x13
 2083 0066 00       		.byte	0x0
 2084 0067 00       		.byte	0x0
 2085 0068 09       		.uleb128 0x9
 2086 0069 21       		.uleb128 0x21
 2087 006a 00       		.byte	0x0
 2088 006b 49       		.uleb128 0x49
 2089 006c 13       		.uleb128 0x13
 2090 006d 2F       		.uleb128 0x2f
 2091 006e 0B       		.uleb128 0xb
 2092 006f 00       		.byte	0x0
 2093 0070 00       		.byte	0x0
 2094 0071 0A       		.uleb128 0xa
 2095 0072 13       		.uleb128 0x13
 2096 0073 01       		.byte	0x1
 2097 0074 0B       		.uleb128 0xb
 2098 0075 0B       		.uleb128 0xb
 2099 0076 3A       		.uleb128 0x3a
 2100 0077 0B       		.uleb128 0xb
 2101 0078 3B       		.uleb128 0x3b
 2102 0079 0B       		.uleb128 0xb
 2103 007a 01       		.uleb128 0x1
ARM GAS  /tmp/cczHDNsg.s 			page 38


 2104 007b 13       		.uleb128 0x13
 2105 007c 00       		.byte	0x0
 2106 007d 00       		.byte	0x0
 2107 007e 0B       		.uleb128 0xb
 2108 007f 0D       		.uleb128 0xd
 2109 0080 00       		.byte	0x0
 2110 0081 03       		.uleb128 0x3
 2111 0082 0E       		.uleb128 0xe
 2112 0083 3A       		.uleb128 0x3a
 2113 0084 0B       		.uleb128 0xb
 2114 0085 3B       		.uleb128 0x3b
 2115 0086 0B       		.uleb128 0xb
 2116 0087 49       		.uleb128 0x49
 2117 0088 13       		.uleb128 0x13
 2118 0089 38       		.uleb128 0x38
 2119 008a 0A       		.uleb128 0xa
 2120 008b 00       		.byte	0x0
 2121 008c 00       		.byte	0x0
 2122 008d 0C       		.uleb128 0xc
 2123 008e 0F       		.uleb128 0xf
 2124 008f 00       		.byte	0x0
 2125 0090 0B       		.uleb128 0xb
 2126 0091 0B       		.uleb128 0xb
 2127 0092 00       		.byte	0x0
 2128 0093 00       		.byte	0x0
 2129 0094 0D       		.uleb128 0xd
 2130 0095 13       		.uleb128 0x13
 2131 0096 01       		.byte	0x1
 2132 0097 03       		.uleb128 0x3
 2133 0098 0E       		.uleb128 0xe
 2134 0099 0B       		.uleb128 0xb
 2135 009a 0B       		.uleb128 0xb
 2136 009b 3A       		.uleb128 0x3a
 2137 009c 0B       		.uleb128 0xb
 2138 009d 3B       		.uleb128 0x3b
 2139 009e 0B       		.uleb128 0xb
 2140 009f 01       		.uleb128 0x1
 2141 00a0 13       		.uleb128 0x13
 2142 00a1 00       		.byte	0x0
 2143 00a2 00       		.byte	0x0
 2144 00a3 0E       		.uleb128 0xe
 2145 00a4 0D       		.uleb128 0xd
 2146 00a5 00       		.byte	0x0
 2147 00a6 03       		.uleb128 0x3
 2148 00a7 08       		.uleb128 0x8
 2149 00a8 3A       		.uleb128 0x3a
 2150 00a9 0B       		.uleb128 0xb
 2151 00aa 3B       		.uleb128 0x3b
 2152 00ab 0B       		.uleb128 0xb
 2153 00ac 49       		.uleb128 0x49
 2154 00ad 13       		.uleb128 0x13
 2155 00ae 38       		.uleb128 0x38
 2156 00af 0A       		.uleb128 0xa
 2157 00b0 00       		.byte	0x0
 2158 00b1 00       		.byte	0x0
 2159 00b2 0F       		.uleb128 0xf
 2160 00b3 0F       		.uleb128 0xf
ARM GAS  /tmp/cczHDNsg.s 			page 39


 2161 00b4 00       		.byte	0x0
 2162 00b5 0B       		.uleb128 0xb
 2163 00b6 0B       		.uleb128 0xb
 2164 00b7 49       		.uleb128 0x49
 2165 00b8 13       		.uleb128 0x13
 2166 00b9 00       		.byte	0x0
 2167 00ba 00       		.byte	0x0
 2168 00bb 10       		.uleb128 0x10
 2169 00bc 13       		.uleb128 0x13
 2170 00bd 01       		.byte	0x1
 2171 00be 03       		.uleb128 0x3
 2172 00bf 0E       		.uleb128 0xe
 2173 00c0 0B       		.uleb128 0xb
 2174 00c1 05       		.uleb128 0x5
 2175 00c2 3A       		.uleb128 0x3a
 2176 00c3 0B       		.uleb128 0xb
 2177 00c4 3B       		.uleb128 0x3b
 2178 00c5 0B       		.uleb128 0xb
 2179 00c6 01       		.uleb128 0x1
 2180 00c7 13       		.uleb128 0x13
 2181 00c8 00       		.byte	0x0
 2182 00c9 00       		.byte	0x0
 2183 00ca 11       		.uleb128 0x11
 2184 00cb 15       		.uleb128 0x15
 2185 00cc 00       		.byte	0x0
 2186 00cd 27       		.uleb128 0x27
 2187 00ce 0C       		.uleb128 0xc
 2188 00cf 00       		.byte	0x0
 2189 00d0 00       		.byte	0x0
 2190 00d1 12       		.uleb128 0x12
 2191 00d2 13       		.uleb128 0x13
 2192 00d3 01       		.byte	0x1
 2193 00d4 03       		.uleb128 0x3
 2194 00d5 0E       		.uleb128 0xe
 2195 00d6 0B       		.uleb128 0xb
 2196 00d7 0B       		.uleb128 0xb
 2197 00d8 3A       		.uleb128 0x3a
 2198 00d9 0B       		.uleb128 0xb
 2199 00da 3B       		.uleb128 0x3b
 2200 00db 05       		.uleb128 0x5
 2201 00dc 01       		.uleb128 0x1
 2202 00dd 13       		.uleb128 0x13
 2203 00de 00       		.byte	0x0
 2204 00df 00       		.byte	0x0
 2205 00e0 13       		.uleb128 0x13
 2206 00e1 0D       		.uleb128 0xd
 2207 00e2 00       		.byte	0x0
 2208 00e3 03       		.uleb128 0x3
 2209 00e4 0E       		.uleb128 0xe
 2210 00e5 3A       		.uleb128 0x3a
 2211 00e6 0B       		.uleb128 0xb
 2212 00e7 3B       		.uleb128 0x3b
 2213 00e8 05       		.uleb128 0x5
 2214 00e9 49       		.uleb128 0x49
 2215 00ea 13       		.uleb128 0x13
 2216 00eb 38       		.uleb128 0x38
 2217 00ec 0A       		.uleb128 0xa
ARM GAS  /tmp/cczHDNsg.s 			page 40


 2218 00ed 00       		.byte	0x0
 2219 00ee 00       		.byte	0x0
 2220 00ef 14       		.uleb128 0x14
 2221 00f0 0D       		.uleb128 0xd
 2222 00f1 00       		.byte	0x0
 2223 00f2 03       		.uleb128 0x3
 2224 00f3 08       		.uleb128 0x8
 2225 00f4 3A       		.uleb128 0x3a
 2226 00f5 0B       		.uleb128 0xb
 2227 00f6 3B       		.uleb128 0x3b
 2228 00f7 05       		.uleb128 0x5
 2229 00f8 49       		.uleb128 0x49
 2230 00f9 13       		.uleb128 0x13
 2231 00fa 38       		.uleb128 0x38
 2232 00fb 0A       		.uleb128 0xa
 2233 00fc 00       		.byte	0x0
 2234 00fd 00       		.byte	0x0
 2235 00fe 15       		.uleb128 0x15
 2236 00ff 15       		.uleb128 0x15
 2237 0100 01       		.byte	0x1
 2238 0101 27       		.uleb128 0x27
 2239 0102 0C       		.uleb128 0xc
 2240 0103 49       		.uleb128 0x49
 2241 0104 13       		.uleb128 0x13
 2242 0105 01       		.uleb128 0x1
 2243 0106 13       		.uleb128 0x13
 2244 0107 00       		.byte	0x0
 2245 0108 00       		.byte	0x0
 2246 0109 16       		.uleb128 0x16
 2247 010a 05       		.uleb128 0x5
 2248 010b 00       		.byte	0x0
 2249 010c 49       		.uleb128 0x49
 2250 010d 13       		.uleb128 0x13
 2251 010e 00       		.byte	0x0
 2252 010f 00       		.byte	0x0
 2253 0110 17       		.uleb128 0x17
 2254 0111 26       		.uleb128 0x26
 2255 0112 00       		.byte	0x0
 2256 0113 49       		.uleb128 0x49
 2257 0114 13       		.uleb128 0x13
 2258 0115 00       		.byte	0x0
 2259 0116 00       		.byte	0x0
 2260 0117 18       		.uleb128 0x18
 2261 0118 15       		.uleb128 0x15
 2262 0119 01       		.byte	0x1
 2263 011a 27       		.uleb128 0x27
 2264 011b 0C       		.uleb128 0xc
 2265 011c 01       		.uleb128 0x1
 2266 011d 13       		.uleb128 0x13
 2267 011e 00       		.byte	0x0
 2268 011f 00       		.byte	0x0
 2269 0120 19       		.uleb128 0x19
 2270 0121 2E       		.uleb128 0x2e
 2271 0122 01       		.byte	0x1
 2272 0123 3F       		.uleb128 0x3f
 2273 0124 0C       		.uleb128 0xc
 2274 0125 03       		.uleb128 0x3
ARM GAS  /tmp/cczHDNsg.s 			page 41


 2275 0126 0E       		.uleb128 0xe
 2276 0127 3A       		.uleb128 0x3a
 2277 0128 0B       		.uleb128 0xb
 2278 0129 3B       		.uleb128 0x3b
 2279 012a 0B       		.uleb128 0xb
 2280 012b 27       		.uleb128 0x27
 2281 012c 0C       		.uleb128 0xc
 2282 012d 49       		.uleb128 0x49
 2283 012e 13       		.uleb128 0x13
 2284 012f 11       		.uleb128 0x11
 2285 0130 01       		.uleb128 0x1
 2286 0131 12       		.uleb128 0x12
 2287 0132 01       		.uleb128 0x1
 2288 0133 40       		.uleb128 0x40
 2289 0134 0A       		.uleb128 0xa
 2290 0135 01       		.uleb128 0x1
 2291 0136 13       		.uleb128 0x13
 2292 0137 00       		.byte	0x0
 2293 0138 00       		.byte	0x0
 2294 0139 1A       		.uleb128 0x1a
 2295 013a 05       		.uleb128 0x5
 2296 013b 00       		.byte	0x0
 2297 013c 03       		.uleb128 0x3
 2298 013d 08       		.uleb128 0x8
 2299 013e 3A       		.uleb128 0x3a
 2300 013f 0B       		.uleb128 0xb
 2301 0140 3B       		.uleb128 0x3b
 2302 0141 0B       		.uleb128 0xb
 2303 0142 49       		.uleb128 0x49
 2304 0143 13       		.uleb128 0x13
 2305 0144 02       		.uleb128 0x2
 2306 0145 06       		.uleb128 0x6
 2307 0146 00       		.byte	0x0
 2308 0147 00       		.byte	0x0
 2309 0148 1B       		.uleb128 0x1b
 2310 0149 05       		.uleb128 0x5
 2311 014a 00       		.byte	0x0
 2312 014b 03       		.uleb128 0x3
 2313 014c 0E       		.uleb128 0xe
 2314 014d 3A       		.uleb128 0x3a
 2315 014e 0B       		.uleb128 0xb
 2316 014f 3B       		.uleb128 0x3b
 2317 0150 0B       		.uleb128 0xb
 2318 0151 49       		.uleb128 0x49
 2319 0152 13       		.uleb128 0x13
 2320 0153 02       		.uleb128 0x2
 2321 0154 0A       		.uleb128 0xa
 2322 0155 00       		.byte	0x0
 2323 0156 00       		.byte	0x0
 2324 0157 1C       		.uleb128 0x1c
 2325 0158 05       		.uleb128 0x5
 2326 0159 00       		.byte	0x0
 2327 015a 03       		.uleb128 0x3
 2328 015b 08       		.uleb128 0x8
 2329 015c 3A       		.uleb128 0x3a
 2330 015d 0B       		.uleb128 0xb
 2331 015e 3B       		.uleb128 0x3b
ARM GAS  /tmp/cczHDNsg.s 			page 42


 2332 015f 0B       		.uleb128 0xb
 2333 0160 49       		.uleb128 0x49
 2334 0161 13       		.uleb128 0x13
 2335 0162 02       		.uleb128 0x2
 2336 0163 0A       		.uleb128 0xa
 2337 0164 00       		.byte	0x0
 2338 0165 00       		.byte	0x0
 2339 0166 1D       		.uleb128 0x1d
 2340 0167 2E       		.uleb128 0x2e
 2341 0168 01       		.byte	0x1
 2342 0169 3F       		.uleb128 0x3f
 2343 016a 0C       		.uleb128 0xc
 2344 016b 03       		.uleb128 0x3
 2345 016c 0E       		.uleb128 0xe
 2346 016d 3A       		.uleb128 0x3a
 2347 016e 0B       		.uleb128 0xb
 2348 016f 3B       		.uleb128 0x3b
 2349 0170 0B       		.uleb128 0xb
 2350 0171 27       		.uleb128 0x27
 2351 0172 0C       		.uleb128 0xc
 2352 0173 49       		.uleb128 0x49
 2353 0174 13       		.uleb128 0x13
 2354 0175 11       		.uleb128 0x11
 2355 0176 01       		.uleb128 0x1
 2356 0177 12       		.uleb128 0x12
 2357 0178 01       		.uleb128 0x1
 2358 0179 40       		.uleb128 0x40
 2359 017a 06       		.uleb128 0x6
 2360 017b 01       		.uleb128 0x1
 2361 017c 13       		.uleb128 0x13
 2362 017d 00       		.byte	0x0
 2363 017e 00       		.byte	0x0
 2364 017f 1E       		.uleb128 0x1e
 2365 0180 05       		.uleb128 0x5
 2366 0181 00       		.byte	0x0
 2367 0182 03       		.uleb128 0x3
 2368 0183 0E       		.uleb128 0xe
 2369 0184 3A       		.uleb128 0x3a
 2370 0185 0B       		.uleb128 0xb
 2371 0186 3B       		.uleb128 0x3b
 2372 0187 0B       		.uleb128 0xb
 2373 0188 49       		.uleb128 0x49
 2374 0189 13       		.uleb128 0x13
 2375 018a 02       		.uleb128 0x2
 2376 018b 06       		.uleb128 0x6
 2377 018c 00       		.byte	0x0
 2378 018d 00       		.byte	0x0
 2379 018e 1F       		.uleb128 0x1f
 2380 018f 34       		.uleb128 0x34
 2381 0190 00       		.byte	0x0
 2382 0191 03       		.uleb128 0x3
 2383 0192 08       		.uleb128 0x8
 2384 0193 3A       		.uleb128 0x3a
 2385 0194 0B       		.uleb128 0xb
 2386 0195 3B       		.uleb128 0x3b
 2387 0196 0B       		.uleb128 0xb
 2388 0197 49       		.uleb128 0x49
ARM GAS  /tmp/cczHDNsg.s 			page 43


 2389 0198 13       		.uleb128 0x13
 2390 0199 02       		.uleb128 0x2
 2391 019a 06       		.uleb128 0x6
 2392 019b 00       		.byte	0x0
 2393 019c 00       		.byte	0x0
 2394 019d 20       		.uleb128 0x20
 2395 019e 2E       		.uleb128 0x2e
 2396 019f 01       		.byte	0x1
 2397 01a0 3F       		.uleb128 0x3f
 2398 01a1 0C       		.uleb128 0xc
 2399 01a2 03       		.uleb128 0x3
 2400 01a3 0E       		.uleb128 0xe
 2401 01a4 3A       		.uleb128 0x3a
 2402 01a5 0B       		.uleb128 0xb
 2403 01a6 3B       		.uleb128 0x3b
 2404 01a7 0B       		.uleb128 0xb
 2405 01a8 27       		.uleb128 0x27
 2406 01a9 0C       		.uleb128 0xc
 2407 01aa 49       		.uleb128 0x49
 2408 01ab 13       		.uleb128 0x13
 2409 01ac 11       		.uleb128 0x11
 2410 01ad 01       		.uleb128 0x1
 2411 01ae 12       		.uleb128 0x12
 2412 01af 01       		.uleb128 0x1
 2413 01b0 40       		.uleb128 0x40
 2414 01b1 0A       		.uleb128 0xa
 2415 01b2 00       		.byte	0x0
 2416 01b3 00       		.byte	0x0
 2417 01b4 00       		.byte	0x0
 2418              		.section	.debug_pubnames,"",%progbits
 2419 0000 68000000 		.4byte	0x68
 2420 0004 0200     		.2byte	0x2
 2421 0006 00000000 		.4byte	.Ldebug_info0
 2422 000a 310C0000 		.4byte	0xc31
 2423 000e 3D0A0000 		.4byte	0xa3d
 2424 0012 5F726561 		.ascii	"_read_r\000"
 2424      645F7200 
 2425 001a 900A0000 		.4byte	0xa90
 2426 001e 5F6C7365 		.ascii	"_lseek_r\000"
 2426      656B5F72 
 2426      00
 2427 0027 E10A0000 		.4byte	0xae1
 2428 002b 5F777269 		.ascii	"_write_r\000"
 2428      74655F72 
 2428      00
 2429 0034 320B0000 		.4byte	0xb32
 2430 0038 5F636C6F 		.ascii	"_close_r\000"
 2430      73655F72 
 2430      00
 2431 0041 690B0000 		.4byte	0xb69
 2432 0045 5F736272 		.ascii	"_sbrk_r\000"
 2432      6B5F7200 
 2433 004d B00B0000 		.4byte	0xbb0
 2434 0051 5F667374 		.ascii	"_fstat_r\000"
 2434      61745F72 
 2434      00
 2435 005a FE0B0000 		.4byte	0xbfe
ARM GAS  /tmp/cczHDNsg.s 			page 44


 2436 005e 5F697361 		.ascii	"_isatty_r\000"
 2436      7474795F 
 2436      7200
 2437 0068 00000000 		.4byte	0x0
 2438              		.section	.debug_pubtypes,"",%progbits
 2439 0000 97010000 		.4byte	0x197
 2440 0004 0200     		.2byte	0x2
 2441 0006 00000000 		.4byte	.Ldebug_info0
 2442 000a 310C0000 		.4byte	0xc31
 2443 000e 29000000 		.4byte	0x29
 2444 0012 73697A65 		.ascii	"size_t\000"
 2444      5F7400
 2445 0019 6C000000 		.4byte	0x6c
 2446 001d 5F4C4F43 		.ascii	"_LOCK_RECURSIVE_T\000"
 2446      4B5F5245 
 2446      43555253 
 2446      4956455F 
 2446      5400
 2447 002f 77000000 		.4byte	0x77
 2448 0033 5F6F6666 		.ascii	"_off_t\000"
 2448      5F7400
 2449 003a 89000000 		.4byte	0x89
 2450 003e 5F5F6465 		.ascii	"__dev_t\000"
 2450      765F7400 
 2451 0046 94000000 		.4byte	0x94
 2452 004a 5F5F7569 		.ascii	"__uid_t\000"
 2452      645F7400 
 2453 0052 9F000000 		.4byte	0x9f
 2454 0056 5F5F6769 		.ascii	"__gid_t\000"
 2454      645F7400 
 2455 005e AA000000 		.4byte	0xaa
 2456 0062 5F66706F 		.ascii	"_fpos_t\000"
 2456      735F7400 
 2457 006a B5000000 		.4byte	0xb5
 2458 006e 77696E74 		.ascii	"wint_t\000"
 2458      5F7400
 2459 0075 15010000 		.4byte	0x115
 2460 0079 5F6D6273 		.ascii	"_mbstate_t\000"
 2460      74617465 
 2460      5F7400
 2461 0084 20010000 		.4byte	0x120
 2462 0088 5F666C6F 		.ascii	"_flock_t\000"
 2462      636B5F74 
 2462      00
 2463 0091 2D010000 		.4byte	0x12d
 2464 0095 5F5F554C 		.ascii	"__ULong\000"
 2464      6F6E6700 
 2465 009d 3F010000 		.4byte	0x13f
 2466 00a1 5F426967 		.ascii	"_Bigint\000"
 2466      696E7400 
 2467 00a9 B4010000 		.4byte	0x1b4
 2468 00ad 5F5F746D 		.ascii	"__tm\000"
 2468      00
 2469 00b2 3F020000 		.4byte	0x23f
 2470 00b6 5F6F6E5F 		.ascii	"_on_exit_args\000"
 2470      65786974 
 2470      5F617267 
ARM GAS  /tmp/cczHDNsg.s 			page 45


 2470      7300
 2471 00c4 98020000 		.4byte	0x298
 2472 00c8 5F617465 		.ascii	"_atexit\000"
 2472      78697400 
 2473 00d0 02030000 		.4byte	0x302
 2474 00d4 5F5F7362 		.ascii	"__sbuf\000"
 2474      756600
 2475 00db B1040000 		.4byte	0x4b1
 2476 00df 5F5F7346 		.ascii	"__sFILE\000"
 2476      494C4500 
 2477 00e7 CD060000 		.4byte	0x6cd
 2478 00eb 5F5F4649 		.ascii	"__FILE\000"
 2478      4C4500
 2479 00f2 D9060000 		.4byte	0x6d9
 2480 00f6 5F676C75 		.ascii	"_glue\000"
 2480      6500
 2481 00fc 20070000 		.4byte	0x720
 2482 0100 5F72616E 		.ascii	"_rand48\000"
 2482      64343800 
 2483 0108 7A070000 		.4byte	0x77a
 2484 010c 5F6D7072 		.ascii	"_mprec\000"
 2484      656300
 2485 0113 CA070000 		.4byte	0x7ca
 2486 0117 5F6D6973 		.ascii	"_misc_reent\000"
 2486      635F7265 
 2486      656E7400 
 2487 0123 31030000 		.4byte	0x331
 2488 0127 5F726565 		.ascii	"_reent\000"
 2488      6E7400
 2489 012e CF080000 		.4byte	0x8cf
 2490 0132 74696D65 		.ascii	"time_t\000"
 2490      5F7400
 2491 0139 DA080000 		.4byte	0x8da
 2492 013d 63616464 		.ascii	"caddr_t\000"
 2492      725F7400 
 2493 0145 E5080000 		.4byte	0x8e5
 2494 0149 696E6F5F 		.ascii	"ino_t\000"
 2494      7400
 2495 014f F0080000 		.4byte	0x8f0
 2496 0153 6F66665F 		.ascii	"off_t\000"
 2496      7400
 2497 0159 FB080000 		.4byte	0x8fb
 2498 015d 6465765F 		.ascii	"dev_t\000"
 2498      7400
 2499 0163 06090000 		.4byte	0x906
 2500 0167 7569645F 		.ascii	"uid_t\000"
 2500      7400
 2501 016d 11090000 		.4byte	0x911
 2502 0171 6769645F 		.ascii	"gid_t\000"
 2502      7400
 2503 0177 1C090000 		.4byte	0x91c
 2504 017b 6D6F6465 		.ascii	"mode_t\000"
 2504      5F7400
 2505 0182 27090000 		.4byte	0x927
 2506 0186 6E6C696E 		.ascii	"nlink_t\000"
 2506      6B5F7400 
 2507 018e 32090000 		.4byte	0x932
ARM GAS  /tmp/cczHDNsg.s 			page 46


 2508 0192 73746174 		.ascii	"stat\000"
 2508      00
 2509 0197 00000000 		.4byte	0x0
 2510              		.section	.debug_aranges,"",%progbits
 2511 0000 4C000000 		.4byte	0x4c
 2512 0004 0200     		.2byte	0x2
 2513 0006 00000000 		.4byte	.Ldebug_info0
 2514 000a 04       		.byte	0x4
 2515 000b 00       		.byte	0x0
 2516 000c 0000     		.2byte	0x0
 2517 000e 0000     		.2byte	0x0
 2518 0010 00000000 		.4byte	.LFB0
 2519 0014 0A000000 		.4byte	.LFE0-.LFB0
 2520 0018 00000000 		.4byte	.LFB1
 2521 001c 04000000 		.4byte	.LFE1-.LFB1
 2522 0020 00000000 		.4byte	.LFB2
 2523 0024 04000000 		.4byte	.LFE2-.LFB2
 2524 0028 00000000 		.4byte	.LFB3
 2525 002c 04000000 		.4byte	.LFE3-.LFB3
 2526 0030 00000000 		.4byte	.LFB4
 2527 0034 24000000 		.4byte	.LFE4-.LFB4
 2528 0038 00000000 		.4byte	.LFB5
 2529 003c 18000000 		.4byte	.LFE5-.LFB5
 2530 0040 00000000 		.4byte	.LFB6
 2531 0044 04000000 		.4byte	.LFE6-.LFB6
 2532 0048 00000000 		.4byte	0x0
 2533 004c 00000000 		.4byte	0x0
 2534              		.section	.debug_ranges,"",%progbits
 2535              	.Ldebug_ranges0:
 2536 0000 00000000 		.4byte	.LFB0
 2537 0004 0A000000 		.4byte	.LFE0
 2538 0008 00000000 		.4byte	.LFB1
 2539 000c 04000000 		.4byte	.LFE1
 2540 0010 00000000 		.4byte	.LFB2
 2541 0014 04000000 		.4byte	.LFE2
 2542 0018 00000000 		.4byte	.LFB3
 2543 001c 04000000 		.4byte	.LFE3
 2544 0020 00000000 		.4byte	.LFB4
 2545 0024 24000000 		.4byte	.LFE4
 2546 0028 00000000 		.4byte	.LFB5
 2547 002c 18000000 		.4byte	.LFE5
 2548 0030 00000000 		.4byte	.LFB6
 2549 0034 04000000 		.4byte	.LFE6
 2550 0038 00000000 		.4byte	0x0
 2551 003c 00000000 		.4byte	0x0
 2552              		.section	.debug_str,"MS",%progbits,1
 2553              	.LASF72:
 2554 0000 5F6D6973 		.ascii	"_misc\000"
 2554      6300
 2555              	.LASF39:
 2556 0006 5F6F6E5F 		.ascii	"_on_exit_args\000"
 2556      65786974 
 2556      5F617267 
 2556      7300
 2557              	.LASF81:
 2558 0014 5F777269 		.ascii	"_write\000"
 2558      746500
ARM GAS  /tmp/cczHDNsg.s 			page 47


 2559              	.LASF109:
 2560 001b 5F776374 		.ascii	"_wctomb_state\000"
 2560      6F6D625F 
 2560      73746174 
 2560      6500
 2561              	.LASF156:
 2562 0029 5F697361 		.ascii	"_isatty_r\000"
 2562      7474795F 
 2562      7200
 2563              	.LASF65:
 2564 0033 5F723438 		.ascii	"_r48\000"
 2564      00
 2565              	.LASF148:
 2566 0038 5F777269 		.ascii	"_write_r\000"
 2566      74655F72 
 2566      00
 2567              	.LASF73:
 2568 0041 5F736967 		.ascii	"_signal_buf\000"
 2568      6E616C5F 
 2568      62756600 
 2569              	.LASF0:
 2570 004d 756E7369 		.ascii	"unsigned int\000"
 2570      676E6564 
 2570      20696E74 
 2570      00
 2571              	.LASF142:
 2572 005a 73745F62 		.ascii	"st_blksize\000"
 2572      6C6B7369 
 2572      7A6500
 2573              	.LASF77:
 2574 0065 5F6C6266 		.ascii	"_lbfsize\000"
 2574      73697A65 
 2574      00
 2575              	.LASF75:
 2576 006e 5F666C61 		.ascii	"_flags\000"
 2576      677300
 2577              	.LASF52:
 2578 0075 5F657272 		.ascii	"_errno\000"
 2578      6E6F00
 2579              	.LASF8:
 2580 007c 5F4C4F43 		.ascii	"_LOCK_RECURSIVE_T\000"
 2580      4B5F5245 
 2580      43555253 
 2580      4956455F 
 2580      5400
 2581              	.LASF114:
 2582 008e 5F6D6272 		.ascii	"_mbrtowc_state\000"
 2582      746F7763 
 2582      5F737461 
 2582      746500
 2583              	.LASF80:
 2584 009d 5F726561 		.ascii	"_read\000"
 2584      6400
 2585              	.LASF113:
 2586 00a3 5F6D6272 		.ascii	"_mbrlen_state\000"
 2586      6C656E5F 
 2586      73746174 
ARM GAS  /tmp/cczHDNsg.s 			page 48


 2586      6500
 2587              	.LASF54:
 2588 00b1 5F737464 		.ascii	"_stdout\000"
 2588      6F757400 
 2589              	.LASF14:
 2590 00b9 5F66706F 		.ascii	"_fpos_t\000"
 2590      735F7400 
 2591              	.LASF46:
 2592 00c1 5F666E73 		.ascii	"_fns\000"
 2592      00
 2593              	.LASF79:
 2594 00c6 5F636F6F 		.ascii	"_cookie\000"
 2594      6B696500 
 2595              	.LASF28:
 2596 00ce 5F426967 		.ascii	"_Bigint\000"
 2596      696E7400 
 2597              	.LASF36:
 2598 00d6 5F5F746D 		.ascii	"__tm_wday\000"
 2598      5F776461 
 2598      7900
 2599              	.LASF102:
 2600 00e0 5F726573 		.ascii	"_result\000"
 2600      756C7400 
 2601              	.LASF120:
 2602 00e8 696E6F5F 		.ascii	"ino_t\000"
 2602      7400
 2603              	.LASF32:
 2604 00ee 5F5F746D 		.ascii	"__tm_hour\000"
 2604      5F686F75 
 2604      7200
 2605              	.LASF146:
 2606 00f8 5F726561 		.ascii	"_read_r\000"
 2606      645F7200 
 2607              	.LASF18:
 2608 0100 5F5F636F 		.ascii	"__count\000"
 2608      756E7400 
 2609              	.LASF31:
 2610 0108 5F5F746D 		.ascii	"__tm_min\000"
 2610      5F6D696E 
 2610      00
 2611              	.LASF71:
 2612 0111 5F5F7366 		.ascii	"__sf\000"
 2612      00
 2613              	.LASF96:
 2614 0116 5F72616E 		.ascii	"_rand48\000"
 2614      64343800 
 2615              	.LASF103:
 2616 011e 5F726573 		.ascii	"_result_k\000"
 2616      756C745F 
 2616      6B00
 2617              	.LASF6:
 2618 0128 6C6F6E67 		.ascii	"long long unsigned int\000"
 2618      206C6F6E 
 2618      6720756E 
 2618      7369676E 
 2618      65642069 
 2619              	.LASF143:
ARM GAS  /tmp/cczHDNsg.s 			page 49


 2620 013f 73745F62 		.ascii	"st_blocks\000"
 2620      6C6F636B 
 2620      7300
 2621              	.LASF67:
 2622 0149 5F617363 		.ascii	"_asctime_buf\000"
 2622      74696D65 
 2622      5F627566 
 2622      00
 2623              	.LASF74:
 2624 0156 5F5F7346 		.ascii	"__sFILE\000"
 2624      494C4500 
 2625              	.LASF27:
 2626 015e 5F776473 		.ascii	"_wds\000"
 2626      00
 2627              	.LASF150:
 2628 0163 5F736272 		.ascii	"_sbrk_r\000"
 2628      6B5F7200 
 2629              	.LASF138:
 2630 016b 73745F6D 		.ascii	"st_mtime\000"
 2630      74696D65 
 2630      00
 2631              	.LASF92:
 2632 0174 5F5F4649 		.ascii	"__FILE\000"
 2632      4C4500
 2633              	.LASF87:
 2634 017b 5F6F6666 		.ascii	"_offset\000"
 2634      73657400 
 2635              	.LASF154:
 2636 0183 2E2E2F63 		.ascii	"../chibios/os/various/syscalls.c\000"
 2636      68696269 
 2636      6F732F6F 
 2636      732F7661 
 2636      72696F75 
 2637              	.LASF127:
 2638 01a4 73746174 		.ascii	"stat\000"
 2638      00
 2639              	.LASF57:
 2640 01a9 5F656D65 		.ascii	"_emergency\000"
 2640      7267656E 
 2640      637900
 2641              	.LASF128:
 2642 01b4 73745F64 		.ascii	"st_dev\000"
 2642      657600
 2643              	.LASF7:
 2644 01bb 73697A65 		.ascii	"size_t\000"
 2644      5F7400
 2645              	.LASF30:
 2646 01c2 5F5F746D 		.ascii	"__tm_sec\000"
 2646      5F736563 
 2646      00
 2647              	.LASF37:
 2648 01cb 5F5F746D 		.ascii	"__tm_yday\000"
 2648      5F796461 
 2648      7900
 2649              	.LASF56:
 2650 01d5 5F696E63 		.ascii	"_inc\000"
 2650      00
ARM GAS  /tmp/cczHDNsg.s 			page 50


 2651              	.LASF45:
 2652 01da 5F696E64 		.ascii	"_ind\000"
 2652      00
 2653              	.LASF133:
 2654 01df 73745F67 		.ascii	"st_gid\000"
 2654      696400
 2655              	.LASF24:
 2656 01e6 5F6E6578 		.ascii	"_next\000"
 2656      7400
 2657              	.LASF130:
 2658 01ec 73745F6D 		.ascii	"st_mode\000"
 2658      6F646500 
 2659              	.LASF115:
 2660 01f4 5F6D6273 		.ascii	"_mbsrtowcs_state\000"
 2660      72746F77 
 2660      63735F73 
 2660      74617465 
 2660      00
 2661              	.LASF131:
 2662 0205 73745F6E 		.ascii	"st_nlink\000"
 2662      6C696E6B 
 2662      00
 2663              	.LASF152:
 2664 020e 5F667374 		.ascii	"_fstat_r\000"
 2664      61745F72 
 2664      00
 2665              	.LASF151:
 2666 0217 696E6372 		.ascii	"incr\000"
 2666      00
 2667              	.LASF19:
 2668 021c 5F5F7661 		.ascii	"__value\000"
 2668      6C756500 
 2669              	.LASF104:
 2670 0224 5F703573 		.ascii	"_p5s\000"
 2670      00
 2671              	.LASF117:
 2672 0229 5F776373 		.ascii	"_wcsrtombs_state\000"
 2672      72746F6D 
 2672      62735F73 
 2672      74617465 
 2672      00
 2673              	.LASF108:
 2674 023a 5F6D626C 		.ascii	"_mblen_state\000"
 2674      656E5F73 
 2674      74617465 
 2674      00
 2675              	.LASF91:
 2676 0247 63686172 		.ascii	"char\000"
 2676      00
 2677              	.LASF33:
 2678 024c 5F5F746D 		.ascii	"__tm_mday\000"
 2678      5F6D6461 
 2678      7900
 2679              	.LASF68:
 2680 0256 5F736967 		.ascii	"_sig_func\000"
 2680      5F66756E 
 2680      6300
ARM GAS  /tmp/cczHDNsg.s 			page 51


 2681              	.LASF153:
 2682 0260 474E5520 		.ascii	"GNU C 4.5.2\000"
 2682      4320342E 
 2682      352E3200 
 2683              	.LASF132:
 2684 026c 73745F75 		.ascii	"st_uid\000"
 2684      696400
 2685              	.LASF21:
 2686 0273 5F666C6F 		.ascii	"_flock_t\000"
 2686      636B5F74 
 2686      00
 2687              	.LASF136:
 2688 027c 73745F61 		.ascii	"st_atime\000"
 2688      74696D65 
 2688      00
 2689              	.LASF145:
 2690 0285 66696C65 		.ascii	"file\000"
 2690      00
 2691              	.LASF16:
 2692 028a 5F5F7763 		.ascii	"__wch\000"
 2692      6800
 2693              	.LASF95:
 2694 0290 5F696F62 		.ascii	"_iobs\000"
 2694      7300
 2695              	.LASF47:
 2696 0296 5F6F6E5F 		.ascii	"_on_exit_args_ptr\000"
 2696      65786974 
 2696      5F617267 
 2696      735F7074 
 2696      7200
 2697              	.LASF118:
 2698 02a8 74696D65 		.ascii	"time_t\000"
 2698      5F7400
 2699              	.LASF83:
 2700 02af 5F636C6F 		.ascii	"_close\000"
 2700      736500
 2701              	.LASF58:
 2702 02b6 5F5F7364 		.ascii	"__sdidinit\000"
 2702      6964696E 
 2702      697400
 2703              	.LASF129:
 2704 02c1 73745F69 		.ascii	"st_ino\000"
 2704      6E6F00
 2705              	.LASF53:
 2706 02c8 5F737464 		.ascii	"_stdin\000"
 2706      696E00
 2707              	.LASF62:
 2708 02cf 5F67616D 		.ascii	"_gamma_signgam\000"
 2708      6D615F73 
 2708      69676E67 
 2708      616D00
 2709              	.LASF5:
 2710 02de 6C6F6E67 		.ascii	"long long int\000"
 2710      206C6F6E 
 2710      6720696E 
 2710      7400
 2711              	.LASF49:
ARM GAS  /tmp/cczHDNsg.s 			page 52


 2712 02ec 5F626173 		.ascii	"_base\000"
 2712      6500
 2713              	.LASF105:
 2714 02f2 5F667265 		.ascii	"_freelist\000"
 2714      656C6973 
 2714      7400
 2715              	.LASF11:
 2716 02fc 5F5F6465 		.ascii	"__dev_t\000"
 2716      765F7400 
 2717              	.LASF98:
 2718 0304 5F6D756C 		.ascii	"_mult\000"
 2718      7400
 2719              	.LASF22:
 2720 030a 5F5F554C 		.ascii	"__ULong\000"
 2720      6F6E6700 
 2721              	.LASF116:
 2722 0312 5F776372 		.ascii	"_wcrtomb_state\000"
 2722      746F6D62 
 2722      5F737461 
 2722      746500
 2723              	.LASF123:
 2724 0321 7569645F 		.ascii	"uid_t\000"
 2724      7400
 2725              	.LASF122:
 2726 0327 6465765F 		.ascii	"dev_t\000"
 2726      7400
 2727              	.LASF76:
 2728 032d 5F66696C 		.ascii	"_file\000"
 2728      6500
 2729              	.LASF155:
 2730 0333 2F686F6D 		.ascii	"/home/z80/projects/dfu.git/firmware-pawn-dev/firmwa"
 2730      652F7A38 
 2730      302F7072 
 2730      6F6A6563 
 2730      74732F64 
 2731 0366 726500   		.ascii	"re\000"
 2732              	.LASF61:
 2733 0369 5F5F636C 		.ascii	"__cleanup\000"
 2733      65616E75 
 2733      7000
 2734              	.LASF20:
 2735 0373 5F6D6273 		.ascii	"_mbstate_t\000"
 2735      74617465 
 2735      5F7400
 2736              	.LASF101:
 2737 037e 5F6D7072 		.ascii	"_mprec\000"
 2737      656300
 2738              	.LASF38:
 2739 0385 5F5F746D 		.ascii	"__tm_isdst\000"
 2739      5F697364 
 2739      737400
 2740              	.LASF137:
 2741 0390 73745F73 		.ascii	"st_spare1\000"
 2741      70617265 
 2741      3100
 2742              	.LASF139:
 2743 039a 73745F73 		.ascii	"st_spare2\000"
ARM GAS  /tmp/cczHDNsg.s 			page 53


 2743      70617265 
 2743      3200
 2744              	.LASF141:
 2745 03a4 73745F73 		.ascii	"st_spare3\000"
 2745      70617265 
 2745      3300
 2746              	.LASF144:
 2747 03ae 73745F73 		.ascii	"st_spare4\000"
 2747      70617265 
 2747      3400
 2748              	.LASF149:
 2749 03b8 5F636C6F 		.ascii	"_close_r\000"
 2749      73655F72 
 2749      00
 2750              	.LASF34:
 2751 03c1 5F5F746D 		.ascii	"__tm_mon\000"
 2751      5F6D6F6E 
 2751      00
 2752              	.LASF147:
 2753 03ca 5F6C7365 		.ascii	"_lseek_r\000"
 2753      656B5F72 
 2753      00
 2754              	.LASF13:
 2755 03d3 5F5F6769 		.ascii	"__gid_t\000"
 2755      645F7400 
 2756              	.LASF69:
 2757 03db 5F617465 		.ascii	"_atexit0\000"
 2757      78697430 
 2757      00
 2758              	.LASF124:
 2759 03e4 6769645F 		.ascii	"gid_t\000"
 2759      7400
 2760              	.LASF44:
 2761 03ea 5F617465 		.ascii	"_atexit\000"
 2761      78697400 
 2762              	.LASF89:
 2763 03f2 5F6D6273 		.ascii	"_mbstate\000"
 2763      74617465 
 2763      00
 2764              	.LASF3:
 2765 03fb 73686F72 		.ascii	"short int\000"
 2765      7420696E 
 2765      7400
 2766              	.LASF10:
 2767 0405 6C6F6E67 		.ascii	"long int\000"
 2767      20696E74 
 2767      00
 2768              	.LASF26:
 2769 040e 5F736967 		.ascii	"_sign\000"
 2769      6E00
 2770              	.LASF60:
 2771 0414 5F637572 		.ascii	"_current_locale\000"
 2771      72656E74 
 2771      5F6C6F63 
 2771      616C6500 
 2772              	.LASF78:
 2773 0424 5F646174 		.ascii	"_data\000"
ARM GAS  /tmp/cczHDNsg.s 			page 54


 2773      6100
 2774              	.LASF17:
 2775 042a 5F5F7763 		.ascii	"__wchb\000"
 2775      686200
 2776              	.LASF35:
 2777 0431 5F5F746D 		.ascii	"__tm_year\000"
 2777      5F796561 
 2777      7200
 2778              	.LASF106:
 2779 043b 5F6D6973 		.ascii	"_misc_reent\000"
 2779      635F7265 
 2779      656E7400 
 2780              	.LASF66:
 2781 0447 5F6C6F63 		.ascii	"_localtime_buf\000"
 2781      616C7469 
 2781      6D655F62 
 2781      756600
 2782              	.LASF12:
 2783 0456 5F5F7569 		.ascii	"__uid_t\000"
 2783      645F7400 
 2784              	.LASF140:
 2785 045e 73745F63 		.ascii	"st_ctime\000"
 2785      74696D65 
 2785      00
 2786              	.LASF63:
 2787 0467 5F637674 		.ascii	"_cvtlen\000"
 2787      6C656E00 
 2788              	.LASF25:
 2789 046f 5F6D6178 		.ascii	"_maxwds\000"
 2789      77647300 
 2790              	.LASF111:
 2791 0477 5F6C3634 		.ascii	"_l64a_buf\000"
 2791      615F6275 
 2791      6600
 2792              	.LASF59:
 2793 0481 5F637572 		.ascii	"_current_category\000"
 2793      72656E74 
 2793      5F636174 
 2793      65676F72 
 2793      7900
 2794              	.LASF119:
 2795 0493 63616464 		.ascii	"caddr_t\000"
 2795      725F7400 
 2796              	.LASF86:
 2797 049b 5F626C6B 		.ascii	"_blksize\000"
 2797      73697A65 
 2797      00
 2798              	.LASF29:
 2799 04a4 5F5F746D 		.ascii	"__tm\000"
 2799      00
 2800              	.LASF88:
 2801 04a9 5F6C6F63 		.ascii	"_lock\000"
 2801      6B00
 2802              	.LASF23:
 2803 04af 6C6F6E67 		.ascii	"long unsigned int\000"
 2803      20756E73 
 2803      69676E65 
ARM GAS  /tmp/cczHDNsg.s 			page 55


 2803      6420696E 
 2803      7400
 2804              	.LASF94:
 2805 04c1 5F6E696F 		.ascii	"_niobs\000"
 2805      627300
 2806              	.LASF15:
 2807 04c8 77696E74 		.ascii	"wint_t\000"
 2807      5F7400
 2808              	.LASF41:
 2809 04cf 5F64736F 		.ascii	"_dso_handle\000"
 2809      5F68616E 
 2809      646C6500 
 2810              	.LASF126:
 2811 04db 6E6C696E 		.ascii	"nlink_t\000"
 2811      6B5F7400 
 2812              	.LASF64:
 2813 04e3 5F637674 		.ascii	"_cvtbuf\000"
 2813      62756600 
 2814              	.LASF2:
 2815 04eb 756E7369 		.ascii	"unsigned char\000"
 2815      676E6564 
 2815      20636861 
 2815      7200
 2816              	.LASF112:
 2817 04f9 5F676574 		.ascii	"_getdate_err\000"
 2817      64617465 
 2817      5F657272 
 2817      00
 2818              	.LASF99:
 2819 0506 5F616464 		.ascii	"_add\000"
 2819      00
 2820              	.LASF48:
 2821 050b 5F5F7362 		.ascii	"__sbuf\000"
 2821      756600
 2822              	.LASF135:
 2823 0512 73745F73 		.ascii	"st_size\000"
 2823      697A6500 
 2824              	.LASF93:
 2825 051a 5F676C75 		.ascii	"_glue\000"
 2825      6500
 2826              	.LASF70:
 2827 0520 5F5F7367 		.ascii	"__sglue\000"
 2827      6C756500 
 2828              	.LASF107:
 2829 0528 5F737472 		.ascii	"_strtok_last\000"
 2829      746F6B5F 
 2829      6C617374 
 2829      00
 2830              	.LASF110:
 2831 0535 5F6D6274 		.ascii	"_mbtowc_state\000"
 2831      6F77635F 
 2831      73746174 
 2831      6500
 2832              	.LASF40:
 2833 0543 5F666E61 		.ascii	"_fnargs\000"
 2833      72677300 
 2834              	.LASF1:
ARM GAS  /tmp/cczHDNsg.s 			page 56


 2835 054b 7369676E 		.ascii	"signed char\000"
 2835      65642063 
 2835      68617200 
 2836              	.LASF125:
 2837 0557 6D6F6465 		.ascii	"mode_t\000"
 2837      5F7400
 2838              	.LASF51:
 2839 055e 5F726565 		.ascii	"_reent\000"
 2839      6E7400
 2840              	.LASF121:
 2841 0565 6F66665F 		.ascii	"off_t\000"
 2841      7400
 2842              	.LASF4:
 2843 056b 73686F72 		.ascii	"short unsigned int\000"
 2843      7420756E 
 2843      7369676E 
 2843      65642069 
 2843      6E7400
 2844              	.LASF42:
 2845 057e 5F666E74 		.ascii	"_fntypes\000"
 2845      79706573 
 2845      00
 2846              	.LASF50:
 2847 0587 5F73697A 		.ascii	"_size\000"
 2847      6500
 2848              	.LASF9:
 2849 058d 5F6F6666 		.ascii	"_off_t\000"
 2849      5F7400
 2850              	.LASF85:
 2851 0594 5F6E6275 		.ascii	"_nbuf\000"
 2851      6600
 2852              	.LASF134:
 2853 059a 73745F72 		.ascii	"st_rdev\000"
 2853      64657600 
 2854              	.LASF90:
 2855 05a2 5F666C61 		.ascii	"_flags2\000"
 2855      67733200 
 2856              	.LASF43:
 2857 05aa 5F69735F 		.ascii	"_is_cxa\000"
 2857      63786100 
 2858              	.LASF97:
 2859 05b2 5F736565 		.ascii	"_seed\000"
 2859      6400
 2860              	.LASF100:
 2861 05b8 5F72616E 		.ascii	"_rand_next\000"
 2861      645F6E65 
 2861      787400
 2862              	.LASF82:
 2863 05c3 5F736565 		.ascii	"_seek\000"
 2863      6B00
 2864              	.LASF55:
 2865 05c9 5F737464 		.ascii	"_stderr\000"
 2865      65727200 
 2866              	.LASF84:
 2867 05d1 5F756275 		.ascii	"_ubuf\000"
 2867      6600
 2868              		.ident	"GCC: (Sourcery G++ Lite 2011.03-42) 4.5.2"
ARM GAS  /tmp/cczHDNsg.s 			page 57


ARM GAS  /tmp/cczHDNsg.s 			page 58


DEFINED SYMBOLS
                            *ABS*:00000000 syscalls.c
     /tmp/cczHDNsg.s:24     .text._read_r:00000000 $t
     /tmp/cczHDNsg.s:29     .text._read_r:00000000 _read_r
     /tmp/cczHDNsg.s:50     .text._lseek_r:00000000 $t
     /tmp/cczHDNsg.s:55     .text._lseek_r:00000000 _lseek_r
     /tmp/cczHDNsg.s:71     .text._write_r:00000000 $t
     /tmp/cczHDNsg.s:76     .text._write_r:00000000 _write_r
     /tmp/cczHDNsg.s:92     .text._close_r:00000000 $t
     /tmp/cczHDNsg.s:97     .text._close_r:00000000 _close_r
     /tmp/cczHDNsg.s:113    .text._sbrk_r:00000000 $t
     /tmp/cczHDNsg.s:118    .text._sbrk_r:00000000 _sbrk_r
     /tmp/cczHDNsg.s:162    .text._sbrk_r:00000020 $d
     /tmp/cczHDNsg.s:167    .text._fstat_r:00000000 $t
     /tmp/cczHDNsg.s:172    .text._fstat_r:00000000 _fstat_r
     /tmp/cczHDNsg.s:206    .text._isatty_r:00000000 $t
     /tmp/cczHDNsg.s:211    .text._isatty_r:00000000 _isatty_r
                     .debug_frame:00000010 $d

UNDEFINED SYMBOLS
chDbgPanic
chCoreAlloc
memset
