ARM GAS  /tmp/cczHDNsg.s 			page 1


   1              		.syntax unified
   2              		.cpu cortex-m3
   3              		.fpu softvfp
   4              		.eabi_attribute 20, 1
   5              		.eabi_attribute 21, 1
   6              		.eabi_attribute 23, 3
   7              		.eabi_attribute 24, 1
   8              		.eabi_attribute 25, 1
   9              		.eabi_attribute 26, 1
  10              		.eabi_attribute 30, 4
  11              		.eabi_attribute 18, 4
  12              		.thumb
  13              		.file	"syscalls.c"
  20 0000 D9010000 		.text
  20      02004501 
  20      00000201 
  20      FB0E0D00 
  20      01010101 
  21              	.Ltext0:
  22              		.cfi_sections	.debug_frame
  23              		.section	.text._read_r,"ax",%progbits
  24              		.align	1
  25              		.global	_read_r
  26              		.thumb
  27              		.thumb_func
  28              		.type	_read_r, %function
  29              	_read_r:
  30              	.LFB0:
  31              		.file 1 "../chibios/os/various/syscalls.c"
  32              		.loc 1 82 0
  33              		.cfi_startproc
  34              		@ args = 0, pretend = 0, frame = 0
  35              		@ frame_needed = 0, uses_anonymous_args = 0
  36              		@ link register save eliminated.
  37              	.LVL0:
  38              		.loc 1 95 0
  39 0000 1623     		movs	r3, #22
  40              	.LVL1:
  41 0002 0360     		str	r3, [r0, #0]
  42              		.loc 1 98 0
  43 0004 4FF0FF30 		mov	r0, #-1
  44              	.LVL2:
  45 0008 7047     		bx	lr
  46              		.cfi_endproc
  47              	.LFE0:
  48              		.size	_read_r, .-_read_r
  49              		.section	.text._lseek_r,"ax",%progbits
  50              		.align	1
  51              		.global	_lseek_r
  52              		.thumb
  53              		.thumb_func
ARM GAS  /tmp/cczHDNsg.s 			page 2


  54              		.type	_lseek_r, %function
  55              	_lseek_r:
  56              	.LFB1:
  57              		.loc 1 103 0
  58              		.cfi_startproc
  59              		@ args = 0, pretend = 0, frame = 0
  60              		@ frame_needed = 0, uses_anonymous_args = 0
  61              		@ link register save eliminated.
  62              	.LVL3:
  63              		.loc 1 110 0
  64 0000 0020     		movs	r0, #0
  65              	.LVL4:
  66 0002 7047     		bx	lr
  67              		.cfi_endproc
  68              	.LFE1:
  69              		.size	_lseek_r, .-_lseek_r
  70              		.section	.text._write_r,"ax",%progbits
  71              		.align	1
  72              		.global	_write_r
  73              		.thumb
  74              		.thumb_func
  75              		.type	_write_r, %function
  76              	_write_r:
  77              	.LFB2:
  78              		.loc 1 115 0
  79              		.cfi_startproc
  80              		@ args = 0, pretend = 0, frame = 0
  81              		@ frame_needed = 0, uses_anonymous_args = 0
  82              		@ link register save eliminated.
  83              	.LVL5:
  84              		.loc 1 127 0
  85 0000 1846     		mov	r0, r3
  86              	.LVL6:
  87 0002 7047     		bx	lr
  88              		.cfi_endproc
  89              	.LFE2:
  90              		.size	_write_r, .-_write_r
  91              		.section	.text._close_r,"ax",%progbits
  92              		.align	1
  93              		.global	_close_r
  94              		.thumb
  95              		.thumb_func
  96              		.type	_close_r, %function
  97              	_close_r:
  98              	.LFB3:
  99              		.loc 1 132 0
 100              		.cfi_startproc
 101              		@ args = 0, pretend = 0, frame = 0
 102              		@ frame_needed = 0, uses_anonymous_args = 0
 103              		@ link register save eliminated.
 104              	.LVL7:
 105              		.loc 1 137 0
 106 0000 0020     		movs	r0, #0
 107              	.LVL8:
 108 0002 7047     		bx	lr
 109              		.cfi_endproc
 110              	.LFE3:
ARM GAS  /tmp/cczHDNsg.s 			page 3


 111              		.size	_close_r, .-_close_r
 112              		.section	.text._sbrk_r,"ax",%progbits
 113              		.align	1
 114              		.global	_sbrk_r
 115              		.thumb
 116              		.thumb_func
 117              		.type	_sbrk_r, %function
 118              	_sbrk_r:
 119              	.LFB4:
 120              		.loc 1 142 0
 121              		.cfi_startproc
 122              		@ args = 0, pretend = 0, frame = 0
 123              		@ frame_needed = 0, uses_anonymous_args = 0
 124              	.LVL9:
 125 0000 38B5     		push	{r3, r4, r5, lr}
 126              	.LCFI0:
 127              		.cfi_def_cfa_offset 16
 128              		.loc 1 145 0
 129 0002 0D1E     		subs	r5, r1, #0
 130              		.cfi_offset 14, -4
 131              		.cfi_offset 5, -8
 132              		.cfi_offset 4, -12
 133              		.cfi_offset 3, -16
 134              		.loc 1 142 0
 135 0004 0446     		mov	r4, r0
 136              		.loc 1 145 0
 137 0006 02DC     		bgt	.L6
 138              		.loc 1 145 0 is_stmt 0 discriminator 1
 139 0008 0548     		ldr	r0, .L9
 140              	.LVL10:
 141 000a FFF7FEFF 		bl	chDbgPanic
 142              	.LVL11:
 143              	.L6:
 144              		.loc 1 148 0 is_stmt 1
 145 000e 2846     		mov	r0, r5
 146 0010 FFF7FEFF 		bl	chCoreAlloc
 147              	.LVL12:
 148              		.loc 1 149 0
 149 0014 10B9     		cbnz	r0, .L8
 150              		.loc 1 150 0
 151 0016 0C23     		movs	r3, #12
 152 0018 2360     		str	r3, [r4, #0]
 153              		.loc 1 151 0
 154 001a 0138     		subs	r0, r0, #1
 155              	.LVL13:
 156              	.L8:
 157              		.loc 1 154 0
 158 001c 38BD     		pop	{r3, r4, r5, pc}
 159              	.L10:
 160 001e 00BF     		.align	2
 161              	.L9:
 162 0020 00000000 		.word	.LC0
 163              		.cfi_endproc
 164              	.LFE4:
 165              		.size	_sbrk_r, .-_sbrk_r
 166              		.section	.text._fstat_r,"ax",%progbits
 167              		.align	1
ARM GAS  /tmp/cczHDNsg.s 			page 4


 168              		.global	_fstat_r
 169              		.thumb
 170              		.thumb_func
 171              		.type	_fstat_r, %function
 172              	_fstat_r:
 173              	.LFB5:
 174              		.loc 1 159 0
 175              		.cfi_startproc
 176              		@ args = 0, pretend = 0, frame = 0
 177              		@ frame_needed = 0, uses_anonymous_args = 0
 178              	.LVL14:
 179 0000 10B5     		push	{r4, lr}
 180              	.LCFI1:
 181              		.cfi_def_cfa_offset 8
 182              		.loc 1 163 0
 183 0002 1046     		mov	r0, r2
 184              	.LVL15:
 185              		.loc 1 159 0
 186 0004 1446     		mov	r4, r2
 187              		.cfi_offset 14, -4
 188              		.cfi_offset 4, -8
 189              		.loc 1 163 0
 190 0006 0021     		movs	r1, #0
 191              	.LVL16:
 192 0008 3C22     		movs	r2, #60
 193              	.LVL17:
 194 000a FFF7FEFF 		bl	memset
 195              	.LVL18:
 196              		.loc 1 164 0
 197 000e 4FF40053 		mov	r3, #8192
 198 0012 6360     		str	r3, [r4, #4]
 199              		.loc 1 166 0
 200 0014 0020     		movs	r0, #0
 201 0016 10BD     		pop	{r4, pc}
 202              		.cfi_endproc
 203              	.LFE5:
 204              		.size	_fstat_r, .-_fstat_r
 205              		.section	.text._isatty_r,"ax",%progbits
 206              		.align	1
 207              		.global	_isatty_r
 208              		.thumb
 209              		.thumb_func
 210              		.type	_isatty_r, %function
 211              	_isatty_r:
 212              	.LFB6:
 213              		.loc 1 171 0
 214              		.cfi_startproc
 215              		@ args = 0, pretend = 0, frame = 0
 216              		@ frame_needed = 0, uses_anonymous_args = 0
 217              		@ link register save eliminated.
 218              	.LVL19:
 219              		.loc 1 176 0
 220 0000 0120     		movs	r0, #1
 221              	.LVL20:
 222 0002 7047     		bx	lr
 223              		.cfi_endproc
 224              	.LFE6:
ARM GAS  /tmp/cczHDNsg.s 			page 5


 225              		.size	_isatty_r, .-_isatty_r
 226              		.section	.rodata.str1.1,"aMS",%progbits,1
 227              	.LC0:
 228 0000 225F7362 		.ascii	"\"_sbrk_r\"()\000"
 228      726B5F72 
 228      22282900 
 229              		.text
 230              	.Letext0: