ARM GAS  /tmp/ccH1AJWB.s 			page 1


   1              		.syntax unified
   2              		.cpu cortex-m3
   3              		.fpu softvfp
   4              		.eabi_attribute 20, 1
   5              		.eabi_attribute 21, 1
   6              		.eabi_attribute 23, 3
   7              		.eabi_attribute 24, 1
   8              		.eabi_attribute 25, 1
   9              		.eabi_attribute 26, 1
  10              		.eabi_attribute 30, 4
  11              		.eabi_attribute 18, 4
  12              		.thumb
  13              		.file	"tm.c"
  14              		.section	.debug_abbrev,"",%progbits
  15              	.Ldebug_abbrev0:
  16              		.section	.debug_info,"",%progbits
  17              	.Ldebug_info0:
  18              		.section	.debug_line,"",%progbits
  19              	.Ldebug_line0:
  20 0000 CF010000 		.text
  20      02006D01 
  20      00000201 
  20      FB0E0D00 
  20      01010101 
  21              	.Ltext0:
  22              		.cfi_sections	.debug_frame
  23              		.section	.text.tm_start,"ax",%progbits
  24              		.align	1
  25              		.thumb
  26              		.thumb_func
  27              		.type	tm_start, %function
  28              	tm_start:
  29              	.LFB55:
  30              		.file 1 "../chibios/os/hal/src/tm.c"
  31              		.loc 1 69 0
  32              		.cfi_startproc
  33              		@ args = 0, pretend = 0, frame = 0
  34              		@ frame_needed = 0, uses_anonymous_args = 0
  35              		@ link register save eliminated.
  36              	.LVL0:
  37              		.loc 1 71 0
  38 0000 014B     		ldr	r3, .L2
  39 0002 5B68     		ldr	r3, [r3, #4]
  40 0004 8360     		str	r3, [r0, #8]
  41              		.loc 1 72 0
  42 0006 7047     		bx	lr
  43              	.L3:
  44              		.align	2
  45              	.L2:
  46 0008 001000E0 		.word	-536866816
  47              		.cfi_endproc
  48              	.LFE55:
  49              		.size	tm_start, .-tm_start
  50              		.section	.text.tm_stop,"ax",%progbits
  51              		.align	1
  52              		.thumb
  53              		.thumb_func
ARM GAS  /tmp/ccH1AJWB.s 			page 2


  54              		.type	tm_stop, %function
  55              	tm_stop:
  56              	.LFB56:
  57              		.loc 1 81 0
  58              		.cfi_startproc
  59              		@ args = 0, pretend = 0, frame = 0
  60              		@ frame_needed = 0, uses_anonymous_args = 0
  61              		@ link register save eliminated.
  62              	.LVL1:
  63              		.loc 1 83 0
  64 0000 084B     		ldr	r3, .L7
  65 0002 5A68     		ldr	r2, [r3, #4]
  66              	.LVL2:
  67              		.loc 1 84 0
  68 0004 8368     		ldr	r3, [r0, #8]
  69 0006 D31A     		subs	r3, r2, r3
  70 0008 074A     		ldr	r2, .L7+4
  71              	.LVL3:
  72 000a 1268     		ldr	r2, [r2, #0]
  73 000c 9B1A     		subs	r3, r3, r2
  74              		.loc 1 85 0
  75 000e C268     		ldr	r2, [r0, #12]
  76              		.loc 1 84 0
  77 0010 8360     		str	r3, [r0, #8]
  78              		.loc 1 85 0
  79 0012 9342     		cmp	r3, r2
  80 0014 01D9     		bls	.L5
  81              		.loc 1 86 0
  82 0016 C360     		str	r3, [r0, #12]
  83 0018 7047     		bx	lr
  84              	.L5:
  85              		.loc 1 87 0
  86 001a 0269     		ldr	r2, [r0, #16]
  87 001c 9342     		cmp	r3, r2
  88              		.loc 1 88 0
  89 001e 38BF     		it	cc
  90 0020 0361     		strcc	r3, [r0, #16]
  91 0022 7047     		bx	lr
  92              	.L8:
  93              		.align	2
  94              	.L7:
  95 0024 001000E0 		.word	-536866816
  96 0028 00000000 		.word	.LANCHOR0
  97              		.cfi_endproc
  98              	.LFE56:
  99              		.size	tm_stop, .-tm_stop
 100              		.section	.text.tmObjectInit,"ax",%progbits
 101              		.align	1
 102              		.global	tmObjectInit
 103              		.thumb
 104              		.thumb_func
 105              		.type	tmObjectInit, %function
 106              	tmObjectInit:
 107              	.LFB58:
 108              		.loc 1 124 0
 109              		.cfi_startproc
 110              		@ args = 0, pretend = 0, frame = 0
ARM GAS  /tmp/ccH1AJWB.s 			page 3


 111              		@ frame_needed = 0, uses_anonymous_args = 0
 112              		@ link register save eliminated.
 113              	.LVL4:
 114              		.loc 1 126 0
 115 0000 044B     		ldr	r3, .L10
 116 0002 0360     		str	r3, [r0, #0]
 117              		.loc 1 127 0
 118 0004 044B     		ldr	r3, .L10+4
 119 0006 4360     		str	r3, [r0, #4]
 120              		.loc 1 128 0
 121 0008 0023     		movs	r3, #0
 122 000a 8360     		str	r3, [r0, #8]
 123              		.loc 1 129 0
 124 000c C360     		str	r3, [r0, #12]
 125              		.loc 1 130 0
 126 000e 013B     		subs	r3, r3, #1
 127 0010 0361     		str	r3, [r0, #16]
 128              		.loc 1 131 0
 129 0012 7047     		bx	lr
 130              	.L11:
 131              		.align	2
 132              	.L10:
 133 0014 00000000 		.word	tm_start
 134 0018 00000000 		.word	tm_stop
 135              		.cfi_endproc
 136              	.LFE58:
 137              		.size	tmObjectInit, .-tmObjectInit
 138              		.section	.text.tmInit,"ax",%progbits
 139              		.align	1
 140              		.global	tmInit
 141              		.thumb
 142              		.thumb_func
 143              		.type	tmInit, %function
 144              	tmInit:
 145              	.LFB57:
 146              		.loc 1 104 0
 147              		.cfi_startproc
 148              		@ args = 0, pretend = 0, frame = 24
 149              		@ frame_needed = 0, uses_anonymous_args = 0
 150 0000 10B5     		push	{r4, lr}
 151              	.LCFI0:
 152              		.cfi_def_cfa_offset 8
 153              		.loc 1 110 0
 154 0002 084C     		ldr	r4, .L13
 155              		.cfi_offset 14, -4
 156              		.cfi_offset 4, -8
 157              		.loc 1 104 0
 158 0004 86B0     		sub	sp, sp, #24
 159              	.LCFI1:
 160              		.cfi_def_cfa_offset 32
 161              		.loc 1 110 0
 162 0006 0023     		movs	r3, #0
 163              		.loc 1 111 0
 164 0008 01A8     		add	r0, sp, #4
 165              		.loc 1 110 0
 166 000a 2360     		str	r3, [r4, #0]
 167              		.loc 1 111 0
ARM GAS  /tmp/ccH1AJWB.s 			page 4


 168 000c FFF7FEFF 		bl	tmObjectInit
 169              		.loc 1 112 0
 170 0010 01A8     		add	r0, sp, #4
 171 0012 019B     		ldr	r3, [sp, #4]
 172 0014 9847     		blx	r3
 173              		.loc 1 113 0
 174 0016 029B     		ldr	r3, [sp, #8]
 175 0018 01A8     		add	r0, sp, #4
 176 001a 9847     		blx	r3
 177              		.loc 1 114 0
 178 001c 039B     		ldr	r3, [sp, #12]
 179 001e 2360     		str	r3, [r4, #0]
 180              		.loc 1 115 0
 181 0020 06B0     		add	sp, sp, #24
 182 0022 10BD     		pop	{r4, pc}
 183              	.L14:
 184              		.align	2
 185              	.L13:
 186 0024 00000000 		.word	.LANCHOR0
 187              		.cfi_endproc
 188              	.LFE57:
 189              		.size	tmInit, .-tmInit
 190              		.section	.bss.measurement_offset,"aw",%nobits
 191              		.align	2
 192              		.set	.LANCHOR0,. + 0
 193              		.type	measurement_offset, %object
 194              		.size	measurement_offset, 4
 195              	measurement_offset:
 196 0000 00000000 		.space	4
 197              		.text
 198              	.Letext0:
 199              		.section	.debug_loc,"",%progbits
 200              	.Ldebug_loc0:
 201              	.LLST0:
 202 0000 04000000 		.4byte	.LVL2
 203 0004 0A000000 		.4byte	.LVL3
 204 0008 0100     		.2byte	0x1
 205 000a 52       		.byte	0x52
 206 000b 00000000 		.4byte	0x0
 207 000f 00000000 		.4byte	0x0
 208              	.LLST1:
 209 0013 00000000 		.4byte	.LFB57
 210 0017 02000000 		.4byte	.LCFI0
 211 001b 0200     		.2byte	0x2
 212 001d 7D       		.byte	0x7d
 213 001e 00       		.sleb128 0
 214 001f 02000000 		.4byte	.LCFI0
 215 0023 06000000 		.4byte	.LCFI1
 216 0027 0200     		.2byte	0x2
 217 0029 7D       		.byte	0x7d
 218 002a 08       		.sleb128 8
 219 002b 06000000 		.4byte	.LCFI1
 220 002f 28000000 		.4byte	.LFE57
 221 0033 0200     		.2byte	0x2
 222 0035 7D       		.byte	0x7d
 223 0036 20       		.sleb128 32
 224 0037 00000000 		.4byte	0x0
ARM GAS  /tmp/ccH1AJWB.s 			page 5


 225 003b 00000000 		.4byte	0x0
 226              		.file 2 "/home/z80/programs/code-sourcery/2011.03-42/bin/../lib/gcc/arm-none-eabi/4.5.2/../../../.
 227              		.file 3 "../chibios/os/ports/common/ARMCMx/nvic.h"
 228              		.file 4 "../chibios/os/hal/platforms/STM32F1xx/hal_lld.h"
 229              		.file 5 "../chibios/os/hal/include/tm.h"
 230              		.file 6 "../chibios/os/ports/common/ARMCMx/CMSIS/include/core_cm3.h"
 231              		.section	.debug_info
 232 0000 75020000 		.4byte	0x275
 233 0004 0200     		.2byte	0x2
 234 0006 00000000 		.4byte	.Ldebug_abbrev0
 235 000a 04       		.byte	0x4
 236 000b 01       		.uleb128 0x1
 237 000c 00000000 		.4byte	.LASF34
 238 0010 01       		.byte	0x1
 239 0011 AE000000 		.4byte	.LASF35
 240 0015 5A010000 		.4byte	.LASF36
 241 0019 00000000 		.4byte	0x0
 242 001d 00000000 		.4byte	0x0
 243 0021 00000000 		.4byte	.Ldebug_ranges0+0x0
 244 0025 00000000 		.4byte	.Ldebug_line0
 245 0029 02       		.uleb128 0x2
 246 002a 04       		.byte	0x4
 247 002b 05       		.byte	0x5
 248 002c 696E7400 		.ascii	"int\000"
 249 0030 03       		.uleb128 0x3
 250 0031 04       		.byte	0x4
 251 0032 07       		.byte	0x7
 252 0033 D6000000 		.4byte	.LASF0
 253 0037 03       		.uleb128 0x3
 254 0038 01       		.byte	0x1
 255 0039 06       		.byte	0x6
 256 003a 90010000 		.4byte	.LASF1
 257 003e 03       		.uleb128 0x3
 258 003f 01       		.byte	0x1
 259 0040 08       		.byte	0x8
 260 0041 44000000 		.4byte	.LASF2
 261 0045 03       		.uleb128 0x3
 262 0046 02       		.byte	0x2
 263 0047 05       		.byte	0x5
 264 0048 31010000 		.4byte	.LASF3
 265 004c 03       		.uleb128 0x3
 266 004d 02       		.byte	0x2
 267 004e 07       		.byte	0x7
 268 004f 7F000000 		.4byte	.LASF4
 269 0053 04       		.uleb128 0x4
 270 0054 08010000 		.4byte	.LASF6
 271 0058 02       		.byte	0x2
 272 0059 4F       		.byte	0x4f
 273 005a 5E000000 		.4byte	0x5e
 274 005e 03       		.uleb128 0x3
 275 005f 04       		.byte	0x4
 276 0060 05       		.byte	0x5
 277 0061 51010000 		.4byte	.LASF5
 278 0065 04       		.uleb128 0x4
 279 0066 48010000 		.4byte	.LASF7
 280 006a 02       		.byte	0x2
 281 006b 50       		.byte	0x50
ARM GAS  /tmp/ccH1AJWB.s 			page 6


 282 006c 70000000 		.4byte	0x70
 283 0070 03       		.uleb128 0x3
 284 0071 04       		.byte	0x4
 285 0072 07       		.byte	0x7
 286 0073 60000000 		.4byte	.LASF8
 287 0077 03       		.uleb128 0x3
 288 0078 08       		.byte	0x8
 289 0079 05       		.byte	0x5
 290 007a 10010000 		.4byte	.LASF9
 291 007e 03       		.uleb128 0x3
 292 007f 08       		.byte	0x8
 293 0080 07       		.byte	0x7
 294 0081 2D000000 		.4byte	.LASF10
 295 0085 05       		.uleb128 0x5
 296 0086 70000000 		.4byte	0x70
 297 008a 06       		.uleb128 0x6
 298 008b 20       		.byte	0x20
 299 008c 03       		.byte	0x3
 300 008d 0601     		.2byte	0x106
 301 008f 0C010000 		.4byte	0x10c
 302 0093 07       		.uleb128 0x7
 303 0094 FC000000 		.4byte	.LASF11
 304 0098 03       		.byte	0x3
 305 0099 0701     		.2byte	0x107
 306 009b 85000000 		.4byte	0x85
 307 009f 02       		.byte	0x2
 308 00a0 23       		.byte	0x23
 309 00a1 00       		.uleb128 0x0
 310 00a2 07       		.uleb128 0x7
 311 00a3 52000000 		.4byte	.LASF12
 312 00a7 03       		.byte	0x3
 313 00a8 0801     		.2byte	0x108
 314 00aa 85000000 		.4byte	0x85
 315 00ae 02       		.byte	0x2
 316 00af 23       		.byte	0x23
 317 00b0 04       		.uleb128 0x4
 318 00b1 07       		.uleb128 0x7
 319 00b2 92000000 		.4byte	.LASF13
 320 00b6 03       		.byte	0x3
 321 00b7 0901     		.2byte	0x109
 322 00b9 85000000 		.4byte	0x85
 323 00bd 02       		.byte	0x2
 324 00be 23       		.byte	0x23
 325 00bf 08       		.uleb128 0x8
 326 00c0 07       		.uleb128 0x7
 327 00c1 01010000 		.4byte	.LASF14
 328 00c5 03       		.byte	0x3
 329 00c6 0A01     		.2byte	0x10a
 330 00c8 85000000 		.4byte	0x85
 331 00cc 02       		.byte	0x2
 332 00cd 23       		.byte	0x23
 333 00ce 0C       		.uleb128 0xc
 334 00cf 07       		.uleb128 0x7
 335 00d0 1F000000 		.4byte	.LASF15
 336 00d4 03       		.byte	0x3
 337 00d5 0B01     		.2byte	0x10b
 338 00d7 85000000 		.4byte	0x85
ARM GAS  /tmp/ccH1AJWB.s 			page 7


 339 00db 02       		.byte	0x2
 340 00dc 23       		.byte	0x23
 341 00dd 10       		.uleb128 0x10
 342 00de 07       		.uleb128 0x7
 343 00df CF000000 		.4byte	.LASF16
 344 00e3 03       		.byte	0x3
 345 00e4 0C01     		.2byte	0x10c
 346 00e6 85000000 		.4byte	0x85
 347 00ea 02       		.byte	0x2
 348 00eb 23       		.byte	0x23
 349 00ec 14       		.uleb128 0x14
 350 00ed 07       		.uleb128 0x7
 351 00ee A6000000 		.4byte	.LASF17
 352 00f2 03       		.byte	0x3
 353 00f3 0D01     		.2byte	0x10d
 354 00f5 85000000 		.4byte	0x85
 355 00f9 02       		.byte	0x2
 356 00fa 23       		.byte	0x23
 357 00fb 18       		.uleb128 0x18
 358 00fc 07       		.uleb128 0x7
 359 00fd 0C000000 		.4byte	.LASF18
 360 0101 03       		.byte	0x3
 361 0102 0E01     		.2byte	0x10e
 362 0104 85000000 		.4byte	0x85
 363 0108 02       		.byte	0x2
 364 0109 23       		.byte	0x23
 365 010a 1C       		.uleb128 0x1c
 366 010b 00       		.byte	0x0
 367 010c 08       		.uleb128 0x8
 368 010d 3B010000 		.4byte	.LASF19
 369 0111 03       		.byte	0x3
 370 0112 0F01     		.2byte	0x10f
 371 0114 8A000000 		.4byte	0x8a
 372 0118 03       		.uleb128 0x3
 373 0119 01       		.byte	0x1
 374 011a 08       		.byte	0x8
 375 011b EE000000 		.4byte	.LASF20
 376 011f 05       		.uleb128 0x5
 377 0120 53000000 		.4byte	0x53
 378 0124 04       		.uleb128 0x4
 379 0125 E3000000 		.4byte	.LASF21
 380 0129 04       		.byte	0x4
 381 012a D8       		.byte	0xd8
 382 012b 65000000 		.4byte	0x65
 383 012f 04       		.uleb128 0x4
 384 0130 9C010000 		.4byte	.LASF22
 385 0134 05       		.byte	0x5
 386 0135 45       		.byte	0x45
 387 0136 3A010000 		.4byte	0x13a
 388 013a 09       		.uleb128 0x9
 389 013b 9C010000 		.4byte	.LASF22
 390 013f 14       		.byte	0x14
 391 0140 05       		.byte	0x5
 392 0141 4A       		.byte	0x4a
 393 0142 8D010000 		.4byte	0x18d
 394 0146 0A       		.uleb128 0xa
 395 0147 19000000 		.4byte	.LASF23
ARM GAS  /tmp/ccH1AJWB.s 			page 8


 396 014b 05       		.byte	0x5
 397 014c 4B       		.byte	0x4b
 398 014d 9F010000 		.4byte	0x19f
 399 0151 02       		.byte	0x2
 400 0152 23       		.byte	0x23
 401 0153 00       		.uleb128 0x0
 402 0154 0A       		.uleb128 0xa
 403 0155 28000000 		.4byte	.LASF24
 404 0159 05       		.byte	0x5
 405 015a 4C       		.byte	0x4c
 406 015b 9F010000 		.4byte	0x19f
 407 015f 02       		.byte	0x2
 408 0160 23       		.byte	0x23
 409 0161 04       		.uleb128 0x4
 410 0162 0A       		.uleb128 0xa
 411 0163 AC010000 		.4byte	.LASF25
 412 0167 05       		.byte	0x5
 413 0168 4D       		.byte	0x4d
 414 0169 24010000 		.4byte	0x124
 415 016d 02       		.byte	0x2
 416 016e 23       		.byte	0x23
 417 016f 08       		.uleb128 0x8
 418 0170 0A       		.uleb128 0xa
 419 0171 C9000000 		.4byte	.LASF26
 420 0175 05       		.byte	0x5
 421 0176 4E       		.byte	0x4e
 422 0177 24010000 		.4byte	0x124
 423 017b 02       		.byte	0x2
 424 017c 23       		.byte	0x23
 425 017d 0C       		.uleb128 0xc
 426 017e 0A       		.uleb128 0xa
 427 017f 43010000 		.4byte	.LASF27
 428 0183 05       		.byte	0x5
 429 0184 4F       		.byte	0x4f
 430 0185 24010000 		.4byte	0x124
 431 0189 02       		.byte	0x2
 432 018a 23       		.byte	0x23
 433 018b 10       		.uleb128 0x10
 434 018c 00       		.byte	0x0
 435 018d 0B       		.uleb128 0xb
 436 018e 01       		.byte	0x1
 437 018f 99010000 		.4byte	0x199
 438 0193 0C       		.uleb128 0xc
 439 0194 99010000 		.4byte	0x199
 440 0198 00       		.byte	0x0
 441 0199 0D       		.uleb128 0xd
 442 019a 04       		.byte	0x4
 443 019b 2F010000 		.4byte	0x12f
 444 019f 0D       		.uleb128 0xd
 445 01a0 04       		.byte	0x4
 446 01a1 8D010000 		.4byte	0x18d
 447 01a5 0E       		.uleb128 0xe
 448 01a6 F3000000 		.4byte	.LASF28
 449 01aa 01       		.byte	0x1
 450 01ab 45       		.byte	0x45
 451 01ac 01       		.byte	0x1
 452 01ad 00000000 		.4byte	.LFB55
ARM GAS  /tmp/ccH1AJWB.s 			page 9


 453 01b1 0C000000 		.4byte	.LFE55
 454 01b5 02       		.byte	0x2
 455 01b6 7D       		.byte	0x7d
 456 01b7 00       		.sleb128 0
 457 01b8 CA010000 		.4byte	0x1ca
 458 01bc 0F       		.uleb128 0xf
 459 01bd 746D7000 		.ascii	"tmp\000"
 460 01c1 01       		.byte	0x1
 461 01c2 45       		.byte	0x45
 462 01c3 99010000 		.4byte	0x199
 463 01c7 01       		.byte	0x1
 464 01c8 50       		.byte	0x50
 465 01c9 00       		.byte	0x0
 466 01ca 0E       		.uleb128 0xe
 467 01cb 11000000 		.4byte	.LASF29
 468 01cf 01       		.byte	0x1
 469 01d0 51       		.byte	0x51
 470 01d1 01       		.byte	0x1
 471 01d2 00000000 		.4byte	.LFB56
 472 01d6 2C000000 		.4byte	.LFE56
 473 01da 02       		.byte	0x2
 474 01db 7D       		.byte	0x7d
 475 01dc 00       		.sleb128 0
 476 01dd FE010000 		.4byte	0x1fe
 477 01e1 0F       		.uleb128 0xf
 478 01e2 746D7000 		.ascii	"tmp\000"
 479 01e6 01       		.byte	0x1
 480 01e7 51       		.byte	0x51
 481 01e8 99010000 		.4byte	0x199
 482 01ec 01       		.byte	0x1
 483 01ed 50       		.byte	0x50
 484 01ee 10       		.uleb128 0x10
 485 01ef 6E6F7700 		.ascii	"now\000"
 486 01f3 01       		.byte	0x1
 487 01f4 53       		.byte	0x53
 488 01f5 24010000 		.4byte	0x124
 489 01f9 00000000 		.4byte	.LLST0
 490 01fd 00       		.byte	0x0
 491 01fe 11       		.uleb128 0x11
 492 01ff 01       		.byte	0x1
 493 0200 72000000 		.4byte	.LASF30
 494 0204 01       		.byte	0x1
 495 0205 7C       		.byte	0x7c
 496 0206 01       		.byte	0x1
 497 0207 00000000 		.4byte	.LFB58
 498 020b 1C000000 		.4byte	.LFE58
 499 020f 02       		.byte	0x2
 500 0210 7D       		.byte	0x7d
 501 0211 00       		.sleb128 0
 502 0212 24020000 		.4byte	0x224
 503 0216 0F       		.uleb128 0xf
 504 0217 746D7000 		.ascii	"tmp\000"
 505 021b 01       		.byte	0x1
 506 021c 7C       		.byte	0x7c
 507 021d 99010000 		.4byte	0x199
 508 0221 01       		.byte	0x1
 509 0222 50       		.byte	0x50
ARM GAS  /tmp/ccH1AJWB.s 			page 10


 510 0223 00       		.byte	0x0
 511 0224 12       		.uleb128 0x12
 512 0225 01       		.byte	0x1
 513 0226 59000000 		.4byte	.LASF31
 514 022a 01       		.byte	0x1
 515 022b 68       		.byte	0x68
 516 022c 01       		.byte	0x1
 517 022d 00000000 		.4byte	.LFB57
 518 0231 28000000 		.4byte	.LFE57
 519 0235 13000000 		.4byte	.LLST1
 520 0239 4B020000 		.4byte	0x24b
 521 023d 13       		.uleb128 0x13
 522 023e 746D00   		.ascii	"tm\000"
 523 0241 01       		.byte	0x1
 524 0242 69       		.byte	0x69
 525 0243 2F010000 		.4byte	0x12f
 526 0247 02       		.byte	0x2
 527 0248 91       		.byte	0x91
 528 0249 64       		.sleb128 -28
 529 024a 00       		.byte	0x0
 530 024b 14       		.uleb128 0x14
 531 024c 99000000 		.4byte	.LASF33
 532 0250 06       		.byte	0x6
 533 0251 9404     		.2byte	0x494
 534 0253 1F010000 		.4byte	0x11f
 535 0257 01       		.byte	0x1
 536 0258 01       		.byte	0x1
 537 0259 15       		.uleb128 0x15
 538 025a 1E010000 		.4byte	.LASF32
 539 025e 01       		.byte	0x1
 540 025f 38       		.byte	0x38
 541 0260 24010000 		.4byte	0x124
 542 0264 05       		.byte	0x5
 543 0265 03       		.byte	0x3
 544 0266 00000000 		.4byte	measurement_offset
 545 026a 14       		.uleb128 0x14
 546 026b 99000000 		.4byte	.LASF33
 547 026f 06       		.byte	0x6
 548 0270 9404     		.2byte	0x494
 549 0272 1F010000 		.4byte	0x11f
 550 0276 01       		.byte	0x1
 551 0277 01       		.byte	0x1
 552 0278 00       		.byte	0x0
 553              		.section	.debug_abbrev
 554 0000 01       		.uleb128 0x1
 555 0001 11       		.uleb128 0x11
 556 0002 01       		.byte	0x1
 557 0003 25       		.uleb128 0x25
 558 0004 0E       		.uleb128 0xe
 559 0005 13       		.uleb128 0x13
 560 0006 0B       		.uleb128 0xb
 561 0007 03       		.uleb128 0x3
 562 0008 0E       		.uleb128 0xe
 563 0009 1B       		.uleb128 0x1b
 564 000a 0E       		.uleb128 0xe
 565 000b 11       		.uleb128 0x11
 566 000c 01       		.uleb128 0x1
ARM GAS  /tmp/ccH1AJWB.s 			page 11


 567 000d 52       		.uleb128 0x52
 568 000e 01       		.uleb128 0x1
 569 000f 55       		.uleb128 0x55
 570 0010 06       		.uleb128 0x6
 571 0011 10       		.uleb128 0x10
 572 0012 06       		.uleb128 0x6
 573 0013 00       		.byte	0x0
 574 0014 00       		.byte	0x0
 575 0015 02       		.uleb128 0x2
 576 0016 24       		.uleb128 0x24
 577 0017 00       		.byte	0x0
 578 0018 0B       		.uleb128 0xb
 579 0019 0B       		.uleb128 0xb
 580 001a 3E       		.uleb128 0x3e
 581 001b 0B       		.uleb128 0xb
 582 001c 03       		.uleb128 0x3
 583 001d 08       		.uleb128 0x8
 584 001e 00       		.byte	0x0
 585 001f 00       		.byte	0x0
 586 0020 03       		.uleb128 0x3
 587 0021 24       		.uleb128 0x24
 588 0022 00       		.byte	0x0
 589 0023 0B       		.uleb128 0xb
 590 0024 0B       		.uleb128 0xb
 591 0025 3E       		.uleb128 0x3e
 592 0026 0B       		.uleb128 0xb
 593 0027 03       		.uleb128 0x3
 594 0028 0E       		.uleb128 0xe
 595 0029 00       		.byte	0x0
 596 002a 00       		.byte	0x0
 597 002b 04       		.uleb128 0x4
 598 002c 16       		.uleb128 0x16
 599 002d 00       		.byte	0x0
 600 002e 03       		.uleb128 0x3
 601 002f 0E       		.uleb128 0xe
 602 0030 3A       		.uleb128 0x3a
 603 0031 0B       		.uleb128 0xb
 604 0032 3B       		.uleb128 0x3b
 605 0033 0B       		.uleb128 0xb
 606 0034 49       		.uleb128 0x49
 607 0035 13       		.uleb128 0x13
 608 0036 00       		.byte	0x0
 609 0037 00       		.byte	0x0
 610 0038 05       		.uleb128 0x5
 611 0039 35       		.uleb128 0x35
 612 003a 00       		.byte	0x0
 613 003b 49       		.uleb128 0x49
 614 003c 13       		.uleb128 0x13
 615 003d 00       		.byte	0x0
 616 003e 00       		.byte	0x0
 617 003f 06       		.uleb128 0x6
 618 0040 13       		.uleb128 0x13
 619 0041 01       		.byte	0x1
 620 0042 0B       		.uleb128 0xb
 621 0043 0B       		.uleb128 0xb
 622 0044 3A       		.uleb128 0x3a
 623 0045 0B       		.uleb128 0xb
ARM GAS  /tmp/ccH1AJWB.s 			page 12


 624 0046 3B       		.uleb128 0x3b
 625 0047 05       		.uleb128 0x5
 626 0048 01       		.uleb128 0x1
 627 0049 13       		.uleb128 0x13
 628 004a 00       		.byte	0x0
 629 004b 00       		.byte	0x0
 630 004c 07       		.uleb128 0x7
 631 004d 0D       		.uleb128 0xd
 632 004e 00       		.byte	0x0
 633 004f 03       		.uleb128 0x3
 634 0050 0E       		.uleb128 0xe
 635 0051 3A       		.uleb128 0x3a
 636 0052 0B       		.uleb128 0xb
 637 0053 3B       		.uleb128 0x3b
 638 0054 05       		.uleb128 0x5
 639 0055 49       		.uleb128 0x49
 640 0056 13       		.uleb128 0x13
 641 0057 38       		.uleb128 0x38
 642 0058 0A       		.uleb128 0xa
 643 0059 00       		.byte	0x0
 644 005a 00       		.byte	0x0
 645 005b 08       		.uleb128 0x8
 646 005c 16       		.uleb128 0x16
 647 005d 00       		.byte	0x0
 648 005e 03       		.uleb128 0x3
 649 005f 0E       		.uleb128 0xe
 650 0060 3A       		.uleb128 0x3a
 651 0061 0B       		.uleb128 0xb
 652 0062 3B       		.uleb128 0x3b
 653 0063 05       		.uleb128 0x5
 654 0064 49       		.uleb128 0x49
 655 0065 13       		.uleb128 0x13
 656 0066 00       		.byte	0x0
 657 0067 00       		.byte	0x0
 658 0068 09       		.uleb128 0x9
 659 0069 13       		.uleb128 0x13
 660 006a 01       		.byte	0x1
 661 006b 03       		.uleb128 0x3
 662 006c 0E       		.uleb128 0xe
 663 006d 0B       		.uleb128 0xb
 664 006e 0B       		.uleb128 0xb
 665 006f 3A       		.uleb128 0x3a
 666 0070 0B       		.uleb128 0xb
 667 0071 3B       		.uleb128 0x3b
 668 0072 0B       		.uleb128 0xb
 669 0073 01       		.uleb128 0x1
 670 0074 13       		.uleb128 0x13
 671 0075 00       		.byte	0x0
 672 0076 00       		.byte	0x0
 673 0077 0A       		.uleb128 0xa
 674 0078 0D       		.uleb128 0xd
 675 0079 00       		.byte	0x0
 676 007a 03       		.uleb128 0x3
 677 007b 0E       		.uleb128 0xe
 678 007c 3A       		.uleb128 0x3a
 679 007d 0B       		.uleb128 0xb
 680 007e 3B       		.uleb128 0x3b
ARM GAS  /tmp/ccH1AJWB.s 			page 13


 681 007f 0B       		.uleb128 0xb
 682 0080 49       		.uleb128 0x49
 683 0081 13       		.uleb128 0x13
 684 0082 38       		.uleb128 0x38
 685 0083 0A       		.uleb128 0xa
 686 0084 00       		.byte	0x0
 687 0085 00       		.byte	0x0
 688 0086 0B       		.uleb128 0xb
 689 0087 15       		.uleb128 0x15
 690 0088 01       		.byte	0x1
 691 0089 27       		.uleb128 0x27
 692 008a 0C       		.uleb128 0xc
 693 008b 01       		.uleb128 0x1
 694 008c 13       		.uleb128 0x13
 695 008d 00       		.byte	0x0
 696 008e 00       		.byte	0x0
 697 008f 0C       		.uleb128 0xc
 698 0090 05       		.uleb128 0x5
 699 0091 00       		.byte	0x0
 700 0092 49       		.uleb128 0x49
 701 0093 13       		.uleb128 0x13
 702 0094 00       		.byte	0x0
 703 0095 00       		.byte	0x0
 704 0096 0D       		.uleb128 0xd
 705 0097 0F       		.uleb128 0xf
 706 0098 00       		.byte	0x0
 707 0099 0B       		.uleb128 0xb
 708 009a 0B       		.uleb128 0xb
 709 009b 49       		.uleb128 0x49
 710 009c 13       		.uleb128 0x13
 711 009d 00       		.byte	0x0
 712 009e 00       		.byte	0x0
 713 009f 0E       		.uleb128 0xe
 714 00a0 2E       		.uleb128 0x2e
 715 00a1 01       		.byte	0x1
 716 00a2 03       		.uleb128 0x3
 717 00a3 0E       		.uleb128 0xe
 718 00a4 3A       		.uleb128 0x3a
 719 00a5 0B       		.uleb128 0xb
 720 00a6 3B       		.uleb128 0x3b
 721 00a7 0B       		.uleb128 0xb
 722 00a8 27       		.uleb128 0x27
 723 00a9 0C       		.uleb128 0xc
 724 00aa 11       		.uleb128 0x11
 725 00ab 01       		.uleb128 0x1
 726 00ac 12       		.uleb128 0x12
 727 00ad 01       		.uleb128 0x1
 728 00ae 40       		.uleb128 0x40
 729 00af 0A       		.uleb128 0xa
 730 00b0 01       		.uleb128 0x1
 731 00b1 13       		.uleb128 0x13
 732 00b2 00       		.byte	0x0
 733 00b3 00       		.byte	0x0
 734 00b4 0F       		.uleb128 0xf
 735 00b5 05       		.uleb128 0x5
 736 00b6 00       		.byte	0x0
 737 00b7 03       		.uleb128 0x3
ARM GAS  /tmp/ccH1AJWB.s 			page 14


 738 00b8 08       		.uleb128 0x8
 739 00b9 3A       		.uleb128 0x3a
 740 00ba 0B       		.uleb128 0xb
 741 00bb 3B       		.uleb128 0x3b
 742 00bc 0B       		.uleb128 0xb
 743 00bd 49       		.uleb128 0x49
 744 00be 13       		.uleb128 0x13
 745 00bf 02       		.uleb128 0x2
 746 00c0 0A       		.uleb128 0xa
 747 00c1 00       		.byte	0x0
 748 00c2 00       		.byte	0x0
 749 00c3 10       		.uleb128 0x10
 750 00c4 34       		.uleb128 0x34
 751 00c5 00       		.byte	0x0
 752 00c6 03       		.uleb128 0x3
 753 00c7 08       		.uleb128 0x8
 754 00c8 3A       		.uleb128 0x3a
 755 00c9 0B       		.uleb128 0xb
 756 00ca 3B       		.uleb128 0x3b
 757 00cb 0B       		.uleb128 0xb
 758 00cc 49       		.uleb128 0x49
 759 00cd 13       		.uleb128 0x13
 760 00ce 02       		.uleb128 0x2
 761 00cf 06       		.uleb128 0x6
 762 00d0 00       		.byte	0x0
 763 00d1 00       		.byte	0x0
 764 00d2 11       		.uleb128 0x11
 765 00d3 2E       		.uleb128 0x2e
 766 00d4 01       		.byte	0x1
 767 00d5 3F       		.uleb128 0x3f
 768 00d6 0C       		.uleb128 0xc
 769 00d7 03       		.uleb128 0x3
 770 00d8 0E       		.uleb128 0xe
 771 00d9 3A       		.uleb128 0x3a
 772 00da 0B       		.uleb128 0xb
 773 00db 3B       		.uleb128 0x3b
 774 00dc 0B       		.uleb128 0xb
 775 00dd 27       		.uleb128 0x27
 776 00de 0C       		.uleb128 0xc
 777 00df 11       		.uleb128 0x11
 778 00e0 01       		.uleb128 0x1
 779 00e1 12       		.uleb128 0x12
 780 00e2 01       		.uleb128 0x1
 781 00e3 40       		.uleb128 0x40
 782 00e4 0A       		.uleb128 0xa
 783 00e5 01       		.uleb128 0x1
 784 00e6 13       		.uleb128 0x13
 785 00e7 00       		.byte	0x0
 786 00e8 00       		.byte	0x0
 787 00e9 12       		.uleb128 0x12
 788 00ea 2E       		.uleb128 0x2e
 789 00eb 01       		.byte	0x1
 790 00ec 3F       		.uleb128 0x3f
 791 00ed 0C       		.uleb128 0xc
 792 00ee 03       		.uleb128 0x3
 793 00ef 0E       		.uleb128 0xe
 794 00f0 3A       		.uleb128 0x3a
ARM GAS  /tmp/ccH1AJWB.s 			page 15


 795 00f1 0B       		.uleb128 0xb
 796 00f2 3B       		.uleb128 0x3b
 797 00f3 0B       		.uleb128 0xb
 798 00f4 27       		.uleb128 0x27
 799 00f5 0C       		.uleb128 0xc
 800 00f6 11       		.uleb128 0x11
 801 00f7 01       		.uleb128 0x1
 802 00f8 12       		.uleb128 0x12
 803 00f9 01       		.uleb128 0x1
 804 00fa 40       		.uleb128 0x40
 805 00fb 06       		.uleb128 0x6
 806 00fc 01       		.uleb128 0x1
 807 00fd 13       		.uleb128 0x13
 808 00fe 00       		.byte	0x0
 809 00ff 00       		.byte	0x0
 810 0100 13       		.uleb128 0x13
 811 0101 34       		.uleb128 0x34
 812 0102 00       		.byte	0x0
 813 0103 03       		.uleb128 0x3
 814 0104 08       		.uleb128 0x8
 815 0105 3A       		.uleb128 0x3a
 816 0106 0B       		.uleb128 0xb
 817 0107 3B       		.uleb128 0x3b
 818 0108 0B       		.uleb128 0xb
 819 0109 49       		.uleb128 0x49
 820 010a 13       		.uleb128 0x13
 821 010b 02       		.uleb128 0x2
 822 010c 0A       		.uleb128 0xa
 823 010d 00       		.byte	0x0
 824 010e 00       		.byte	0x0
 825 010f 14       		.uleb128 0x14
 826 0110 34       		.uleb128 0x34
 827 0111 00       		.byte	0x0
 828 0112 03       		.uleb128 0x3
 829 0113 0E       		.uleb128 0xe
 830 0114 3A       		.uleb128 0x3a
 831 0115 0B       		.uleb128 0xb
 832 0116 3B       		.uleb128 0x3b
 833 0117 05       		.uleb128 0x5
 834 0118 49       		.uleb128 0x49
 835 0119 13       		.uleb128 0x13
 836 011a 3F       		.uleb128 0x3f
 837 011b 0C       		.uleb128 0xc
 838 011c 3C       		.uleb128 0x3c
 839 011d 0C       		.uleb128 0xc
 840 011e 00       		.byte	0x0
 841 011f 00       		.byte	0x0
 842 0120 15       		.uleb128 0x15
 843 0121 34       		.uleb128 0x34
 844 0122 00       		.byte	0x0
 845 0123 03       		.uleb128 0x3
 846 0124 0E       		.uleb128 0xe
 847 0125 3A       		.uleb128 0x3a
 848 0126 0B       		.uleb128 0xb
 849 0127 3B       		.uleb128 0x3b
 850 0128 0B       		.uleb128 0xb
 851 0129 49       		.uleb128 0x49
ARM GAS  /tmp/ccH1AJWB.s 			page 16


 852 012a 13       		.uleb128 0x13
 853 012b 02       		.uleb128 0x2
 854 012c 0A       		.uleb128 0xa
 855 012d 00       		.byte	0x0
 856 012e 00       		.byte	0x0
 857 012f 00       		.byte	0x0
 858              		.section	.debug_pubnames,"",%progbits
 859 0000 2A000000 		.4byte	0x2a
 860 0004 0200     		.2byte	0x2
 861 0006 00000000 		.4byte	.Ldebug_info0
 862 000a 79020000 		.4byte	0x279
 863 000e FE010000 		.4byte	0x1fe
 864 0012 746D4F62 		.ascii	"tmObjectInit\000"
 864      6A656374 
 864      496E6974 
 864      00
 865 001f 24020000 		.4byte	0x224
 866 0023 746D496E 		.ascii	"tmInit\000"
 866      697400
 867 002a 00000000 		.4byte	0x0
 868              		.section	.debug_pubtypes,"",%progbits
 869 0000 6A000000 		.4byte	0x6a
 870 0004 0200     		.2byte	0x2
 871 0006 00000000 		.4byte	.Ldebug_info0
 872 000a 79020000 		.4byte	0x279
 873 000e 53000000 		.4byte	0x53
 874 0012 696E7433 		.ascii	"int32_t\000"
 874      325F7400 
 875 001a 65000000 		.4byte	0x65
 876 001e 75696E74 		.ascii	"uint32_t\000"
 876      33325F74 
 876      00
 877 0027 0C010000 		.4byte	0x10c
 878 002b 434D785F 		.ascii	"CMx_DWT\000"
 878      44575400 
 879 0033 24010000 		.4byte	0x124
 880 0037 68616C72 		.ascii	"halrtcnt_t\000"
 880      74636E74 
 880      5F7400
 881 0042 2F010000 		.4byte	0x12f
 882 0046 54696D65 		.ascii	"TimeMeasurement\000"
 882      4D656173 
 882      7572656D 
 882      656E7400 
 883 0056 3A010000 		.4byte	0x13a
 884 005a 54696D65 		.ascii	"TimeMeasurement\000"
 884      4D656173 
 884      7572656D 
 884      656E7400 
 885 006a 00000000 		.4byte	0x0
 886              		.section	.debug_aranges,"",%progbits
 887 0000 34000000 		.4byte	0x34
 888 0004 0200     		.2byte	0x2
 889 0006 00000000 		.4byte	.Ldebug_info0
 890 000a 04       		.byte	0x4
 891 000b 00       		.byte	0x0
 892 000c 0000     		.2byte	0x0
ARM GAS  /tmp/ccH1AJWB.s 			page 17


 893 000e 0000     		.2byte	0x0
 894 0010 00000000 		.4byte	.LFB55
 895 0014 0C000000 		.4byte	.LFE55-.LFB55
 896 0018 00000000 		.4byte	.LFB56
 897 001c 2C000000 		.4byte	.LFE56-.LFB56
 898 0020 00000000 		.4byte	.LFB58
 899 0024 1C000000 		.4byte	.LFE58-.LFB58
 900 0028 00000000 		.4byte	.LFB57
 901 002c 28000000 		.4byte	.LFE57-.LFB57
 902 0030 00000000 		.4byte	0x0
 903 0034 00000000 		.4byte	0x0
 904              		.section	.debug_ranges,"",%progbits
 905              	.Ldebug_ranges0:
 906 0000 00000000 		.4byte	.LFB55
 907 0004 0C000000 		.4byte	.LFE55
 908 0008 00000000 		.4byte	.LFB56
 909 000c 2C000000 		.4byte	.LFE56
 910 0010 00000000 		.4byte	.LFB58
 911 0014 1C000000 		.4byte	.LFE58
 912 0018 00000000 		.4byte	.LFB57
 913 001c 28000000 		.4byte	.LFE57
 914 0020 00000000 		.4byte	0x0
 915 0024 00000000 		.4byte	0x0
 916              		.section	.debug_str,"MS",%progbits,1
 917              	.LASF34:
 918 0000 474E5520 		.ascii	"GNU C 4.5.2\000"
 918      4320342E 
 918      352E3200 
 919              	.LASF18:
 920 000c 50435352 		.ascii	"PCSR\000"
 920      00
 921              	.LASF29:
 922 0011 746D5F73 		.ascii	"tm_stop\000"
 922      746F7000 
 923              	.LASF23:
 924 0019 73746172 		.ascii	"start\000"
 924      7400
 925              	.LASF15:
 926 001f 534C4545 		.ascii	"SLEEPCNT\000"
 926      50434E54 
 926      00
 927              	.LASF24:
 928 0028 73746F70 		.ascii	"stop\000"
 928      00
 929              	.LASF10:
 930 002d 6C6F6E67 		.ascii	"long long unsigned int\000"
 930      206C6F6E 
 930      6720756E 
 930      7369676E 
 930      65642069 
 931              	.LASF2:
 932 0044 756E7369 		.ascii	"unsigned char\000"
 932      676E6564 
 932      20636861 
 932      7200
 933              	.LASF12:
 934 0052 43594343 		.ascii	"CYCCNT\000"
ARM GAS  /tmp/ccH1AJWB.s 			page 18


 934      4E5400
 935              	.LASF31:
 936 0059 746D496E 		.ascii	"tmInit\000"
 936      697400
 937              	.LASF8:
 938 0060 6C6F6E67 		.ascii	"long unsigned int\000"
 938      20756E73 
 938      69676E65 
 938      6420696E 
 938      7400
 939              	.LASF30:
 940 0072 746D4F62 		.ascii	"tmObjectInit\000"
 940      6A656374 
 940      496E6974 
 940      00
 941              	.LASF4:
 942 007f 73686F72 		.ascii	"short unsigned int\000"
 942      7420756E 
 942      7369676E 
 942      65642069 
 942      6E7400
 943              	.LASF13:
 944 0092 43504943 		.ascii	"CPICNT\000"
 944      4E5400
 945              	.LASF33:
 946 0099 49544D5F 		.ascii	"ITM_RxBuffer\000"
 946      52784275 
 946      66666572 
 946      00
 947              	.LASF17:
 948 00a6 464F4C44 		.ascii	"FOLDCNT\000"
 948      434E5400 
 949              	.LASF35:
 950 00ae 2E2E2F63 		.ascii	"../chibios/os/hal/src/tm.c\000"
 950      68696269 
 950      6F732F6F 
 950      732F6861 
 950      6C2F7372 
 951              	.LASF26:
 952 00c9 776F7273 		.ascii	"worst\000"
 952      7400
 953              	.LASF16:
 954 00cf 4C535543 		.ascii	"LSUCNT\000"
 954      4E5400
 955              	.LASF0:
 956 00d6 756E7369 		.ascii	"unsigned int\000"
 956      676E6564 
 956      20696E74 
 956      00
 957              	.LASF21:
 958 00e3 68616C72 		.ascii	"halrtcnt_t\000"
 958      74636E74 
 958      5F7400
 959              	.LASF20:
 960 00ee 63686172 		.ascii	"char\000"
 960      00
 961              	.LASF28:
ARM GAS  /tmp/ccH1AJWB.s 			page 19


 962 00f3 746D5F73 		.ascii	"tm_start\000"
 962      74617274 
 962      00
 963              	.LASF11:
 964 00fc 4354524C 		.ascii	"CTRL\000"
 964      00
 965              	.LASF14:
 966 0101 45584343 		.ascii	"EXCCNT\000"
 966      4E5400
 967              	.LASF6:
 968 0108 696E7433 		.ascii	"int32_t\000"
 968      325F7400 
 969              	.LASF9:
 970 0110 6C6F6E67 		.ascii	"long long int\000"
 970      206C6F6E 
 970      6720696E 
 970      7400
 971              	.LASF32:
 972 011e 6D656173 		.ascii	"measurement_offset\000"
 972      7572656D 
 972      656E745F 
 972      6F666673 
 972      657400
 973              	.LASF3:
 974 0131 73686F72 		.ascii	"short int\000"
 974      7420696E 
 974      7400
 975              	.LASF19:
 976 013b 434D785F 		.ascii	"CMx_DWT\000"
 976      44575400 
 977              	.LASF27:
 978 0143 62657374 		.ascii	"best\000"
 978      00
 979              	.LASF7:
 980 0148 75696E74 		.ascii	"uint32_t\000"
 980      33325F74 
 980      00
 981              	.LASF5:
 982 0151 6C6F6E67 		.ascii	"long int\000"
 982      20696E74 
 982      00
 983              	.LASF36:
 984 015a 2F686F6D 		.ascii	"/home/z80/projects/dfu.git/firmware-pawn-dev/firmwa"
 984      652F7A38 
 984      302F7072 
 984      6F6A6563 
 984      74732F64 
 985 018d 726500   		.ascii	"re\000"
 986              	.LASF1:
 987 0190 7369676E 		.ascii	"signed char\000"
 987      65642063 
 987      68617200 
 988              	.LASF22:
 989 019c 54696D65 		.ascii	"TimeMeasurement\000"
 989      4D656173 
 989      7572656D 
 989      656E7400 
ARM GAS  /tmp/ccH1AJWB.s 			page 20


 990              	.LASF25:
 991 01ac 6C617374 		.ascii	"last\000"
 991      00
 992              		.ident	"GCC: (Sourcery G++ Lite 2011.03-42) 4.5.2"
ARM GAS  /tmp/ccH1AJWB.s 			page 21


DEFINED SYMBOLS
                            *ABS*:00000000 tm.c
     /tmp/ccH1AJWB.s:24     .text.tm_start:00000000 $t
     /tmp/ccH1AJWB.s:28     .text.tm_start:00000000 tm_start
     /tmp/ccH1AJWB.s:46     .text.tm_start:00000008 $d
     /tmp/ccH1AJWB.s:51     .text.tm_stop:00000000 $t
     /tmp/ccH1AJWB.s:55     .text.tm_stop:00000000 tm_stop
     /tmp/ccH1AJWB.s:95     .text.tm_stop:00000024 $d
     /tmp/ccH1AJWB.s:101    .text.tmObjectInit:00000000 $t
     /tmp/ccH1AJWB.s:106    .text.tmObjectInit:00000000 tmObjectInit
     /tmp/ccH1AJWB.s:133    .text.tmObjectInit:00000014 $d
     /tmp/ccH1AJWB.s:139    .text.tmInit:00000000 $t
     /tmp/ccH1AJWB.s:144    .text.tmInit:00000000 tmInit
     /tmp/ccH1AJWB.s:186    .text.tmInit:00000024 $d
     /tmp/ccH1AJWB.s:191    .bss.measurement_offset:00000000 $d
     /tmp/ccH1AJWB.s:195    .bss.measurement_offset:00000000 measurement_offset
                     .debug_frame:00000010 $d

NO UNDEFINED SYMBOLS
