ARM GAS  /tmp/ccH1AJWB.s 			page 1


   1              		.syntax unified
   2              		.cpu cortex-m3
   3              		.fpu softvfp
   4              		.eabi_attribute 20, 1
   5              		.eabi_attribute 21, 1
   6              		.eabi_attribute 23, 3
   7              		.eabi_attribute 24, 1
   8              		.eabi_attribute 25, 1
   9              		.eabi_attribute 26, 1
  10              		.eabi_attribute 30, 4
  11              		.eabi_attribute 18, 4
  12              		.thumb
  13              		.file	"tm.c"
  20 0000 CF010000 		.text
  20      02006D01 
  20      00000201 
  20      FB0E0D00 
  20      01010101 
  21              	.Ltext0:
  22              		.cfi_sections	.debug_frame
  23              		.section	.text.tm_start,"ax",%progbits
  24              		.align	1
  25              		.thumb
  26              		.thumb_func
  27              		.type	tm_start, %function
  28              	tm_start:
  29              	.LFB55:
  30              		.file 1 "../chibios/os/hal/src/tm.c"
  31              		.loc 1 69 0
  32              		.cfi_startproc
  33              		@ args = 0, pretend = 0, frame = 0
  34              		@ frame_needed = 0, uses_anonymous_args = 0
  35              		@ link register save eliminated.
  36              	.LVL0:
  37              		.loc 1 71 0
  38 0000 014B     		ldr	r3, .L2
  39 0002 5B68     		ldr	r3, [r3, #4]
  40 0004 8360     		str	r3, [r0, #8]
  41              		.loc 1 72 0
  42 0006 7047     		bx	lr
  43              	.L3:
  44              		.align	2
  45              	.L2:
  46 0008 001000E0 		.word	-536866816
  47              		.cfi_endproc
  48              	.LFE55:
  49              		.size	tm_start, .-tm_start
  50              		.section	.text.tm_stop,"ax",%progbits
  51              		.align	1
  52              		.thumb
  53              		.thumb_func
ARM GAS  /tmp/ccH1AJWB.s 			page 2


  54              		.type	tm_stop, %function
  55              	tm_stop:
  56              	.LFB56:
  57              		.loc 1 81 0
  58              		.cfi_startproc
  59              		@ args = 0, pretend = 0, frame = 0
  60              		@ frame_needed = 0, uses_anonymous_args = 0
  61              		@ link register save eliminated.
  62              	.LVL1:
  63              		.loc 1 83 0
  64 0000 084B     		ldr	r3, .L7
  65 0002 5A68     		ldr	r2, [r3, #4]
  66              	.LVL2:
  67              		.loc 1 84 0
  68 0004 8368     		ldr	r3, [r0, #8]
  69 0006 D31A     		subs	r3, r2, r3
  70 0008 074A     		ldr	r2, .L7+4
  71              	.LVL3:
  72 000a 1268     		ldr	r2, [r2, #0]
  73 000c 9B1A     		subs	r3, r3, r2
  74              		.loc 1 85 0
  75 000e C268     		ldr	r2, [r0, #12]
  76              		.loc 1 84 0
  77 0010 8360     		str	r3, [r0, #8]
  78              		.loc 1 85 0
  79 0012 9342     		cmp	r3, r2
  80 0014 01D9     		bls	.L5
  81              		.loc 1 86 0
  82 0016 C360     		str	r3, [r0, #12]
  83 0018 7047     		bx	lr
  84              	.L5:
  85              		.loc 1 87 0
  86 001a 0269     		ldr	r2, [r0, #16]
  87 001c 9342     		cmp	r3, r2
  88              		.loc 1 88 0
  89 001e 38BF     		it	cc
  90 0020 0361     		strcc	r3, [r0, #16]
  91 0022 7047     		bx	lr
  92              	.L8:
  93              		.align	2
  94              	.L7:
  95 0024 001000E0 		.word	-536866816
  96 0028 00000000 		.word	.LANCHOR0
  97              		.cfi_endproc
  98              	.LFE56:
  99              		.size	tm_stop, .-tm_stop
 100              		.section	.text.tmObjectInit,"ax",%progbits
 101              		.align	1
 102              		.global	tmObjectInit
 103              		.thumb
 104              		.thumb_func
 105              		.type	tmObjectInit, %function
 106              	tmObjectInit:
 107              	.LFB58:
 108              		.loc 1 124 0
 109              		.cfi_startproc
 110              		@ args = 0, pretend = 0, frame = 0
ARM GAS  /tmp/ccH1AJWB.s 			page 3


 111              		@ frame_needed = 0, uses_anonymous_args = 0
 112              		@ link register save eliminated.
 113              	.LVL4:
 114              		.loc 1 126 0
 115 0000 044B     		ldr	r3, .L10
 116 0002 0360     		str	r3, [r0, #0]
 117              		.loc 1 127 0
 118 0004 044B     		ldr	r3, .L10+4
 119 0006 4360     		str	r3, [r0, #4]
 120              		.loc 1 128 0
 121 0008 0023     		movs	r3, #0
 122 000a 8360     		str	r3, [r0, #8]
 123              		.loc 1 129 0
 124 000c C360     		str	r3, [r0, #12]
 125              		.loc 1 130 0
 126 000e 013B     		subs	r3, r3, #1
 127 0010 0361     		str	r3, [r0, #16]
 128              		.loc 1 131 0
 129 0012 7047     		bx	lr
 130              	.L11:
 131              		.align	2
 132              	.L10:
 133 0014 00000000 		.word	tm_start
 134 0018 00000000 		.word	tm_stop
 135              		.cfi_endproc
 136              	.LFE58:
 137              		.size	tmObjectInit, .-tmObjectInit
 138              		.section	.text.tmInit,"ax",%progbits
 139              		.align	1
 140              		.global	tmInit
 141              		.thumb
 142              		.thumb_func
 143              		.type	tmInit, %function
 144              	tmInit:
 145              	.LFB57:
 146              		.loc 1 104 0
 147              		.cfi_startproc
 148              		@ args = 0, pretend = 0, frame = 24
 149              		@ frame_needed = 0, uses_anonymous_args = 0
 150 0000 10B5     		push	{r4, lr}
 151              	.LCFI0:
 152              		.cfi_def_cfa_offset 8
 153              		.loc 1 110 0
 154 0002 084C     		ldr	r4, .L13
 155              		.cfi_offset 14, -4
 156              		.cfi_offset 4, -8
 157              		.loc 1 104 0
 158 0004 86B0     		sub	sp, sp, #24
 159              	.LCFI1:
 160              		.cfi_def_cfa_offset 32
 161              		.loc 1 110 0
 162 0006 0023     		movs	r3, #0
 163              		.loc 1 111 0
 164 0008 01A8     		add	r0, sp, #4
 165              		.loc 1 110 0
 166 000a 2360     		str	r3, [r4, #0]
 167              		.loc 1 111 0
ARM GAS  /tmp/ccH1AJWB.s 			page 4


 168 000c FFF7FEFF 		bl	tmObjectInit
 169              		.loc 1 112 0
 170 0010 01A8     		add	r0, sp, #4
 171 0012 019B     		ldr	r3, [sp, #4]
 172 0014 9847     		blx	r3
 173              		.loc 1 113 0
 174 0016 029B     		ldr	r3, [sp, #8]
 175 0018 01A8     		add	r0, sp, #4
 176 001a 9847     		blx	r3
 177              		.loc 1 114 0
 178 001c 039B     		ldr	r3, [sp, #12]
 179 001e 2360     		str	r3, [r4, #0]
 180              		.loc 1 115 0
 181 0020 06B0     		add	sp, sp, #24
 182 0022 10BD     		pop	{r4, pc}
 183              	.L14:
 184              		.align	2
 185              	.L13:
 186 0024 00000000 		.word	.LANCHOR0
 187              		.cfi_endproc
 188              	.LFE57:
 189              		.size	tmInit, .-tmInit
 190              		.section	.bss.measurement_offset,"aw",%nobits
 191              		.align	2
 192              		.set	.LANCHOR0,. + 0
 193              		.type	measurement_offset, %object
 194              		.size	measurement_offset, 4
 195              	measurement_offset:
 196 0000 00000000 		.space	4
 197              		.text
 198              	.Letext0: