ARM GAS  /tmp/ccfjwwPm.s 			page 1


   1              		.syntax unified
   2              		.cpu cortex-m3
   3              		.fpu softvfp
   4              		.eabi_attribute 20, 1
   5              		.eabi_attribute 21, 1
   6              		.eabi_attribute 23, 3
   7              		.eabi_attribute 24, 1
   8              		.eabi_attribute 25, 1
   9              		.eabi_attribute 26, 1
  10              		.eabi_attribute 30, 4
  11              		.eabi_attribute 18, 4
  12              		.thumb
  13              		.file	"usb.c"
  20 0000 55040000 		.text
  20      0200D401 
  20      00000201 
  20      FB0E0D00 
  20      01010101 
  21              	.Ltext0:
  22              		.cfi_sections	.debug_frame
  23              		.section	.text.set_address,"ax",%progbits
  24              		.align	1
  25              		.thumb
  26              		.thumb_func
  27              		.type	set_address, %function
  28              	set_address:
  29              	.LFB55:
  30              		.file 1 "../chibios/os/hal/src/usb.c"
  31              		.loc 1 69 0
  32              		.cfi_startproc
  33              		@ args = 0, pretend = 0, frame = 0
  34              		@ frame_needed = 0, uses_anonymous_args = 0
  35              	.LVL0:
  36 0000 10B5     		push	{r4, lr}
  37              	.LCFI0:
  38              		.cfi_def_cfa_offset 8
  39              		.loc 1 71 0
  40 0002 90F84230 		ldrb	r3, [r0, #66]	@ zero_extendqisi2
  41              		.loc 1 69 0
  42 0006 0446     		mov	r4, r0
  43              		.cfi_offset 14, -4
  44              		.cfi_offset 4, -8
  45              		.loc 1 71 0
  46 0008 80F84A30 		strb	r3, [r0, #74]
  47              		.loc 1 72 0
  48 000c FFF7FEFF 		bl	usb_lld_set_address
  49              	.LVL1:
  50              		.loc 1 73 0
  51 0010 6368     		ldr	r3, [r4, #4]
  52 0012 1B68     		ldr	r3, [r3, #0]
  53 0014 13B1     		cbz	r3, .L2
ARM GAS  /tmp/ccfjwwPm.s 			page 2


  54              		.loc 1 73 0 is_stmt 0 discriminator 1
  55 0016 2046     		mov	r0, r4
  56 0018 0121     		movs	r1, #1
  57 001a 9847     		blx	r3
  58              	.L2:
  59              		.loc 1 74 0 is_stmt 1
  60 001c 0323     		movs	r3, #3
  61 001e 2370     		strb	r3, [r4, #0]
  62              		.loc 1 75 0
  63 0020 10BD     		pop	{r4, pc}
  64              		.cfi_endproc
  65              	.LFE55:
  66              		.size	set_address, .-set_address
  67              		.section	.text.usbInit,"ax",%progbits
  68              		.align	1
  69              		.global	usbInit
  70              		.thumb
  71              		.thumb_func
  72              		.type	usbInit, %function
  73              	usbInit:
  74              	.LFB57:
  75              		.loc 1 235 0
  76              		.cfi_startproc
  77              		@ args = 0, pretend = 0, frame = 0
  78              		@ frame_needed = 0, uses_anonymous_args = 0
  79              		@ link register save eliminated.
  80              		.loc 1 238 0
  81              		.loc 1 237 0
  82 0000 FFF7FEBF 		b	usb_lld_init
  83              		.cfi_endproc
  84              	.LFE57:
  85              		.size	usbInit, .-usbInit
  86              		.section	.text.usbObjectInit,"ax",%progbits
  87              		.align	1
  88              		.global	usbObjectInit
  89              		.thumb
  90              		.thumb_func
  91              		.type	usbObjectInit, %function
  92              	usbObjectInit:
  93              	.LFB58:
  94              		.loc 1 247 0
  95              		.cfi_startproc
  96              		@ args = 0, pretend = 0, frame = 0
  97              		@ frame_needed = 0, uses_anonymous_args = 0
  98              		@ link register save eliminated.
  99              	.LVL2:
 100              		.loc 1 249 0
 101 0000 0123     		movs	r3, #1
 102 0002 0370     		strb	r3, [r0, #0]
 103              		.loc 1 250 0
 104 0004 013B     		subs	r3, r3, #1
 105 0006 4360     		str	r3, [r0, #4]
 106              		.loc 1 251 0
 107 0008 8360     		str	r3, [r0, #8]
 108              		.loc 1 252 0
 109 000a 8381     		strh	r3, [r0, #12]	@ movhi
 110              		.loc 1 253 0
ARM GAS  /tmp/ccfjwwPm.s 			page 3


 111 000c C381     		strh	r3, [r0, #14]	@ movhi
 112              		.loc 1 254 0
 113 000e 7047     		bx	lr
 114              		.cfi_endproc
 115              	.LFE58:
 116              		.size	usbObjectInit, .-usbObjectInit
 117              		.section	.text.usbStart,"ax",%progbits
 118              		.align	1
 119              		.global	usbStart
 120              		.thumb
 121              		.thumb_func
 122              		.type	usbStart, %function
 123              	usbStart:
 124              	.LFB59:
 125              		.loc 1 264 0
 126              		.cfi_startproc
 127              		@ args = 0, pretend = 0, frame = 0
 128              		@ frame_needed = 0, uses_anonymous_args = 0
 129              	.LVL3:
 130 0000 38B5     		push	{r3, r4, r5, lr}
 131              	.LCFI1:
 132              		.cfi_def_cfa_offset 16
 133              		.loc 1 264 0
 134 0002 0D46     		mov	r5, r1
 135              		.cfi_offset 14, -4
 136              		.cfi_offset 5, -8
 137              		.cfi_offset 4, -12
 138              		.cfi_offset 3, -16
 139              		.loc 1 267 0
 140 0004 0446     		mov	r4, r0
 141 0006 00B1     		cbz	r0, .L6
 142              		.loc 1 267 0 is_stmt 0 discriminator 2
 143 0008 11B9     		cbnz	r1, .L7
 144              	.L6:
 145              		.loc 1 267 0 discriminator 1
 146 000a 1148     		ldr	r0, .L9
 147              	.LVL4:
 148 000c FFF7FEFF 		bl	chDbgPanic
 149              	.LVL5:
 150              	.L7:
 151              		.loc 1 269 0 is_stmt 1
 152              	@ 269 "../chibios/os/hal/src/usb.c" 1
 153 0010 FFF7FEFF 		bl      _port_lock
 154              	@ 0 "" 2
 155              		.thumb
 156 0014 FFF7FEFF 		bl	dbg_check_lock
 157              		.loc 1 270 0
 158 0018 2378     		ldrb	r3, [r4, #0]	@ zero_extendqisi2
 159 001a 013B     		subs	r3, r3, #1
 160 001c DBB2     		uxtb	r3, r3
 161 001e 012B     		cmp	r3, #1
 162 0020 02D9     		bls	.L8
 163              		.loc 1 270 0 is_stmt 0 discriminator 1
 164 0022 0C48     		ldr	r0, .L9+4
 165 0024 FFF7FEFF 		bl	chDbgPanic
 166              	.L8:
 167              		.loc 1 274 0 is_stmt 1
ARM GAS  /tmp/ccfjwwPm.s 			page 4


 168 0028 0023     		movs	r3, #0
 169 002a 2361     		str	r3, [r4, #16]
 170 002c 6361     		str	r3, [r4, #20]
 171 002e A361     		str	r3, [r4, #24]
 172 0030 E361     		str	r3, [r4, #28]
 173 0032 2362     		str	r3, [r4, #32]
 174 0034 6362     		str	r3, [r4, #36]
 175 0036 A362     		str	r3, [r4, #40]
 176 0038 E362     		str	r3, [r4, #44]
 177              		.loc 1 275 0
 178 003a 2046     		mov	r0, r4
 179              		.loc 1 272 0
 180 003c 6560     		str	r5, [r4, #4]
 181              	.LVL6:
 182              		.loc 1 275 0
 183 003e FFF7FEFF 		bl	usb_lld_start
 184              		.loc 1 276 0
 185 0042 0223     		movs	r3, #2
 186 0044 2370     		strb	r3, [r4, #0]
 187              		.loc 1 277 0
 188 0046 FFF7FEFF 		bl	dbg_check_unlock
 189              	@ 277 "../chibios/os/hal/src/usb.c" 1
 190 004a FFF7FEFF 		bl      _port_unlock
 191              	@ 0 "" 2
 192              		.loc 1 278 0
 193              		.thumb
 194 004e 38BD     		pop	{r3, r4, r5, pc}
 195              	.L10:
 196              		.align	2
 197              	.L9:
 198 0050 00000000 		.word	.LC0
 199 0054 0D000000 		.word	.LC1
 200              		.cfi_endproc
 201              	.LFE59:
 202              		.size	usbStart, .-usbStart
 203              		.section	.text.usbStop,"ax",%progbits
 204              		.align	1
 205              		.global	usbStop
 206              		.thumb
 207              		.thumb_func
 208              		.type	usbStop, %function
 209              	usbStop:
 210              	.LFB60:
 211              		.loc 1 287 0
 212              		.cfi_startproc
 213              		@ args = 0, pretend = 0, frame = 0
 214              		@ frame_needed = 0, uses_anonymous_args = 0
 215              	.LVL7:
 216 0000 10B5     		push	{r4, lr}
 217              	.LCFI2:
 218              		.cfi_def_cfa_offset 8
 219              		.loc 1 289 0
 220 0002 0446     		mov	r4, r0
 221              		.cfi_offset 14, -4
 222              		.cfi_offset 4, -8
 223 0004 10B9     		cbnz	r0, .L12
 224              		.loc 1 289 0 is_stmt 0 discriminator 1
ARM GAS  /tmp/ccfjwwPm.s 			page 5


 225 0006 0C48     		ldr	r0, .L14
 226              	.LVL8:
 227 0008 FFF7FEFF 		bl	chDbgPanic
 228              	.L12:
 229              		.loc 1 291 0 is_stmt 1
 230              	@ 291 "../chibios/os/hal/src/usb.c" 1
 231 000c FFF7FEFF 		bl      _port_lock
 232              	@ 0 "" 2
 233              		.thumb
 234 0010 FFF7FEFF 		bl	dbg_check_lock
 235              		.loc 1 292 0
 236 0014 2378     		ldrb	r3, [r4, #0]	@ zero_extendqisi2
 237 0016 013B     		subs	r3, r3, #1
 238 0018 DBB2     		uxtb	r3, r3
 239 001a 012B     		cmp	r3, #1
 240 001c 02D9     		bls	.L13
 241              		.loc 1 292 0 is_stmt 0 discriminator 1
 242 001e 0748     		ldr	r0, .L14+4
 243 0020 FFF7FEFF 		bl	chDbgPanic
 244              	.L13:
 245              		.loc 1 294 0 is_stmt 1
 246 0024 2046     		mov	r0, r4
 247 0026 FFF7FEFF 		bl	usb_lld_stop
 248              		.loc 1 295 0
 249 002a 0123     		movs	r3, #1
 250 002c 2370     		strb	r3, [r4, #0]
 251              		.loc 1 296 0
 252 002e FFF7FEFF 		bl	dbg_check_unlock
 253              	@ 296 "../chibios/os/hal/src/usb.c" 1
 254 0032 FFF7FEFF 		bl      _port_unlock
 255              	@ 0 "" 2
 256              		.loc 1 297 0
 257              		.thumb
 258 0036 10BD     		pop	{r4, pc}
 259              	.L15:
 260              		.align	2
 261              	.L14:
 262 0038 1C000000 		.word	.LC2
 263 003c 28000000 		.word	.LC3
 264              		.cfi_endproc
 265              	.LFE60:
 266              		.size	usbStop, .-usbStop
 267              		.section	.text.usbInitEndpointI,"ax",%progbits
 268              		.align	1
 269              		.global	usbInitEndpointI
 270              		.thumb
 271              		.thumb_func
 272              		.type	usbInitEndpointI, %function
 273              	usbInitEndpointI:
 274              	.LFB61:
 275              		.loc 1 313 0
 276              		.cfi_startproc
 277              		@ args = 0, pretend = 0, frame = 0
 278              		@ frame_needed = 0, uses_anonymous_args = 0
 279              	.LVL9:
 280 0000 2DE9F041 		push	{r4, r5, r6, r7, r8, lr}
 281              	.LCFI3:
ARM GAS  /tmp/ccfjwwPm.s 			page 6


 282              		.cfi_def_cfa_offset 24
 283              		.loc 1 313 0
 284 0004 0446     		mov	r4, r0
 285              		.cfi_offset 14, -4
 286              		.cfi_offset 8, -8
 287              		.cfi_offset 7, -12
 288              		.cfi_offset 6, -16
 289              		.cfi_offset 5, -20
 290              		.cfi_offset 4, -24
 291 0006 0E46     		mov	r6, r1
 292 0008 1546     		mov	r5, r2
 293              		.loc 1 315 0
 294 000a FFF7FEFF 		bl	chDbgCheckClassI
 295              	.LVL10:
 296              		.loc 1 316 0
 297 000e 04B1     		cbz	r4, .L17
 298              		.loc 1 316 0 is_stmt 0 discriminator 2
 299 0010 15B9     		cbnz	r5, .L18
 300              	.L17:
 301              		.loc 1 316 0 discriminator 1
 302 0012 1348     		ldr	r0, .L22
 303 0014 FFF7FEFF 		bl	chDbgPanic
 304              	.L18:
 305              		.loc 1 317 0 is_stmt 1
 306 0018 2378     		ldrb	r3, [r4, #0]	@ zero_extendqisi2
 307 001a 042B     		cmp	r3, #4
 308 001c 02D0     		beq	.L19
 309              		.loc 1 317 0 is_stmt 0 discriminator 1
 310 001e 1148     		ldr	r0, .L22+4
 311 0020 FFF7FEFF 		bl	chDbgPanic
 312              	.L19:
 313              		.loc 1 319 0 is_stmt 1
 314 0024 331D     		adds	r3, r6, #4
 315 0026 54F82330 		ldr	r3, [r4, r3, lsl #2]
 316 002a 13B1     		cbz	r3, .L20
 317              		.loc 1 319 0 is_stmt 0 discriminator 1
 318 002c 0E48     		ldr	r0, .L22+8
 319 002e FFF7FEFF 		bl	chDbgPanic
 320              	.L20:
 321              		.loc 1 323 0 is_stmt 1
 322 0032 2F68     		ldr	r7, [r5, #0]
 323 0034 17F01007 		ands	r7, r7, #16
 324 0038 09D1     		bne	.L21
 325              		.loc 1 324 0
 326 003a 3946     		mov	r1, r7
 327 003c 0C22     		movs	r2, #12
 328 003e 6869     		ldr	r0, [r5, #20]
 329 0040 FFF7FEFF 		bl	memset
 330              		.loc 1 325 0
 331 0044 A869     		ldr	r0, [r5, #24]
 332 0046 3946     		mov	r1, r7
 333 0048 1022     		movs	r2, #16
 334 004a FFF7FEFF 		bl	memset
 335              	.L21:
 336              		.loc 1 327 0
 337 004e 331D     		adds	r3, r6, #4
 338              		.loc 1 330 0
ARM GAS  /tmp/ccfjwwPm.s 			page 7


 339 0050 2046     		mov	r0, r4
 340 0052 3146     		mov	r1, r6
 341              		.loc 1 327 0
 342 0054 44F82350 		str	r5, [r4, r3, lsl #2]
 343              		.loc 1 331 0
 344 0058 BDE8F041 		pop	{r4, r5, r6, r7, r8, lr}
 345              		.loc 1 330 0
 346 005c FFF7FEBF 		b	usb_lld_init_endpoint
 347              	.L23:
 348              		.align	2
 349              	.L22:
 350 0060 36000000 		.word	.LC4
 351 0064 4B000000 		.word	.LC5
 352 0068 64000000 		.word	.LC6
 353              		.cfi_endproc
 354              	.LFE61:
 355              		.size	usbInitEndpointI, .-usbInitEndpointI
 356              		.section	.text.usbDisableEndpointsI,"ax",%progbits
 357              		.align	1
 358              		.global	usbDisableEndpointsI
 359              		.thumb
 360              		.thumb_func
 361              		.type	usbDisableEndpointsI, %function
 362              	usbDisableEndpointsI:
 363              	.LFB62:
 364              		.loc 1 344 0
 365              		.cfi_startproc
 366              		@ args = 0, pretend = 0, frame = 0
 367              		@ frame_needed = 0, uses_anonymous_args = 0
 368              	.LVL11:
 369 0000 10B5     		push	{r4, lr}
 370              	.LCFI4:
 371              		.cfi_def_cfa_offset 8
 372              		.loc 1 344 0
 373 0002 0446     		mov	r4, r0
 374              		.cfi_offset 14, -4
 375              		.cfi_offset 4, -8
 376              		.loc 1 347 0
 377 0004 FFF7FEFF 		bl	chDbgCheckClassI
 378              	.LVL12:
 379              		.loc 1 348 0
 380 0008 14B9     		cbnz	r4, .L25
 381              		.loc 1 348 0 is_stmt 0 discriminator 1
 382 000a 0F48     		ldr	r0, .L27
 383 000c FFF7FEFF 		bl	chDbgPanic
 384              	.L25:
 385              		.loc 1 349 0 is_stmt 1
 386 0010 2378     		ldrb	r3, [r4, #0]	@ zero_extendqisi2
 387 0012 032B     		cmp	r3, #3
 388 0014 02D0     		beq	.L26
 389              		.loc 1 349 0 is_stmt 0 discriminator 1
 390 0016 0D48     		ldr	r0, .L27+4
 391 0018 FFF7FEFF 		bl	chDbgPanic
 392              	.L26:
 393              		.loc 1 352 0 is_stmt 1
 394 001c A389     		ldrh	r3, [r4, #12]
 395              		.loc 1 358 0
ARM GAS  /tmp/ccfjwwPm.s 			page 8


 396 001e 2046     		mov	r0, r4
 397              		.loc 1 352 0
 398 0020 23F00103 		bic	r3, r3, #1
 399 0024 A381     		strh	r3, [r4, #12]	@ movhi
 400              		.loc 1 353 0
 401 0026 E389     		ldrh	r3, [r4, #14]
 402 0028 23F00103 		bic	r3, r3, #1
 403 002c E381     		strh	r3, [r4, #14]	@ movhi
 404              	.LVL13:
 405              		.loc 1 355 0
 406 002e 0023     		movs	r3, #0
 407 0030 6361     		str	r3, [r4, #20]
 408              	.LVL14:
 409 0032 A361     		str	r3, [r4, #24]
 410              	.LVL15:
 411 0034 E361     		str	r3, [r4, #28]
 412              	.LVL16:
 413 0036 2362     		str	r3, [r4, #32]
 414              	.LVL17:
 415 0038 6362     		str	r3, [r4, #36]
 416              	.LVL18:
 417 003a A362     		str	r3, [r4, #40]
 418              	.LVL19:
 419 003c E362     		str	r3, [r4, #44]
 420              	.LVL20:
 421              		.loc 1 359 0
 422 003e BDE81040 		pop	{r4, lr}
 423              		.loc 1 358 0
 424 0042 FFF7FEBF 		b	usb_lld_disable_endpoints
 425              	.L28:
 426 0046 00BF     		.align	2
 427              	.L27:
 428 0048 7D000000 		.word	.LC7
 429 004c 96000000 		.word	.LC8
 430              		.cfi_endproc
 431              	.LFE62:
 432              		.size	usbDisableEndpointsI, .-usbDisableEndpointsI
 433              		.section	.text.usbStartReceiveI,"ax",%progbits
 434              		.align	1
 435              		.global	usbStartReceiveI
 436              		.thumb
 437              		.thumb_func
 438              		.type	usbStartReceiveI, %function
 439              	usbStartReceiveI:
 440              	.LFB63:
 441              		.loc 1 374 0
 442              		.cfi_startproc
 443              		@ args = 0, pretend = 0, frame = 0
 444              		@ frame_needed = 0, uses_anonymous_args = 0
 445              	.LVL21:
 446 0000 70B5     		push	{r4, r5, r6, lr}
 447              	.LCFI5:
 448              		.cfi_def_cfa_offset 16
 449              		.loc 1 374 0
 450 0002 0446     		mov	r4, r0
 451              		.cfi_offset 14, -4
 452              		.cfi_offset 6, -8
ARM GAS  /tmp/ccfjwwPm.s 			page 9


 453              		.cfi_offset 5, -12
 454              		.cfi_offset 4, -16
 455 0004 0E46     		mov	r6, r1
 456              		.loc 1 376 0
 457 0006 FFF7FEFF 		bl	chDbgCheckClassI
 458              	.LVL22:
 459              		.loc 1 377 0
 460 000a 14B9     		cbnz	r4, .L30
 461              		.loc 1 377 0 is_stmt 0 discriminator 1
 462 000c 0948     		ldr	r0, .L33
 463 000e FFF7FEFF 		bl	chDbgPanic
 464              	.L30:
 465              		.loc 1 379 0 is_stmt 1
 466 0012 E389     		ldrh	r3, [r4, #14]
 467 0014 0120     		movs	r0, #1
 468 0016 53FA06F5 		asrs	r5, r3, r6
 469 001a 15F00105 		ands	r5, r5, #1
 470 001e 08D1     		bne	.L31
 471              		.loc 1 382 0
 472 0020 B040     		lsls	r0, r0, r6
 473 0022 40EA0303 		orr	r3, r0, r3
 474 0026 E381     		strh	r3, [r4, #14]	@ movhi
 475              		.loc 1 383 0
 476 0028 2046     		mov	r0, r4
 477 002a 3146     		mov	r1, r6
 478 002c FFF7FEFF 		bl	usb_lld_start_out
 479              		.loc 1 384 0
 480 0030 2846     		mov	r0, r5
 481              	.L31:
 482              		.loc 1 385 0
 483 0032 70BD     		pop	{r4, r5, r6, pc}
 484              	.L34:
 485              		.align	2
 486              	.L33:
 487 0034 B1000000 		.word	.LC9
 488              		.cfi_endproc
 489              	.LFE63:
 490              		.size	usbStartReceiveI, .-usbStartReceiveI
 491              		.section	.text.usbStartTransmitI,"ax",%progbits
 492              		.align	1
 493              		.global	usbStartTransmitI
 494              		.thumb
 495              		.thumb_func
 496              		.type	usbStartTransmitI, %function
 497              	usbStartTransmitI:
 498              	.LFB64:
 499              		.loc 1 400 0
 500              		.cfi_startproc
 501              		@ args = 0, pretend = 0, frame = 0
 502              		@ frame_needed = 0, uses_anonymous_args = 0
 503              	.LVL23:
 504 0000 70B5     		push	{r4, r5, r6, lr}
 505              	.LCFI6:
 506              		.cfi_def_cfa_offset 16
 507              		.loc 1 400 0
 508 0002 0446     		mov	r4, r0
 509              		.cfi_offset 14, -4
ARM GAS  /tmp/ccfjwwPm.s 			page 10


 510              		.cfi_offset 6, -8
 511              		.cfi_offset 5, -12
 512              		.cfi_offset 4, -16
 513 0004 0E46     		mov	r6, r1
 514              		.loc 1 402 0
 515 0006 FFF7FEFF 		bl	chDbgCheckClassI
 516              	.LVL24:
 517              		.loc 1 403 0
 518 000a 14B9     		cbnz	r4, .L36
 519              		.loc 1 403 0 is_stmt 0 discriminator 1
 520 000c 0948     		ldr	r0, .L39
 521 000e FFF7FEFF 		bl	chDbgPanic
 522              	.L36:
 523              		.loc 1 405 0 is_stmt 1
 524 0012 A389     		ldrh	r3, [r4, #12]
 525 0014 0120     		movs	r0, #1
 526 0016 53FA06F5 		asrs	r5, r3, r6
 527 001a 15F00105 		ands	r5, r5, #1
 528 001e 08D1     		bne	.L37
 529              		.loc 1 408 0
 530 0020 B040     		lsls	r0, r0, r6
 531 0022 40EA0303 		orr	r3, r0, r3
 532 0026 A381     		strh	r3, [r4, #12]	@ movhi
 533              		.loc 1 409 0
 534 0028 2046     		mov	r0, r4
 535 002a 3146     		mov	r1, r6
 536 002c FFF7FEFF 		bl	usb_lld_start_in
 537              		.loc 1 410 0
 538 0030 2846     		mov	r0, r5
 539              	.L37:
 540              		.loc 1 411 0
 541 0032 70BD     		pop	{r4, r5, r6, pc}
 542              	.L40:
 543              		.align	2
 544              	.L39:
 545 0034 C6000000 		.word	.LC10
 546              		.cfi_endproc
 547              	.LFE64:
 548              		.size	usbStartTransmitI, .-usbStartTransmitI
 549              		.section	.text.usbStallReceiveI,"ax",%progbits
 550              		.align	1
 551              		.global	usbStallReceiveI
 552              		.thumb
 553              		.thumb_func
 554              		.type	usbStallReceiveI, %function
 555              	usbStallReceiveI:
 556              	.LFB65:
 557              		.loc 1 424 0
 558              		.cfi_startproc
 559              		@ args = 0, pretend = 0, frame = 0
 560              		@ frame_needed = 0, uses_anonymous_args = 0
 561              	.LVL25:
 562 0000 70B5     		push	{r4, r5, r6, lr}
 563              	.LCFI7:
 564              		.cfi_def_cfa_offset 16
 565              		.loc 1 424 0
 566 0002 0446     		mov	r4, r0
ARM GAS  /tmp/ccfjwwPm.s 			page 11


 567              		.cfi_offset 14, -4
 568              		.cfi_offset 6, -8
 569              		.cfi_offset 5, -12
 570              		.cfi_offset 4, -16
 571 0004 0E46     		mov	r6, r1
 572              		.loc 1 426 0
 573 0006 FFF7FEFF 		bl	chDbgCheckClassI
 574              	.LVL26:
 575              		.loc 1 427 0
 576 000a 14B9     		cbnz	r4, .L42
 577              		.loc 1 427 0 is_stmt 0 discriminator 1
 578 000c 0748     		ldr	r0, .L45
 579 000e FFF7FEFF 		bl	chDbgPanic
 580              	.L42:
 581              		.loc 1 429 0 is_stmt 1
 582 0012 E589     		ldrh	r5, [r4, #14]
 583 0014 3541     		asrs	r5, r5, r6
 584 0016 15F00105 		ands	r5, r5, #1
 585 001a 05D1     		bne	.L44
 586              		.loc 1 432 0
 587 001c 2046     		mov	r0, r4
 588 001e 3146     		mov	r1, r6
 589 0020 FFF7FEFF 		bl	usb_lld_stall_out
 590              		.loc 1 433 0
 591 0024 2846     		mov	r0, r5
 592 0026 70BD     		pop	{r4, r5, r6, pc}
 593              	.L44:
 594              		.loc 1 430 0
 595 0028 0120     		movs	r0, #1
 596              		.loc 1 434 0
 597 002a 70BD     		pop	{r4, r5, r6, pc}
 598              	.L46:
 599              		.align	2
 600              	.L45:
 601 002c DC000000 		.word	.LC11
 602              		.cfi_endproc
 603              	.LFE65:
 604              		.size	usbStallReceiveI, .-usbStallReceiveI
 605              		.section	.text.usbStallTransmitI,"ax",%progbits
 606              		.align	1
 607              		.global	usbStallTransmitI
 608              		.thumb
 609              		.thumb_func
 610              		.type	usbStallTransmitI, %function
 611              	usbStallTransmitI:
 612              	.LFB66:
 613              		.loc 1 447 0
 614              		.cfi_startproc
 615              		@ args = 0, pretend = 0, frame = 0
 616              		@ frame_needed = 0, uses_anonymous_args = 0
 617              	.LVL27:
 618 0000 70B5     		push	{r4, r5, r6, lr}
 619              	.LCFI8:
 620              		.cfi_def_cfa_offset 16
 621              		.loc 1 447 0
 622 0002 0446     		mov	r4, r0
 623              		.cfi_offset 14, -4
ARM GAS  /tmp/ccfjwwPm.s 			page 12


 624              		.cfi_offset 6, -8
 625              		.cfi_offset 5, -12
 626              		.cfi_offset 4, -16
 627 0004 0E46     		mov	r6, r1
 628              		.loc 1 449 0
 629 0006 FFF7FEFF 		bl	chDbgCheckClassI
 630              	.LVL28:
 631              		.loc 1 450 0
 632 000a 14B9     		cbnz	r4, .L48
 633              		.loc 1 450 0 is_stmt 0 discriminator 1
 634 000c 0748     		ldr	r0, .L51
 635 000e FFF7FEFF 		bl	chDbgPanic
 636              	.L48:
 637              		.loc 1 452 0 is_stmt 1
 638 0012 A589     		ldrh	r5, [r4, #12]
 639 0014 3541     		asrs	r5, r5, r6
 640 0016 15F00105 		ands	r5, r5, #1
 641 001a 05D1     		bne	.L50
 642              		.loc 1 455 0
 643 001c 2046     		mov	r0, r4
 644 001e 3146     		mov	r1, r6
 645 0020 FFF7FEFF 		bl	usb_lld_stall_in
 646              		.loc 1 456 0
 647 0024 2846     		mov	r0, r5
 648 0026 70BD     		pop	{r4, r5, r6, pc}
 649              	.L50:
 650              		.loc 1 453 0
 651 0028 0120     		movs	r0, #1
 652              		.loc 1 457 0
 653 002a 70BD     		pop	{r4, r5, r6, pc}
 654              	.L52:
 655              		.align	2
 656              	.L51:
 657 002c F1000000 		.word	.LC12
 658              		.cfi_endproc
 659              	.LFE66:
 660              		.size	usbStallTransmitI, .-usbStallTransmitI
 661              		.section	.text._usb_reset,"ax",%progbits
 662              		.align	1
 663              		.global	_usb_reset
 664              		.thumb
 665              		.thumb_func
 666              		.type	_usb_reset, %function
 667              	_usb_reset:
 668              	.LFB67:
 669              		.loc 1 468 0
 670              		.cfi_startproc
 671              		@ args = 0, pretend = 0, frame = 0
 672              		@ frame_needed = 0, uses_anonymous_args = 0
 673              		@ link register save eliminated.
 674              	.LVL29:
 675              		.loc 1 471 0
 676 0000 0222     		movs	r2, #2
 677              		.loc 1 468 0
 678 0002 0346     		mov	r3, r0
 679              		.loc 1 471 0
 680 0004 0270     		strb	r2, [r0, #0]
ARM GAS  /tmp/ccfjwwPm.s 			page 13


 681              		.loc 1 472 0
 682 0006 023A     		subs	r2, r2, #2
 683 0008 A0F84820 		strh	r2, [r0, #72]	@ movhi
 684              		.loc 1 473 0
 685 000c 83F84A20 		strb	r2, [r3, #74]
 686              		.loc 1 474 0
 687 0010 80F84B20 		strb	r2, [r0, #75]
 688              		.loc 1 475 0
 689 0014 8281     		strh	r2, [r0, #12]	@ movhi
 690              		.loc 1 476 0
 691 0016 C281     		strh	r2, [r0, #14]	@ movhi
 692              	.LVL30:
 693              		.loc 1 480 0
 694 0018 0261     		str	r2, [r0, #16]
 695              	.LVL31:
 696 001a 4261     		str	r2, [r0, #20]
 697              	.LVL32:
 698 001c 8261     		str	r2, [r0, #24]
 699              	.LVL33:
 700 001e C261     		str	r2, [r0, #28]
 701              	.LVL34:
 702 0020 0262     		str	r2, [r0, #32]
 703              	.LVL35:
 704 0022 4262     		str	r2, [r0, #36]
 705              	.LVL36:
 706 0024 8262     		str	r2, [r0, #40]
 707              	.LVL37:
 708 0026 C262     		str	r2, [r0, #44]
 709              	.LVL38:
 710              		.loc 1 483 0
 711 0028 83F83020 		strb	r2, [r3, #48]
 712              		.loc 1 487 0
 713              		.loc 1 486 0
 714 002c FFF7FEBF 		b	usb_lld_reset
 715              		.cfi_endproc
 716              	.LFE67:
 717              		.size	_usb_reset, .-_usb_reset
 718              		.section	.text._usb_ep0setup,"ax",%progbits
 719              		.align	1
 720              		.global	_usb_ep0setup
 721              		.thumb
 722              		.thumb_func
 723              		.type	_usb_ep0setup, %function
 724              	_usb_ep0setup:
 725              	.LFB68:
 726              		.loc 1 499 0
 727              		.cfi_startproc
 728              		@ args = 0, pretend = 0, frame = 0
 729              		@ frame_needed = 0, uses_anonymous_args = 0
 730              	.LVL39:
 731              		.loc 1 502 0
 732 0000 0023     		movs	r3, #0
 733              		.loc 1 499 0
 734 0002 70B5     		push	{r4, r5, r6, lr}
 735              	.LCFI9:
 736              		.cfi_def_cfa_offset 16
 737              		.loc 1 503 0
ARM GAS  /tmp/ccfjwwPm.s 			page 14


 738 0004 00F14002 		add	r2, r0, #64
 739              		.loc 1 499 0
 740 0008 0446     		mov	r4, r0
 741              		.cfi_offset 14, -4
 742              		.cfi_offset 6, -8
 743              		.cfi_offset 5, -12
 744              		.cfi_offset 4, -16
 745              		.loc 1 502 0
 746 000a 80F83030 		strb	r3, [r0, #48]
 747              		.loc 1 503 0
 748 000e FFF7FEFF 		bl	usb_lld_read_setup
 749              	.LVL40:
 750              		.loc 1 507 0
 751 0012 6368     		ldr	r3, [r4, #4]
 752 0014 9B68     		ldr	r3, [r3, #8]
 753 0016 23B1     		cbz	r3, .L55
 754              		.loc 1 508 0 discriminator 1
 755 0018 2046     		mov	r0, r4
 756 001a 9847     		blx	r3
 757              		.loc 1 507 0 discriminator 1
 758 001c 0028     		cmp	r0, #0
 759 001e 40F0E280 		bne	.L56
 760              	.L55:
 761              		.loc 1 511 0
 762 0022 94F84030 		ldrb	r3, [r4, #64]	@ zero_extendqisi2
 763 0026 13F06005 		ands	r5, r3, #96
 764 002a 40F0CB80 		bne	.L57
 765              	.LVL41:
 766              	.LBB4:
 767              	.LBB5:
 768              		.loc 1 95 0
 769 002e 94F84160 		ldrb	r6, [r4, #65]	@ zero_extendqisi2
 770              		.loc 1 93 0
 771 0032 03F07F03 		and	r3, r3, #127
 772              		.loc 1 94 0
 773 0036 43EA0626 		orr	r6, r3, r6, lsl #8
 774              		.loc 1 93 0
 775 003a B6F5407F 		cmp	r6, #768
 776 003e 3BD0     		beq	.L64
 777 0040 0FDC     		bgt	.L70
 778 0042 022E     		cmp	r6, #2
 779 0044 77D0     		beq	.L61
 780 0046 04DC     		bgt	.L71
 781 0048 2EB3     		cbz	r6, .L59
 782 004a 012E     		cmp	r6, #1
 783 004c 40F0BA80 		bne	.L57
 784 0050 6BE0     		b	.L60
 785              	.L71:
 786 0052 B6F5807F 		cmp	r6, #256
 787 0056 25D0     		beq	.L62
 788 0058 B6F5817F 		cmp	r6, #258
 789 005c 40F0B280 		bne	.L57
 790 0060 85E0     		b	.L102
 791              	.L70:
 792 0062 B6F5C06F 		cmp	r6, #1536
 793 0066 39D0     		beq	.L67
 794 0068 09DC     		bgt	.L72
ARM GAS  /tmp/ccfjwwPm.s 			page 15


 795 006a 40F20233 		movw	r3, #770
 796 006e 9E42     		cmp	r6, r3
 797 0070 00F09080 		beq	.L65
 798 0074 B6F5A06F 		cmp	r6, #1280
 799 0078 40F0A480 		bne	.L57
 800 007c 2AE0     		b	.L103
 801              	.L72:
 802 007e B6F5106F 		cmp	r6, #2304
 803 0082 41D0     		beq	.L69
 804 0084 40F60243 		movw	r3, #3074
 805 0088 9E42     		cmp	r6, r3
 806 008a 4ED0     		beq	.L60
 807 008c B6F5006F 		cmp	r6, #2048
 808 0090 40F09880 		bne	.L57
 809 0094 32E0     		b	.L104
 810              	.L59:
 811              		.loc 1 98 0
 812 0096 04F14803 		add	r3, r4, #72
 813 009a 6363     		str	r3, [r4, #52]
 814 009c 0223     		movs	r3, #2
 815 009e A363     		str	r3, [r4, #56]
 816 00a0 E663     		str	r6, [r4, #60]
 817 00a2 A0E0     		b	.L56
 818              	.L62:
 819              		.loc 1 103 0
 820 00a4 94F84230 		ldrb	r3, [r4, #66]	@ zero_extendqisi2
 821 00a8 012B     		cmp	r3, #1
 822 00aa 40F08B80 		bne	.L57
 823              		.loc 1 104 0
 824 00ae B4F84830 		ldrh	r3, [r4, #72]
 825 00b2 23F00203 		bic	r3, r3, #2
 826 00b6 08E0     		b	.L96
 827              	.L64:
 828              		.loc 1 112 0
 829 00b8 94F84230 		ldrb	r3, [r4, #66]	@ zero_extendqisi2
 830 00bc 012B     		cmp	r3, #1
 831 00be 40F08180 		bne	.L57
 832              		.loc 1 113 0
 833 00c2 B4F84830 		ldrh	r3, [r4, #72]
 834 00c6 43F00203 		orr	r3, r3, #2
 835              	.L96:
 836 00ca A4F84830 		strh	r3, [r4, #72]	@ movhi
 837              		.loc 1 114 0
 838 00ce 6563     		str	r5, [r4, #52]
 839 00d0 A563     		str	r5, [r4, #56]
 840 00d2 4AE0     		b	.L92
 841              	.L103:
 842              		.loc 1 128 0
 843 00d4 6563     		str	r5, [r4, #52]
 844 00d6 A563     		str	r5, [r4, #56]
 845 00d8 644B     		ldr	r3, .L106
 846 00da 71E0     		b	.L93
 847              	.L67:
 848              		.loc 1 133 0
 849 00dc 6368     		ldr	r3, [r4, #4]
 850 00de 2046     		mov	r0, r4
 851 00e0 5E68     		ldr	r6, [r3, #4]
ARM GAS  /tmp/ccfjwwPm.s 			page 16


 852 00e2 94F84310 		ldrb	r1, [r4, #67]	@ zero_extendqisi2
 853 00e6 94F84220 		ldrb	r2, [r4, #66]	@ zero_extendqisi2
 854 00ea B4F84430 		ldrh	r3, [r4, #68]
 855 00ee B047     		blx	r6
 856              	.LVL42:
 857              		.loc 1 136 0
 858 00f0 0028     		cmp	r0, #0
 859 00f2 67D0     		beq	.L57
 860              		.loc 1 138 0
 861 00f4 4368     		ldr	r3, [r0, #4]
 862 00f6 6363     		str	r3, [r4, #52]
 863 00f8 0368     		ldr	r3, [r0, #0]
 864 00fa 03E0     		b	.L97
 865              	.LVL43:
 866              	.L104:
 867              		.loc 1 142 0
 868 00fc 04F14B03 		add	r3, r4, #75
 869 0100 6363     		str	r3, [r4, #52]
 870 0102 0123     		movs	r3, #1
 871              	.L97:
 872 0104 A363     		str	r3, [r4, #56]
 873 0106 30E0     		b	.L92
 874              	.L69:
 875              		.loc 1 146 0
 876 0108 94F84230 		ldrb	r3, [r4, #66]	@ zero_extendqisi2
 877 010c 84F84B30 		strb	r3, [r4, #75]
 878              		.loc 1 147 0
 879 0110 0BB9     		cbnz	r3, .L74
 880              		.loc 1 148 0
 881 0112 0333     		adds	r3, r3, #3
 882 0114 00E0     		b	.L91
 883              	.L74:
 884              		.loc 1 150 0
 885 0116 0423     		movs	r3, #4
 886              	.L91:
 887 0118 2370     		strb	r3, [r4, #0]
 888              		.loc 1 151 0
 889 011a 6368     		ldr	r3, [r4, #4]
 890 011c 1B68     		ldr	r3, [r3, #0]
 891 011e 002B     		cmp	r3, #0
 892 0120 4BD0     		beq	.L84
 893 0122 2046     		mov	r0, r4
 894 0124 0221     		movs	r1, #2
 895 0126 9847     		blx	r3
 896 0128 47E0     		b	.L84
 897              	.L60:
 898              		.loc 1 158 0
 899 012a 514B     		ldr	r3, .L106+4
 900 012c 6363     		str	r3, [r4, #52]
 901 012e 0223     		movs	r3, #2
 902 0130 A363     		str	r3, [r4, #56]
 903 0132 023B     		subs	r3, r3, #2
 904 0134 44E0     		b	.L93
 905              	.L61:
 906              		.loc 1 162 0
 907 0136 94F84410 		ldrb	r1, [r4, #68]	@ zero_extendqisi2
 908 013a 11F0800F 		tst	r1, #128
ARM GAS  /tmp/ccfjwwPm.s 			page 17


 909 013e 01F00F01 		and	r1, r1, #15
 910 0142 03D0     		beq	.L77
 911              		.loc 1 163 0
 912 0144 2046     		mov	r0, r4
 913 0146 FFF7FEFF 		bl	usb_lld_get_status_in
 914 014a 02E0     		b	.L101
 915              	.L77:
 916              		.loc 1 175 0
 917 014c 2046     		mov	r0, r4
 918 014e FFF7FEFF 		bl	usb_lld_get_status_out
 919              	.L101:
 920 0152 0128     		cmp	r0, #1
 921 0154 02D0     		beq	.L80
 922 0156 0228     		cmp	r0, #2
 923 0158 34D1     		bne	.L57
 924 015a 03E0     		b	.L105
 925              	.L80:
 926              		.loc 1 177 0
 927 015c 454B     		ldr	r3, .L106+8
 928 015e A663     		str	r6, [r4, #56]
 929 0160 6363     		str	r3, [r4, #52]
 930 0162 02E0     		b	.L92
 931              	.L105:
 932              		.loc 1 180 0
 933 0164 444B     		ldr	r3, .L106+12
 934 0166 A063     		str	r0, [r4, #56]
 935 0168 6363     		str	r3, [r4, #52]
 936              	.L92:
 937 016a E563     		str	r5, [r4, #60]
 938 016c 3BE0     		b	.L56
 939              	.L102:
 940              		.loc 1 188 0
 941 016e 94F84230 		ldrb	r3, [r4, #66]	@ zero_extendqisi2
 942 0172 3BBB     		cbnz	r3, .L57
 943              		.loc 1 191 0
 944 0174 94F84430 		ldrb	r3, [r4, #68]	@ zero_extendqisi2
 945 0178 13F00F01 		ands	r1, r3, #15
 946 017c 1DD0     		beq	.L84
 947              		.loc 1 192 0
 948 017e 13F0800F 		tst	r3, #128
 949 0182 03D0     		beq	.L83
 950              		.loc 1 193 0
 951 0184 2046     		mov	r0, r4
 952 0186 FFF7FEFF 		bl	usb_lld_clear_in
 953 018a 16E0     		b	.L84
 954              	.L83:
 955              		.loc 1 195 0
 956 018c 2046     		mov	r0, r4
 957 018e FFF7FEFF 		bl	usb_lld_clear_out
 958 0192 12E0     		b	.L84
 959              	.L65:
 960              		.loc 1 201 0
 961 0194 94F84230 		ldrb	r3, [r4, #66]	@ zero_extendqisi2
 962 0198 A3B9     		cbnz	r3, .L57
 963              		.loc 1 204 0
 964 019a 94F84430 		ldrb	r3, [r4, #68]	@ zero_extendqisi2
 965 019e 13F00F01 		ands	r1, r3, #15
ARM GAS  /tmp/ccfjwwPm.s 			page 18


 966 01a2 0AD0     		beq	.L84
 967              		.loc 1 205 0
 968 01a4 13F0800F 		tst	r3, #128
 969 01a8 C9B2     		uxtb	r1, r1
 970 01aa 03D0     		beq	.L85
 971              		.loc 1 206 0
 972 01ac 2046     		mov	r0, r4
 973 01ae FFF7FEFF 		bl	usb_lld_stall_in
 974 01b2 02E0     		b	.L84
 975              	.L85:
 976              		.loc 1 208 0
 977 01b4 2046     		mov	r0, r4
 978 01b6 FFF7FEFF 		bl	usb_lld_stall_out
 979              	.L84:
 980              		.loc 1 210 0
 981 01ba 0023     		movs	r3, #0
 982 01bc 6363     		str	r3, [r4, #52]
 983 01be A363     		str	r3, [r4, #56]
 984              	.L93:
 985 01c0 E363     		str	r3, [r4, #60]
 986 01c2 10E0     		b	.L56
 987              	.LVL44:
 988              	.L57:
 989              	.LBE5:
 990              	.LBE4:
 991              		.loc 1 516 0
 992 01c4 2046     		mov	r0, r4
 993 01c6 0021     		movs	r1, #0
 994 01c8 FFF7FEFF 		bl	usb_lld_stall_in
 995              		.loc 1 517 0
 996 01cc 2046     		mov	r0, r4
 997 01ce 0021     		movs	r1, #0
 998 01d0 FFF7FEFF 		bl	usb_lld_stall_out
 999              		.loc 1 518 0
 1000 01d4 6368     		ldr	r3, [r4, #4]
 1001 01d6 1B68     		ldr	r3, [r3, #0]
 1002 01d8 13B1     		cbz	r3, .L86
 1003              		.loc 1 518 0 is_stmt 0 discriminator 1
 1004 01da 2046     		mov	r0, r4
 1005 01dc 0521     		movs	r1, #5
 1006 01de 9847     		blx	r3
 1007              	.L86:
 1008              		.loc 1 519 0 is_stmt 1
 1009 01e0 0523     		movs	r3, #5
 1010 01e2 84F83030 		strb	r3, [r4, #48]
 1011              	.L56:
 1012              		.loc 1 526 0
 1013 01e6 B4F84630 		ldrh	r3, [r4, #70]
 1014              	.LVL45:
 1015              		.loc 1 528 0
 1016 01ea A26B     		ldr	r2, [r4, #56]
 1017 01ec 9A42     		cmp	r2, r3
 1018              		.loc 1 529 0
 1019 01ee 88BF     		it	hi
 1020 01f0 A363     		strhi	r3, [r4, #56]
 1021              		.loc 1 530 0
 1022 01f2 94F94030 		ldrsb	r3, [r4, #64]
ARM GAS  /tmp/ccfjwwPm.s 			page 19


 1023              	.LVL46:
 1024 01f6 A56B     		ldr	r5, [r4, #56]
 1025 01f8 002B     		cmp	r3, #0
 1026 01fa 18DA     		bge	.L88
 1027              		.loc 1 532 0
 1028 01fc 5DB1     		cbz	r5, .L89
 1029              		.loc 1 534 0
 1030 01fe 0123     		movs	r3, #1
 1031 0200 84F83030 		strb	r3, [r4, #48]
 1032              		.loc 1 535 0
 1033 0204 2046     		mov	r0, r4
 1034 0206 0021     		movs	r1, #0
 1035 0208 626B     		ldr	r2, [r4, #52]
 1036 020a 2B46     		mov	r3, r5
 1037 020c FFF7FEFF 		bl	usb_lld_prepare_transmit
 1038              		.loc 1 536 0
 1039 0210 2046     		mov	r0, r4
 1040 0212 0021     		movs	r1, #0
 1041 0214 26E0     		b	.L94
 1042              	.L89:
 1043              		.loc 1 541 0
 1044 0216 0223     		movs	r3, #2
 1045 0218 84F83030 		strb	r3, [r4, #48]
 1046              		.loc 1 542 0
 1047 021c 2046     		mov	r0, r4
 1048 021e 2946     		mov	r1, r5
 1049 0220 2A46     		mov	r2, r5
 1050 0222 2B46     		mov	r3, r5
 1051 0224 FFF7FEFF 		bl	usb_lld_prepare_receive
 1052              		.loc 1 543 0
 1053 0228 2046     		mov	r0, r4
 1054 022a 2946     		mov	r1, r5
 1055 022c 0BE0     		b	.L95
 1056              	.L88:
 1057              		.loc 1 548 0
 1058 022e 75B1     		cbz	r5, .L90
 1059              		.loc 1 550 0
 1060 0230 0323     		movs	r3, #3
 1061 0232 84F83030 		strb	r3, [r4, #48]
 1062              		.loc 1 551 0
 1063 0236 2046     		mov	r0, r4
 1064 0238 0021     		movs	r1, #0
 1065 023a 626B     		ldr	r2, [r4, #52]
 1066 023c 2B46     		mov	r3, r5
 1067 023e FFF7FEFF 		bl	usb_lld_prepare_receive
 1068              		.loc 1 552 0
 1069 0242 2046     		mov	r0, r4
 1070 0244 0021     		movs	r1, #0
 1071              	.L95:
 1072              		.loc 1 562 0
 1073 0246 BDE87040 		pop	{r4, r5, r6, lr}
 1074              		.loc 1 552 0
 1075 024a FFF7FEBF 		b	usb_lld_start_out
 1076              	.L90:
 1077              		.loc 1 557 0
 1078 024e 0423     		movs	r3, #4
 1079 0250 84F83030 		strb	r3, [r4, #48]
ARM GAS  /tmp/ccfjwwPm.s 			page 20


 1080              		.loc 1 558 0
 1081 0254 2046     		mov	r0, r4
 1082 0256 2946     		mov	r1, r5
 1083 0258 2A46     		mov	r2, r5
 1084 025a 2B46     		mov	r3, r5
 1085 025c FFF7FEFF 		bl	usb_lld_prepare_transmit
 1086              		.loc 1 559 0
 1087 0260 2046     		mov	r0, r4
 1088 0262 2946     		mov	r1, r5
 1089              	.L94:
 1090              		.loc 1 562 0
 1091 0264 BDE87040 		pop	{r4, r5, r6, lr}
 1092              		.loc 1 559 0
 1093 0268 FFF7FEBF 		b	usb_lld_start_in
 1094              	.L107:
 1095              		.align	2
 1096              	.L106:
 1097 026c 00000000 		.word	set_address
 1098 0270 00000000 		.word	.LANCHOR0
 1099 0274 00000000 		.word	.LANCHOR1
 1100 0278 00000000 		.word	.LANCHOR2
 1101              		.cfi_endproc
 1102              	.LFE68:
 1103              		.size	_usb_ep0setup, .-_usb_ep0setup
 1104              		.section	.text._usb_ep0in,"ax",%progbits
 1105              		.align	1
 1106              		.global	_usb_ep0in
 1107              		.thumb
 1108              		.thumb_func
 1109              		.type	_usb_ep0in, %function
 1110              	_usb_ep0in:
 1111              	.LFB69:
 1112              		.loc 1 574 0
 1113              		.cfi_startproc
 1114              		@ args = 0, pretend = 0, frame = 0
 1115              		@ frame_needed = 0, uses_anonymous_args = 0
 1116              	.LVL47:
 1117              		.loc 1 578 0
 1118 0000 90F83030 		ldrb	r3, [r0, #48]	@ zero_extendqisi2
 1119              		.loc 1 574 0
 1120 0004 70B5     		push	{r4, r5, r6, lr}
 1121              	.LCFI10:
 1122              		.cfi_def_cfa_offset 16
 1123              		.loc 1 578 0
 1124 0006 012B     		cmp	r3, #1
 1125              		.loc 1 574 0
 1126 0008 0446     		mov	r4, r0
 1127              		.cfi_offset 14, -4
 1128              		.cfi_offset 6, -8
 1129              		.cfi_offset 5, -12
 1130              		.cfi_offset 4, -16
 1131              		.loc 1 578 0
 1132 000a 02D0     		beq	.L110
 1133 000c 042B     		cmp	r3, #4
 1134 000e 2BD1     		bne	.L116
 1135 0010 25E0     		b	.L118
 1136              	.L110:
ARM GAS  /tmp/ccfjwwPm.s 			page 21


 1137              	.LVL48:
 1138              		.loc 1 584 0
 1139 0012 836B     		ldr	r3, [r0, #56]
 1140              		.loc 1 580 0
 1141 0014 B0F84620 		ldrh	r2, [r0, #70]
 1142              		.loc 1 584 0
 1143 0018 9342     		cmp	r3, r2
 1144 001a 11D2     		bcs	.L112
 1145              		.loc 1 585 0 discriminator 1
 1146 001c 0269     		ldr	r2, [r0, #16]
 1147 001e 128A     		ldrh	r2, [r2, #16]
 1148 0020 B3FBF2F5 		udiv	r5, r3, r2
 1149 0024 02FB1535 		mls	r5, r2, r5, r3
 1150              		.loc 1 584 0 discriminator 1
 1151 0028 55B9     		cbnz	r5, .L112
 1152              		.loc 1 586 0
 1153 002a 2946     		mov	r1, r5
 1154              	.LVL49:
 1155 002c 2A46     		mov	r2, r5
 1156 002e 2B46     		mov	r3, r5
 1157 0030 FFF7FEFF 		bl	usb_lld_prepare_transmit
 1158              	.LVL50:
 1159              		.loc 1 587 0
 1160 0034 2046     		mov	r0, r4
 1161 0036 2946     		mov	r1, r5
 1162              		.loc 1 612 0
 1163 0038 BDE87040 		pop	{r4, r5, r6, lr}
 1164              		.loc 1 587 0
 1165 003c FFF7FEBF 		b	usb_lld_start_in
 1166              	.LVL51:
 1167              	.L112:
 1168              		.loc 1 593 0
 1169 0040 0021     		movs	r1, #0
 1170              	.LVL52:
 1171              		.loc 1 592 0
 1172 0042 0223     		movs	r3, #2
 1173 0044 84F83030 		strb	r3, [r4, #48]
 1174              		.loc 1 593 0
 1175 0048 2046     		mov	r0, r4
 1176 004a 0A46     		mov	r2, r1
 1177 004c 0B46     		mov	r3, r1
 1178 004e FFF7FEFF 		bl	usb_lld_prepare_receive
 1179              	.LVL53:
 1180              		.loc 1 594 0
 1181 0052 2046     		mov	r0, r4
 1182 0054 0021     		movs	r1, #0
 1183              		.loc 1 612 0
 1184 0056 BDE87040 		pop	{r4, r5, r6, lr}
 1185              		.loc 1 594 0
 1186 005a FFF7FEBF 		b	usb_lld_start_out
 1187              	.LVL54:
 1188              	.L118:
 1189              		.loc 1 598 0
 1190 005e C36B     		ldr	r3, [r0, #60]
 1191 0060 03B1     		cbz	r3, .L113
 1192              		.loc 1 599 0
 1193 0062 9847     		blx	r3
ARM GAS  /tmp/ccfjwwPm.s 			page 22


 1194              	.LVL55:
 1195              	.L113:
 1196              		.loc 1 600 0
 1197 0064 0023     		movs	r3, #0
 1198 0066 0DE0     		b	.L117
 1199              	.LVL56:
 1200              	.L116:
 1201              		.loc 1 608 0
 1202 0068 0021     		movs	r1, #0
 1203              	.LVL57:
 1204 006a FFF7FEFF 		bl	usb_lld_stall_in
 1205              		.loc 1 609 0
 1206 006e 2046     		mov	r0, r4
 1207 0070 0021     		movs	r1, #0
 1208 0072 FFF7FEFF 		bl	usb_lld_stall_out
 1209              		.loc 1 610 0
 1210 0076 6368     		ldr	r3, [r4, #4]
 1211 0078 1B68     		ldr	r3, [r3, #0]
 1212 007a 13B1     		cbz	r3, .L115
 1213              		.loc 1 610 0 is_stmt 0 discriminator 1
 1214 007c 2046     		mov	r0, r4
 1215 007e 0521     		movs	r1, #5
 1216 0080 9847     		blx	r3
 1217              	.L115:
 1218              		.loc 1 611 0 is_stmt 1
 1219 0082 0523     		movs	r3, #5
 1220              	.L117:
 1221 0084 84F83030 		strb	r3, [r4, #48]
 1222 0088 70BD     		pop	{r4, r5, r6, pc}
 1223              		.cfi_endproc
 1224              	.LFE69:
 1225              		.size	_usb_ep0in, .-_usb_ep0in
 1226              		.section	.text._usb_ep0out,"ax",%progbits
 1227              		.align	1
 1228              		.global	_usb_ep0out
 1229              		.thumb
 1230              		.thumb_func
 1231              		.type	_usb_ep0out, %function
 1232              	_usb_ep0out:
 1233              	.LFB70:
 1234              		.loc 1 624 0
 1235              		.cfi_startproc
 1236              		@ args = 0, pretend = 0, frame = 0
 1237              		@ frame_needed = 0, uses_anonymous_args = 0
 1238              	.LVL58:
 1239              		.loc 1 627 0
 1240 0000 90F83030 		ldrb	r3, [r0, #48]	@ zero_extendqisi2
 1241              		.loc 1 624 0
 1242 0004 10B5     		push	{r4, lr}
 1243              	.LCFI11:
 1244              		.cfi_def_cfa_offset 8
 1245              		.loc 1 627 0
 1246 0006 022B     		cmp	r3, #2
 1247              		.loc 1 624 0
 1248 0008 0446     		mov	r4, r0
 1249              		.cfi_offset 14, -4
 1250              		.cfi_offset 4, -8
ARM GAS  /tmp/ccfjwwPm.s 			page 23


 1251              		.loc 1 627 0
 1252 000a 0FD0     		beq	.L121
 1253 000c 032B     		cmp	r3, #3
 1254 000e 16D1     		bne	.L120
 1255              		.loc 1 631 0
 1256 0010 0021     		movs	r1, #0
 1257              	.LVL59:
 1258              		.loc 1 630 0
 1259 0012 0133     		adds	r3, r3, #1
 1260 0014 80F83030 		strb	r3, [r0, #48]
 1261              		.loc 1 631 0
 1262 0018 0A46     		mov	r2, r1
 1263 001a 0B46     		mov	r3, r1
 1264 001c FFF7FEFF 		bl	usb_lld_prepare_transmit
 1265              	.LVL60:
 1266              		.loc 1 632 0
 1267 0020 2046     		mov	r0, r4
 1268 0022 0021     		movs	r1, #0
 1269              		.loc 1 653 0
 1270 0024 BDE81040 		pop	{r4, lr}
 1271              		.loc 1 632 0
 1272 0028 FFF7FEBF 		b	usb_lld_start_in
 1273              	.LVL61:
 1274              	.L121:
 1275              		.loc 1 637 0
 1276 002c 0369     		ldr	r3, [r0, #16]
 1277 002e 9B69     		ldr	r3, [r3, #24]
 1278 0030 DB68     		ldr	r3, [r3, #12]
 1279 0032 23B9     		cbnz	r3, .L120
 1280              		.loc 1 639 0
 1281 0034 C36B     		ldr	r3, [r0, #60]
 1282 0036 03B1     		cbz	r3, .L123
 1283              		.loc 1 640 0
 1284 0038 9847     		blx	r3
 1285              	.LVL62:
 1286              	.L123:
 1287              		.loc 1 641 0
 1288 003a 0023     		movs	r3, #0
 1289 003c 0EE0     		b	.L126
 1290              	.LVL63:
 1291              	.L120:
 1292              		.loc 1 649 0
 1293 003e 2046     		mov	r0, r4
 1294 0040 0021     		movs	r1, #0
 1295              	.LVL64:
 1296 0042 FFF7FEFF 		bl	usb_lld_stall_in
 1297              		.loc 1 650 0
 1298 0046 2046     		mov	r0, r4
 1299 0048 0021     		movs	r1, #0
 1300 004a FFF7FEFF 		bl	usb_lld_stall_out
 1301              		.loc 1 651 0
 1302 004e 6368     		ldr	r3, [r4, #4]
 1303 0050 1B68     		ldr	r3, [r3, #0]
 1304 0052 13B1     		cbz	r3, .L125
 1305              		.loc 1 651 0 is_stmt 0 discriminator 1
 1306 0054 2046     		mov	r0, r4
 1307 0056 0521     		movs	r1, #5
ARM GAS  /tmp/ccfjwwPm.s 			page 24


 1308 0058 9847     		blx	r3
 1309              	.L125:
 1310              		.loc 1 652 0 is_stmt 1
 1311 005a 0523     		movs	r3, #5
 1312              	.L126:
 1313 005c 84F83030 		strb	r3, [r4, #48]
 1314 0060 10BD     		pop	{r4, pc}
 1315              		.cfi_endproc
 1316              	.LFE70:
 1317              		.size	_usb_ep0out, .-_usb_ep0out
 1318              		.section	.rodata.zero_status,"a",%progbits
 1319              		.set	.LANCHOR0,. + 0
 1320              		.type	zero_status, %object
 1321              		.size	zero_status, 2
 1322              	zero_status:
 1323 0000 0000     		.space	2
 1324              		.section	.rodata.str1.1,"aMS",%progbits,1
 1325              	.LC0:
 1326 0000 22757362 		.ascii	"\"usbStart\"()\000"
 1326      53746172 
 1326      74222829 
 1326      00
 1327              	.LC1:
 1328 000d 75736253 		.ascii	"usbStart(), #1\000"
 1328      74617274 
 1328      28292C20 
 1328      233100
 1329              	.LC2:
 1330 001c 22757362 		.ascii	"\"usbStop\"()\000"
 1330      53746F70 
 1330      22282900 
 1331              	.LC3:
 1332 0028 75736253 		.ascii	"usbStop(), #1\000"
 1332      746F7028 
 1332      292C2023 
 1332      3100
 1333              	.LC4:
 1334 0036 22757362 		.ascii	"\"usbInitEndpointI\"()\000"
 1334      496E6974 
 1334      456E6470 
 1334      6F696E74 
 1334      49222829 
 1335              	.LC5:
 1336 004b 75736245 		.ascii	"usbEnableEndpointI(), #1\000"
 1336      6E61626C 
 1336      65456E64 
 1336      706F696E 
 1336      74492829 
 1337              	.LC6:
 1338 0064 75736245 		.ascii	"usbEnableEndpointI(), #2\000"
 1338      6E61626C 
 1338      65456E64 
 1338      706F696E 
 1338      74492829 
 1339              	.LC7:
 1340 007d 22757362 		.ascii	"\"usbDisableEndpointsI\"()\000"
 1340      44697361 
ARM GAS  /tmp/ccfjwwPm.s 			page 25


 1340      626C6545 
 1340      6E64706F 
 1340      696E7473 
 1341              	.LC8:
 1342 0096 75736244 		.ascii	"usbDisableEndpointsI(), #1\000"
 1342      69736162 
 1342      6C65456E 
 1342      64706F69 
 1342      6E747349 
 1343              	.LC9:
 1344 00b1 22757362 		.ascii	"\"usbStartReceiveI\"()\000"
 1344      53746172 
 1344      74526563 
 1344      65697665 
 1344      49222829 
 1345              	.LC10:
 1346 00c6 22757362 		.ascii	"\"usbStartTransmitI\"()\000"
 1346      53746172 
 1346      74547261 
 1346      6E736D69 
 1346      74492228 
 1347              	.LC11:
 1348 00dc 22757362 		.ascii	"\"usbStallReceiveI\"()\000"
 1348      5374616C 
 1348      6C526563 
 1348      65697665 
 1348      49222829 
 1349              	.LC12:
 1350 00f1 22757362 		.ascii	"\"usbStallTransmitI\"()\000"
 1350      5374616C 
 1350      6C547261 
 1350      6E736D69 
 1350      74492228 
 1351              		.section	.rodata.active_status,"a",%progbits
 1352              		.set	.LANCHOR2,. + 0
 1353              		.type	active_status, %object
 1354              		.size	active_status, 2
 1355              	active_status:
 1356 0000 0000     		.space	2
 1357              		.section	.rodata.halted_status,"a",%progbits
 1358              		.set	.LANCHOR1,. + 0
 1359              		.type	halted_status, %object
 1360              		.size	halted_status, 2
 1361              	halted_status:
 1362 0000 01       		.byte	1
 1363 0001 00       		.byte	0
 1364              		.text
 1365              	.Letext0: