ARM GAS  /tmp/ccfjwwPm.s 			page 1


   1              		.syntax unified
   2              		.cpu cortex-m3
   3              		.fpu softvfp
   4              		.eabi_attribute 20, 1
   5              		.eabi_attribute 21, 1
   6              		.eabi_attribute 23, 3
   7              		.eabi_attribute 24, 1
   8              		.eabi_attribute 25, 1
   9              		.eabi_attribute 26, 1
  10              		.eabi_attribute 30, 4
  11              		.eabi_attribute 18, 4
  12              		.thumb
  13              		.file	"usb.c"
  14              		.section	.debug_abbrev,"",%progbits
  15              	.Ldebug_abbrev0:
  16              		.section	.debug_info,"",%progbits
  17              	.Ldebug_info0:
  18              		.section	.debug_line,"",%progbits
  19              	.Ldebug_line0:
  20 0000 55040000 		.text
  20      0200D401 
  20      00000201 
  20      FB0E0D00 
  20      01010101 
  21              	.Ltext0:
  22              		.cfi_sections	.debug_frame
  23              		.section	.text.set_address,"ax",%progbits
  24              		.align	1
  25              		.thumb
  26              		.thumb_func
  27              		.type	set_address, %function
  28              	set_address:
  29              	.LFB55:
  30              		.file 1 "../chibios/os/hal/src/usb.c"
  31              		.loc 1 69 0
  32              		.cfi_startproc
  33              		@ args = 0, pretend = 0, frame = 0
  34              		@ frame_needed = 0, uses_anonymous_args = 0
  35              	.LVL0:
  36 0000 10B5     		push	{r4, lr}
  37              	.LCFI0:
  38              		.cfi_def_cfa_offset 8
  39              		.loc 1 71 0
  40 0002 90F84230 		ldrb	r3, [r0, #66]	@ zero_extendqisi2
  41              		.loc 1 69 0
  42 0006 0446     		mov	r4, r0
  43              		.cfi_offset 14, -4
  44              		.cfi_offset 4, -8
  45              		.loc 1 71 0
  46 0008 80F84A30 		strb	r3, [r0, #74]
  47              		.loc 1 72 0
  48 000c FFF7FEFF 		bl	usb_lld_set_address
  49              	.LVL1:
  50              		.loc 1 73 0
  51 0010 6368     		ldr	r3, [r4, #4]
  52 0012 1B68     		ldr	r3, [r3, #0]
  53 0014 13B1     		cbz	r3, .L2
ARM GAS  /tmp/ccfjwwPm.s 			page 2


  54              		.loc 1 73 0 is_stmt 0 discriminator 1
  55 0016 2046     		mov	r0, r4
  56 0018 0121     		movs	r1, #1
  57 001a 9847     		blx	r3
  58              	.L2:
  59              		.loc 1 74 0 is_stmt 1
  60 001c 0323     		movs	r3, #3
  61 001e 2370     		strb	r3, [r4, #0]
  62              		.loc 1 75 0
  63 0020 10BD     		pop	{r4, pc}
  64              		.cfi_endproc
  65              	.LFE55:
  66              		.size	set_address, .-set_address
  67              		.section	.text.usbInit,"ax",%progbits
  68              		.align	1
  69              		.global	usbInit
  70              		.thumb
  71              		.thumb_func
  72              		.type	usbInit, %function
  73              	usbInit:
  74              	.LFB57:
  75              		.loc 1 235 0
  76              		.cfi_startproc
  77              		@ args = 0, pretend = 0, frame = 0
  78              		@ frame_needed = 0, uses_anonymous_args = 0
  79              		@ link register save eliminated.
  80              		.loc 1 238 0
  81              		.loc 1 237 0
  82 0000 FFF7FEBF 		b	usb_lld_init
  83              		.cfi_endproc
  84              	.LFE57:
  85              		.size	usbInit, .-usbInit
  86              		.section	.text.usbObjectInit,"ax",%progbits
  87              		.align	1
  88              		.global	usbObjectInit
  89              		.thumb
  90              		.thumb_func
  91              		.type	usbObjectInit, %function
  92              	usbObjectInit:
  93              	.LFB58:
  94              		.loc 1 247 0
  95              		.cfi_startproc
  96              		@ args = 0, pretend = 0, frame = 0
  97              		@ frame_needed = 0, uses_anonymous_args = 0
  98              		@ link register save eliminated.
  99              	.LVL2:
 100              		.loc 1 249 0
 101 0000 0123     		movs	r3, #1
 102 0002 0370     		strb	r3, [r0, #0]
 103              		.loc 1 250 0
 104 0004 013B     		subs	r3, r3, #1
 105 0006 4360     		str	r3, [r0, #4]
 106              		.loc 1 251 0
 107 0008 8360     		str	r3, [r0, #8]
 108              		.loc 1 252 0
 109 000a 8381     		strh	r3, [r0, #12]	@ movhi
 110              		.loc 1 253 0
ARM GAS  /tmp/ccfjwwPm.s 			page 3


 111 000c C381     		strh	r3, [r0, #14]	@ movhi
 112              		.loc 1 254 0
 113 000e 7047     		bx	lr
 114              		.cfi_endproc
 115              	.LFE58:
 116              		.size	usbObjectInit, .-usbObjectInit
 117              		.section	.text.usbStart,"ax",%progbits
 118              		.align	1
 119              		.global	usbStart
 120              		.thumb
 121              		.thumb_func
 122              		.type	usbStart, %function
 123              	usbStart:
 124              	.LFB59:
 125              		.loc 1 264 0
 126              		.cfi_startproc
 127              		@ args = 0, pretend = 0, frame = 0
 128              		@ frame_needed = 0, uses_anonymous_args = 0
 129              	.LVL3:
 130 0000 38B5     		push	{r3, r4, r5, lr}
 131              	.LCFI1:
 132              		.cfi_def_cfa_offset 16
 133              		.loc 1 264 0
 134 0002 0D46     		mov	r5, r1
 135              		.cfi_offset 14, -4
 136              		.cfi_offset 5, -8
 137              		.cfi_offset 4, -12
 138              		.cfi_offset 3, -16
 139              		.loc 1 267 0
 140 0004 0446     		mov	r4, r0
 141 0006 00B1     		cbz	r0, .L6
 142              		.loc 1 267 0 is_stmt 0 discriminator 2
 143 0008 11B9     		cbnz	r1, .L7
 144              	.L6:
 145              		.loc 1 267 0 discriminator 1
 146 000a 1148     		ldr	r0, .L9
 147              	.LVL4:
 148 000c FFF7FEFF 		bl	chDbgPanic
 149              	.LVL5:
 150              	.L7:
 151              		.loc 1 269 0 is_stmt 1
 152              	@ 269 "../chibios/os/hal/src/usb.c" 1
 153 0010 FFF7FEFF 		bl      _port_lock
 154              	@ 0 "" 2
 155              		.thumb
 156 0014 FFF7FEFF 		bl	dbg_check_lock
 157              		.loc 1 270 0
 158 0018 2378     		ldrb	r3, [r4, #0]	@ zero_extendqisi2
 159 001a 013B     		subs	r3, r3, #1
 160 001c DBB2     		uxtb	r3, r3
 161 001e 012B     		cmp	r3, #1
 162 0020 02D9     		bls	.L8
 163              		.loc 1 270 0 is_stmt 0 discriminator 1
 164 0022 0C48     		ldr	r0, .L9+4
 165 0024 FFF7FEFF 		bl	chDbgPanic
 166              	.L8:
 167              		.loc 1 274 0 is_stmt 1
ARM GAS  /tmp/ccfjwwPm.s 			page 4


 168 0028 0023     		movs	r3, #0
 169 002a 2361     		str	r3, [r4, #16]
 170 002c 6361     		str	r3, [r4, #20]
 171 002e A361     		str	r3, [r4, #24]
 172 0030 E361     		str	r3, [r4, #28]
 173 0032 2362     		str	r3, [r4, #32]
 174 0034 6362     		str	r3, [r4, #36]
 175 0036 A362     		str	r3, [r4, #40]
 176 0038 E362     		str	r3, [r4, #44]
 177              		.loc 1 275 0
 178 003a 2046     		mov	r0, r4
 179              		.loc 1 272 0
 180 003c 6560     		str	r5, [r4, #4]
 181              	.LVL6:
 182              		.loc 1 275 0
 183 003e FFF7FEFF 		bl	usb_lld_start
 184              		.loc 1 276 0
 185 0042 0223     		movs	r3, #2
 186 0044 2370     		strb	r3, [r4, #0]
 187              		.loc 1 277 0
 188 0046 FFF7FEFF 		bl	dbg_check_unlock
 189              	@ 277 "../chibios/os/hal/src/usb.c" 1
 190 004a FFF7FEFF 		bl      _port_unlock
 191              	@ 0 "" 2
 192              		.loc 1 278 0
 193              		.thumb
 194 004e 38BD     		pop	{r3, r4, r5, pc}
 195              	.L10:
 196              		.align	2
 197              	.L9:
 198 0050 00000000 		.word	.LC0
 199 0054 0D000000 		.word	.LC1
 200              		.cfi_endproc
 201              	.LFE59:
 202              		.size	usbStart, .-usbStart
 203              		.section	.text.usbStop,"ax",%progbits
 204              		.align	1
 205              		.global	usbStop
 206              		.thumb
 207              		.thumb_func
 208              		.type	usbStop, %function
 209              	usbStop:
 210              	.LFB60:
 211              		.loc 1 287 0
 212              		.cfi_startproc
 213              		@ args = 0, pretend = 0, frame = 0
 214              		@ frame_needed = 0, uses_anonymous_args = 0
 215              	.LVL7:
 216 0000 10B5     		push	{r4, lr}
 217              	.LCFI2:
 218              		.cfi_def_cfa_offset 8
 219              		.loc 1 289 0
 220 0002 0446     		mov	r4, r0
 221              		.cfi_offset 14, -4
 222              		.cfi_offset 4, -8
 223 0004 10B9     		cbnz	r0, .L12
 224              		.loc 1 289 0 is_stmt 0 discriminator 1
ARM GAS  /tmp/ccfjwwPm.s 			page 5


 225 0006 0C48     		ldr	r0, .L14
 226              	.LVL8:
 227 0008 FFF7FEFF 		bl	chDbgPanic
 228              	.L12:
 229              		.loc 1 291 0 is_stmt 1
 230              	@ 291 "../chibios/os/hal/src/usb.c" 1
 231 000c FFF7FEFF 		bl      _port_lock
 232              	@ 0 "" 2
 233              		.thumb
 234 0010 FFF7FEFF 		bl	dbg_check_lock
 235              		.loc 1 292 0
 236 0014 2378     		ldrb	r3, [r4, #0]	@ zero_extendqisi2
 237 0016 013B     		subs	r3, r3, #1
 238 0018 DBB2     		uxtb	r3, r3
 239 001a 012B     		cmp	r3, #1
 240 001c 02D9     		bls	.L13
 241              		.loc 1 292 0 is_stmt 0 discriminator 1
 242 001e 0748     		ldr	r0, .L14+4
 243 0020 FFF7FEFF 		bl	chDbgPanic
 244              	.L13:
 245              		.loc 1 294 0 is_stmt 1
 246 0024 2046     		mov	r0, r4
 247 0026 FFF7FEFF 		bl	usb_lld_stop
 248              		.loc 1 295 0
 249 002a 0123     		movs	r3, #1
 250 002c 2370     		strb	r3, [r4, #0]
 251              		.loc 1 296 0
 252 002e FFF7FEFF 		bl	dbg_check_unlock
 253              	@ 296 "../chibios/os/hal/src/usb.c" 1
 254 0032 FFF7FEFF 		bl      _port_unlock
 255              	@ 0 "" 2
 256              		.loc 1 297 0
 257              		.thumb
 258 0036 10BD     		pop	{r4, pc}
 259              	.L15:
 260              		.align	2
 261              	.L14:
 262 0038 1C000000 		.word	.LC2
 263 003c 28000000 		.word	.LC3
 264              		.cfi_endproc
 265              	.LFE60:
 266              		.size	usbStop, .-usbStop
 267              		.section	.text.usbInitEndpointI,"ax",%progbits
 268              		.align	1
 269              		.global	usbInitEndpointI
 270              		.thumb
 271              		.thumb_func
 272              		.type	usbInitEndpointI, %function
 273              	usbInitEndpointI:
 274              	.LFB61:
 275              		.loc 1 313 0
 276              		.cfi_startproc
 277              		@ args = 0, pretend = 0, frame = 0
 278              		@ frame_needed = 0, uses_anonymous_args = 0
 279              	.LVL9:
 280 0000 2DE9F041 		push	{r4, r5, r6, r7, r8, lr}
 281              	.LCFI3:
ARM GAS  /tmp/ccfjwwPm.s 			page 6


 282              		.cfi_def_cfa_offset 24
 283              		.loc 1 313 0
 284 0004 0446     		mov	r4, r0
 285              		.cfi_offset 14, -4
 286              		.cfi_offset 8, -8
 287              		.cfi_offset 7, -12
 288              		.cfi_offset 6, -16
 289              		.cfi_offset 5, -20
 290              		.cfi_offset 4, -24
 291 0006 0E46     		mov	r6, r1
 292 0008 1546     		mov	r5, r2
 293              		.loc 1 315 0
 294 000a FFF7FEFF 		bl	chDbgCheckClassI
 295              	.LVL10:
 296              		.loc 1 316 0
 297 000e 04B1     		cbz	r4, .L17
 298              		.loc 1 316 0 is_stmt 0 discriminator 2
 299 0010 15B9     		cbnz	r5, .L18
 300              	.L17:
 301              		.loc 1 316 0 discriminator 1
 302 0012 1348     		ldr	r0, .L22
 303 0014 FFF7FEFF 		bl	chDbgPanic
 304              	.L18:
 305              		.loc 1 317 0 is_stmt 1
 306 0018 2378     		ldrb	r3, [r4, #0]	@ zero_extendqisi2
 307 001a 042B     		cmp	r3, #4
 308 001c 02D0     		beq	.L19
 309              		.loc 1 317 0 is_stmt 0 discriminator 1
 310 001e 1148     		ldr	r0, .L22+4
 311 0020 FFF7FEFF 		bl	chDbgPanic
 312              	.L19:
 313              		.loc 1 319 0 is_stmt 1
 314 0024 331D     		adds	r3, r6, #4
 315 0026 54F82330 		ldr	r3, [r4, r3, lsl #2]
 316 002a 13B1     		cbz	r3, .L20
 317              		.loc 1 319 0 is_stmt 0 discriminator 1
 318 002c 0E48     		ldr	r0, .L22+8
 319 002e FFF7FEFF 		bl	chDbgPanic
 320              	.L20:
 321              		.loc 1 323 0 is_stmt 1
 322 0032 2F68     		ldr	r7, [r5, #0]
 323 0034 17F01007 		ands	r7, r7, #16
 324 0038 09D1     		bne	.L21
 325              		.loc 1 324 0
 326 003a 3946     		mov	r1, r7
 327 003c 0C22     		movs	r2, #12
 328 003e 6869     		ldr	r0, [r5, #20]
 329 0040 FFF7FEFF 		bl	memset
 330              		.loc 1 325 0
 331 0044 A869     		ldr	r0, [r5, #24]
 332 0046 3946     		mov	r1, r7
 333 0048 1022     		movs	r2, #16
 334 004a FFF7FEFF 		bl	memset
 335              	.L21:
 336              		.loc 1 327 0
 337 004e 331D     		adds	r3, r6, #4
 338              		.loc 1 330 0
ARM GAS  /tmp/ccfjwwPm.s 			page 7


 339 0050 2046     		mov	r0, r4
 340 0052 3146     		mov	r1, r6
 341              		.loc 1 327 0
 342 0054 44F82350 		str	r5, [r4, r3, lsl #2]
 343              		.loc 1 331 0
 344 0058 BDE8F041 		pop	{r4, r5, r6, r7, r8, lr}
 345              		.loc 1 330 0
 346 005c FFF7FEBF 		b	usb_lld_init_endpoint
 347              	.L23:
 348              		.align	2
 349              	.L22:
 350 0060 36000000 		.word	.LC4
 351 0064 4B000000 		.word	.LC5
 352 0068 64000000 		.word	.LC6
 353              		.cfi_endproc
 354              	.LFE61:
 355              		.size	usbInitEndpointI, .-usbInitEndpointI
 356              		.section	.text.usbDisableEndpointsI,"ax",%progbits
 357              		.align	1
 358              		.global	usbDisableEndpointsI
 359              		.thumb
 360              		.thumb_func
 361              		.type	usbDisableEndpointsI, %function
 362              	usbDisableEndpointsI:
 363              	.LFB62:
 364              		.loc 1 344 0
 365              		.cfi_startproc
 366              		@ args = 0, pretend = 0, frame = 0
 367              		@ frame_needed = 0, uses_anonymous_args = 0
 368              	.LVL11:
 369 0000 10B5     		push	{r4, lr}
 370              	.LCFI4:
 371              		.cfi_def_cfa_offset 8
 372              		.loc 1 344 0
 373 0002 0446     		mov	r4, r0
 374              		.cfi_offset 14, -4
 375              		.cfi_offset 4, -8
 376              		.loc 1 347 0
 377 0004 FFF7FEFF 		bl	chDbgCheckClassI
 378              	.LVL12:
 379              		.loc 1 348 0
 380 0008 14B9     		cbnz	r4, .L25
 381              		.loc 1 348 0 is_stmt 0 discriminator 1
 382 000a 0F48     		ldr	r0, .L27
 383 000c FFF7FEFF 		bl	chDbgPanic
 384              	.L25:
 385              		.loc 1 349 0 is_stmt 1
 386 0010 2378     		ldrb	r3, [r4, #0]	@ zero_extendqisi2
 387 0012 032B     		cmp	r3, #3
 388 0014 02D0     		beq	.L26
 389              		.loc 1 349 0 is_stmt 0 discriminator 1
 390 0016 0D48     		ldr	r0, .L27+4
 391 0018 FFF7FEFF 		bl	chDbgPanic
 392              	.L26:
 393              		.loc 1 352 0 is_stmt 1
 394 001c A389     		ldrh	r3, [r4, #12]
 395              		.loc 1 358 0
ARM GAS  /tmp/ccfjwwPm.s 			page 8


 396 001e 2046     		mov	r0, r4
 397              		.loc 1 352 0
 398 0020 23F00103 		bic	r3, r3, #1
 399 0024 A381     		strh	r3, [r4, #12]	@ movhi
 400              		.loc 1 353 0
 401 0026 E389     		ldrh	r3, [r4, #14]
 402 0028 23F00103 		bic	r3, r3, #1
 403 002c E381     		strh	r3, [r4, #14]	@ movhi
 404              	.LVL13:
 405              		.loc 1 355 0
 406 002e 0023     		movs	r3, #0
 407 0030 6361     		str	r3, [r4, #20]
 408              	.LVL14:
 409 0032 A361     		str	r3, [r4, #24]
 410              	.LVL15:
 411 0034 E361     		str	r3, [r4, #28]
 412              	.LVL16:
 413 0036 2362     		str	r3, [r4, #32]
 414              	.LVL17:
 415 0038 6362     		str	r3, [r4, #36]
 416              	.LVL18:
 417 003a A362     		str	r3, [r4, #40]
 418              	.LVL19:
 419 003c E362     		str	r3, [r4, #44]
 420              	.LVL20:
 421              		.loc 1 359 0
 422 003e BDE81040 		pop	{r4, lr}
 423              		.loc 1 358 0
 424 0042 FFF7FEBF 		b	usb_lld_disable_endpoints
 425              	.L28:
 426 0046 00BF     		.align	2
 427              	.L27:
 428 0048 7D000000 		.word	.LC7
 429 004c 96000000 		.word	.LC8
 430              		.cfi_endproc
 431              	.LFE62:
 432              		.size	usbDisableEndpointsI, .-usbDisableEndpointsI
 433              		.section	.text.usbStartReceiveI,"ax",%progbits
 434              		.align	1
 435              		.global	usbStartReceiveI
 436              		.thumb
 437              		.thumb_func
 438              		.type	usbStartReceiveI, %function
 439              	usbStartReceiveI:
 440              	.LFB63:
 441              		.loc 1 374 0
 442              		.cfi_startproc
 443              		@ args = 0, pretend = 0, frame = 0
 444              		@ frame_needed = 0, uses_anonymous_args = 0
 445              	.LVL21:
 446 0000 70B5     		push	{r4, r5, r6, lr}
 447              	.LCFI5:
 448              		.cfi_def_cfa_offset 16
 449              		.loc 1 374 0
 450 0002 0446     		mov	r4, r0
 451              		.cfi_offset 14, -4
 452              		.cfi_offset 6, -8
ARM GAS  /tmp/ccfjwwPm.s 			page 9


 453              		.cfi_offset 5, -12
 454              		.cfi_offset 4, -16
 455 0004 0E46     		mov	r6, r1
 456              		.loc 1 376 0
 457 0006 FFF7FEFF 		bl	chDbgCheckClassI
 458              	.LVL22:
 459              		.loc 1 377 0
 460 000a 14B9     		cbnz	r4, .L30
 461              		.loc 1 377 0 is_stmt 0 discriminator 1
 462 000c 0948     		ldr	r0, .L33
 463 000e FFF7FEFF 		bl	chDbgPanic
 464              	.L30:
 465              		.loc 1 379 0 is_stmt 1
 466 0012 E389     		ldrh	r3, [r4, #14]
 467 0014 0120     		movs	r0, #1
 468 0016 53FA06F5 		asrs	r5, r3, r6
 469 001a 15F00105 		ands	r5, r5, #1
 470 001e 08D1     		bne	.L31
 471              		.loc 1 382 0
 472 0020 B040     		lsls	r0, r0, r6
 473 0022 40EA0303 		orr	r3, r0, r3
 474 0026 E381     		strh	r3, [r4, #14]	@ movhi
 475              		.loc 1 383 0
 476 0028 2046     		mov	r0, r4
 477 002a 3146     		mov	r1, r6
 478 002c FFF7FEFF 		bl	usb_lld_start_out
 479              		.loc 1 384 0
 480 0030 2846     		mov	r0, r5
 481              	.L31:
 482              		.loc 1 385 0
 483 0032 70BD     		pop	{r4, r5, r6, pc}
 484              	.L34:
 485              		.align	2
 486              	.L33:
 487 0034 B1000000 		.word	.LC9
 488              		.cfi_endproc
 489              	.LFE63:
 490              		.size	usbStartReceiveI, .-usbStartReceiveI
 491              		.section	.text.usbStartTransmitI,"ax",%progbits
 492              		.align	1
 493              		.global	usbStartTransmitI
 494              		.thumb
 495              		.thumb_func
 496              		.type	usbStartTransmitI, %function
 497              	usbStartTransmitI:
 498              	.LFB64:
 499              		.loc 1 400 0
 500              		.cfi_startproc
 501              		@ args = 0, pretend = 0, frame = 0
 502              		@ frame_needed = 0, uses_anonymous_args = 0
 503              	.LVL23:
 504 0000 70B5     		push	{r4, r5, r6, lr}
 505              	.LCFI6:
 506              		.cfi_def_cfa_offset 16
 507              		.loc 1 400 0
 508 0002 0446     		mov	r4, r0
 509              		.cfi_offset 14, -4
ARM GAS  /tmp/ccfjwwPm.s 			page 10


 510              		.cfi_offset 6, -8
 511              		.cfi_offset 5, -12
 512              		.cfi_offset 4, -16
 513 0004 0E46     		mov	r6, r1
 514              		.loc 1 402 0
 515 0006 FFF7FEFF 		bl	chDbgCheckClassI
 516              	.LVL24:
 517              		.loc 1 403 0
 518 000a 14B9     		cbnz	r4, .L36
 519              		.loc 1 403 0 is_stmt 0 discriminator 1
 520 000c 0948     		ldr	r0, .L39
 521 000e FFF7FEFF 		bl	chDbgPanic
 522              	.L36:
 523              		.loc 1 405 0 is_stmt 1
 524 0012 A389     		ldrh	r3, [r4, #12]
 525 0014 0120     		movs	r0, #1
 526 0016 53FA06F5 		asrs	r5, r3, r6
 527 001a 15F00105 		ands	r5, r5, #1
 528 001e 08D1     		bne	.L37
 529              		.loc 1 408 0
 530 0020 B040     		lsls	r0, r0, r6
 531 0022 40EA0303 		orr	r3, r0, r3
 532 0026 A381     		strh	r3, [r4, #12]	@ movhi
 533              		.loc 1 409 0
 534 0028 2046     		mov	r0, r4
 535 002a 3146     		mov	r1, r6
 536 002c FFF7FEFF 		bl	usb_lld_start_in
 537              		.loc 1 410 0
 538 0030 2846     		mov	r0, r5
 539              	.L37:
 540              		.loc 1 411 0
 541 0032 70BD     		pop	{r4, r5, r6, pc}
 542              	.L40:
 543              		.align	2
 544              	.L39:
 545 0034 C6000000 		.word	.LC10
 546              		.cfi_endproc
 547              	.LFE64:
 548              		.size	usbStartTransmitI, .-usbStartTransmitI
 549              		.section	.text.usbStallReceiveI,"ax",%progbits
 550              		.align	1
 551              		.global	usbStallReceiveI
 552              		.thumb
 553              		.thumb_func
 554              		.type	usbStallReceiveI, %function
 555              	usbStallReceiveI:
 556              	.LFB65:
 557              		.loc 1 424 0
 558              		.cfi_startproc
 559              		@ args = 0, pretend = 0, frame = 0
 560              		@ frame_needed = 0, uses_anonymous_args = 0
 561              	.LVL25:
 562 0000 70B5     		push	{r4, r5, r6, lr}
 563              	.LCFI7:
 564              		.cfi_def_cfa_offset 16
 565              		.loc 1 424 0
 566 0002 0446     		mov	r4, r0
ARM GAS  /tmp/ccfjwwPm.s 			page 11


 567              		.cfi_offset 14, -4
 568              		.cfi_offset 6, -8
 569              		.cfi_offset 5, -12
 570              		.cfi_offset 4, -16
 571 0004 0E46     		mov	r6, r1
 572              		.loc 1 426 0
 573 0006 FFF7FEFF 		bl	chDbgCheckClassI
 574              	.LVL26:
 575              		.loc 1 427 0
 576 000a 14B9     		cbnz	r4, .L42
 577              		.loc 1 427 0 is_stmt 0 discriminator 1
 578 000c 0748     		ldr	r0, .L45
 579 000e FFF7FEFF 		bl	chDbgPanic
 580              	.L42:
 581              		.loc 1 429 0 is_stmt 1
 582 0012 E589     		ldrh	r5, [r4, #14]
 583 0014 3541     		asrs	r5, r5, r6
 584 0016 15F00105 		ands	r5, r5, #1
 585 001a 05D1     		bne	.L44
 586              		.loc 1 432 0
 587 001c 2046     		mov	r0, r4
 588 001e 3146     		mov	r1, r6
 589 0020 FFF7FEFF 		bl	usb_lld_stall_out
 590              		.loc 1 433 0
 591 0024 2846     		mov	r0, r5
 592 0026 70BD     		pop	{r4, r5, r6, pc}
 593              	.L44:
 594              		.loc 1 430 0
 595 0028 0120     		movs	r0, #1
 596              		.loc 1 434 0
 597 002a 70BD     		pop	{r4, r5, r6, pc}
 598              	.L46:
 599              		.align	2
 600              	.L45:
 601 002c DC000000 		.word	.LC11
 602              		.cfi_endproc
 603              	.LFE65:
 604              		.size	usbStallReceiveI, .-usbStallReceiveI
 605              		.section	.text.usbStallTransmitI,"ax",%progbits
 606              		.align	1
 607              		.global	usbStallTransmitI
 608              		.thumb
 609              		.thumb_func
 610              		.type	usbStallTransmitI, %function
 611              	usbStallTransmitI:
 612              	.LFB66:
 613              		.loc 1 447 0
 614              		.cfi_startproc
 615              		@ args = 0, pretend = 0, frame = 0
 616              		@ frame_needed = 0, uses_anonymous_args = 0
 617              	.LVL27:
 618 0000 70B5     		push	{r4, r5, r6, lr}
 619              	.LCFI8:
 620              		.cfi_def_cfa_offset 16
 621              		.loc 1 447 0
 622 0002 0446     		mov	r4, r0
 623              		.cfi_offset 14, -4
ARM GAS  /tmp/ccfjwwPm.s 			page 12


 624              		.cfi_offset 6, -8
 625              		.cfi_offset 5, -12
 626              		.cfi_offset 4, -16
 627 0004 0E46     		mov	r6, r1
 628              		.loc 1 449 0
 629 0006 FFF7FEFF 		bl	chDbgCheckClassI
 630              	.LVL28:
 631              		.loc 1 450 0
 632 000a 14B9     		cbnz	r4, .L48
 633              		.loc 1 450 0 is_stmt 0 discriminator 1
 634 000c 0748     		ldr	r0, .L51
 635 000e FFF7FEFF 		bl	chDbgPanic
 636              	.L48:
 637              		.loc 1 452 0 is_stmt 1
 638 0012 A589     		ldrh	r5, [r4, #12]
 639 0014 3541     		asrs	r5, r5, r6
 640 0016 15F00105 		ands	r5, r5, #1
 641 001a 05D1     		bne	.L50
 642              		.loc 1 455 0
 643 001c 2046     		mov	r0, r4
 644 001e 3146     		mov	r1, r6
 645 0020 FFF7FEFF 		bl	usb_lld_stall_in
 646              		.loc 1 456 0
 647 0024 2846     		mov	r0, r5
 648 0026 70BD     		pop	{r4, r5, r6, pc}
 649              	.L50:
 650              		.loc 1 453 0
 651 0028 0120     		movs	r0, #1
 652              		.loc 1 457 0
 653 002a 70BD     		pop	{r4, r5, r6, pc}
 654              	.L52:
 655              		.align	2
 656              	.L51:
 657 002c F1000000 		.word	.LC12
 658              		.cfi_endproc
 659              	.LFE66:
 660              		.size	usbStallTransmitI, .-usbStallTransmitI
 661              		.section	.text._usb_reset,"ax",%progbits
 662              		.align	1
 663              		.global	_usb_reset
 664              		.thumb
 665              		.thumb_func
 666              		.type	_usb_reset, %function
 667              	_usb_reset:
 668              	.LFB67:
 669              		.loc 1 468 0
 670              		.cfi_startproc
 671              		@ args = 0, pretend = 0, frame = 0
 672              		@ frame_needed = 0, uses_anonymous_args = 0
 673              		@ link register save eliminated.
 674              	.LVL29:
 675              		.loc 1 471 0
 676 0000 0222     		movs	r2, #2
 677              		.loc 1 468 0
 678 0002 0346     		mov	r3, r0
 679              		.loc 1 471 0
 680 0004 0270     		strb	r2, [r0, #0]
ARM GAS  /tmp/ccfjwwPm.s 			page 13


 681              		.loc 1 472 0
 682 0006 023A     		subs	r2, r2, #2
 683 0008 A0F84820 		strh	r2, [r0, #72]	@ movhi
 684              		.loc 1 473 0
 685 000c 83F84A20 		strb	r2, [r3, #74]
 686              		.loc 1 474 0
 687 0010 80F84B20 		strb	r2, [r0, #75]
 688              		.loc 1 475 0
 689 0014 8281     		strh	r2, [r0, #12]	@ movhi
 690              		.loc 1 476 0
 691 0016 C281     		strh	r2, [r0, #14]	@ movhi
 692              	.LVL30:
 693              		.loc 1 480 0
 694 0018 0261     		str	r2, [r0, #16]
 695              	.LVL31:
 696 001a 4261     		str	r2, [r0, #20]
 697              	.LVL32:
 698 001c 8261     		str	r2, [r0, #24]
 699              	.LVL33:
 700 001e C261     		str	r2, [r0, #28]
 701              	.LVL34:
 702 0020 0262     		str	r2, [r0, #32]
 703              	.LVL35:
 704 0022 4262     		str	r2, [r0, #36]
 705              	.LVL36:
 706 0024 8262     		str	r2, [r0, #40]
 707              	.LVL37:
 708 0026 C262     		str	r2, [r0, #44]
 709              	.LVL38:
 710              		.loc 1 483 0
 711 0028 83F83020 		strb	r2, [r3, #48]
 712              		.loc 1 487 0
 713              		.loc 1 486 0
 714 002c FFF7FEBF 		b	usb_lld_reset
 715              		.cfi_endproc
 716              	.LFE67:
 717              		.size	_usb_reset, .-_usb_reset
 718              		.section	.text._usb_ep0setup,"ax",%progbits
 719              		.align	1
 720              		.global	_usb_ep0setup
 721              		.thumb
 722              		.thumb_func
 723              		.type	_usb_ep0setup, %function
 724              	_usb_ep0setup:
 725              	.LFB68:
 726              		.loc 1 499 0
 727              		.cfi_startproc
 728              		@ args = 0, pretend = 0, frame = 0
 729              		@ frame_needed = 0, uses_anonymous_args = 0
 730              	.LVL39:
 731              		.loc 1 502 0
 732 0000 0023     		movs	r3, #0
 733              		.loc 1 499 0
 734 0002 70B5     		push	{r4, r5, r6, lr}
 735              	.LCFI9:
 736              		.cfi_def_cfa_offset 16
 737              		.loc 1 503 0
ARM GAS  /tmp/ccfjwwPm.s 			page 14


 738 0004 00F14002 		add	r2, r0, #64
 739              		.loc 1 499 0
 740 0008 0446     		mov	r4, r0
 741              		.cfi_offset 14, -4
 742              		.cfi_offset 6, -8
 743              		.cfi_offset 5, -12
 744              		.cfi_offset 4, -16
 745              		.loc 1 502 0
 746 000a 80F83030 		strb	r3, [r0, #48]
 747              		.loc 1 503 0
 748 000e FFF7FEFF 		bl	usb_lld_read_setup
 749              	.LVL40:
 750              		.loc 1 507 0
 751 0012 6368     		ldr	r3, [r4, #4]
 752 0014 9B68     		ldr	r3, [r3, #8]
 753 0016 23B1     		cbz	r3, .L55
 754              		.loc 1 508 0 discriminator 1
 755 0018 2046     		mov	r0, r4
 756 001a 9847     		blx	r3
 757              		.loc 1 507 0 discriminator 1
 758 001c 0028     		cmp	r0, #0
 759 001e 40F0E280 		bne	.L56
 760              	.L55:
 761              		.loc 1 511 0
 762 0022 94F84030 		ldrb	r3, [r4, #64]	@ zero_extendqisi2
 763 0026 13F06005 		ands	r5, r3, #96
 764 002a 40F0CB80 		bne	.L57
 765              	.LVL41:
 766              	.LBB4:
 767              	.LBB5:
 768              		.loc 1 95 0
 769 002e 94F84160 		ldrb	r6, [r4, #65]	@ zero_extendqisi2
 770              		.loc 1 93 0
 771 0032 03F07F03 		and	r3, r3, #127
 772              		.loc 1 94 0
 773 0036 43EA0626 		orr	r6, r3, r6, lsl #8
 774              		.loc 1 93 0
 775 003a B6F5407F 		cmp	r6, #768
 776 003e 3BD0     		beq	.L64
 777 0040 0FDC     		bgt	.L70
 778 0042 022E     		cmp	r6, #2
 779 0044 77D0     		beq	.L61
 780 0046 04DC     		bgt	.L71
 781 0048 2EB3     		cbz	r6, .L59
 782 004a 012E     		cmp	r6, #1
 783 004c 40F0BA80 		bne	.L57
 784 0050 6BE0     		b	.L60
 785              	.L71:
 786 0052 B6F5807F 		cmp	r6, #256
 787 0056 25D0     		beq	.L62
 788 0058 B6F5817F 		cmp	r6, #258
 789 005c 40F0B280 		bne	.L57
 790 0060 85E0     		b	.L102
 791              	.L70:
 792 0062 B6F5C06F 		cmp	r6, #1536
 793 0066 39D0     		beq	.L67
 794 0068 09DC     		bgt	.L72
ARM GAS  /tmp/ccfjwwPm.s 			page 15


 795 006a 40F20233 		movw	r3, #770
 796 006e 9E42     		cmp	r6, r3
 797 0070 00F09080 		beq	.L65
 798 0074 B6F5A06F 		cmp	r6, #1280
 799 0078 40F0A480 		bne	.L57
 800 007c 2AE0     		b	.L103
 801              	.L72:
 802 007e B6F5106F 		cmp	r6, #2304
 803 0082 41D0     		beq	.L69
 804 0084 40F60243 		movw	r3, #3074
 805 0088 9E42     		cmp	r6, r3
 806 008a 4ED0     		beq	.L60
 807 008c B6F5006F 		cmp	r6, #2048
 808 0090 40F09880 		bne	.L57
 809 0094 32E0     		b	.L104
 810              	.L59:
 811              		.loc 1 98 0
 812 0096 04F14803 		add	r3, r4, #72
 813 009a 6363     		str	r3, [r4, #52]
 814 009c 0223     		movs	r3, #2
 815 009e A363     		str	r3, [r4, #56]
 816 00a0 E663     		str	r6, [r4, #60]
 817 00a2 A0E0     		b	.L56
 818              	.L62:
 819              		.loc 1 103 0
 820 00a4 94F84230 		ldrb	r3, [r4, #66]	@ zero_extendqisi2
 821 00a8 012B     		cmp	r3, #1
 822 00aa 40F08B80 		bne	.L57
 823              		.loc 1 104 0
 824 00ae B4F84830 		ldrh	r3, [r4, #72]
 825 00b2 23F00203 		bic	r3, r3, #2
 826 00b6 08E0     		b	.L96
 827              	.L64:
 828              		.loc 1 112 0
 829 00b8 94F84230 		ldrb	r3, [r4, #66]	@ zero_extendqisi2
 830 00bc 012B     		cmp	r3, #1
 831 00be 40F08180 		bne	.L57
 832              		.loc 1 113 0
 833 00c2 B4F84830 		ldrh	r3, [r4, #72]
 834 00c6 43F00203 		orr	r3, r3, #2
 835              	.L96:
 836 00ca A4F84830 		strh	r3, [r4, #72]	@ movhi
 837              		.loc 1 114 0
 838 00ce 6563     		str	r5, [r4, #52]
 839 00d0 A563     		str	r5, [r4, #56]
 840 00d2 4AE0     		b	.L92
 841              	.L103:
 842              		.loc 1 128 0
 843 00d4 6563     		str	r5, [r4, #52]
 844 00d6 A563     		str	r5, [r4, #56]
 845 00d8 644B     		ldr	r3, .L106
 846 00da 71E0     		b	.L93
 847              	.L67:
 848              		.loc 1 133 0
 849 00dc 6368     		ldr	r3, [r4, #4]
 850 00de 2046     		mov	r0, r4
 851 00e0 5E68     		ldr	r6, [r3, #4]
ARM GAS  /tmp/ccfjwwPm.s 			page 16


 852 00e2 94F84310 		ldrb	r1, [r4, #67]	@ zero_extendqisi2
 853 00e6 94F84220 		ldrb	r2, [r4, #66]	@ zero_extendqisi2
 854 00ea B4F84430 		ldrh	r3, [r4, #68]
 855 00ee B047     		blx	r6
 856              	.LVL42:
 857              		.loc 1 136 0
 858 00f0 0028     		cmp	r0, #0
 859 00f2 67D0     		beq	.L57
 860              		.loc 1 138 0
 861 00f4 4368     		ldr	r3, [r0, #4]
 862 00f6 6363     		str	r3, [r4, #52]
 863 00f8 0368     		ldr	r3, [r0, #0]
 864 00fa 03E0     		b	.L97
 865              	.LVL43:
 866              	.L104:
 867              		.loc 1 142 0
 868 00fc 04F14B03 		add	r3, r4, #75
 869 0100 6363     		str	r3, [r4, #52]
 870 0102 0123     		movs	r3, #1
 871              	.L97:
 872 0104 A363     		str	r3, [r4, #56]
 873 0106 30E0     		b	.L92
 874              	.L69:
 875              		.loc 1 146 0
 876 0108 94F84230 		ldrb	r3, [r4, #66]	@ zero_extendqisi2
 877 010c 84F84B30 		strb	r3, [r4, #75]
 878              		.loc 1 147 0
 879 0110 0BB9     		cbnz	r3, .L74
 880              		.loc 1 148 0
 881 0112 0333     		adds	r3, r3, #3
 882 0114 00E0     		b	.L91
 883              	.L74:
 884              		.loc 1 150 0
 885 0116 0423     		movs	r3, #4
 886              	.L91:
 887 0118 2370     		strb	r3, [r4, #0]
 888              		.loc 1 151 0
 889 011a 6368     		ldr	r3, [r4, #4]
 890 011c 1B68     		ldr	r3, [r3, #0]
 891 011e 002B     		cmp	r3, #0
 892 0120 4BD0     		beq	.L84
 893 0122 2046     		mov	r0, r4
 894 0124 0221     		movs	r1, #2
 895 0126 9847     		blx	r3
 896 0128 47E0     		b	.L84
 897              	.L60:
 898              		.loc 1 158 0
 899 012a 514B     		ldr	r3, .L106+4
 900 012c 6363     		str	r3, [r4, #52]
 901 012e 0223     		movs	r3, #2
 902 0130 A363     		str	r3, [r4, #56]
 903 0132 023B     		subs	r3, r3, #2
 904 0134 44E0     		b	.L93
 905              	.L61:
 906              		.loc 1 162 0
 907 0136 94F84410 		ldrb	r1, [r4, #68]	@ zero_extendqisi2
 908 013a 11F0800F 		tst	r1, #128
ARM GAS  /tmp/ccfjwwPm.s 			page 17


 909 013e 01F00F01 		and	r1, r1, #15
 910 0142 03D0     		beq	.L77
 911              		.loc 1 163 0
 912 0144 2046     		mov	r0, r4
 913 0146 FFF7FEFF 		bl	usb_lld_get_status_in
 914 014a 02E0     		b	.L101
 915              	.L77:
 916              		.loc 1 175 0
 917 014c 2046     		mov	r0, r4
 918 014e FFF7FEFF 		bl	usb_lld_get_status_out
 919              	.L101:
 920 0152 0128     		cmp	r0, #1
 921 0154 02D0     		beq	.L80
 922 0156 0228     		cmp	r0, #2
 923 0158 34D1     		bne	.L57
 924 015a 03E0     		b	.L105
 925              	.L80:
 926              		.loc 1 177 0
 927 015c 454B     		ldr	r3, .L106+8
 928 015e A663     		str	r6, [r4, #56]
 929 0160 6363     		str	r3, [r4, #52]
 930 0162 02E0     		b	.L92
 931              	.L105:
 932              		.loc 1 180 0
 933 0164 444B     		ldr	r3, .L106+12
 934 0166 A063     		str	r0, [r4, #56]
 935 0168 6363     		str	r3, [r4, #52]
 936              	.L92:
 937 016a E563     		str	r5, [r4, #60]
 938 016c 3BE0     		b	.L56
 939              	.L102:
 940              		.loc 1 188 0
 941 016e 94F84230 		ldrb	r3, [r4, #66]	@ zero_extendqisi2
 942 0172 3BBB     		cbnz	r3, .L57
 943              		.loc 1 191 0
 944 0174 94F84430 		ldrb	r3, [r4, #68]	@ zero_extendqisi2
 945 0178 13F00F01 		ands	r1, r3, #15
 946 017c 1DD0     		beq	.L84
 947              		.loc 1 192 0
 948 017e 13F0800F 		tst	r3, #128
 949 0182 03D0     		beq	.L83
 950              		.loc 1 193 0
 951 0184 2046     		mov	r0, r4
 952 0186 FFF7FEFF 		bl	usb_lld_clear_in
 953 018a 16E0     		b	.L84
 954              	.L83:
 955              		.loc 1 195 0
 956 018c 2046     		mov	r0, r4
 957 018e FFF7FEFF 		bl	usb_lld_clear_out
 958 0192 12E0     		b	.L84
 959              	.L65:
 960              		.loc 1 201 0
 961 0194 94F84230 		ldrb	r3, [r4, #66]	@ zero_extendqisi2
 962 0198 A3B9     		cbnz	r3, .L57
 963              		.loc 1 204 0
 964 019a 94F84430 		ldrb	r3, [r4, #68]	@ zero_extendqisi2
 965 019e 13F00F01 		ands	r1, r3, #15
ARM GAS  /tmp/ccfjwwPm.s 			page 18


 966 01a2 0AD0     		beq	.L84
 967              		.loc 1 205 0
 968 01a4 13F0800F 		tst	r3, #128
 969 01a8 C9B2     		uxtb	r1, r1
 970 01aa 03D0     		beq	.L85
 971              		.loc 1 206 0
 972 01ac 2046     		mov	r0, r4
 973 01ae FFF7FEFF 		bl	usb_lld_stall_in
 974 01b2 02E0     		b	.L84
 975              	.L85:
 976              		.loc 1 208 0
 977 01b4 2046     		mov	r0, r4
 978 01b6 FFF7FEFF 		bl	usb_lld_stall_out
 979              	.L84:
 980              		.loc 1 210 0
 981 01ba 0023     		movs	r3, #0
 982 01bc 6363     		str	r3, [r4, #52]
 983 01be A363     		str	r3, [r4, #56]
 984              	.L93:
 985 01c0 E363     		str	r3, [r4, #60]
 986 01c2 10E0     		b	.L56
 987              	.LVL44:
 988              	.L57:
 989              	.LBE5:
 990              	.LBE4:
 991              		.loc 1 516 0
 992 01c4 2046     		mov	r0, r4
 993 01c6 0021     		movs	r1, #0
 994 01c8 FFF7FEFF 		bl	usb_lld_stall_in
 995              		.loc 1 517 0
 996 01cc 2046     		mov	r0, r4
 997 01ce 0021     		movs	r1, #0
 998 01d0 FFF7FEFF 		bl	usb_lld_stall_out
 999              		.loc 1 518 0
 1000 01d4 6368     		ldr	r3, [r4, #4]
 1001 01d6 1B68     		ldr	r3, [r3, #0]
 1002 01d8 13B1     		cbz	r3, .L86
 1003              		.loc 1 518 0 is_stmt 0 discriminator 1
 1004 01da 2046     		mov	r0, r4
 1005 01dc 0521     		movs	r1, #5
 1006 01de 9847     		blx	r3
 1007              	.L86:
 1008              		.loc 1 519 0 is_stmt 1
 1009 01e0 0523     		movs	r3, #5
 1010 01e2 84F83030 		strb	r3, [r4, #48]
 1011              	.L56:
 1012              		.loc 1 526 0
 1013 01e6 B4F84630 		ldrh	r3, [r4, #70]
 1014              	.LVL45:
 1015              		.loc 1 528 0
 1016 01ea A26B     		ldr	r2, [r4, #56]
 1017 01ec 9A42     		cmp	r2, r3
 1018              		.loc 1 529 0
 1019 01ee 88BF     		it	hi
 1020 01f0 A363     		strhi	r3, [r4, #56]
 1021              		.loc 1 530 0
 1022 01f2 94F94030 		ldrsb	r3, [r4, #64]
ARM GAS  /tmp/ccfjwwPm.s 			page 19


 1023              	.LVL46:
 1024 01f6 A56B     		ldr	r5, [r4, #56]
 1025 01f8 002B     		cmp	r3, #0
 1026 01fa 18DA     		bge	.L88
 1027              		.loc 1 532 0
 1028 01fc 5DB1     		cbz	r5, .L89
 1029              		.loc 1 534 0
 1030 01fe 0123     		movs	r3, #1
 1031 0200 84F83030 		strb	r3, [r4, #48]
 1032              		.loc 1 535 0
 1033 0204 2046     		mov	r0, r4
 1034 0206 0021     		movs	r1, #0
 1035 0208 626B     		ldr	r2, [r4, #52]
 1036 020a 2B46     		mov	r3, r5
 1037 020c FFF7FEFF 		bl	usb_lld_prepare_transmit
 1038              		.loc 1 536 0
 1039 0210 2046     		mov	r0, r4
 1040 0212 0021     		movs	r1, #0
 1041 0214 26E0     		b	.L94
 1042              	.L89:
 1043              		.loc 1 541 0
 1044 0216 0223     		movs	r3, #2
 1045 0218 84F83030 		strb	r3, [r4, #48]
 1046              		.loc 1 542 0
 1047 021c 2046     		mov	r0, r4
 1048 021e 2946     		mov	r1, r5
 1049 0220 2A46     		mov	r2, r5
 1050 0222 2B46     		mov	r3, r5
 1051 0224 FFF7FEFF 		bl	usb_lld_prepare_receive
 1052              		.loc 1 543 0
 1053 0228 2046     		mov	r0, r4
 1054 022a 2946     		mov	r1, r5
 1055 022c 0BE0     		b	.L95
 1056              	.L88:
 1057              		.loc 1 548 0
 1058 022e 75B1     		cbz	r5, .L90
 1059              		.loc 1 550 0
 1060 0230 0323     		movs	r3, #3
 1061 0232 84F83030 		strb	r3, [r4, #48]
 1062              		.loc 1 551 0
 1063 0236 2046     		mov	r0, r4
 1064 0238 0021     		movs	r1, #0
 1065 023a 626B     		ldr	r2, [r4, #52]
 1066 023c 2B46     		mov	r3, r5
 1067 023e FFF7FEFF 		bl	usb_lld_prepare_receive
 1068              		.loc 1 552 0
 1069 0242 2046     		mov	r0, r4
 1070 0244 0021     		movs	r1, #0
 1071              	.L95:
 1072              		.loc 1 562 0
 1073 0246 BDE87040 		pop	{r4, r5, r6, lr}
 1074              		.loc 1 552 0
 1075 024a FFF7FEBF 		b	usb_lld_start_out
 1076              	.L90:
 1077              		.loc 1 557 0
 1078 024e 0423     		movs	r3, #4
 1079 0250 84F83030 		strb	r3, [r4, #48]
ARM GAS  /tmp/ccfjwwPm.s 			page 20


 1080              		.loc 1 558 0
 1081 0254 2046     		mov	r0, r4
 1082 0256 2946     		mov	r1, r5
 1083 0258 2A46     		mov	r2, r5
 1084 025a 2B46     		mov	r3, r5
 1085 025c FFF7FEFF 		bl	usb_lld_prepare_transmit
 1086              		.loc 1 559 0
 1087 0260 2046     		mov	r0, r4
 1088 0262 2946     		mov	r1, r5
 1089              	.L94:
 1090              		.loc 1 562 0
 1091 0264 BDE87040 		pop	{r4, r5, r6, lr}
 1092              		.loc 1 559 0
 1093 0268 FFF7FEBF 		b	usb_lld_start_in
 1094              	.L107:
 1095              		.align	2
 1096              	.L106:
 1097 026c 00000000 		.word	set_address
 1098 0270 00000000 		.word	.LANCHOR0
 1099 0274 00000000 		.word	.LANCHOR1
 1100 0278 00000000 		.word	.LANCHOR2
 1101              		.cfi_endproc
 1102              	.LFE68:
 1103              		.size	_usb_ep0setup, .-_usb_ep0setup
 1104              		.section	.text._usb_ep0in,"ax",%progbits
 1105              		.align	1
 1106              		.global	_usb_ep0in
 1107              		.thumb
 1108              		.thumb_func
 1109              		.type	_usb_ep0in, %function
 1110              	_usb_ep0in:
 1111              	.LFB69:
 1112              		.loc 1 574 0
 1113              		.cfi_startproc
 1114              		@ args = 0, pretend = 0, frame = 0
 1115              		@ frame_needed = 0, uses_anonymous_args = 0
 1116              	.LVL47:
 1117              		.loc 1 578 0
 1118 0000 90F83030 		ldrb	r3, [r0, #48]	@ zero_extendqisi2
 1119              		.loc 1 574 0
 1120 0004 70B5     		push	{r4, r5, r6, lr}
 1121              	.LCFI10:
 1122              		.cfi_def_cfa_offset 16
 1123              		.loc 1 578 0
 1124 0006 012B     		cmp	r3, #1
 1125              		.loc 1 574 0
 1126 0008 0446     		mov	r4, r0
 1127              		.cfi_offset 14, -4
 1128              		.cfi_offset 6, -8
 1129              		.cfi_offset 5, -12
 1130              		.cfi_offset 4, -16
 1131              		.loc 1 578 0
 1132 000a 02D0     		beq	.L110
 1133 000c 042B     		cmp	r3, #4
 1134 000e 2BD1     		bne	.L116
 1135 0010 25E0     		b	.L118
 1136              	.L110:
ARM GAS  /tmp/ccfjwwPm.s 			page 21


 1137              	.LVL48:
 1138              		.loc 1 584 0
 1139 0012 836B     		ldr	r3, [r0, #56]
 1140              		.loc 1 580 0
 1141 0014 B0F84620 		ldrh	r2, [r0, #70]
 1142              		.loc 1 584 0
 1143 0018 9342     		cmp	r3, r2
 1144 001a 11D2     		bcs	.L112
 1145              		.loc 1 585 0 discriminator 1
 1146 001c 0269     		ldr	r2, [r0, #16]
 1147 001e 128A     		ldrh	r2, [r2, #16]
 1148 0020 B3FBF2F5 		udiv	r5, r3, r2
 1149 0024 02FB1535 		mls	r5, r2, r5, r3
 1150              		.loc 1 584 0 discriminator 1
 1151 0028 55B9     		cbnz	r5, .L112
 1152              		.loc 1 586 0
 1153 002a 2946     		mov	r1, r5
 1154              	.LVL49:
 1155 002c 2A46     		mov	r2, r5
 1156 002e 2B46     		mov	r3, r5
 1157 0030 FFF7FEFF 		bl	usb_lld_prepare_transmit
 1158              	.LVL50:
 1159              		.loc 1 587 0
 1160 0034 2046     		mov	r0, r4
 1161 0036 2946     		mov	r1, r5
 1162              		.loc 1 612 0
 1163 0038 BDE87040 		pop	{r4, r5, r6, lr}
 1164              		.loc 1 587 0
 1165 003c FFF7FEBF 		b	usb_lld_start_in
 1166              	.LVL51:
 1167              	.L112:
 1168              		.loc 1 593 0
 1169 0040 0021     		movs	r1, #0
 1170              	.LVL52:
 1171              		.loc 1 592 0
 1172 0042 0223     		movs	r3, #2
 1173 0044 84F83030 		strb	r3, [r4, #48]
 1174              		.loc 1 593 0
 1175 0048 2046     		mov	r0, r4
 1176 004a 0A46     		mov	r2, r1
 1177 004c 0B46     		mov	r3, r1
 1178 004e FFF7FEFF 		bl	usb_lld_prepare_receive
 1179              	.LVL53:
 1180              		.loc 1 594 0
 1181 0052 2046     		mov	r0, r4
 1182 0054 0021     		movs	r1, #0
 1183              		.loc 1 612 0
 1184 0056 BDE87040 		pop	{r4, r5, r6, lr}
 1185              		.loc 1 594 0
 1186 005a FFF7FEBF 		b	usb_lld_start_out
 1187              	.LVL54:
 1188              	.L118:
 1189              		.loc 1 598 0
 1190 005e C36B     		ldr	r3, [r0, #60]
 1191 0060 03B1     		cbz	r3, .L113
 1192              		.loc 1 599 0
 1193 0062 9847     		blx	r3
ARM GAS  /tmp/ccfjwwPm.s 			page 22


 1194              	.LVL55:
 1195              	.L113:
 1196              		.loc 1 600 0
 1197 0064 0023     		movs	r3, #0
 1198 0066 0DE0     		b	.L117
 1199              	.LVL56:
 1200              	.L116:
 1201              		.loc 1 608 0
 1202 0068 0021     		movs	r1, #0
 1203              	.LVL57:
 1204 006a FFF7FEFF 		bl	usb_lld_stall_in
 1205              		.loc 1 609 0
 1206 006e 2046     		mov	r0, r4
 1207 0070 0021     		movs	r1, #0
 1208 0072 FFF7FEFF 		bl	usb_lld_stall_out
 1209              		.loc 1 610 0
 1210 0076 6368     		ldr	r3, [r4, #4]
 1211 0078 1B68     		ldr	r3, [r3, #0]
 1212 007a 13B1     		cbz	r3, .L115
 1213              		.loc 1 610 0 is_stmt 0 discriminator 1
 1214 007c 2046     		mov	r0, r4
 1215 007e 0521     		movs	r1, #5
 1216 0080 9847     		blx	r3
 1217              	.L115:
 1218              		.loc 1 611 0 is_stmt 1
 1219 0082 0523     		movs	r3, #5
 1220              	.L117:
 1221 0084 84F83030 		strb	r3, [r4, #48]
 1222 0088 70BD     		pop	{r4, r5, r6, pc}
 1223              		.cfi_endproc
 1224              	.LFE69:
 1225              		.size	_usb_ep0in, .-_usb_ep0in
 1226              		.section	.text._usb_ep0out,"ax",%progbits
 1227              		.align	1
 1228              		.global	_usb_ep0out
 1229              		.thumb
 1230              		.thumb_func
 1231              		.type	_usb_ep0out, %function
 1232              	_usb_ep0out:
 1233              	.LFB70:
 1234              		.loc 1 624 0
 1235              		.cfi_startproc
 1236              		@ args = 0, pretend = 0, frame = 0
 1237              		@ frame_needed = 0, uses_anonymous_args = 0
 1238              	.LVL58:
 1239              		.loc 1 627 0
 1240 0000 90F83030 		ldrb	r3, [r0, #48]	@ zero_extendqisi2
 1241              		.loc 1 624 0
 1242 0004 10B5     		push	{r4, lr}
 1243              	.LCFI11:
 1244              		.cfi_def_cfa_offset 8
 1245              		.loc 1 627 0
 1246 0006 022B     		cmp	r3, #2
 1247              		.loc 1 624 0
 1248 0008 0446     		mov	r4, r0
 1249              		.cfi_offset 14, -4
 1250              		.cfi_offset 4, -8
ARM GAS  /tmp/ccfjwwPm.s 			page 23


 1251              		.loc 1 627 0
 1252 000a 0FD0     		beq	.L121
 1253 000c 032B     		cmp	r3, #3
 1254 000e 16D1     		bne	.L120
 1255              		.loc 1 631 0
 1256 0010 0021     		movs	r1, #0
 1257              	.LVL59:
 1258              		.loc 1 630 0
 1259 0012 0133     		adds	r3, r3, #1
 1260 0014 80F83030 		strb	r3, [r0, #48]
 1261              		.loc 1 631 0
 1262 0018 0A46     		mov	r2, r1
 1263 001a 0B46     		mov	r3, r1
 1264 001c FFF7FEFF 		bl	usb_lld_prepare_transmit
 1265              	.LVL60:
 1266              		.loc 1 632 0
 1267 0020 2046     		mov	r0, r4
 1268 0022 0021     		movs	r1, #0
 1269              		.loc 1 653 0
 1270 0024 BDE81040 		pop	{r4, lr}
 1271              		.loc 1 632 0
 1272 0028 FFF7FEBF 		b	usb_lld_start_in
 1273              	.LVL61:
 1274              	.L121:
 1275              		.loc 1 637 0
 1276 002c 0369     		ldr	r3, [r0, #16]
 1277 002e 9B69     		ldr	r3, [r3, #24]
 1278 0030 DB68     		ldr	r3, [r3, #12]
 1279 0032 23B9     		cbnz	r3, .L120
 1280              		.loc 1 639 0
 1281 0034 C36B     		ldr	r3, [r0, #60]
 1282 0036 03B1     		cbz	r3, .L123
 1283              		.loc 1 640 0
 1284 0038 9847     		blx	r3
 1285              	.LVL62:
 1286              	.L123:
 1287              		.loc 1 641 0
 1288 003a 0023     		movs	r3, #0
 1289 003c 0EE0     		b	.L126
 1290              	.LVL63:
 1291              	.L120:
 1292              		.loc 1 649 0
 1293 003e 2046     		mov	r0, r4
 1294 0040 0021     		movs	r1, #0
 1295              	.LVL64:
 1296 0042 FFF7FEFF 		bl	usb_lld_stall_in
 1297              		.loc 1 650 0
 1298 0046 2046     		mov	r0, r4
 1299 0048 0021     		movs	r1, #0
 1300 004a FFF7FEFF 		bl	usb_lld_stall_out
 1301              		.loc 1 651 0
 1302 004e 6368     		ldr	r3, [r4, #4]
 1303 0050 1B68     		ldr	r3, [r3, #0]
 1304 0052 13B1     		cbz	r3, .L125
 1305              		.loc 1 651 0 is_stmt 0 discriminator 1
 1306 0054 2046     		mov	r0, r4
 1307 0056 0521     		movs	r1, #5
ARM GAS  /tmp/ccfjwwPm.s 			page 24


 1308 0058 9847     		blx	r3
 1309              	.L125:
 1310              		.loc 1 652 0 is_stmt 1
 1311 005a 0523     		movs	r3, #5
 1312              	.L126:
 1313 005c 84F83030 		strb	r3, [r4, #48]
 1314 0060 10BD     		pop	{r4, pc}
 1315              		.cfi_endproc
 1316              	.LFE70:
 1317              		.size	_usb_ep0out, .-_usb_ep0out
 1318              		.section	.rodata.zero_status,"a",%progbits
 1319              		.set	.LANCHOR0,. + 0
 1320              		.type	zero_status, %object
 1321              		.size	zero_status, 2
 1322              	zero_status:
 1323 0000 0000     		.space	2
 1324              		.section	.rodata.str1.1,"aMS",%progbits,1
 1325              	.LC0:
 1326 0000 22757362 		.ascii	"\"usbStart\"()\000"
 1326      53746172 
 1326      74222829 
 1326      00
 1327              	.LC1:
 1328 000d 75736253 		.ascii	"usbStart(), #1\000"
 1328      74617274 
 1328      28292C20 
 1328      233100
 1329              	.LC2:
 1330 001c 22757362 		.ascii	"\"usbStop\"()\000"
 1330      53746F70 
 1330      22282900 
 1331              	.LC3:
 1332 0028 75736253 		.ascii	"usbStop(), #1\000"
 1332      746F7028 
 1332      292C2023 
 1332      3100
 1333              	.LC4:
 1334 0036 22757362 		.ascii	"\"usbInitEndpointI\"()\000"
 1334      496E6974 
 1334      456E6470 
 1334      6F696E74 
 1334      49222829 
 1335              	.LC5:
 1336 004b 75736245 		.ascii	"usbEnableEndpointI(), #1\000"
 1336      6E61626C 
 1336      65456E64 
 1336      706F696E 
 1336      74492829 
 1337              	.LC6:
 1338 0064 75736245 		.ascii	"usbEnableEndpointI(), #2\000"
 1338      6E61626C 
 1338      65456E64 
 1338      706F696E 
 1338      74492829 
 1339              	.LC7:
 1340 007d 22757362 		.ascii	"\"usbDisableEndpointsI\"()\000"
 1340      44697361 
ARM GAS  /tmp/ccfjwwPm.s 			page 25


 1340      626C6545 
 1340      6E64706F 
 1340      696E7473 
 1341              	.LC8:
 1342 0096 75736244 		.ascii	"usbDisableEndpointsI(), #1\000"
 1342      69736162 
 1342      6C65456E 
 1342      64706F69 
 1342      6E747349 
 1343              	.LC9:
 1344 00b1 22757362 		.ascii	"\"usbStartReceiveI\"()\000"
 1344      53746172 
 1344      74526563 
 1344      65697665 
 1344      49222829 
 1345              	.LC10:
 1346 00c6 22757362 		.ascii	"\"usbStartTransmitI\"()\000"
 1346      53746172 
 1346      74547261 
 1346      6E736D69 
 1346      74492228 
 1347              	.LC11:
 1348 00dc 22757362 		.ascii	"\"usbStallReceiveI\"()\000"
 1348      5374616C 
 1348      6C526563 
 1348      65697665 
 1348      49222829 
 1349              	.LC12:
 1350 00f1 22757362 		.ascii	"\"usbStallTransmitI\"()\000"
 1350      5374616C 
 1350      6C547261 
 1350      6E736D69 
 1350      74492228 
 1351              		.section	.rodata.active_status,"a",%progbits
 1352              		.set	.LANCHOR2,. + 0
 1353              		.type	active_status, %object
 1354              		.size	active_status, 2
 1355              	active_status:
 1356 0000 0000     		.space	2
 1357              		.section	.rodata.halted_status,"a",%progbits
 1358              		.set	.LANCHOR1,. + 0
 1359              		.type	halted_status, %object
 1360              		.size	halted_status, 2
 1361              	halted_status:
 1362 0000 01       		.byte	1
 1363 0001 00       		.byte	0
 1364              		.text
 1365              	.Letext0:
 1366              		.section	.debug_loc,"",%progbits
 1367              	.Ldebug_loc0:
 1368              	.LLST0:
 1369 0000 00000000 		.4byte	.LFB55
 1370 0004 02000000 		.4byte	.LCFI0
 1371 0008 0200     		.2byte	0x2
 1372 000a 7D       		.byte	0x7d
 1373 000b 00       		.sleb128 0
 1374 000c 02000000 		.4byte	.LCFI0
ARM GAS  /tmp/ccfjwwPm.s 			page 26


 1375 0010 22000000 		.4byte	.LFE55
 1376 0014 0200     		.2byte	0x2
 1377 0016 7D       		.byte	0x7d
 1378 0017 08       		.sleb128 8
 1379 0018 00000000 		.4byte	0x0
 1380 001c 00000000 		.4byte	0x0
 1381              	.LLST1:
 1382 0020 00000000 		.4byte	.LVL0
 1383 0024 0F000000 		.4byte	.LVL1-1
 1384 0028 0100     		.2byte	0x1
 1385 002a 50       		.byte	0x50
 1386 002b 0F000000 		.4byte	.LVL1-1
 1387 002f 22000000 		.4byte	.LFE55
 1388 0033 0100     		.2byte	0x1
 1389 0035 54       		.byte	0x54
 1390 0036 00000000 		.4byte	0x0
 1391 003a 00000000 		.4byte	0x0
 1392              	.LLST2:
 1393 003e 00000000 		.4byte	.LFB59
 1394 0042 02000000 		.4byte	.LCFI1
 1395 0046 0200     		.2byte	0x2
 1396 0048 7D       		.byte	0x7d
 1397 0049 00       		.sleb128 0
 1398 004a 02000000 		.4byte	.LCFI1
 1399 004e 58000000 		.4byte	.LFE59
 1400 0052 0200     		.2byte	0x2
 1401 0054 7D       		.byte	0x7d
 1402 0055 10       		.sleb128 16
 1403 0056 00000000 		.4byte	0x0
 1404 005a 00000000 		.4byte	0x0
 1405              	.LLST3:
 1406 005e 00000000 		.4byte	.LVL3
 1407 0062 0C000000 		.4byte	.LVL4
 1408 0066 0100     		.2byte	0x1
 1409 0068 50       		.byte	0x50
 1410 0069 0C000000 		.4byte	.LVL4
 1411 006d 58000000 		.4byte	.LFE59
 1412 0071 0100     		.2byte	0x1
 1413 0073 54       		.byte	0x54
 1414 0074 00000000 		.4byte	0x0
 1415 0078 00000000 		.4byte	0x0
 1416              	.LLST4:
 1417 007c 00000000 		.4byte	.LVL3
 1418 0080 0F000000 		.4byte	.LVL5-1
 1419 0084 0100     		.2byte	0x1
 1420 0086 51       		.byte	0x51
 1421 0087 0F000000 		.4byte	.LVL5-1
 1422 008b 58000000 		.4byte	.LFE59
 1423 008f 0100     		.2byte	0x1
 1424 0091 55       		.byte	0x55
 1425 0092 00000000 		.4byte	0x0
 1426 0096 00000000 		.4byte	0x0
 1427              	.LLST5:
 1428 009a 3E000000 		.4byte	.LVL6
 1429 009e 58000000 		.4byte	.LFE59
 1430 00a2 0200     		.2byte	0x2
 1431 00a4 38       		.byte	0x38
ARM GAS  /tmp/ccfjwwPm.s 			page 27


 1432 00a5 9F       		.byte	0x9f
 1433 00a6 00000000 		.4byte	0x0
 1434 00aa 00000000 		.4byte	0x0
 1435              	.LLST6:
 1436 00ae 00000000 		.4byte	.LFB60
 1437 00b2 02000000 		.4byte	.LCFI2
 1438 00b6 0200     		.2byte	0x2
 1439 00b8 7D       		.byte	0x7d
 1440 00b9 00       		.sleb128 0
 1441 00ba 02000000 		.4byte	.LCFI2
 1442 00be 40000000 		.4byte	.LFE60
 1443 00c2 0200     		.2byte	0x2
 1444 00c4 7D       		.byte	0x7d
 1445 00c5 08       		.sleb128 8
 1446 00c6 00000000 		.4byte	0x0
 1447 00ca 00000000 		.4byte	0x0
 1448              	.LLST7:
 1449 00ce 00000000 		.4byte	.LVL7
 1450 00d2 08000000 		.4byte	.LVL8
 1451 00d6 0100     		.2byte	0x1
 1452 00d8 50       		.byte	0x50
 1453 00d9 08000000 		.4byte	.LVL8
 1454 00dd 40000000 		.4byte	.LFE60
 1455 00e1 0100     		.2byte	0x1
 1456 00e3 54       		.byte	0x54
 1457 00e4 00000000 		.4byte	0x0
 1458 00e8 00000000 		.4byte	0x0
 1459              	.LLST8:
 1460 00ec 00000000 		.4byte	.LFB61
 1461 00f0 04000000 		.4byte	.LCFI3
 1462 00f4 0200     		.2byte	0x2
 1463 00f6 7D       		.byte	0x7d
 1464 00f7 00       		.sleb128 0
 1465 00f8 04000000 		.4byte	.LCFI3
 1466 00fc 6C000000 		.4byte	.LFE61
 1467 0100 0200     		.2byte	0x2
 1468 0102 7D       		.byte	0x7d
 1469 0103 18       		.sleb128 24
 1470 0104 00000000 		.4byte	0x0
 1471 0108 00000000 		.4byte	0x0
 1472              	.LLST9:
 1473 010c 00000000 		.4byte	.LVL9
 1474 0110 0D000000 		.4byte	.LVL10-1
 1475 0114 0100     		.2byte	0x1
 1476 0116 50       		.byte	0x50
 1477 0117 0D000000 		.4byte	.LVL10-1
 1478 011b 6C000000 		.4byte	.LFE61
 1479 011f 0100     		.2byte	0x1
 1480 0121 54       		.byte	0x54
 1481 0122 00000000 		.4byte	0x0
 1482 0126 00000000 		.4byte	0x0
 1483              	.LLST10:
 1484 012a 00000000 		.4byte	.LVL9
 1485 012e 0D000000 		.4byte	.LVL10-1
 1486 0132 0100     		.2byte	0x1
 1487 0134 51       		.byte	0x51
 1488 0135 00000000 		.4byte	0x0
ARM GAS  /tmp/ccfjwwPm.s 			page 28


 1489 0139 00000000 		.4byte	0x0
 1490              	.LLST11:
 1491 013d 00000000 		.4byte	.LVL9
 1492 0141 0D000000 		.4byte	.LVL10-1
 1493 0145 0100     		.2byte	0x1
 1494 0147 52       		.byte	0x52
 1495 0148 0D000000 		.4byte	.LVL10-1
 1496 014c 6C000000 		.4byte	.LFE61
 1497 0150 0100     		.2byte	0x1
 1498 0152 55       		.byte	0x55
 1499 0153 00000000 		.4byte	0x0
 1500 0157 00000000 		.4byte	0x0
 1501              	.LLST12:
 1502 015b 00000000 		.4byte	.LFB62
 1503 015f 02000000 		.4byte	.LCFI4
 1504 0163 0200     		.2byte	0x2
 1505 0165 7D       		.byte	0x7d
 1506 0166 00       		.sleb128 0
 1507 0167 02000000 		.4byte	.LCFI4
 1508 016b 50000000 		.4byte	.LFE62
 1509 016f 0200     		.2byte	0x2
 1510 0171 7D       		.byte	0x7d
 1511 0172 08       		.sleb128 8
 1512 0173 00000000 		.4byte	0x0
 1513 0177 00000000 		.4byte	0x0
 1514              	.LLST13:
 1515 017b 00000000 		.4byte	.LVL11
 1516 017f 07000000 		.4byte	.LVL12-1
 1517 0183 0100     		.2byte	0x1
 1518 0185 50       		.byte	0x50
 1519 0186 07000000 		.4byte	.LVL12-1
 1520 018a 50000000 		.4byte	.LFE62
 1521 018e 0100     		.2byte	0x1
 1522 0190 54       		.byte	0x54
 1523 0191 00000000 		.4byte	0x0
 1524 0195 00000000 		.4byte	0x0
 1525              	.LLST14:
 1526 0199 2E000000 		.4byte	.LVL13
 1527 019d 32000000 		.4byte	.LVL14
 1528 01a1 0200     		.2byte	0x2
 1529 01a3 31       		.byte	0x31
 1530 01a4 9F       		.byte	0x9f
 1531 01a5 32000000 		.4byte	.LVL14
 1532 01a9 34000000 		.4byte	.LVL15
 1533 01ad 0200     		.2byte	0x2
 1534 01af 32       		.byte	0x32
 1535 01b0 9F       		.byte	0x9f
 1536 01b1 34000000 		.4byte	.LVL15
 1537 01b5 36000000 		.4byte	.LVL16
 1538 01b9 0200     		.2byte	0x2
 1539 01bb 33       		.byte	0x33
 1540 01bc 9F       		.byte	0x9f
 1541 01bd 36000000 		.4byte	.LVL16
 1542 01c1 38000000 		.4byte	.LVL17
 1543 01c5 0200     		.2byte	0x2
 1544 01c7 34       		.byte	0x34
 1545 01c8 9F       		.byte	0x9f
ARM GAS  /tmp/ccfjwwPm.s 			page 29


 1546 01c9 38000000 		.4byte	.LVL17
 1547 01cd 3A000000 		.4byte	.LVL18
 1548 01d1 0200     		.2byte	0x2
 1549 01d3 35       		.byte	0x35
 1550 01d4 9F       		.byte	0x9f
 1551 01d5 3A000000 		.4byte	.LVL18
 1552 01d9 3C000000 		.4byte	.LVL19
 1553 01dd 0200     		.2byte	0x2
 1554 01df 36       		.byte	0x36
 1555 01e0 9F       		.byte	0x9f
 1556 01e1 3C000000 		.4byte	.LVL19
 1557 01e5 3E000000 		.4byte	.LVL20
 1558 01e9 0200     		.2byte	0x2
 1559 01eb 37       		.byte	0x37
 1560 01ec 9F       		.byte	0x9f
 1561 01ed 3E000000 		.4byte	.LVL20
 1562 01f1 50000000 		.4byte	.LFE62
 1563 01f5 0200     		.2byte	0x2
 1564 01f7 38       		.byte	0x38
 1565 01f8 9F       		.byte	0x9f
 1566 01f9 00000000 		.4byte	0x0
 1567 01fd 00000000 		.4byte	0x0
 1568              	.LLST15:
 1569 0201 00000000 		.4byte	.LFB63
 1570 0205 02000000 		.4byte	.LCFI5
 1571 0209 0200     		.2byte	0x2
 1572 020b 7D       		.byte	0x7d
 1573 020c 00       		.sleb128 0
 1574 020d 02000000 		.4byte	.LCFI5
 1575 0211 38000000 		.4byte	.LFE63
 1576 0215 0200     		.2byte	0x2
 1577 0217 7D       		.byte	0x7d
 1578 0218 10       		.sleb128 16
 1579 0219 00000000 		.4byte	0x0
 1580 021d 00000000 		.4byte	0x0
 1581              	.LLST16:
 1582 0221 00000000 		.4byte	.LVL21
 1583 0225 09000000 		.4byte	.LVL22-1
 1584 0229 0100     		.2byte	0x1
 1585 022b 50       		.byte	0x50
 1586 022c 09000000 		.4byte	.LVL22-1
 1587 0230 38000000 		.4byte	.LFE63
 1588 0234 0100     		.2byte	0x1
 1589 0236 54       		.byte	0x54
 1590 0237 00000000 		.4byte	0x0
 1591 023b 00000000 		.4byte	0x0
 1592              	.LLST17:
 1593 023f 00000000 		.4byte	.LVL21
 1594 0243 09000000 		.4byte	.LVL22-1
 1595 0247 0100     		.2byte	0x1
 1596 0249 51       		.byte	0x51
 1597 024a 00000000 		.4byte	0x0
 1598 024e 00000000 		.4byte	0x0
 1599              	.LLST18:
 1600 0252 00000000 		.4byte	.LFB64
 1601 0256 02000000 		.4byte	.LCFI6
 1602 025a 0200     		.2byte	0x2
ARM GAS  /tmp/ccfjwwPm.s 			page 30


 1603 025c 7D       		.byte	0x7d
 1604 025d 00       		.sleb128 0
 1605 025e 02000000 		.4byte	.LCFI6
 1606 0262 38000000 		.4byte	.LFE64
 1607 0266 0200     		.2byte	0x2
 1608 0268 7D       		.byte	0x7d
 1609 0269 10       		.sleb128 16
 1610 026a 00000000 		.4byte	0x0
 1611 026e 00000000 		.4byte	0x0
 1612              	.LLST19:
 1613 0272 00000000 		.4byte	.LVL23
 1614 0276 09000000 		.4byte	.LVL24-1
 1615 027a 0100     		.2byte	0x1
 1616 027c 50       		.byte	0x50
 1617 027d 09000000 		.4byte	.LVL24-1
 1618 0281 38000000 		.4byte	.LFE64
 1619 0285 0100     		.2byte	0x1
 1620 0287 54       		.byte	0x54
 1621 0288 00000000 		.4byte	0x0
 1622 028c 00000000 		.4byte	0x0
 1623              	.LLST20:
 1624 0290 00000000 		.4byte	.LVL23
 1625 0294 09000000 		.4byte	.LVL24-1
 1626 0298 0100     		.2byte	0x1
 1627 029a 51       		.byte	0x51
 1628 029b 00000000 		.4byte	0x0
 1629 029f 00000000 		.4byte	0x0
 1630              	.LLST21:
 1631 02a3 00000000 		.4byte	.LFB65
 1632 02a7 02000000 		.4byte	.LCFI7
 1633 02ab 0200     		.2byte	0x2
 1634 02ad 7D       		.byte	0x7d
 1635 02ae 00       		.sleb128 0
 1636 02af 02000000 		.4byte	.LCFI7
 1637 02b3 30000000 		.4byte	.LFE65
 1638 02b7 0200     		.2byte	0x2
 1639 02b9 7D       		.byte	0x7d
 1640 02ba 10       		.sleb128 16
 1641 02bb 00000000 		.4byte	0x0
 1642 02bf 00000000 		.4byte	0x0
 1643              	.LLST22:
 1644 02c3 00000000 		.4byte	.LVL25
 1645 02c7 09000000 		.4byte	.LVL26-1
 1646 02cb 0100     		.2byte	0x1
 1647 02cd 50       		.byte	0x50
 1648 02ce 09000000 		.4byte	.LVL26-1
 1649 02d2 30000000 		.4byte	.LFE65
 1650 02d6 0100     		.2byte	0x1
 1651 02d8 54       		.byte	0x54
 1652 02d9 00000000 		.4byte	0x0
 1653 02dd 00000000 		.4byte	0x0
 1654              	.LLST23:
 1655 02e1 00000000 		.4byte	.LVL25
 1656 02e5 09000000 		.4byte	.LVL26-1
 1657 02e9 0100     		.2byte	0x1
 1658 02eb 51       		.byte	0x51
 1659 02ec 00000000 		.4byte	0x0
ARM GAS  /tmp/ccfjwwPm.s 			page 31


 1660 02f0 00000000 		.4byte	0x0
 1661              	.LLST24:
 1662 02f4 00000000 		.4byte	.LFB66
 1663 02f8 02000000 		.4byte	.LCFI8
 1664 02fc 0200     		.2byte	0x2
 1665 02fe 7D       		.byte	0x7d
 1666 02ff 00       		.sleb128 0
 1667 0300 02000000 		.4byte	.LCFI8
 1668 0304 30000000 		.4byte	.LFE66
 1669 0308 0200     		.2byte	0x2
 1670 030a 7D       		.byte	0x7d
 1671 030b 10       		.sleb128 16
 1672 030c 00000000 		.4byte	0x0
 1673 0310 00000000 		.4byte	0x0
 1674              	.LLST25:
 1675 0314 00000000 		.4byte	.LVL27
 1676 0318 09000000 		.4byte	.LVL28-1
 1677 031c 0100     		.2byte	0x1
 1678 031e 50       		.byte	0x50
 1679 031f 09000000 		.4byte	.LVL28-1
 1680 0323 30000000 		.4byte	.LFE66
 1681 0327 0100     		.2byte	0x1
 1682 0329 54       		.byte	0x54
 1683 032a 00000000 		.4byte	0x0
 1684 032e 00000000 		.4byte	0x0
 1685              	.LLST26:
 1686 0332 00000000 		.4byte	.LVL27
 1687 0336 09000000 		.4byte	.LVL28-1
 1688 033a 0100     		.2byte	0x1
 1689 033c 51       		.byte	0x51
 1690 033d 00000000 		.4byte	0x0
 1691 0341 00000000 		.4byte	0x0
 1692              	.LLST27:
 1693 0345 18000000 		.4byte	.LVL30
 1694 0349 1A000000 		.4byte	.LVL31
 1695 034d 0200     		.2byte	0x2
 1696 034f 30       		.byte	0x30
 1697 0350 9F       		.byte	0x9f
 1698 0351 1A000000 		.4byte	.LVL31
 1699 0355 1C000000 		.4byte	.LVL32
 1700 0359 0200     		.2byte	0x2
 1701 035b 31       		.byte	0x31
 1702 035c 9F       		.byte	0x9f
 1703 035d 1C000000 		.4byte	.LVL32
 1704 0361 1E000000 		.4byte	.LVL33
 1705 0365 0200     		.2byte	0x2
 1706 0367 32       		.byte	0x32
 1707 0368 9F       		.byte	0x9f
 1708 0369 1E000000 		.4byte	.LVL33
 1709 036d 20000000 		.4byte	.LVL34
 1710 0371 0200     		.2byte	0x2
 1711 0373 33       		.byte	0x33
 1712 0374 9F       		.byte	0x9f
 1713 0375 20000000 		.4byte	.LVL34
 1714 0379 22000000 		.4byte	.LVL35
 1715 037d 0200     		.2byte	0x2
 1716 037f 34       		.byte	0x34
ARM GAS  /tmp/ccfjwwPm.s 			page 32


 1717 0380 9F       		.byte	0x9f
 1718 0381 22000000 		.4byte	.LVL35
 1719 0385 24000000 		.4byte	.LVL36
 1720 0389 0200     		.2byte	0x2
 1721 038b 35       		.byte	0x35
 1722 038c 9F       		.byte	0x9f
 1723 038d 24000000 		.4byte	.LVL36
 1724 0391 26000000 		.4byte	.LVL37
 1725 0395 0200     		.2byte	0x2
 1726 0397 36       		.byte	0x36
 1727 0398 9F       		.byte	0x9f
 1728 0399 26000000 		.4byte	.LVL37
 1729 039d 28000000 		.4byte	.LVL38
 1730 03a1 0200     		.2byte	0x2
 1731 03a3 37       		.byte	0x37
 1732 03a4 9F       		.byte	0x9f
 1733 03a5 28000000 		.4byte	.LVL38
 1734 03a9 30000000 		.4byte	.LFE67
 1735 03ad 0200     		.2byte	0x2
 1736 03af 38       		.byte	0x38
 1737 03b0 9F       		.byte	0x9f
 1738 03b1 00000000 		.4byte	0x0
 1739 03b5 00000000 		.4byte	0x0
 1740              	.LLST28:
 1741 03b9 00000000 		.4byte	.LFB68
 1742 03bd 04000000 		.4byte	.LCFI9
 1743 03c1 0200     		.2byte	0x2
 1744 03c3 7D       		.byte	0x7d
 1745 03c4 00       		.sleb128 0
 1746 03c5 04000000 		.4byte	.LCFI9
 1747 03c9 7C020000 		.4byte	.LFE68
 1748 03cd 0200     		.2byte	0x2
 1749 03cf 7D       		.byte	0x7d
 1750 03d0 10       		.sleb128 16
 1751 03d1 00000000 		.4byte	0x0
 1752 03d5 00000000 		.4byte	0x0
 1753              	.LLST29:
 1754 03d9 00000000 		.4byte	.LVL39
 1755 03dd 11000000 		.4byte	.LVL40-1
 1756 03e1 0100     		.2byte	0x1
 1757 03e3 50       		.byte	0x50
 1758 03e4 11000000 		.4byte	.LVL40-1
 1759 03e8 7C020000 		.4byte	.LFE68
 1760 03ec 0100     		.2byte	0x1
 1761 03ee 54       		.byte	0x54
 1762 03ef 00000000 		.4byte	0x0
 1763 03f3 00000000 		.4byte	0x0
 1764              	.LLST30:
 1765 03f7 00000000 		.4byte	.LVL39
 1766 03fb 11000000 		.4byte	.LVL40-1
 1767 03ff 0100     		.2byte	0x1
 1768 0401 51       		.byte	0x51
 1769 0402 00000000 		.4byte	0x0
 1770 0406 00000000 		.4byte	0x0
 1771              	.LLST31:
 1772 040a EA010000 		.4byte	.LVL45
 1773 040e F6010000 		.4byte	.LVL46
ARM GAS  /tmp/ccfjwwPm.s 			page 33


 1774 0412 0100     		.2byte	0x1
 1775 0414 53       		.byte	0x53
 1776 0415 00000000 		.4byte	0x0
 1777 0419 00000000 		.4byte	0x0
 1778              	.LLST32:
 1779 041d 2E000000 		.4byte	.LVL41
 1780 0421 C4010000 		.4byte	.LVL44
 1781 0425 0100     		.2byte	0x1
 1782 0427 54       		.byte	0x54
 1783 0428 00000000 		.4byte	0x0
 1784 042c 00000000 		.4byte	0x0
 1785              	.LLST33:
 1786 0430 F0000000 		.4byte	.LVL42
 1787 0434 FC000000 		.4byte	.LVL43
 1788 0438 0100     		.2byte	0x1
 1789 043a 50       		.byte	0x50
 1790 043b 00000000 		.4byte	0x0
 1791 043f 00000000 		.4byte	0x0
 1792              	.LLST34:
 1793 0443 00000000 		.4byte	.LFB69
 1794 0447 06000000 		.4byte	.LCFI10
 1795 044b 0200     		.2byte	0x2
 1796 044d 7D       		.byte	0x7d
 1797 044e 00       		.sleb128 0
 1798 044f 06000000 		.4byte	.LCFI10
 1799 0453 8A000000 		.4byte	.LFE69
 1800 0457 0200     		.2byte	0x2
 1801 0459 7D       		.byte	0x7d
 1802 045a 10       		.sleb128 16
 1803 045b 00000000 		.4byte	0x0
 1804 045f 00000000 		.4byte	0x0
 1805              	.LLST35:
 1806 0463 00000000 		.4byte	.LVL47
 1807 0467 33000000 		.4byte	.LVL50-1
 1808 046b 0100     		.2byte	0x1
 1809 046d 50       		.byte	0x50
 1810 046e 33000000 		.4byte	.LVL50-1
 1811 0472 8A000000 		.4byte	.LFE69
 1812 0476 0100     		.2byte	0x1
 1813 0478 54       		.byte	0x54
 1814 0479 00000000 		.4byte	0x0
 1815 047d 00000000 		.4byte	0x0
 1816              	.LLST36:
 1817 0481 00000000 		.4byte	.LVL47
 1818 0485 2C000000 		.4byte	.LVL49
 1819 0489 0100     		.2byte	0x1
 1820 048b 51       		.byte	0x51
 1821 048c 40000000 		.4byte	.LVL51
 1822 0490 42000000 		.4byte	.LVL52
 1823 0494 0100     		.2byte	0x1
 1824 0496 51       		.byte	0x51
 1825 0497 5E000000 		.4byte	.LVL54
 1826 049b 63000000 		.4byte	.LVL55-1
 1827 049f 0100     		.2byte	0x1
 1828 04a1 51       		.byte	0x51
 1829 04a2 68000000 		.4byte	.LVL56
 1830 04a6 6A000000 		.4byte	.LVL57
ARM GAS  /tmp/ccfjwwPm.s 			page 34


 1831 04aa 0100     		.2byte	0x1
 1832 04ac 51       		.byte	0x51
 1833 04ad 00000000 		.4byte	0x0
 1834 04b1 00000000 		.4byte	0x0
 1835              	.LLST37:
 1836 04b5 12000000 		.4byte	.LVL48
 1837 04b9 33000000 		.4byte	.LVL50-1
 1838 04bd 0300     		.2byte	0x3
 1839 04bf 70       		.byte	0x70
 1840 04c0 C600     		.sleb128 70
 1841 04c2 40000000 		.4byte	.LVL51
 1842 04c6 51000000 		.4byte	.LVL53-1
 1843 04ca 0300     		.2byte	0x3
 1844 04cc 74       		.byte	0x74
 1845 04cd C600     		.sleb128 70
 1846 04cf 00000000 		.4byte	0x0
 1847 04d3 00000000 		.4byte	0x0
 1848              	.LLST38:
 1849 04d7 00000000 		.4byte	.LFB70
 1850 04db 06000000 		.4byte	.LCFI11
 1851 04df 0200     		.2byte	0x2
 1852 04e1 7D       		.byte	0x7d
 1853 04e2 00       		.sleb128 0
 1854 04e3 06000000 		.4byte	.LCFI11
 1855 04e7 62000000 		.4byte	.LFE70
 1856 04eb 0200     		.2byte	0x2
 1857 04ed 7D       		.byte	0x7d
 1858 04ee 08       		.sleb128 8
 1859 04ef 00000000 		.4byte	0x0
 1860 04f3 00000000 		.4byte	0x0
 1861              	.LLST39:
 1862 04f7 00000000 		.4byte	.LVL58
 1863 04fb 1F000000 		.4byte	.LVL60-1
 1864 04ff 0100     		.2byte	0x1
 1865 0501 50       		.byte	0x50
 1866 0502 1F000000 		.4byte	.LVL60-1
 1867 0506 62000000 		.4byte	.LFE70
 1868 050a 0100     		.2byte	0x1
 1869 050c 54       		.byte	0x54
 1870 050d 00000000 		.4byte	0x0
 1871 0511 00000000 		.4byte	0x0
 1872              	.LLST40:
 1873 0515 00000000 		.4byte	.LVL58
 1874 0519 12000000 		.4byte	.LVL59
 1875 051d 0100     		.2byte	0x1
 1876 051f 51       		.byte	0x51
 1877 0520 2C000000 		.4byte	.LVL61
 1878 0524 39000000 		.4byte	.LVL62-1
 1879 0528 0100     		.2byte	0x1
 1880 052a 51       		.byte	0x51
 1881 052b 3E000000 		.4byte	.LVL63
 1882 052f 42000000 		.4byte	.LVL64
 1883 0533 0100     		.2byte	0x1
 1884 0535 51       		.byte	0x51
 1885 0536 00000000 		.4byte	0x0
 1886 053a 00000000 		.4byte	0x0
 1887              		.file 2 "/home/z80/programs/code-sourcery/2011.03-42/bin/../lib/gcc/arm-none-eabi/4.5.2/include/st
ARM GAS  /tmp/ccfjwwPm.s 			page 35


 1888              		.file 3 "/home/z80/programs/code-sourcery/2011.03-42/bin/../lib/gcc/arm-none-eabi/4.5.2/../../../.
 1889              		.file 4 "../chibios/os/ports/GCC/ARMCMx/chtypes.h"
 1890              		.file 5 "../chibios/os/hal/include/usb.h"
 1891              		.file 6 "../chibios/os/hal/platforms/STM32/USBv1/usb_lld.h"
 1892              		.file 7 "../chibios/os/ports/common/ARMCMx/CMSIS/include/core_cm3.h"
 1893              		.section	.debug_info
 1894 0000 3B090000 		.4byte	0x93b
 1895 0004 0200     		.2byte	0x2
 1896 0006 00000000 		.4byte	.Ldebug_abbrev0
 1897 000a 04       		.byte	0x4
 1898 000b 01       		.uleb128 0x1
 1899 000c 29050000 		.4byte	.LASF105
 1900 0010 01       		.byte	0x1
 1901 0011 77040000 		.4byte	.LASF106
 1902 0015 0C000000 		.4byte	.LASF107
 1903 0019 00000000 		.4byte	0x0
 1904 001d 00000000 		.4byte	0x0
 1905 0021 00000000 		.4byte	.Ldebug_ranges0+0x0
 1906 0025 00000000 		.4byte	.Ldebug_line0
 1907 0029 02       		.uleb128 0x2
 1908 002a 01       		.byte	0x1
 1909 002b 06       		.byte	0x6
 1910 002c 9D020000 		.4byte	.LASF0
 1911 0030 02       		.uleb128 0x2
 1912 0031 01       		.byte	0x1
 1913 0032 08       		.byte	0x8
 1914 0033 6C020000 		.4byte	.LASF1
 1915 0037 02       		.uleb128 0x2
 1916 0038 02       		.byte	0x2
 1917 0039 05       		.byte	0x5
 1918 003a 74000000 		.4byte	.LASF2
 1919 003e 02       		.uleb128 0x2
 1920 003f 02       		.byte	0x2
 1921 0040 07       		.byte	0x7
 1922 0041 63030000 		.4byte	.LASF3
 1923 0045 03       		.uleb128 0x3
 1924 0046 04       		.byte	0x4
 1925 0047 05       		.byte	0x5
 1926 0048 696E7400 		.ascii	"int\000"
 1927 004c 02       		.uleb128 0x2
 1928 004d 04       		.byte	0x4
 1929 004e 07       		.byte	0x7
 1930 004f EA040000 		.4byte	.LASF4
 1931 0053 02       		.uleb128 0x2
 1932 0054 08       		.byte	0x8
 1933 0055 05       		.byte	0x5
 1934 0056 AC010000 		.4byte	.LASF5
 1935 005a 02       		.uleb128 0x2
 1936 005b 08       		.byte	0x8
 1937 005c 07       		.byte	0x7
 1938 005d BA010000 		.4byte	.LASF6
 1939 0061 02       		.uleb128 0x2
 1940 0062 04       		.byte	0x4
 1941 0063 05       		.byte	0x5
 1942 0064 E4010000 		.4byte	.LASF7
 1943 0068 04       		.uleb128 0x4
 1944 0069 04       		.byte	0x4
ARM GAS  /tmp/ccfjwwPm.s 			page 36


 1945 006a 02       		.uleb128 0x2
 1946 006b 04       		.byte	0x4
 1947 006c 07       		.byte	0x7
 1948 006d DA030000 		.4byte	.LASF8
 1949 0071 02       		.uleb128 0x2
 1950 0072 01       		.byte	0x1
 1951 0073 08       		.byte	0x8
 1952 0074 2D030000 		.4byte	.LASF9
 1953 0078 05       		.uleb128 0x5
 1954 0079 7E000000 		.4byte	.LASF10
 1955 007d 02       		.byte	0x2
 1956 007e D3       		.byte	0xd3
 1957 007f 4C000000 		.4byte	0x4c
 1958 0083 05       		.uleb128 0x5
 1959 0084 66040000 		.4byte	.LASF11
 1960 0088 03       		.byte	0x3
 1961 0089 2A       		.byte	0x2a
 1962 008a 30000000 		.4byte	0x30
 1963 008e 05       		.uleb128 0x5
 1964 008f 32030000 		.4byte	.LASF12
 1965 0093 03       		.byte	0x3
 1966 0094 36       		.byte	0x36
 1967 0095 3E000000 		.4byte	0x3e
 1968 0099 05       		.uleb128 0x5
 1969 009a 4D030000 		.4byte	.LASF13
 1970 009e 03       		.byte	0x3
 1971 009f 4F       		.byte	0x4f
 1972 00a0 61000000 		.4byte	0x61
 1973 00a4 05       		.uleb128 0x5
 1974 00a5 B1020000 		.4byte	.LASF14
 1975 00a9 03       		.byte	0x3
 1976 00aa 50       		.byte	0x50
 1977 00ab 6A000000 		.4byte	0x6a
 1978 00af 05       		.uleb128 0x5
 1979 00b0 96010000 		.4byte	.LASF15
 1980 00b4 04       		.byte	0x4
 1981 00b5 2E       		.byte	0x2e
 1982 00b6 99000000 		.4byte	0x99
 1983 00ba 06       		.uleb128 0x6
 1984 00bb 04       		.byte	0x4
 1985 00bc 83000000 		.4byte	0x83
 1986 00c0 06       		.uleb128 0x6
 1987 00c1 04       		.byte	0x4
 1988 00c2 C6000000 		.4byte	0xc6
 1989 00c6 07       		.uleb128 0x7
 1990 00c7 83000000 		.4byte	0x83
 1991 00cb 08       		.uleb128 0x8
 1992 00cc 99000000 		.4byte	0x99
 1993 00d0 05       		.uleb128 0x5
 1994 00d1 55050000 		.4byte	.LASF16
 1995 00d5 05       		.byte	0x5
 1996 00d6 D2       		.byte	0xd2
 1997 00d7 DB000000 		.4byte	0xdb
 1998 00db 09       		.uleb128 0x9
 1999 00dc 55050000 		.4byte	.LASF16
 2000 00e0 50       		.byte	0x50
 2001 00e1 06       		.byte	0x6
ARM GAS  /tmp/ccfjwwPm.s 			page 37


 2002 00e2 F2       		.byte	0xf2
 2003 00e3 C6010000 		.4byte	0x1c6
 2004 00e7 0A       		.uleb128 0xa
 2005 00e8 50000000 		.4byte	.LASF17
 2006 00ec 06       		.byte	0x6
 2007 00ed F6       		.byte	0xf6
 2008 00ee F8010000 		.4byte	0x1f8
 2009 00f2 02       		.byte	0x2
 2010 00f3 23       		.byte	0x23
 2011 00f4 00       		.uleb128 0x0
 2012 00f5 0A       		.uleb128 0xa
 2013 00f6 1A010000 		.4byte	.LASF18
 2014 00fa 06       		.byte	0x6
 2015 00fb FA       		.byte	0xfa
 2016 00fc F1040000 		.4byte	0x4f1
 2017 0100 02       		.byte	0x2
 2018 0101 23       		.byte	0x23
 2019 0102 04       		.uleb128 0x4
 2020 0103 0A       		.uleb128 0xa
 2021 0104 00030000 		.4byte	.LASF19
 2022 0108 06       		.byte	0x6
 2023 0109 FF       		.byte	0xff
 2024 010a 68000000 		.4byte	0x68
 2025 010e 02       		.byte	0x2
 2026 010f 23       		.byte	0x23
 2027 0110 08       		.uleb128 0x8
 2028 0111 0B       		.uleb128 0xb
 2029 0112 00050000 		.4byte	.LASF20
 2030 0116 06       		.byte	0x6
 2031 0117 0301     		.2byte	0x103
 2032 0119 8E000000 		.4byte	0x8e
 2033 011d 02       		.byte	0x2
 2034 011e 23       		.byte	0x23
 2035 011f 0C       		.uleb128 0xc
 2036 0120 0B       		.uleb128 0xb
 2037 0121 59020000 		.4byte	.LASF21
 2038 0125 06       		.byte	0x6
 2039 0126 0701     		.2byte	0x107
 2040 0128 8E000000 		.4byte	0x8e
 2041 012c 02       		.byte	0x2
 2042 012d 23       		.byte	0x23
 2043 012e 0E       		.uleb128 0xe
 2044 012f 0C       		.uleb128 0xc
 2045 0130 65706300 		.ascii	"epc\000"
 2046 0134 06       		.byte	0x6
 2047 0135 0B01     		.2byte	0x10b
 2048 0137 FC040000 		.4byte	0x4fc
 2049 013b 02       		.byte	0x2
 2050 013c 23       		.byte	0x23
 2051 013d 10       		.uleb128 0x10
 2052 013e 0B       		.uleb128 0xb
 2053 013f 1D020000 		.4byte	.LASF22
 2054 0143 06       		.byte	0x6
 2055 0144 0F01     		.2byte	0x10f
 2056 0146 4B020000 		.4byte	0x24b
 2057 014a 02       		.byte	0x2
 2058 014b 23       		.byte	0x23
ARM GAS  /tmp/ccfjwwPm.s 			page 38


 2059 014c 30       		.uleb128 0x30
 2060 014d 0B       		.uleb128 0xb
 2061 014e 94030000 		.4byte	.LASF23
 2062 0152 06       		.byte	0x6
 2063 0153 1301     		.2byte	0x113
 2064 0155 BA000000 		.4byte	0xba
 2065 0159 02       		.byte	0x2
 2066 015a 23       		.byte	0x23
 2067 015b 34       		.uleb128 0x34
 2068 015c 0B       		.uleb128 0xb
 2069 015d C1000000 		.4byte	.LASF24
 2070 0161 06       		.byte	0x6
 2071 0162 1701     		.2byte	0x117
 2072 0164 78000000 		.4byte	0x78
 2073 0168 02       		.byte	0x2
 2074 0169 23       		.byte	0x23
 2075 016a 38       		.uleb128 0x38
 2076 016b 0B       		.uleb128 0xb
 2077 016c 94020000 		.4byte	.LASF25
 2078 0170 06       		.byte	0x6
 2079 0171 1B01     		.2byte	0x11b
 2080 0173 C3020000 		.4byte	0x2c3
 2081 0177 02       		.byte	0x2
 2082 0178 23       		.byte	0x23
 2083 0179 3C       		.uleb128 0x3c
 2084 017a 0B       		.uleb128 0xb
 2085 017b 9D010000 		.4byte	.LASF26
 2086 017f 06       		.byte	0x6
 2087 0180 1F01     		.2byte	0x11f
 2088 0182 17050000 		.4byte	0x517
 2089 0186 02       		.byte	0x2
 2090 0187 23       		.byte	0x23
 2091 0188 40       		.uleb128 0x40
 2092 0189 0B       		.uleb128 0xb
 2093 018a 16030000 		.4byte	.LASF27
 2094 018e 06       		.byte	0x6
 2095 018f 2301     		.2byte	0x123
 2096 0191 8E000000 		.4byte	0x8e
 2097 0195 02       		.byte	0x2
 2098 0196 23       		.byte	0x23
 2099 0197 48       		.uleb128 0x48
 2100 0198 0B       		.uleb128 0xb
 2101 0199 A9020000 		.4byte	.LASF28
 2102 019d 06       		.byte	0x6
 2103 019e 2701     		.2byte	0x127
 2104 01a0 83000000 		.4byte	0x83
 2105 01a4 02       		.byte	0x2
 2106 01a5 23       		.byte	0x23
 2107 01a6 4A       		.uleb128 0x4a
 2108 01a7 0B       		.uleb128 0xb
 2109 01a8 BA020000 		.4byte	.LASF29
 2110 01ac 06       		.byte	0x6
 2111 01ad 2B01     		.2byte	0x12b
 2112 01af 83000000 		.4byte	0x83
 2113 01b3 02       		.byte	0x2
 2114 01b4 23       		.byte	0x23
 2115 01b5 4B       		.uleb128 0x4b
ARM GAS  /tmp/ccfjwwPm.s 			page 39


 2116 01b6 0B       		.uleb128 0xb
 2117 01b7 63000000 		.4byte	.LASF30
 2118 01bb 06       		.byte	0x6
 2119 01bc 3301     		.2byte	0x133
 2120 01be A4000000 		.4byte	0xa4
 2121 01c2 02       		.byte	0x2
 2122 01c3 23       		.byte	0x23
 2123 01c4 4C       		.uleb128 0x4c
 2124 01c5 00       		.byte	0x0
 2125 01c6 05       		.uleb128 0x5
 2126 01c7 85000000 		.4byte	.LASF31
 2127 01cb 05       		.byte	0x5
 2128 01cc D7       		.byte	0xd7
 2129 01cd 83000000 		.4byte	0x83
 2130 01d1 0D       		.uleb128 0xd
 2131 01d2 01       		.byte	0x1
 2132 01d3 05       		.byte	0x5
 2133 01d4 DC       		.byte	0xdc
 2134 01d5 F8010000 		.4byte	0x1f8
 2135 01d9 0E       		.uleb128 0xe
 2136 01da D8020000 		.4byte	.LASF32
 2137 01de 00       		.sleb128 0
 2138 01df 0E       		.uleb128 0xe
 2139 01e0 63020000 		.4byte	.LASF33
 2140 01e4 01       		.sleb128 1
 2141 01e5 0E       		.uleb128 0xe
 2142 01e6 F1030000 		.4byte	.LASF34
 2143 01ea 02       		.sleb128 2
 2144 01eb 0E       		.uleb128 0xe
 2145 01ec 56000000 		.4byte	.LASF35
 2146 01f0 03       		.sleb128 3
 2147 01f1 0E       		.uleb128 0xe
 2148 01f2 89030000 		.4byte	.LASF36
 2149 01f6 04       		.sleb128 4
 2150 01f7 00       		.byte	0x0
 2151 01f8 05       		.uleb128 0x5
 2152 01f9 5B040000 		.4byte	.LASF37
 2153 01fd 05       		.byte	0x5
 2154 01fe E2       		.byte	0xe2
 2155 01ff D1010000 		.4byte	0x1d1
 2156 0203 0D       		.uleb128 0xd
 2157 0204 01       		.byte	0x1
 2158 0205 05       		.byte	0x5
 2159 0206 E7       		.byte	0xe7
 2160 0207 1E020000 		.4byte	0x21e
 2161 020b 0E       		.uleb128 0xe
 2162 020c 32020000 		.4byte	.LASF38
 2163 0210 00       		.sleb128 0
 2164 0211 0E       		.uleb128 0xe
 2165 0212 CE000000 		.4byte	.LASF39
 2166 0216 01       		.sleb128 1
 2167 0217 0E       		.uleb128 0xe
 2168 0218 32010000 		.4byte	.LASF40
 2169 021c 02       		.sleb128 2
 2170 021d 00       		.byte	0x0
 2171 021e 0D       		.uleb128 0xd
 2172 021f 01       		.byte	0x1
ARM GAS  /tmp/ccfjwwPm.s 			page 40


 2173 0220 05       		.byte	0x5
 2174 0221 F0       		.byte	0xf0
 2175 0222 4B020000 		.4byte	0x24b
 2176 0226 0E       		.uleb128 0xe
 2177 0227 93040000 		.4byte	.LASF41
 2178 022b 00       		.sleb128 0
 2179 022c 0E       		.uleb128 0xe
 2180 022d ED010000 		.4byte	.LASF42
 2181 0231 01       		.sleb128 1
 2182 0232 0E       		.uleb128 0xe
 2183 0233 45020000 		.4byte	.LASF43
 2184 0237 02       		.sleb128 2
 2185 0238 0E       		.uleb128 0xe
 2186 0239 79010000 		.4byte	.LASF44
 2187 023d 03       		.sleb128 3
 2188 023e 0E       		.uleb128 0xe
 2189 023f 8D000000 		.4byte	.LASF45
 2190 0243 04       		.sleb128 4
 2191 0244 0E       		.uleb128 0xe
 2192 0245 00010000 		.4byte	.LASF46
 2193 0249 05       		.sleb128 5
 2194 024a 00       		.byte	0x0
 2195 024b 05       		.uleb128 0x5
 2196 024c A2030000 		.4byte	.LASF47
 2197 0250 05       		.byte	0x5
 2198 0251 F7       		.byte	0xf7
 2199 0252 1E020000 		.4byte	0x21e
 2200 0256 0D       		.uleb128 0xd
 2201 0257 01       		.byte	0x1
 2202 0258 05       		.byte	0x5
 2203 0259 FC       		.byte	0xfc
 2204 025a 83020000 		.4byte	0x283
 2205 025e 0E       		.uleb128 0xe
 2206 025f 06030000 		.4byte	.LASF48
 2207 0263 00       		.sleb128 0
 2208 0264 0E       		.uleb128 0xe
 2209 0265 0B020000 		.4byte	.LASF49
 2210 0269 01       		.sleb128 1
 2211 026a 0E       		.uleb128 0xe
 2212 026b 43010000 		.4byte	.LASF50
 2213 026f 02       		.sleb128 2
 2214 0270 0E       		.uleb128 0xe
 2215 0271 CB040000 		.4byte	.LASF51
 2216 0275 03       		.sleb128 3
 2217 0276 0E       		.uleb128 0xe
 2218 0277 2E040000 		.4byte	.LASF52
 2219 027b 04       		.sleb128 4
 2220 027c 0E       		.uleb128 0xe
 2221 027d 43050000 		.4byte	.LASF53
 2222 0281 05       		.sleb128 5
 2223 0282 00       		.byte	0x0
 2224 0283 0F       		.uleb128 0xf
 2225 0284 D1010000 		.4byte	.LASF54
 2226 0288 05       		.byte	0x5
 2227 0289 0301     		.2byte	0x103
 2228 028b 56020000 		.4byte	0x256
 2229 028f 10       		.uleb128 0x10
ARM GAS  /tmp/ccfjwwPm.s 			page 41


 2230 0290 08       		.byte	0x8
 2231 0291 05       		.byte	0x5
 2232 0292 0801     		.2byte	0x108
 2233 0294 B7020000 		.4byte	0x2b7
 2234 0298 0B       		.uleb128 0xb
 2235 0299 71010000 		.4byte	.LASF55
 2236 029d 05       		.byte	0x5
 2237 029e 0C01     		.2byte	0x10c
 2238 02a0 78000000 		.4byte	0x78
 2239 02a4 02       		.byte	0x2
 2240 02a5 23       		.byte	0x23
 2241 02a6 00       		.uleb128 0x0
 2242 02a7 0B       		.uleb128 0xb
 2243 02a8 0F040000 		.4byte	.LASF56
 2244 02ac 05       		.byte	0x5
 2245 02ad 1001     		.2byte	0x110
 2246 02af C0000000 		.4byte	0xc0
 2247 02b3 02       		.byte	0x2
 2248 02b4 23       		.byte	0x23
 2249 02b5 04       		.uleb128 0x4
 2250 02b6 00       		.byte	0x0
 2251 02b7 0F       		.uleb128 0xf
 2252 02b8 A1000000 		.4byte	.LASF57
 2253 02bc 05       		.byte	0x5
 2254 02bd 1101     		.2byte	0x111
 2255 02bf 8F020000 		.4byte	0x28f
 2256 02c3 0F       		.uleb128 0xf
 2257 02c4 BE030000 		.4byte	.LASF58
 2258 02c8 05       		.byte	0x5
 2259 02c9 1901     		.2byte	0x119
 2260 02cb CF020000 		.4byte	0x2cf
 2261 02cf 06       		.uleb128 0x6
 2262 02d0 04       		.byte	0x4
 2263 02d1 D5020000 		.4byte	0x2d5
 2264 02d5 11       		.uleb128 0x11
 2265 02d6 01       		.byte	0x1
 2266 02d7 E1020000 		.4byte	0x2e1
 2267 02db 12       		.uleb128 0x12
 2268 02dc E1020000 		.4byte	0x2e1
 2269 02e0 00       		.byte	0x0
 2270 02e1 06       		.uleb128 0x6
 2271 02e2 04       		.byte	0x4
 2272 02e3 D0000000 		.4byte	0xd0
 2273 02e7 0F       		.uleb128 0xf
 2274 02e8 C8020000 		.4byte	.LASF59
 2275 02ec 05       		.byte	0x5
 2276 02ed 2201     		.2byte	0x122
 2277 02ef F3020000 		.4byte	0x2f3
 2278 02f3 06       		.uleb128 0x6
 2279 02f4 04       		.byte	0x4
 2280 02f5 F9020000 		.4byte	0x2f9
 2281 02f9 11       		.uleb128 0x11
 2282 02fa 01       		.byte	0x1
 2283 02fb 0A030000 		.4byte	0x30a
 2284 02ff 12       		.uleb128 0x12
 2285 0300 E1020000 		.4byte	0x2e1
 2286 0304 12       		.uleb128 0x12
ARM GAS  /tmp/ccfjwwPm.s 			page 42


 2287 0305 C6010000 		.4byte	0x1c6
 2288 0309 00       		.byte	0x0
 2289 030a 0F       		.uleb128 0xf
 2290 030b F3020000 		.4byte	.LASF60
 2291 030f 05       		.byte	0x5
 2292 0310 2B01     		.2byte	0x12b
 2293 0312 16030000 		.4byte	0x316
 2294 0316 06       		.uleb128 0x6
 2295 0317 04       		.byte	0x4
 2296 0318 1C030000 		.4byte	0x31c
 2297 031c 11       		.uleb128 0x11
 2298 031d 01       		.byte	0x1
 2299 031e 2D030000 		.4byte	0x32d
 2300 0322 12       		.uleb128 0x12
 2301 0323 E1020000 		.4byte	0x2e1
 2302 0327 12       		.uleb128 0x12
 2303 0328 83020000 		.4byte	0x283
 2304 032c 00       		.byte	0x0
 2305 032d 0F       		.uleb128 0xf
 2306 032e 19040000 		.4byte	.LASF61
 2307 0332 05       		.byte	0x5
 2308 0333 3701     		.2byte	0x137
 2309 0335 39030000 		.4byte	0x339
 2310 0339 06       		.uleb128 0x6
 2311 033a 04       		.byte	0x4
 2312 033b 3F030000 		.4byte	0x33f
 2313 033f 13       		.uleb128 0x13
 2314 0340 01       		.byte	0x1
 2315 0341 AF000000 		.4byte	0xaf
 2316 0345 4F030000 		.4byte	0x34f
 2317 0349 12       		.uleb128 0x12
 2318 034a E1020000 		.4byte	0x2e1
 2319 034e 00       		.byte	0x0
 2320 034f 0F       		.uleb128 0xf
 2321 0350 76030000 		.4byte	.LASF62
 2322 0354 05       		.byte	0x5
 2323 0355 3C01     		.2byte	0x13c
 2324 0357 5B030000 		.4byte	0x35b
 2325 035b 06       		.uleb128 0x6
 2326 035c 04       		.byte	0x4
 2327 035d 61030000 		.4byte	0x361
 2328 0361 13       		.uleb128 0x13
 2329 0362 01       		.byte	0x1
 2330 0363 80030000 		.4byte	0x380
 2331 0367 80030000 		.4byte	0x380
 2332 036b 12       		.uleb128 0x12
 2333 036c E1020000 		.4byte	0x2e1
 2334 0370 12       		.uleb128 0x12
 2335 0371 83000000 		.4byte	0x83
 2336 0375 12       		.uleb128 0x12
 2337 0376 83000000 		.4byte	0x83
 2338 037a 12       		.uleb128 0x12
 2339 037b 8E000000 		.4byte	0x8e
 2340 037f 00       		.byte	0x0
 2341 0380 06       		.uleb128 0x6
 2342 0381 04       		.byte	0x4
 2343 0382 86030000 		.4byte	0x386
ARM GAS  /tmp/ccfjwwPm.s 			page 43


 2344 0386 07       		.uleb128 0x7
 2345 0387 B7020000 		.4byte	0x2b7
 2346 038b 14       		.uleb128 0x14
 2347 038c 0C       		.byte	0xc
 2348 038d 06       		.byte	0x6
 2349 038e 72       		.byte	0x72
 2350 038f BE030000 		.4byte	0x3be
 2351 0393 0A       		.uleb128 0xa
 2352 0394 1D030000 		.4byte	.LASF63
 2353 0398 06       		.byte	0x6
 2354 0399 76       		.byte	0x76
 2355 039a C0000000 		.4byte	0xc0
 2356 039e 02       		.byte	0x2
 2357 039f 23       		.byte	0x23
 2358 03a0 00       		.uleb128 0x0
 2359 03a1 0A       		.uleb128 0xa
 2360 03a2 CC030000 		.4byte	.LASF64
 2361 03a6 06       		.byte	0x6
 2362 03a7 7A       		.byte	0x7a
 2363 03a8 78000000 		.4byte	0x78
 2364 03ac 02       		.byte	0x2
 2365 03ad 23       		.byte	0x23
 2366 03ae 04       		.uleb128 0x4
 2367 03af 0A       		.uleb128 0xa
 2368 03b0 9C030000 		.4byte	.LASF65
 2369 03b4 06       		.byte	0x6
 2370 03b5 7E       		.byte	0x7e
 2371 03b6 78000000 		.4byte	0x78
 2372 03ba 02       		.byte	0x2
 2373 03bb 23       		.byte	0x23
 2374 03bc 08       		.uleb128 0x8
 2375 03bd 00       		.byte	0x0
 2376 03be 05       		.uleb128 0x5
 2377 03bf 7A020000 		.4byte	.LASF66
 2378 03c3 06       		.byte	0x6
 2379 03c4 7F       		.byte	0x7f
 2380 03c5 8B030000 		.4byte	0x38b
 2381 03c9 14       		.uleb128 0x14
 2382 03ca 10       		.byte	0x10
 2383 03cb 06       		.byte	0x6
 2384 03cc 84       		.byte	0x84
 2385 03cd 0A040000 		.4byte	0x40a
 2386 03d1 0A       		.uleb128 0xa
 2387 03d2 8D020000 		.4byte	.LASF67
 2388 03d6 06       		.byte	0x6
 2389 03d7 88       		.byte	0x88
 2390 03d8 8E000000 		.4byte	0x8e
 2391 03dc 02       		.byte	0x2
 2392 03dd 23       		.byte	0x23
 2393 03de 00       		.uleb128 0x0
 2394 03df 0A       		.uleb128 0xa
 2395 03e0 C5040000 		.4byte	.LASF68
 2396 03e4 06       		.byte	0x6
 2397 03e5 8C       		.byte	0x8c
 2398 03e6 BA000000 		.4byte	0xba
 2399 03ea 02       		.byte	0x2
 2400 03eb 23       		.byte	0x23
ARM GAS  /tmp/ccfjwwPm.s 			page 44


 2401 03ec 04       		.uleb128 0x4
 2402 03ed 0A       		.uleb128 0xa
 2403 03ee D3030000 		.4byte	.LASF69
 2404 03f2 06       		.byte	0x6
 2405 03f3 90       		.byte	0x90
 2406 03f4 78000000 		.4byte	0x78
 2407 03f8 02       		.byte	0x2
 2408 03f9 23       		.byte	0x23
 2409 03fa 08       		.uleb128 0x8
 2410 03fb 0A       		.uleb128 0xa
 2411 03fc F4000000 		.4byte	.LASF70
 2412 0400 06       		.byte	0x6
 2413 0401 94       		.byte	0x94
 2414 0402 78000000 		.4byte	0x78
 2415 0406 02       		.byte	0x2
 2416 0407 23       		.byte	0x23
 2417 0408 0C       		.uleb128 0xc
 2418 0409 00       		.byte	0x0
 2419 040a 05       		.uleb128 0x5
 2420 040b FB030000 		.4byte	.LASF71
 2421 040f 06       		.byte	0x6
 2422 0410 95       		.byte	0x95
 2423 0411 C9030000 		.4byte	0x3c9
 2424 0415 14       		.uleb128 0x14
 2425 0416 1C       		.byte	0x1c
 2426 0417 06       		.byte	0x6
 2427 0418 9B       		.byte	0x9b
 2428 0419 8E040000 		.4byte	0x48e
 2429 041d 0A       		.uleb128 0xa
 2430 041e DC010000 		.4byte	.LASF72
 2431 0422 06       		.byte	0x6
 2432 0423 9F       		.byte	0x9f
 2433 0424 A4000000 		.4byte	0xa4
 2434 0428 02       		.byte	0x2
 2435 0429 23       		.byte	0x23
 2436 042a 00       		.uleb128 0x0
 2437 042b 0A       		.uleb128 0xa
 2438 042c 6E040000 		.4byte	.LASF73
 2439 0430 06       		.byte	0x6
 2440 0431 AA       		.byte	0xaa
 2441 0432 E7020000 		.4byte	0x2e7
 2442 0436 02       		.byte	0x2
 2443 0437 23       		.byte	0x23
 2444 0438 04       		.uleb128 0x4
 2445 0439 0A       		.uleb128 0xa
 2446 043a FA000000 		.4byte	.LASF74
 2447 043e 06       		.byte	0x6
 2448 043f B0       		.byte	0xb0
 2449 0440 E7020000 		.4byte	0x2e7
 2450 0444 02       		.byte	0x2
 2451 0445 23       		.byte	0x23
 2452 0446 08       		.uleb128 0x8
 2453 0447 0A       		.uleb128 0xa
 2454 0448 0D050000 		.4byte	.LASF75
 2455 044c 06       		.byte	0x6
 2456 044d B6       		.byte	0xb6
 2457 044e E7020000 		.4byte	0x2e7
ARM GAS  /tmp/ccfjwwPm.s 			page 45


 2458 0452 02       		.byte	0x2
 2459 0453 23       		.byte	0x23
 2460 0454 0C       		.uleb128 0xc
 2461 0455 0A       		.uleb128 0xa
 2462 0456 E9000000 		.4byte	.LASF76
 2463 045a 06       		.byte	0x6
 2464 045b BC       		.byte	0xbc
 2465 045c 8E000000 		.4byte	0x8e
 2466 0460 02       		.byte	0x2
 2467 0461 23       		.byte	0x23
 2468 0462 10       		.uleb128 0x10
 2469 0463 0A       		.uleb128 0xa
 2470 0464 FF010000 		.4byte	.LASF77
 2471 0468 06       		.byte	0x6
 2472 0469 C2       		.byte	0xc2
 2473 046a 8E000000 		.4byte	0x8e
 2474 046e 02       		.byte	0x2
 2475 046f 23       		.byte	0x23
 2476 0470 12       		.uleb128 0x12
 2477 0471 0A       		.uleb128 0xa
 2478 0472 A3010000 		.4byte	.LASF78
 2479 0476 06       		.byte	0x6
 2480 0477 C9       		.byte	0xc9
 2481 0478 8E040000 		.4byte	0x48e
 2482 047c 02       		.byte	0x2
 2483 047d 23       		.byte	0x23
 2484 047e 14       		.uleb128 0x14
 2485 047f 0A       		.uleb128 0xa
 2486 0480 23030000 		.4byte	.LASF79
 2487 0484 06       		.byte	0x6
 2488 0485 D0       		.byte	0xd0
 2489 0486 94040000 		.4byte	0x494
 2490 048a 02       		.byte	0x2
 2491 048b 23       		.byte	0x23
 2492 048c 18       		.uleb128 0x18
 2493 048d 00       		.byte	0x0
 2494 048e 06       		.uleb128 0x6
 2495 048f 04       		.byte	0x4
 2496 0490 BE030000 		.4byte	0x3be
 2497 0494 06       		.uleb128 0x6
 2498 0495 04       		.byte	0x4
 2499 0496 0A040000 		.4byte	0x40a
 2500 049a 05       		.uleb128 0x5
 2501 049b 84010000 		.4byte	.LASF80
 2502 049f 06       		.byte	0x6
 2503 04a0 D2       		.byte	0xd2
 2504 04a1 15040000 		.4byte	0x415
 2505 04a5 14       		.uleb128 0x14
 2506 04a6 10       		.byte	0x10
 2507 04a7 06       		.byte	0x6
 2508 04a8 D7       		.byte	0xd7
 2509 04a9 E6040000 		.4byte	0x4e6
 2510 04ad 0A       		.uleb128 0xa
 2511 04ae E0000000 		.4byte	.LASF81
 2512 04b2 06       		.byte	0x6
 2513 04b3 DC       		.byte	0xdc
 2514 04b4 0A030000 		.4byte	0x30a
ARM GAS  /tmp/ccfjwwPm.s 			page 46


 2515 04b8 02       		.byte	0x2
 2516 04b9 23       		.byte	0x23
 2517 04ba 00       		.uleb128 0x0
 2518 04bb 0A       		.uleb128 0xa
 2519 04bc 3B030000 		.4byte	.LASF82
 2520 04c0 06       		.byte	0x6
 2521 04c1 E1       		.byte	0xe1
 2522 04c2 4F030000 		.4byte	0x34f
 2523 04c6 02       		.byte	0x2
 2524 04c7 23       		.byte	0x23
 2525 04c8 04       		.uleb128 0x4
 2526 04c9 0A       		.uleb128 0xa
 2527 04ca 60010000 		.4byte	.LASF83
 2528 04ce 06       		.byte	0x6
 2529 04cf E7       		.byte	0xe7
 2530 04d0 2D030000 		.4byte	0x32d
 2531 04d4 02       		.byte	0x2
 2532 04d5 23       		.byte	0x23
 2533 04d6 08       		.uleb128 0x8
 2534 04d7 0A       		.uleb128 0xa
 2535 04d8 F8010000 		.4byte	.LASF84
 2536 04dc 06       		.byte	0x6
 2537 04dd EB       		.byte	0xeb
 2538 04de C3020000 		.4byte	0x2c3
 2539 04e2 02       		.byte	0x2
 2540 04e3 23       		.byte	0x23
 2541 04e4 0C       		.uleb128 0xc
 2542 04e5 00       		.byte	0x0
 2543 04e6 05       		.uleb128 0x5
 2544 04e7 6A000000 		.4byte	.LASF85
 2545 04eb 06       		.byte	0x6
 2546 04ec ED       		.byte	0xed
 2547 04ed A5040000 		.4byte	0x4a5
 2548 04f1 06       		.uleb128 0x6
 2549 04f2 04       		.byte	0x4
 2550 04f3 F7040000 		.4byte	0x4f7
 2551 04f7 07       		.uleb128 0x7
 2552 04f8 E6040000 		.4byte	0x4e6
 2553 04fc 15       		.uleb128 0x15
 2554 04fd 0C050000 		.4byte	0x50c
 2555 0501 0C050000 		.4byte	0x50c
 2556 0505 16       		.uleb128 0x16
 2557 0506 4C000000 		.4byte	0x4c
 2558 050a 07       		.byte	0x7
 2559 050b 00       		.byte	0x0
 2560 050c 06       		.uleb128 0x6
 2561 050d 04       		.byte	0x4
 2562 050e 12050000 		.4byte	0x512
 2563 0512 07       		.uleb128 0x7
 2564 0513 9A040000 		.4byte	0x49a
 2565 0517 15       		.uleb128 0x15
 2566 0518 83000000 		.4byte	0x83
 2567 051c 27050000 		.4byte	0x527
 2568 0520 16       		.uleb128 0x16
 2569 0521 4C000000 		.4byte	0x4c
 2570 0525 07       		.byte	0x7
 2571 0526 00       		.byte	0x0
ARM GAS  /tmp/ccfjwwPm.s 			page 47


 2572 0527 17       		.uleb128 0x17
 2573 0528 26020000 		.4byte	.LASF108
 2574 052c 01       		.byte	0x1
 2575 052d 45       		.byte	0x45
 2576 052e 01       		.byte	0x1
 2577 052f 00000000 		.4byte	.LFB55
 2578 0533 22000000 		.4byte	.LFE55
 2579 0537 00000000 		.4byte	.LLST0
 2580 053b 4F050000 		.4byte	0x54f
 2581 053f 18       		.uleb128 0x18
 2582 0540 29040000 		.4byte	.LASF86
 2583 0544 01       		.byte	0x1
 2584 0545 45       		.byte	0x45
 2585 0546 E1020000 		.4byte	0x2e1
 2586 054a 20000000 		.4byte	.LLST1
 2587 054e 00       		.byte	0x0
 2588 054f 19       		.uleb128 0x19
 2589 0550 01       		.byte	0x1
 2590 0551 C6000000 		.4byte	.LASF109
 2591 0555 01       		.byte	0x1
 2592 0556 EB       		.byte	0xeb
 2593 0557 01       		.byte	0x1
 2594 0558 00000000 		.4byte	.LFB57
 2595 055c 04000000 		.4byte	.LFE57
 2596 0560 02       		.byte	0x2
 2597 0561 7D       		.byte	0x7d
 2598 0562 00       		.sleb128 0
 2599 0563 1A       		.uleb128 0x1a
 2600 0564 01       		.byte	0x1
 2601 0565 35050000 		.4byte	.LASF87
 2602 0569 01       		.byte	0x1
 2603 056a F7       		.byte	0xf7
 2604 056b 01       		.byte	0x1
 2605 056c 00000000 		.4byte	.LFB58
 2606 0570 10000000 		.4byte	.LFE58
 2607 0574 02       		.byte	0x2
 2608 0575 7D       		.byte	0x7d
 2609 0576 00       		.sleb128 0
 2610 0577 89050000 		.4byte	0x589
 2611 057b 1B       		.uleb128 0x1b
 2612 057c 29040000 		.4byte	.LASF86
 2613 0580 01       		.byte	0x1
 2614 0581 F7       		.byte	0xf7
 2615 0582 E1020000 		.4byte	0x2e1
 2616 0586 01       		.byte	0x1
 2617 0587 50       		.byte	0x50
 2618 0588 00       		.byte	0x0
 2619 0589 1C       		.uleb128 0x1c
 2620 058a 01       		.byte	0x1
 2621 058b F7040000 		.4byte	.LASF88
 2622 058f 01       		.byte	0x1
 2623 0590 0801     		.2byte	0x108
 2624 0592 01       		.byte	0x1
 2625 0593 00000000 		.4byte	.LFB59
 2626 0597 58000000 		.4byte	.LFE59
 2627 059b 3E000000 		.4byte	.LLST2
 2628 059f D2050000 		.4byte	0x5d2
ARM GAS  /tmp/ccfjwwPm.s 			page 48


 2629 05a3 1D       		.uleb128 0x1d
 2630 05a4 29040000 		.4byte	.LASF86
 2631 05a8 01       		.byte	0x1
 2632 05a9 0801     		.2byte	0x108
 2633 05ab E1020000 		.4byte	0x2e1
 2634 05af 5E000000 		.4byte	.LLST3
 2635 05b3 1D       		.uleb128 0x1d
 2636 05b4 1A010000 		.4byte	.LASF18
 2637 05b8 01       		.byte	0x1
 2638 05b9 0801     		.2byte	0x108
 2639 05bb F1040000 		.4byte	0x4f1
 2640 05bf 7C000000 		.4byte	.LLST4
 2641 05c3 1E       		.uleb128 0x1e
 2642 05c4 6900     		.ascii	"i\000"
 2643 05c6 01       		.byte	0x1
 2644 05c7 0901     		.2byte	0x109
 2645 05c9 4C000000 		.4byte	0x4c
 2646 05cd 9A000000 		.4byte	.LLST5
 2647 05d1 00       		.byte	0x0
 2648 05d2 1C       		.uleb128 0x1c
 2649 05d3 01       		.byte	0x1
 2650 05d4 58010000 		.4byte	.LASF89
 2651 05d8 01       		.byte	0x1
 2652 05d9 1F01     		.2byte	0x11f
 2653 05db 01       		.byte	0x1
 2654 05dc 00000000 		.4byte	.LFB60
 2655 05e0 40000000 		.4byte	.LFE60
 2656 05e4 AE000000 		.4byte	.LLST6
 2657 05e8 FD050000 		.4byte	0x5fd
 2658 05ec 1D       		.uleb128 0x1d
 2659 05ed 29040000 		.4byte	.LASF86
 2660 05f1 01       		.byte	0x1
 2661 05f2 1F01     		.2byte	0x11f
 2662 05f4 E1020000 		.4byte	0x2e1
 2663 05f8 CE000000 		.4byte	.LLST7
 2664 05fc 00       		.byte	0x0
 2665 05fd 1C       		.uleb128 0x1c
 2666 05fe 01       		.byte	0x1
 2667 05ff 3F040000 		.4byte	.LASF90
 2668 0603 01       		.byte	0x1
 2669 0604 3801     		.2byte	0x138
 2670 0606 01       		.byte	0x1
 2671 0607 00000000 		.4byte	.LFB61
 2672 060b 6C000000 		.4byte	.LFE61
 2673 060f EC000000 		.4byte	.LLST8
 2674 0613 47060000 		.4byte	0x647
 2675 0617 1D       		.uleb128 0x1d
 2676 0618 29040000 		.4byte	.LASF86
 2677 061c 01       		.byte	0x1
 2678 061d 3801     		.2byte	0x138
 2679 061f E1020000 		.4byte	0x2e1
 2680 0623 0C010000 		.4byte	.LLST9
 2681 0627 1F       		.uleb128 0x1f
 2682 0628 657000   		.ascii	"ep\000"
 2683 062b 01       		.byte	0x1
 2684 062c 3801     		.2byte	0x138
 2685 062e C6010000 		.4byte	0x1c6
ARM GAS  /tmp/ccfjwwPm.s 			page 49


 2686 0632 2A010000 		.4byte	.LLST10
 2687 0636 1D       		.uleb128 0x1d
 2688 0637 EC030000 		.4byte	.LASF91
 2689 063b 01       		.byte	0x1
 2690 063c 3901     		.2byte	0x139
 2691 063e 0C050000 		.4byte	0x50c
 2692 0642 3D010000 		.4byte	.LLST11
 2693 0646 00       		.byte	0x0
 2694 0647 1C       		.uleb128 0x1c
 2695 0648 01       		.byte	0x1
 2696 0649 14050000 		.4byte	.LASF92
 2697 064d 01       		.byte	0x1
 2698 064e 5801     		.2byte	0x158
 2699 0650 01       		.byte	0x1
 2700 0651 00000000 		.4byte	.LFB62
 2701 0655 50000000 		.4byte	.LFE62
 2702 0659 5B010000 		.4byte	.LLST12
 2703 065d 80060000 		.4byte	0x680
 2704 0661 1D       		.uleb128 0x1d
 2705 0662 29040000 		.4byte	.LASF86
 2706 0666 01       		.byte	0x1
 2707 0667 5801     		.2byte	0x158
 2708 0669 E1020000 		.4byte	0x2e1
 2709 066d 7B010000 		.4byte	.LLST13
 2710 0671 1E       		.uleb128 0x1e
 2711 0672 6900     		.ascii	"i\000"
 2712 0674 01       		.byte	0x1
 2713 0675 5901     		.2byte	0x159
 2714 0677 4C000000 		.4byte	0x4c
 2715 067b 99010000 		.4byte	.LLST14
 2716 067f 00       		.byte	0x0
 2717 0680 20       		.uleb128 0x20
 2718 0681 01       		.byte	0x1
 2719 0682 B4040000 		.4byte	.LASF93
 2720 0686 01       		.byte	0x1
 2721 0687 7601     		.2byte	0x176
 2722 0689 01       		.byte	0x1
 2723 068a AF000000 		.4byte	0xaf
 2724 068e 00000000 		.4byte	.LFB63
 2725 0692 38000000 		.4byte	.LFE63
 2726 0696 01020000 		.4byte	.LLST15
 2727 069a BE060000 		.4byte	0x6be
 2728 069e 1D       		.uleb128 0x1d
 2729 069f 29040000 		.4byte	.LASF86
 2730 06a3 01       		.byte	0x1
 2731 06a4 7601     		.2byte	0x176
 2732 06a6 E1020000 		.4byte	0x2e1
 2733 06aa 21020000 		.4byte	.LLST16
 2734 06ae 1F       		.uleb128 0x1f
 2735 06af 657000   		.ascii	"ep\000"
 2736 06b2 01       		.byte	0x1
 2737 06b3 7601     		.2byte	0x176
 2738 06b5 C6010000 		.4byte	0x1c6
 2739 06b9 3F020000 		.4byte	.LLST17
 2740 06bd 00       		.byte	0x0
 2741 06be 20       		.uleb128 0x20
 2742 06bf 01       		.byte	0x1
ARM GAS  /tmp/ccfjwwPm.s 			page 50


 2743 06c0 AF000000 		.4byte	.LASF94
 2744 06c4 01       		.byte	0x1
 2745 06c5 9001     		.2byte	0x190
 2746 06c7 01       		.byte	0x1
 2747 06c8 AF000000 		.4byte	0xaf
 2748 06cc 00000000 		.4byte	.LFB64
 2749 06d0 38000000 		.4byte	.LFE64
 2750 06d4 52020000 		.4byte	.LLST18
 2751 06d8 FC060000 		.4byte	0x6fc
 2752 06dc 1D       		.uleb128 0x1d
 2753 06dd 29040000 		.4byte	.LASF86
 2754 06e1 01       		.byte	0x1
 2755 06e2 9001     		.2byte	0x190
 2756 06e4 E1020000 		.4byte	0x2e1
 2757 06e8 72020000 		.4byte	.LLST19
 2758 06ec 1F       		.uleb128 0x1f
 2759 06ed 657000   		.ascii	"ep\000"
 2760 06f0 01       		.byte	0x1
 2761 06f1 9001     		.2byte	0x190
 2762 06f3 C6010000 		.4byte	0x1c6
 2763 06f7 90020000 		.4byte	.LLST20
 2764 06fb 00       		.byte	0x0
 2765 06fc 20       		.uleb128 0x20
 2766 06fd 01       		.byte	0x1
 2767 06fe 21010000 		.4byte	.LASF95
 2768 0702 01       		.byte	0x1
 2769 0703 A801     		.2byte	0x1a8
 2770 0705 01       		.byte	0x1
 2771 0706 AF000000 		.4byte	0xaf
 2772 070a 00000000 		.4byte	.LFB65
 2773 070e 30000000 		.4byte	.LFE65
 2774 0712 A3020000 		.4byte	.LLST21
 2775 0716 3A070000 		.4byte	0x73a
 2776 071a 1D       		.uleb128 0x1d
 2777 071b 29040000 		.4byte	.LASF86
 2778 071f 01       		.byte	0x1
 2779 0720 A801     		.2byte	0x1a8
 2780 0722 E1020000 		.4byte	0x2e1
 2781 0726 C3020000 		.4byte	.LLST22
 2782 072a 1F       		.uleb128 0x1f
 2783 072b 657000   		.ascii	"ep\000"
 2784 072e 01       		.byte	0x1
 2785 072f A801     		.2byte	0x1a8
 2786 0731 C6010000 		.4byte	0x1c6
 2787 0735 E1020000 		.4byte	.LLST23
 2788 0739 00       		.byte	0x0
 2789 073a 20       		.uleb128 0x20
 2790 073b 01       		.byte	0x1
 2791 073c 5F050000 		.4byte	.LASF96
 2792 0740 01       		.byte	0x1
 2793 0741 BF01     		.2byte	0x1bf
 2794 0743 01       		.byte	0x1
 2795 0744 AF000000 		.4byte	0xaf
 2796 0748 00000000 		.4byte	.LFB66
 2797 074c 30000000 		.4byte	.LFE66
 2798 0750 F4020000 		.4byte	.LLST24
 2799 0754 78070000 		.4byte	0x778
ARM GAS  /tmp/ccfjwwPm.s 			page 51


 2800 0758 1D       		.uleb128 0x1d
 2801 0759 29040000 		.4byte	.LASF86
 2802 075d 01       		.byte	0x1
 2803 075e BF01     		.2byte	0x1bf
 2804 0760 E1020000 		.4byte	0x2e1
 2805 0764 14030000 		.4byte	.LLST25
 2806 0768 1F       		.uleb128 0x1f
 2807 0769 657000   		.ascii	"ep\000"
 2808 076c 01       		.byte	0x1
 2809 076d BF01     		.2byte	0x1bf
 2810 076f C6010000 		.4byte	0x1c6
 2811 0773 32030000 		.4byte	.LLST26
 2812 0777 00       		.byte	0x0
 2813 0778 21       		.uleb128 0x21
 2814 0779 01       		.byte	0x1
 2815 077a A9040000 		.4byte	.LASF97
 2816 077e 01       		.byte	0x1
 2817 077f D401     		.2byte	0x1d4
 2818 0781 01       		.byte	0x1
 2819 0782 00000000 		.4byte	.LFB67
 2820 0786 30000000 		.4byte	.LFE67
 2821 078a 02       		.byte	0x2
 2822 078b 7D       		.byte	0x7d
 2823 078c 00       		.sleb128 0
 2824 078d AE070000 		.4byte	0x7ae
 2825 0791 22       		.uleb128 0x22
 2826 0792 29040000 		.4byte	.LASF86
 2827 0796 01       		.byte	0x1
 2828 0797 D401     		.2byte	0x1d4
 2829 0799 E1020000 		.4byte	0x2e1
 2830 079d 01       		.byte	0x1
 2831 079e 50       		.byte	0x50
 2832 079f 1E       		.uleb128 0x1e
 2833 07a0 6900     		.ascii	"i\000"
 2834 07a2 01       		.byte	0x1
 2835 07a3 D501     		.2byte	0x1d5
 2836 07a5 4C000000 		.4byte	0x4c
 2837 07a9 45030000 		.4byte	.LLST27
 2838 07ad 00       		.byte	0x0
 2839 07ae 23       		.uleb128 0x23
 2840 07af E3020000 		.4byte	.LASF110
 2841 07b3 01       		.byte	0x1
 2842 07b4 59       		.byte	0x59
 2843 07b5 01       		.byte	0x1
 2844 07b6 AF000000 		.4byte	0xaf
 2845 07ba 01       		.byte	0x1
 2846 07bb D5070000 		.4byte	0x7d5
 2847 07bf 24       		.uleb128 0x24
 2848 07c0 29040000 		.4byte	.LASF86
 2849 07c4 01       		.byte	0x1
 2850 07c5 59       		.byte	0x59
 2851 07c6 E1020000 		.4byte	0x2e1
 2852 07ca 25       		.uleb128 0x25
 2853 07cb 647000   		.ascii	"dp\000"
 2854 07ce 01       		.byte	0x1
 2855 07cf 5A       		.byte	0x5a
 2856 07d0 80030000 		.4byte	0x380
ARM GAS  /tmp/ccfjwwPm.s 			page 52


 2857 07d4 00       		.byte	0x0
 2858 07d5 1C       		.uleb128 0x1c
 2859 07d6 01       		.byte	0x1
 2860 07d7 42000000 		.4byte	.LASF98
 2861 07db 01       		.byte	0x1
 2862 07dc F301     		.2byte	0x1f3
 2863 07de 01       		.byte	0x1
 2864 07df 00000000 		.4byte	.LFB68
 2865 07e3 7C020000 		.4byte	.LFE68
 2866 07e7 B9030000 		.4byte	.LLST28
 2867 07eb 4C080000 		.4byte	0x84c
 2868 07ef 1D       		.uleb128 0x1d
 2869 07f0 29040000 		.4byte	.LASF86
 2870 07f4 01       		.byte	0x1
 2871 07f5 F301     		.2byte	0x1f3
 2872 07f7 E1020000 		.4byte	0x2e1
 2873 07fb D9030000 		.4byte	.LLST29
 2874 07ff 1F       		.uleb128 0x1f
 2875 0800 657000   		.ascii	"ep\000"
 2876 0803 01       		.byte	0x1
 2877 0804 F301     		.2byte	0x1f3
 2878 0806 C6010000 		.4byte	0x1c6
 2879 080a F7030000 		.4byte	.LLST30
 2880 080e 1E       		.uleb128 0x1e
 2881 080f 6D617800 		.ascii	"max\000"
 2882 0813 01       		.byte	0x1
 2883 0814 F401     		.2byte	0x1f4
 2884 0816 78000000 		.4byte	0x78
 2885 081a 0A040000 		.4byte	.LLST31
 2886 081e 26       		.uleb128 0x26
 2887 081f AE070000 		.4byte	0x7ae
 2888 0823 2E000000 		.4byte	.LBB4
 2889 0827 C4010000 		.4byte	.LBE4
 2890 082b 01       		.byte	0x1
 2891 082c 0002     		.2byte	0x200
 2892 082e 27       		.uleb128 0x27
 2893 082f BF070000 		.4byte	0x7bf
 2894 0833 1D040000 		.4byte	.LLST32
 2895 0837 28       		.uleb128 0x28
 2896 0838 2E000000 		.4byte	.LBB5
 2897 083c C4010000 		.4byte	.LBE5
 2898 0840 29       		.uleb128 0x29
 2899 0841 CA070000 		.4byte	0x7ca
 2900 0845 30040000 		.4byte	.LLST33
 2901 0849 00       		.byte	0x0
 2902 084a 00       		.byte	0x0
 2903 084b 00       		.byte	0x0
 2904 084c 1C       		.uleb128 0x1c
 2905 084d 01       		.byte	0x1
 2906 084e 50040000 		.4byte	.LASF99
 2907 0852 01       		.byte	0x1
 2908 0853 3E02     		.2byte	0x23e
 2909 0855 01       		.byte	0x1
 2910 0856 00000000 		.4byte	.LFB69
 2911 085a 8A000000 		.4byte	.LFE69
 2912 085e 43040000 		.4byte	.LLST34
 2913 0862 96080000 		.4byte	0x896
ARM GAS  /tmp/ccfjwwPm.s 			page 53


 2914 0866 1D       		.uleb128 0x1d
 2915 0867 29040000 		.4byte	.LASF86
 2916 086b 01       		.byte	0x1
 2917 086c 3E02     		.2byte	0x23e
 2918 086e E1020000 		.4byte	0x2e1
 2919 0872 63040000 		.4byte	.LLST35
 2920 0876 1F       		.uleb128 0x1f
 2921 0877 657000   		.ascii	"ep\000"
 2922 087a 01       		.byte	0x1
 2923 087b 3E02     		.2byte	0x23e
 2924 087d C6010000 		.4byte	0x1c6
 2925 0881 81040000 		.4byte	.LLST36
 2926 0885 1E       		.uleb128 0x1e
 2927 0886 6D617800 		.ascii	"max\000"
 2928 088a 01       		.byte	0x1
 2929 088b 3F02     		.2byte	0x23f
 2930 088d 78000000 		.4byte	0x78
 2931 0891 B5040000 		.4byte	.LLST37
 2932 0895 00       		.byte	0x0
 2933 0896 1C       		.uleb128 0x1c
 2934 0897 01       		.byte	0x1
 2935 0898 0E010000 		.4byte	.LASF100
 2936 089c 01       		.byte	0x1
 2937 089d 7002     		.2byte	0x270
 2938 089f 01       		.byte	0x1
 2939 08a0 00000000 		.4byte	.LFB70
 2940 08a4 62000000 		.4byte	.LFE70
 2941 08a8 D7040000 		.4byte	.LLST38
 2942 08ac D0080000 		.4byte	0x8d0
 2943 08b0 1D       		.uleb128 0x1d
 2944 08b1 29040000 		.4byte	.LASF86
 2945 08b5 01       		.byte	0x1
 2946 08b6 7002     		.2byte	0x270
 2947 08b8 E1020000 		.4byte	0x2e1
 2948 08bc F7040000 		.4byte	.LLST39
 2949 08c0 1F       		.uleb128 0x1f
 2950 08c1 657000   		.ascii	"ep\000"
 2951 08c4 01       		.byte	0x1
 2952 08c5 7002     		.2byte	0x270
 2953 08c7 C6010000 		.4byte	0x1c6
 2954 08cb 15050000 		.4byte	.LLST40
 2955 08cf 00       		.byte	0x0
 2956 08d0 2A       		.uleb128 0x2a
 2957 08d1 DD040000 		.4byte	.LASF104
 2958 08d5 07       		.byte	0x7
 2959 08d6 9404     		.2byte	0x494
 2960 08d8 CB000000 		.4byte	0xcb
 2961 08dc 01       		.byte	0x1
 2962 08dd 01       		.byte	0x1
 2963 08de 15       		.uleb128 0x15
 2964 08df 83000000 		.4byte	0x83
 2965 08e3 EE080000 		.4byte	0x8ee
 2966 08e7 16       		.uleb128 0x16
 2967 08e8 4C000000 		.4byte	0x4c
 2968 08ec 01       		.byte	0x1
 2969 08ed 00       		.byte	0x0
 2970 08ee 2B       		.uleb128 0x2b
ARM GAS  /tmp/ccfjwwPm.s 			page 54


 2971 08ef 00000000 		.4byte	.LASF101
 2972 08f3 01       		.byte	0x1
 2973 08f4 38       		.byte	0x38
 2974 08f5 FF080000 		.4byte	0x8ff
 2975 08f9 05       		.byte	0x5
 2976 08fa 03       		.byte	0x3
 2977 08fb 00000000 		.4byte	zero_status
 2978 08ff 07       		.uleb128 0x7
 2979 0900 DE080000 		.4byte	0x8de
 2980 0904 2B       		.uleb128 0x2b
 2981 0905 55030000 		.4byte	.LASF102
 2982 0909 01       		.byte	0x1
 2983 090a 39       		.byte	0x39
 2984 090b 15090000 		.4byte	0x915
 2985 090f 05       		.byte	0x5
 2986 0910 03       		.byte	0x3
 2987 0911 00000000 		.4byte	active_status
 2988 0915 07       		.uleb128 0x7
 2989 0916 DE080000 		.4byte	0x8de
 2990 091a 2B       		.uleb128 0x2b
 2991 091b B0030000 		.4byte	.LASF103
 2992 091f 01       		.byte	0x1
 2993 0920 3A       		.byte	0x3a
 2994 0921 2B090000 		.4byte	0x92b
 2995 0925 05       		.byte	0x5
 2996 0926 03       		.byte	0x3
 2997 0927 00000000 		.4byte	halted_status
 2998 092b 07       		.uleb128 0x7
 2999 092c DE080000 		.4byte	0x8de
 3000 0930 2A       		.uleb128 0x2a
 3001 0931 DD040000 		.4byte	.LASF104
 3002 0935 07       		.byte	0x7
 3003 0936 9404     		.2byte	0x494
 3004 0938 CB000000 		.4byte	0xcb
 3005 093c 01       		.byte	0x1
 3006 093d 01       		.byte	0x1
 3007 093e 00       		.byte	0x0
 3008              		.section	.debug_abbrev
 3009 0000 01       		.uleb128 0x1
 3010 0001 11       		.uleb128 0x11
 3011 0002 01       		.byte	0x1
 3012 0003 25       		.uleb128 0x25
 3013 0004 0E       		.uleb128 0xe
 3014 0005 13       		.uleb128 0x13
 3015 0006 0B       		.uleb128 0xb
 3016 0007 03       		.uleb128 0x3
 3017 0008 0E       		.uleb128 0xe
 3018 0009 1B       		.uleb128 0x1b
 3019 000a 0E       		.uleb128 0xe
 3020 000b 11       		.uleb128 0x11
 3021 000c 01       		.uleb128 0x1
 3022 000d 52       		.uleb128 0x52
 3023 000e 01       		.uleb128 0x1
 3024 000f 55       		.uleb128 0x55
 3025 0010 06       		.uleb128 0x6
 3026 0011 10       		.uleb128 0x10
 3027 0012 06       		.uleb128 0x6
ARM GAS  /tmp/ccfjwwPm.s 			page 55


 3028 0013 00       		.byte	0x0
 3029 0014 00       		.byte	0x0
 3030 0015 02       		.uleb128 0x2
 3031 0016 24       		.uleb128 0x24
 3032 0017 00       		.byte	0x0
 3033 0018 0B       		.uleb128 0xb
 3034 0019 0B       		.uleb128 0xb
 3035 001a 3E       		.uleb128 0x3e
 3036 001b 0B       		.uleb128 0xb
 3037 001c 03       		.uleb128 0x3
 3038 001d 0E       		.uleb128 0xe
 3039 001e 00       		.byte	0x0
 3040 001f 00       		.byte	0x0
 3041 0020 03       		.uleb128 0x3
 3042 0021 24       		.uleb128 0x24
 3043 0022 00       		.byte	0x0
 3044 0023 0B       		.uleb128 0xb
 3045 0024 0B       		.uleb128 0xb
 3046 0025 3E       		.uleb128 0x3e
 3047 0026 0B       		.uleb128 0xb
 3048 0027 03       		.uleb128 0x3
 3049 0028 08       		.uleb128 0x8
 3050 0029 00       		.byte	0x0
 3051 002a 00       		.byte	0x0
 3052 002b 04       		.uleb128 0x4
 3053 002c 0F       		.uleb128 0xf
 3054 002d 00       		.byte	0x0
 3055 002e 0B       		.uleb128 0xb
 3056 002f 0B       		.uleb128 0xb
 3057 0030 00       		.byte	0x0
 3058 0031 00       		.byte	0x0
 3059 0032 05       		.uleb128 0x5
 3060 0033 16       		.uleb128 0x16
 3061 0034 00       		.byte	0x0
 3062 0035 03       		.uleb128 0x3
 3063 0036 0E       		.uleb128 0xe
 3064 0037 3A       		.uleb128 0x3a
 3065 0038 0B       		.uleb128 0xb
 3066 0039 3B       		.uleb128 0x3b
 3067 003a 0B       		.uleb128 0xb
 3068 003b 49       		.uleb128 0x49
 3069 003c 13       		.uleb128 0x13
 3070 003d 00       		.byte	0x0
 3071 003e 00       		.byte	0x0
 3072 003f 06       		.uleb128 0x6
 3073 0040 0F       		.uleb128 0xf
 3074 0041 00       		.byte	0x0
 3075 0042 0B       		.uleb128 0xb
 3076 0043 0B       		.uleb128 0xb
 3077 0044 49       		.uleb128 0x49
 3078 0045 13       		.uleb128 0x13
 3079 0046 00       		.byte	0x0
 3080 0047 00       		.byte	0x0
 3081 0048 07       		.uleb128 0x7
 3082 0049 26       		.uleb128 0x26
 3083 004a 00       		.byte	0x0
 3084 004b 49       		.uleb128 0x49
ARM GAS  /tmp/ccfjwwPm.s 			page 56


 3085 004c 13       		.uleb128 0x13
 3086 004d 00       		.byte	0x0
 3087 004e 00       		.byte	0x0
 3088 004f 08       		.uleb128 0x8
 3089 0050 35       		.uleb128 0x35
 3090 0051 00       		.byte	0x0
 3091 0052 49       		.uleb128 0x49
 3092 0053 13       		.uleb128 0x13
 3093 0054 00       		.byte	0x0
 3094 0055 00       		.byte	0x0
 3095 0056 09       		.uleb128 0x9
 3096 0057 13       		.uleb128 0x13
 3097 0058 01       		.byte	0x1
 3098 0059 03       		.uleb128 0x3
 3099 005a 0E       		.uleb128 0xe
 3100 005b 0B       		.uleb128 0xb
 3101 005c 0B       		.uleb128 0xb
 3102 005d 3A       		.uleb128 0x3a
 3103 005e 0B       		.uleb128 0xb
 3104 005f 3B       		.uleb128 0x3b
 3105 0060 0B       		.uleb128 0xb
 3106 0061 01       		.uleb128 0x1
 3107 0062 13       		.uleb128 0x13
 3108 0063 00       		.byte	0x0
 3109 0064 00       		.byte	0x0
 3110 0065 0A       		.uleb128 0xa
 3111 0066 0D       		.uleb128 0xd
 3112 0067 00       		.byte	0x0
 3113 0068 03       		.uleb128 0x3
 3114 0069 0E       		.uleb128 0xe
 3115 006a 3A       		.uleb128 0x3a
 3116 006b 0B       		.uleb128 0xb
 3117 006c 3B       		.uleb128 0x3b
 3118 006d 0B       		.uleb128 0xb
 3119 006e 49       		.uleb128 0x49
 3120 006f 13       		.uleb128 0x13
 3121 0070 38       		.uleb128 0x38
 3122 0071 0A       		.uleb128 0xa
 3123 0072 00       		.byte	0x0
 3124 0073 00       		.byte	0x0
 3125 0074 0B       		.uleb128 0xb
 3126 0075 0D       		.uleb128 0xd
 3127 0076 00       		.byte	0x0
 3128 0077 03       		.uleb128 0x3
 3129 0078 0E       		.uleb128 0xe
 3130 0079 3A       		.uleb128 0x3a
 3131 007a 0B       		.uleb128 0xb
 3132 007b 3B       		.uleb128 0x3b
 3133 007c 05       		.uleb128 0x5
 3134 007d 49       		.uleb128 0x49
 3135 007e 13       		.uleb128 0x13
 3136 007f 38       		.uleb128 0x38
 3137 0080 0A       		.uleb128 0xa
 3138 0081 00       		.byte	0x0
 3139 0082 00       		.byte	0x0
 3140 0083 0C       		.uleb128 0xc
 3141 0084 0D       		.uleb128 0xd
ARM GAS  /tmp/ccfjwwPm.s 			page 57


 3142 0085 00       		.byte	0x0
 3143 0086 03       		.uleb128 0x3
 3144 0087 08       		.uleb128 0x8
 3145 0088 3A       		.uleb128 0x3a
 3146 0089 0B       		.uleb128 0xb
 3147 008a 3B       		.uleb128 0x3b
 3148 008b 05       		.uleb128 0x5
 3149 008c 49       		.uleb128 0x49
 3150 008d 13       		.uleb128 0x13
 3151 008e 38       		.uleb128 0x38
 3152 008f 0A       		.uleb128 0xa
 3153 0090 00       		.byte	0x0
 3154 0091 00       		.byte	0x0
 3155 0092 0D       		.uleb128 0xd
 3156 0093 04       		.uleb128 0x4
 3157 0094 01       		.byte	0x1
 3158 0095 0B       		.uleb128 0xb
 3159 0096 0B       		.uleb128 0xb
 3160 0097 3A       		.uleb128 0x3a
 3161 0098 0B       		.uleb128 0xb
 3162 0099 3B       		.uleb128 0x3b
 3163 009a 0B       		.uleb128 0xb
 3164 009b 01       		.uleb128 0x1
 3165 009c 13       		.uleb128 0x13
 3166 009d 00       		.byte	0x0
 3167 009e 00       		.byte	0x0
 3168 009f 0E       		.uleb128 0xe
 3169 00a0 28       		.uleb128 0x28
 3170 00a1 00       		.byte	0x0
 3171 00a2 03       		.uleb128 0x3
 3172 00a3 0E       		.uleb128 0xe
 3173 00a4 1C       		.uleb128 0x1c
 3174 00a5 0D       		.uleb128 0xd
 3175 00a6 00       		.byte	0x0
 3176 00a7 00       		.byte	0x0
 3177 00a8 0F       		.uleb128 0xf
 3178 00a9 16       		.uleb128 0x16
 3179 00aa 00       		.byte	0x0
 3180 00ab 03       		.uleb128 0x3
 3181 00ac 0E       		.uleb128 0xe
 3182 00ad 3A       		.uleb128 0x3a
 3183 00ae 0B       		.uleb128 0xb
 3184 00af 3B       		.uleb128 0x3b
 3185 00b0 05       		.uleb128 0x5
 3186 00b1 49       		.uleb128 0x49
 3187 00b2 13       		.uleb128 0x13
 3188 00b3 00       		.byte	0x0
 3189 00b4 00       		.byte	0x0
 3190 00b5 10       		.uleb128 0x10
 3191 00b6 13       		.uleb128 0x13
 3192 00b7 01       		.byte	0x1
 3193 00b8 0B       		.uleb128 0xb
 3194 00b9 0B       		.uleb128 0xb
 3195 00ba 3A       		.uleb128 0x3a
 3196 00bb 0B       		.uleb128 0xb
 3197 00bc 3B       		.uleb128 0x3b
 3198 00bd 05       		.uleb128 0x5
ARM GAS  /tmp/ccfjwwPm.s 			page 58


 3199 00be 01       		.uleb128 0x1
 3200 00bf 13       		.uleb128 0x13
 3201 00c0 00       		.byte	0x0
 3202 00c1 00       		.byte	0x0
 3203 00c2 11       		.uleb128 0x11
 3204 00c3 15       		.uleb128 0x15
 3205 00c4 01       		.byte	0x1
 3206 00c5 27       		.uleb128 0x27
 3207 00c6 0C       		.uleb128 0xc
 3208 00c7 01       		.uleb128 0x1
 3209 00c8 13       		.uleb128 0x13
 3210 00c9 00       		.byte	0x0
 3211 00ca 00       		.byte	0x0
 3212 00cb 12       		.uleb128 0x12
 3213 00cc 05       		.uleb128 0x5
 3214 00cd 00       		.byte	0x0
 3215 00ce 49       		.uleb128 0x49
 3216 00cf 13       		.uleb128 0x13
 3217 00d0 00       		.byte	0x0
 3218 00d1 00       		.byte	0x0
 3219 00d2 13       		.uleb128 0x13
 3220 00d3 15       		.uleb128 0x15
 3221 00d4 01       		.byte	0x1
 3222 00d5 27       		.uleb128 0x27
 3223 00d6 0C       		.uleb128 0xc
 3224 00d7 49       		.uleb128 0x49
 3225 00d8 13       		.uleb128 0x13
 3226 00d9 01       		.uleb128 0x1
 3227 00da 13       		.uleb128 0x13
 3228 00db 00       		.byte	0x0
 3229 00dc 00       		.byte	0x0
 3230 00dd 14       		.uleb128 0x14
 3231 00de 13       		.uleb128 0x13
 3232 00df 01       		.byte	0x1
 3233 00e0 0B       		.uleb128 0xb
 3234 00e1 0B       		.uleb128 0xb
 3235 00e2 3A       		.uleb128 0x3a
 3236 00e3 0B       		.uleb128 0xb
 3237 00e4 3B       		.uleb128 0x3b
 3238 00e5 0B       		.uleb128 0xb
 3239 00e6 01       		.uleb128 0x1
 3240 00e7 13       		.uleb128 0x13
 3241 00e8 00       		.byte	0x0
 3242 00e9 00       		.byte	0x0
 3243 00ea 15       		.uleb128 0x15
 3244 00eb 01       		.uleb128 0x1
 3245 00ec 01       		.byte	0x1
 3246 00ed 49       		.uleb128 0x49
 3247 00ee 13       		.uleb128 0x13
 3248 00ef 01       		.uleb128 0x1
 3249 00f0 13       		.uleb128 0x13
 3250 00f1 00       		.byte	0x0
 3251 00f2 00       		.byte	0x0
 3252 00f3 16       		.uleb128 0x16
 3253 00f4 21       		.uleb128 0x21
 3254 00f5 00       		.byte	0x0
 3255 00f6 49       		.uleb128 0x49
ARM GAS  /tmp/ccfjwwPm.s 			page 59


 3256 00f7 13       		.uleb128 0x13
 3257 00f8 2F       		.uleb128 0x2f
 3258 00f9 0B       		.uleb128 0xb
 3259 00fa 00       		.byte	0x0
 3260 00fb 00       		.byte	0x0
 3261 00fc 17       		.uleb128 0x17
 3262 00fd 2E       		.uleb128 0x2e
 3263 00fe 01       		.byte	0x1
 3264 00ff 03       		.uleb128 0x3
 3265 0100 0E       		.uleb128 0xe
 3266 0101 3A       		.uleb128 0x3a
 3267 0102 0B       		.uleb128 0xb
 3268 0103 3B       		.uleb128 0x3b
 3269 0104 0B       		.uleb128 0xb
 3270 0105 27       		.uleb128 0x27
 3271 0106 0C       		.uleb128 0xc
 3272 0107 11       		.uleb128 0x11
 3273 0108 01       		.uleb128 0x1
 3274 0109 12       		.uleb128 0x12
 3275 010a 01       		.uleb128 0x1
 3276 010b 40       		.uleb128 0x40
 3277 010c 06       		.uleb128 0x6
 3278 010d 01       		.uleb128 0x1
 3279 010e 13       		.uleb128 0x13
 3280 010f 00       		.byte	0x0
 3281 0110 00       		.byte	0x0
 3282 0111 18       		.uleb128 0x18
 3283 0112 05       		.uleb128 0x5
 3284 0113 00       		.byte	0x0
 3285 0114 03       		.uleb128 0x3
 3286 0115 0E       		.uleb128 0xe
 3287 0116 3A       		.uleb128 0x3a
 3288 0117 0B       		.uleb128 0xb
 3289 0118 3B       		.uleb128 0x3b
 3290 0119 0B       		.uleb128 0xb
 3291 011a 49       		.uleb128 0x49
 3292 011b 13       		.uleb128 0x13
 3293 011c 02       		.uleb128 0x2
 3294 011d 06       		.uleb128 0x6
 3295 011e 00       		.byte	0x0
 3296 011f 00       		.byte	0x0
 3297 0120 19       		.uleb128 0x19
 3298 0121 2E       		.uleb128 0x2e
 3299 0122 00       		.byte	0x0
 3300 0123 3F       		.uleb128 0x3f
 3301 0124 0C       		.uleb128 0xc
 3302 0125 03       		.uleb128 0x3
 3303 0126 0E       		.uleb128 0xe
 3304 0127 3A       		.uleb128 0x3a
 3305 0128 0B       		.uleb128 0xb
 3306 0129 3B       		.uleb128 0x3b
 3307 012a 0B       		.uleb128 0xb
 3308 012b 27       		.uleb128 0x27
 3309 012c 0C       		.uleb128 0xc
 3310 012d 11       		.uleb128 0x11
 3311 012e 01       		.uleb128 0x1
 3312 012f 12       		.uleb128 0x12
ARM GAS  /tmp/ccfjwwPm.s 			page 60


 3313 0130 01       		.uleb128 0x1
 3314 0131 40       		.uleb128 0x40
 3315 0132 0A       		.uleb128 0xa
 3316 0133 00       		.byte	0x0
 3317 0134 00       		.byte	0x0
 3318 0135 1A       		.uleb128 0x1a
 3319 0136 2E       		.uleb128 0x2e
 3320 0137 01       		.byte	0x1
 3321 0138 3F       		.uleb128 0x3f
 3322 0139 0C       		.uleb128 0xc
 3323 013a 03       		.uleb128 0x3
 3324 013b 0E       		.uleb128 0xe
 3325 013c 3A       		.uleb128 0x3a
 3326 013d 0B       		.uleb128 0xb
 3327 013e 3B       		.uleb128 0x3b
 3328 013f 0B       		.uleb128 0xb
 3329 0140 27       		.uleb128 0x27
 3330 0141 0C       		.uleb128 0xc
 3331 0142 11       		.uleb128 0x11
 3332 0143 01       		.uleb128 0x1
 3333 0144 12       		.uleb128 0x12
 3334 0145 01       		.uleb128 0x1
 3335 0146 40       		.uleb128 0x40
 3336 0147 0A       		.uleb128 0xa
 3337 0148 01       		.uleb128 0x1
 3338 0149 13       		.uleb128 0x13
 3339 014a 00       		.byte	0x0
 3340 014b 00       		.byte	0x0
 3341 014c 1B       		.uleb128 0x1b
 3342 014d 05       		.uleb128 0x5
 3343 014e 00       		.byte	0x0
 3344 014f 03       		.uleb128 0x3
 3345 0150 0E       		.uleb128 0xe
 3346 0151 3A       		.uleb128 0x3a
 3347 0152 0B       		.uleb128 0xb
 3348 0153 3B       		.uleb128 0x3b
 3349 0154 0B       		.uleb128 0xb
 3350 0155 49       		.uleb128 0x49
 3351 0156 13       		.uleb128 0x13
 3352 0157 02       		.uleb128 0x2
 3353 0158 0A       		.uleb128 0xa
 3354 0159 00       		.byte	0x0
 3355 015a 00       		.byte	0x0
 3356 015b 1C       		.uleb128 0x1c
 3357 015c 2E       		.uleb128 0x2e
 3358 015d 01       		.byte	0x1
 3359 015e 3F       		.uleb128 0x3f
 3360 015f 0C       		.uleb128 0xc
 3361 0160 03       		.uleb128 0x3
 3362 0161 0E       		.uleb128 0xe
 3363 0162 3A       		.uleb128 0x3a
 3364 0163 0B       		.uleb128 0xb
 3365 0164 3B       		.uleb128 0x3b
 3366 0165 05       		.uleb128 0x5
 3367 0166 27       		.uleb128 0x27
 3368 0167 0C       		.uleb128 0xc
 3369 0168 11       		.uleb128 0x11
ARM GAS  /tmp/ccfjwwPm.s 			page 61


 3370 0169 01       		.uleb128 0x1
 3371 016a 12       		.uleb128 0x12
 3372 016b 01       		.uleb128 0x1
 3373 016c 40       		.uleb128 0x40
 3374 016d 06       		.uleb128 0x6
 3375 016e 01       		.uleb128 0x1
 3376 016f 13       		.uleb128 0x13
 3377 0170 00       		.byte	0x0
 3378 0171 00       		.byte	0x0
 3379 0172 1D       		.uleb128 0x1d
 3380 0173 05       		.uleb128 0x5
 3381 0174 00       		.byte	0x0
 3382 0175 03       		.uleb128 0x3
 3383 0176 0E       		.uleb128 0xe
 3384 0177 3A       		.uleb128 0x3a
 3385 0178 0B       		.uleb128 0xb
 3386 0179 3B       		.uleb128 0x3b
 3387 017a 05       		.uleb128 0x5
 3388 017b 49       		.uleb128 0x49
 3389 017c 13       		.uleb128 0x13
 3390 017d 02       		.uleb128 0x2
 3391 017e 06       		.uleb128 0x6
 3392 017f 00       		.byte	0x0
 3393 0180 00       		.byte	0x0
 3394 0181 1E       		.uleb128 0x1e
 3395 0182 34       		.uleb128 0x34
 3396 0183 00       		.byte	0x0
 3397 0184 03       		.uleb128 0x3
 3398 0185 08       		.uleb128 0x8
 3399 0186 3A       		.uleb128 0x3a
 3400 0187 0B       		.uleb128 0xb
 3401 0188 3B       		.uleb128 0x3b
 3402 0189 05       		.uleb128 0x5
 3403 018a 49       		.uleb128 0x49
 3404 018b 13       		.uleb128 0x13
 3405 018c 02       		.uleb128 0x2
 3406 018d 06       		.uleb128 0x6
 3407 018e 00       		.byte	0x0
 3408 018f 00       		.byte	0x0
 3409 0190 1F       		.uleb128 0x1f
 3410 0191 05       		.uleb128 0x5
 3411 0192 00       		.byte	0x0
 3412 0193 03       		.uleb128 0x3
 3413 0194 08       		.uleb128 0x8
 3414 0195 3A       		.uleb128 0x3a
 3415 0196 0B       		.uleb128 0xb
 3416 0197 3B       		.uleb128 0x3b
 3417 0198 05       		.uleb128 0x5
 3418 0199 49       		.uleb128 0x49
 3419 019a 13       		.uleb128 0x13
 3420 019b 02       		.uleb128 0x2
 3421 019c 06       		.uleb128 0x6
 3422 019d 00       		.byte	0x0
 3423 019e 00       		.byte	0x0
 3424 019f 20       		.uleb128 0x20
 3425 01a0 2E       		.uleb128 0x2e
 3426 01a1 01       		.byte	0x1
ARM GAS  /tmp/ccfjwwPm.s 			page 62


 3427 01a2 3F       		.uleb128 0x3f
 3428 01a3 0C       		.uleb128 0xc
 3429 01a4 03       		.uleb128 0x3
 3430 01a5 0E       		.uleb128 0xe
 3431 01a6 3A       		.uleb128 0x3a
 3432 01a7 0B       		.uleb128 0xb
 3433 01a8 3B       		.uleb128 0x3b
 3434 01a9 05       		.uleb128 0x5
 3435 01aa 27       		.uleb128 0x27
 3436 01ab 0C       		.uleb128 0xc
 3437 01ac 49       		.uleb128 0x49
 3438 01ad 13       		.uleb128 0x13
 3439 01ae 11       		.uleb128 0x11
 3440 01af 01       		.uleb128 0x1
 3441 01b0 12       		.uleb128 0x12
 3442 01b1 01       		.uleb128 0x1
 3443 01b2 40       		.uleb128 0x40
 3444 01b3 06       		.uleb128 0x6
 3445 01b4 01       		.uleb128 0x1
 3446 01b5 13       		.uleb128 0x13
 3447 01b6 00       		.byte	0x0
 3448 01b7 00       		.byte	0x0
 3449 01b8 21       		.uleb128 0x21
 3450 01b9 2E       		.uleb128 0x2e
 3451 01ba 01       		.byte	0x1
 3452 01bb 3F       		.uleb128 0x3f
 3453 01bc 0C       		.uleb128 0xc
 3454 01bd 03       		.uleb128 0x3
 3455 01be 0E       		.uleb128 0xe
 3456 01bf 3A       		.uleb128 0x3a
 3457 01c0 0B       		.uleb128 0xb
 3458 01c1 3B       		.uleb128 0x3b
 3459 01c2 05       		.uleb128 0x5
 3460 01c3 27       		.uleb128 0x27
 3461 01c4 0C       		.uleb128 0xc
 3462 01c5 11       		.uleb128 0x11
 3463 01c6 01       		.uleb128 0x1
 3464 01c7 12       		.uleb128 0x12
 3465 01c8 01       		.uleb128 0x1
 3466 01c9 40       		.uleb128 0x40
 3467 01ca 0A       		.uleb128 0xa
 3468 01cb 01       		.uleb128 0x1
 3469 01cc 13       		.uleb128 0x13
 3470 01cd 00       		.byte	0x0
 3471 01ce 00       		.byte	0x0
 3472 01cf 22       		.uleb128 0x22
 3473 01d0 05       		.uleb128 0x5
 3474 01d1 00       		.byte	0x0
 3475 01d2 03       		.uleb128 0x3
 3476 01d3 0E       		.uleb128 0xe
 3477 01d4 3A       		.uleb128 0x3a
 3478 01d5 0B       		.uleb128 0xb
 3479 01d6 3B       		.uleb128 0x3b
 3480 01d7 05       		.uleb128 0x5
 3481 01d8 49       		.uleb128 0x49
 3482 01d9 13       		.uleb128 0x13
 3483 01da 02       		.uleb128 0x2
ARM GAS  /tmp/ccfjwwPm.s 			page 63


 3484 01db 0A       		.uleb128 0xa
 3485 01dc 00       		.byte	0x0
 3486 01dd 00       		.byte	0x0
 3487 01de 23       		.uleb128 0x23
 3488 01df 2E       		.uleb128 0x2e
 3489 01e0 01       		.byte	0x1
 3490 01e1 03       		.uleb128 0x3
 3491 01e2 0E       		.uleb128 0xe
 3492 01e3 3A       		.uleb128 0x3a
 3493 01e4 0B       		.uleb128 0xb
 3494 01e5 3B       		.uleb128 0x3b
 3495 01e6 0B       		.uleb128 0xb
 3496 01e7 27       		.uleb128 0x27
 3497 01e8 0C       		.uleb128 0xc
 3498 01e9 49       		.uleb128 0x49
 3499 01ea 13       		.uleb128 0x13
 3500 01eb 20       		.uleb128 0x20
 3501 01ec 0B       		.uleb128 0xb
 3502 01ed 01       		.uleb128 0x1
 3503 01ee 13       		.uleb128 0x13
 3504 01ef 00       		.byte	0x0
 3505 01f0 00       		.byte	0x0
 3506 01f1 24       		.uleb128 0x24
 3507 01f2 05       		.uleb128 0x5
 3508 01f3 00       		.byte	0x0
 3509 01f4 03       		.uleb128 0x3
 3510 01f5 0E       		.uleb128 0xe
 3511 01f6 3A       		.uleb128 0x3a
 3512 01f7 0B       		.uleb128 0xb
 3513 01f8 3B       		.uleb128 0x3b
 3514 01f9 0B       		.uleb128 0xb
 3515 01fa 49       		.uleb128 0x49
 3516 01fb 13       		.uleb128 0x13
 3517 01fc 00       		.byte	0x0
 3518 01fd 00       		.byte	0x0
 3519 01fe 25       		.uleb128 0x25
 3520 01ff 34       		.uleb128 0x34
 3521 0200 00       		.byte	0x0
 3522 0201 03       		.uleb128 0x3
 3523 0202 08       		.uleb128 0x8
 3524 0203 3A       		.uleb128 0x3a
 3525 0204 0B       		.uleb128 0xb
 3526 0205 3B       		.uleb128 0x3b
 3527 0206 0B       		.uleb128 0xb
 3528 0207 49       		.uleb128 0x49
 3529 0208 13       		.uleb128 0x13
 3530 0209 00       		.byte	0x0
 3531 020a 00       		.byte	0x0
 3532 020b 26       		.uleb128 0x26
 3533 020c 1D       		.uleb128 0x1d
 3534 020d 01       		.byte	0x1
 3535 020e 31       		.uleb128 0x31
 3536 020f 13       		.uleb128 0x13
 3537 0210 11       		.uleb128 0x11
 3538 0211 01       		.uleb128 0x1
 3539 0212 12       		.uleb128 0x12
 3540 0213 01       		.uleb128 0x1
ARM GAS  /tmp/ccfjwwPm.s 			page 64


 3541 0214 58       		.uleb128 0x58
 3542 0215 0B       		.uleb128 0xb
 3543 0216 59       		.uleb128 0x59
 3544 0217 05       		.uleb128 0x5
 3545 0218 00       		.byte	0x0
 3546 0219 00       		.byte	0x0
 3547 021a 27       		.uleb128 0x27
 3548 021b 05       		.uleb128 0x5
 3549 021c 00       		.byte	0x0
 3550 021d 31       		.uleb128 0x31
 3551 021e 13       		.uleb128 0x13
 3552 021f 02       		.uleb128 0x2
 3553 0220 06       		.uleb128 0x6
 3554 0221 00       		.byte	0x0
 3555 0222 00       		.byte	0x0
 3556 0223 28       		.uleb128 0x28
 3557 0224 0B       		.uleb128 0xb
 3558 0225 01       		.byte	0x1
 3559 0226 11       		.uleb128 0x11
 3560 0227 01       		.uleb128 0x1
 3561 0228 12       		.uleb128 0x12
 3562 0229 01       		.uleb128 0x1
 3563 022a 00       		.byte	0x0
 3564 022b 00       		.byte	0x0
 3565 022c 29       		.uleb128 0x29
 3566 022d 34       		.uleb128 0x34
 3567 022e 00       		.byte	0x0
 3568 022f 31       		.uleb128 0x31
 3569 0230 13       		.uleb128 0x13
 3570 0231 02       		.uleb128 0x2
 3571 0232 06       		.uleb128 0x6
 3572 0233 00       		.byte	0x0
 3573 0234 00       		.byte	0x0
 3574 0235 2A       		.uleb128 0x2a
 3575 0236 34       		.uleb128 0x34
 3576 0237 00       		.byte	0x0
 3577 0238 03       		.uleb128 0x3
 3578 0239 0E       		.uleb128 0xe
 3579 023a 3A       		.uleb128 0x3a
 3580 023b 0B       		.uleb128 0xb
 3581 023c 3B       		.uleb128 0x3b
 3582 023d 05       		.uleb128 0x5
 3583 023e 49       		.uleb128 0x49
 3584 023f 13       		.uleb128 0x13
 3585 0240 3F       		.uleb128 0x3f
 3586 0241 0C       		.uleb128 0xc
 3587 0242 3C       		.uleb128 0x3c
 3588 0243 0C       		.uleb128 0xc
 3589 0244 00       		.byte	0x0
 3590 0245 00       		.byte	0x0
 3591 0246 2B       		.uleb128 0x2b
 3592 0247 34       		.uleb128 0x34
 3593 0248 00       		.byte	0x0
 3594 0249 03       		.uleb128 0x3
 3595 024a 0E       		.uleb128 0xe
 3596 024b 3A       		.uleb128 0x3a
 3597 024c 0B       		.uleb128 0xb
ARM GAS  /tmp/ccfjwwPm.s 			page 65


 3598 024d 3B       		.uleb128 0x3b
 3599 024e 0B       		.uleb128 0xb
 3600 024f 49       		.uleb128 0x49
 3601 0250 13       		.uleb128 0x13
 3602 0251 02       		.uleb128 0x2
 3603 0252 0A       		.uleb128 0xa
 3604 0253 00       		.byte	0x0
 3605 0254 00       		.byte	0x0
 3606 0255 00       		.byte	0x0
 3607              		.section	.debug_pubnames,"",%progbits
 3608 0000 09010000 		.4byte	0x109
 3609 0004 0200     		.2byte	0x2
 3610 0006 00000000 		.4byte	.Ldebug_info0
 3611 000a 3F090000 		.4byte	0x93f
 3612 000e 4F050000 		.4byte	0x54f
 3613 0012 75736249 		.ascii	"usbInit\000"
 3613      6E697400 
 3614 001a 63050000 		.4byte	0x563
 3615 001e 7573624F 		.ascii	"usbObjectInit\000"
 3615      626A6563 
 3615      74496E69 
 3615      7400
 3616 002c 89050000 		.4byte	0x589
 3617 0030 75736253 		.ascii	"usbStart\000"
 3617      74617274 
 3617      00
 3618 0039 D2050000 		.4byte	0x5d2
 3619 003d 75736253 		.ascii	"usbStop\000"
 3619      746F7000 
 3620 0045 FD050000 		.4byte	0x5fd
 3621 0049 75736249 		.ascii	"usbInitEndpointI\000"
 3621      6E697445 
 3621      6E64706F 
 3621      696E7449 
 3621      00
 3622 005a 47060000 		.4byte	0x647
 3623 005e 75736244 		.ascii	"usbDisableEndpointsI\000"
 3623      69736162 
 3623      6C65456E 
 3623      64706F69 
 3623      6E747349 
 3624 0073 80060000 		.4byte	0x680
 3625 0077 75736253 		.ascii	"usbStartReceiveI\000"
 3625      74617274 
 3625      52656365 
 3625      69766549 
 3625      00
 3626 0088 BE060000 		.4byte	0x6be
 3627 008c 75736253 		.ascii	"usbStartTransmitI\000"
 3627      74617274 
 3627      5472616E 
 3627      736D6974 
 3627      4900
 3628 009e FC060000 		.4byte	0x6fc
 3629 00a2 75736253 		.ascii	"usbStallReceiveI\000"
 3629      74616C6C 
 3629      52656365 
ARM GAS  /tmp/ccfjwwPm.s 			page 66


 3629      69766549 
 3629      00
 3630 00b3 3A070000 		.4byte	0x73a
 3631 00b7 75736253 		.ascii	"usbStallTransmitI\000"
 3631      74616C6C 
 3631      5472616E 
 3631      736D6974 
 3631      4900
 3632 00c9 78070000 		.4byte	0x778
 3633 00cd 5F757362 		.ascii	"_usb_reset\000"
 3633      5F726573 
 3633      657400
 3634 00d8 D5070000 		.4byte	0x7d5
 3635 00dc 5F757362 		.ascii	"_usb_ep0setup\000"
 3635      5F657030 
 3635      73657475 
 3635      7000
 3636 00ea 4C080000 		.4byte	0x84c
 3637 00ee 5F757362 		.ascii	"_usb_ep0in\000"
 3637      5F657030 
 3637      696E00
 3638 00f9 96080000 		.4byte	0x896
 3639 00fd 5F757362 		.ascii	"_usb_ep0out\000"
 3639      5F657030 
 3639      6F757400 
 3640 0109 00000000 		.4byte	0x0
 3641              		.section	.debug_pubtypes,"",%progbits
 3642 0000 75010000 		.4byte	0x175
 3643 0004 0200     		.2byte	0x2
 3644 0006 00000000 		.4byte	.Ldebug_info0
 3645 000a 3F090000 		.4byte	0x93f
 3646 000e 78000000 		.4byte	0x78
 3647 0012 73697A65 		.ascii	"size_t\000"
 3647      5F7400
 3648 0019 83000000 		.4byte	0x83
 3649 001d 75696E74 		.ascii	"uint8_t\000"
 3649      385F7400 
 3650 0025 8E000000 		.4byte	0x8e
 3651 0029 75696E74 		.ascii	"uint16_t\000"
 3651      31365F74 
 3651      00
 3652 0032 99000000 		.4byte	0x99
 3653 0036 696E7433 		.ascii	"int32_t\000"
 3653      325F7400 
 3654 003e A4000000 		.4byte	0xa4
 3655 0042 75696E74 		.ascii	"uint32_t\000"
 3655      33325F74 
 3655      00
 3656 004b AF000000 		.4byte	0xaf
 3657 004f 626F6F6C 		.ascii	"bool_t\000"
 3657      5F7400
 3658 0056 D0000000 		.4byte	0xd0
 3659 005a 55534244 		.ascii	"USBDriver\000"
 3659      72697665 
 3659      7200
 3660 0064 C6010000 		.4byte	0x1c6
 3661 0068 75736265 		.ascii	"usbep_t\000"
ARM GAS  /tmp/ccfjwwPm.s 			page 67


 3661      705F7400 
 3662 0070 F8010000 		.4byte	0x1f8
 3663 0074 75736273 		.ascii	"usbstate_t\000"
 3663      74617465 
 3663      5F7400
 3664 007f 4B020000 		.4byte	0x24b
 3665 0083 75736265 		.ascii	"usbep0state_t\000"
 3665      70307374 
 3665      6174655F 
 3665      7400
 3666 0091 83020000 		.4byte	0x283
 3667 0095 75736265 		.ascii	"usbevent_t\000"
 3667      76656E74 
 3667      5F7400
 3668 00a0 B7020000 		.4byte	0x2b7
 3669 00a4 55534244 		.ascii	"USBDescriptor\000"
 3669      65736372 
 3669      6970746F 
 3669      7200
 3670 00b2 C3020000 		.4byte	0x2c3
 3671 00b6 75736263 		.ascii	"usbcallback_t\000"
 3671      616C6C62 
 3671      61636B5F 
 3671      7400
 3672 00c4 E7020000 		.4byte	0x2e7
 3673 00c8 75736265 		.ascii	"usbepcallback_t\000"
 3673      7063616C 
 3673      6C626163 
 3673      6B5F7400 
 3674 00d8 0A030000 		.4byte	0x30a
 3675 00dc 75736265 		.ascii	"usbeventcb_t\000"
 3675      76656E74 
 3675      63625F74 
 3675      00
 3676 00e9 2D030000 		.4byte	0x32d
 3677 00ed 75736272 		.ascii	"usbreqhandler_t\000"
 3677      65716861 
 3677      6E646C65 
 3677      725F7400 
 3678 00fd 4F030000 		.4byte	0x34f
 3679 0101 75736267 		.ascii	"usbgetdescriptor_t\000"
 3679      65746465 
 3679      73637269 
 3679      70746F72 
 3679      5F7400
 3680 0114 BE030000 		.4byte	0x3be
 3681 0118 55534249 		.ascii	"USBInEndpointState\000"
 3681      6E456E64 
 3681      706F696E 
 3681      74537461 
 3681      746500
 3682 012b 0A040000 		.4byte	0x40a
 3683 012f 5553424F 		.ascii	"USBOutEndpointState\000"
 3683      7574456E 
 3683      64706F69 
 3683      6E745374 
 3683      61746500 
ARM GAS  /tmp/ccfjwwPm.s 			page 68


 3684 0143 9A040000 		.4byte	0x49a
 3685 0147 55534245 		.ascii	"USBEndpointConfig\000"
 3685      6E64706F 
 3685      696E7443 
 3685      6F6E6669 
 3685      6700
 3686 0159 E6040000 		.4byte	0x4e6
 3687 015d 55534243 		.ascii	"USBConfig\000"
 3687      6F6E6669 
 3687      6700
 3688 0167 DB000000 		.4byte	0xdb
 3689 016b 55534244 		.ascii	"USBDriver\000"
 3689      72697665 
 3689      7200
 3690 0175 00000000 		.4byte	0x0
 3691              		.section	.debug_aranges,"",%progbits
 3692 0000 8C000000 		.4byte	0x8c
 3693 0004 0200     		.2byte	0x2
 3694 0006 00000000 		.4byte	.Ldebug_info0
 3695 000a 04       		.byte	0x4
 3696 000b 00       		.byte	0x0
 3697 000c 0000     		.2byte	0x0
 3698 000e 0000     		.2byte	0x0
 3699 0010 00000000 		.4byte	.LFB55
 3700 0014 22000000 		.4byte	.LFE55-.LFB55
 3701 0018 00000000 		.4byte	.LFB57
 3702 001c 04000000 		.4byte	.LFE57-.LFB57
 3703 0020 00000000 		.4byte	.LFB58
 3704 0024 10000000 		.4byte	.LFE58-.LFB58
 3705 0028 00000000 		.4byte	.LFB59
 3706 002c 58000000 		.4byte	.LFE59-.LFB59
 3707 0030 00000000 		.4byte	.LFB60
 3708 0034 40000000 		.4byte	.LFE60-.LFB60
 3709 0038 00000000 		.4byte	.LFB61
 3710 003c 6C000000 		.4byte	.LFE61-.LFB61
 3711 0040 00000000 		.4byte	.LFB62
 3712 0044 50000000 		.4byte	.LFE62-.LFB62
 3713 0048 00000000 		.4byte	.LFB63
 3714 004c 38000000 		.4byte	.LFE63-.LFB63
 3715 0050 00000000 		.4byte	.LFB64
 3716 0054 38000000 		.4byte	.LFE64-.LFB64
 3717 0058 00000000 		.4byte	.LFB65
 3718 005c 30000000 		.4byte	.LFE65-.LFB65
 3719 0060 00000000 		.4byte	.LFB66
 3720 0064 30000000 		.4byte	.LFE66-.LFB66
 3721 0068 00000000 		.4byte	.LFB67
 3722 006c 30000000 		.4byte	.LFE67-.LFB67
 3723 0070 00000000 		.4byte	.LFB68
 3724 0074 7C020000 		.4byte	.LFE68-.LFB68
 3725 0078 00000000 		.4byte	.LFB69
 3726 007c 8A000000 		.4byte	.LFE69-.LFB69
 3727 0080 00000000 		.4byte	.LFB70
 3728 0084 62000000 		.4byte	.LFE70-.LFB70
 3729 0088 00000000 		.4byte	0x0
 3730 008c 00000000 		.4byte	0x0
 3731              		.section	.debug_ranges,"",%progbits
 3732              	.Ldebug_ranges0:
ARM GAS  /tmp/ccfjwwPm.s 			page 69


 3733 0000 00000000 		.4byte	.LFB55
 3734 0004 22000000 		.4byte	.LFE55
 3735 0008 00000000 		.4byte	.LFB57
 3736 000c 04000000 		.4byte	.LFE57
 3737 0010 00000000 		.4byte	.LFB58
 3738 0014 10000000 		.4byte	.LFE58
 3739 0018 00000000 		.4byte	.LFB59
 3740 001c 58000000 		.4byte	.LFE59
 3741 0020 00000000 		.4byte	.LFB60
 3742 0024 40000000 		.4byte	.LFE60
 3743 0028 00000000 		.4byte	.LFB61
 3744 002c 6C000000 		.4byte	.LFE61
 3745 0030 00000000 		.4byte	.LFB62
 3746 0034 50000000 		.4byte	.LFE62
 3747 0038 00000000 		.4byte	.LFB63
 3748 003c 38000000 		.4byte	.LFE63
 3749 0040 00000000 		.4byte	.LFB64
 3750 0044 38000000 		.4byte	.LFE64
 3751 0048 00000000 		.4byte	.LFB65
 3752 004c 30000000 		.4byte	.LFE65
 3753 0050 00000000 		.4byte	.LFB66
 3754 0054 30000000 		.4byte	.LFE66
 3755 0058 00000000 		.4byte	.LFB67
 3756 005c 30000000 		.4byte	.LFE67
 3757 0060 00000000 		.4byte	.LFB68
 3758 0064 7C020000 		.4byte	.LFE68
 3759 0068 00000000 		.4byte	.LFB69
 3760 006c 8A000000 		.4byte	.LFE69
 3761 0070 00000000 		.4byte	.LFB70
 3762 0074 62000000 		.4byte	.LFE70
 3763 0078 00000000 		.4byte	0x0
 3764 007c 00000000 		.4byte	0x0
 3765              		.section	.debug_str,"MS",%progbits,1
 3766              	.LASF101:
 3767 0000 7A65726F 		.ascii	"zero_status\000"
 3767      5F737461 
 3767      74757300 
 3768              	.LASF107:
 3769 000c 2F686F6D 		.ascii	"/home/z80/projects/dfu.git/firmware-pawn-dev/firmwa"
 3769      652F7A38 
 3769      302F7072 
 3769      6F6A6563 
 3769      74732F64 
 3770 003f 726500   		.ascii	"re\000"
 3771              	.LASF98:
 3772 0042 5F757362 		.ascii	"_usb_ep0setup\000"
 3772      5F657030 
 3772      73657475 
 3772      7000
 3773              	.LASF17:
 3774 0050 73746174 		.ascii	"state\000"
 3774      6500
 3775              	.LASF35:
 3776 0056 5553425F 		.ascii	"USB_SELECTED\000"
 3776      53454C45 
 3776      43544544 
 3776      00
ARM GAS  /tmp/ccfjwwPm.s 			page 70


 3777              	.LASF30:
 3778 0063 706D6E65 		.ascii	"pmnext\000"
 3778      787400
 3779              	.LASF85:
 3780 006a 55534243 		.ascii	"USBConfig\000"
 3780      6F6E6669 
 3780      6700
 3781              	.LASF2:
 3782 0074 73686F72 		.ascii	"short int\000"
 3782      7420696E 
 3782      7400
 3783              	.LASF10:
 3784 007e 73697A65 		.ascii	"size_t\000"
 3784      5F7400
 3785              	.LASF31:
 3786 0085 75736265 		.ascii	"usbep_t\000"
 3786      705F7400 
 3787              	.LASF45:
 3788 008d 5553425F 		.ascii	"USB_EP0_SENDING_STS\000"
 3788      4550305F 
 3788      53454E44 
 3788      494E475F 
 3788      53545300 
 3789              	.LASF57:
 3790 00a1 55534244 		.ascii	"USBDescriptor\000"
 3790      65736372 
 3790      6970746F 
 3790      7200
 3791              	.LASF94:
 3792 00af 75736253 		.ascii	"usbStartTransmitI\000"
 3792      74617274 
 3792      5472616E 
 3792      736D6974 
 3792      4900
 3793              	.LASF24:
 3794 00c1 6570306E 		.ascii	"ep0n\000"
 3794      00
 3795              	.LASF109:
 3796 00c6 75736249 		.ascii	"usbInit\000"
 3796      6E697400 
 3797              	.LASF39:
 3798 00ce 45505F53 		.ascii	"EP_STATUS_STALLED\000"
 3798      54415455 
 3798      535F5354 
 3798      414C4C45 
 3798      4400
 3799              	.LASF81:
 3800 00e0 6576656E 		.ascii	"event_cb\000"
 3800      745F6362 
 3800      00
 3801              	.LASF76:
 3802 00e9 696E5F6D 		.ascii	"in_maxsize\000"
 3802      61787369 
 3802      7A6500
 3803              	.LASF70:
 3804 00f4 7278636E 		.ascii	"rxcnt\000"
 3804      7400
ARM GAS  /tmp/ccfjwwPm.s 			page 71


 3805              	.LASF74:
 3806 00fa 696E5F63 		.ascii	"in_cb\000"
 3806      6200
 3807              	.LASF46:
 3808 0100 5553425F 		.ascii	"USB_EP0_ERROR\000"
 3808      4550305F 
 3808      4552524F 
 3808      5200
 3809              	.LASF100:
 3810 010e 5F757362 		.ascii	"_usb_ep0out\000"
 3810      5F657030 
 3810      6F757400 
 3811              	.LASF18:
 3812 011a 636F6E66 		.ascii	"config\000"
 3812      696700
 3813              	.LASF95:
 3814 0121 75736253 		.ascii	"usbStallReceiveI\000"
 3814      74616C6C 
 3814      52656365 
 3814      69766549 
 3814      00
 3815              	.LASF40:
 3816 0132 45505F53 		.ascii	"EP_STATUS_ACTIVE\000"
 3816      54415455 
 3816      535F4143 
 3816      54495645 
 3816      00
 3817              	.LASF50:
 3818 0143 5553425F 		.ascii	"USB_EVENT_CONFIGURED\000"
 3818      4556454E 
 3818      545F434F 
 3818      4E464947 
 3818      55524544 
 3819              	.LASF89:
 3820 0158 75736253 		.ascii	"usbStop\000"
 3820      746F7000 
 3821              	.LASF83:
 3822 0160 72657175 		.ascii	"requests_hook_cb\000"
 3822      65737473 
 3822      5F686F6F 
 3822      6B5F6362 
 3822      00
 3823              	.LASF55:
 3824 0171 75645F73 		.ascii	"ud_size\000"
 3824      697A6500 
 3825              	.LASF44:
 3826 0179 5553425F 		.ascii	"USB_EP0_RX\000"
 3826      4550305F 
 3826      525800
 3827              	.LASF80:
 3828 0184 55534245 		.ascii	"USBEndpointConfig\000"
 3828      6E64706F 
 3828      696E7443 
 3828      6F6E6669 
 3828      6700
 3829              	.LASF15:
 3830 0196 626F6F6C 		.ascii	"bool_t\000"
ARM GAS  /tmp/ccfjwwPm.s 			page 72


 3830      5F7400
 3831              	.LASF26:
 3832 019d 73657475 		.ascii	"setup\000"
 3832      7000
 3833              	.LASF78:
 3834 01a3 696E5F73 		.ascii	"in_state\000"
 3834      74617465 
 3834      00
 3835              	.LASF5:
 3836 01ac 6C6F6E67 		.ascii	"long long int\000"
 3836      206C6F6E 
 3836      6720696E 
 3836      7400
 3837              	.LASF6:
 3838 01ba 6C6F6E67 		.ascii	"long long unsigned int\000"
 3838      206C6F6E 
 3838      6720756E 
 3838      7369676E 
 3838      65642069 
 3839              	.LASF54:
 3840 01d1 75736265 		.ascii	"usbevent_t\000"
 3840      76656E74 
 3840      5F7400
 3841              	.LASF72:
 3842 01dc 65705F6D 		.ascii	"ep_mode\000"
 3842      6F646500 
 3843              	.LASF7:
 3844 01e4 6C6F6E67 		.ascii	"long int\000"
 3844      20696E74 
 3844      00
 3845              	.LASF42:
 3846 01ed 5553425F 		.ascii	"USB_EP0_TX\000"
 3846      4550305F 
 3846      545800
 3847              	.LASF84:
 3848 01f8 736F665F 		.ascii	"sof_cb\000"
 3848      636200
 3849              	.LASF77:
 3850 01ff 6F75745F 		.ascii	"out_maxsize\000"
 3850      6D617873 
 3850      697A6500 
 3851              	.LASF49:
 3852 020b 5553425F 		.ascii	"USB_EVENT_ADDRESS\000"
 3852      4556454E 
 3852      545F4144 
 3852      44524553 
 3852      5300
 3853              	.LASF22:
 3854 021d 65703073 		.ascii	"ep0state\000"
 3854      74617465 
 3854      00
 3855              	.LASF108:
 3856 0226 7365745F 		.ascii	"set_address\000"
 3856      61646472 
 3856      65737300 
 3857              	.LASF38:
 3858 0232 45505F53 		.ascii	"EP_STATUS_DISABLED\000"
ARM GAS  /tmp/ccfjwwPm.s 			page 73


 3858      54415455 
 3858      535F4449 
 3858      5341424C 
 3858      454400
 3859              	.LASF43:
 3860 0245 5553425F 		.ascii	"USB_EP0_WAITING_STS\000"
 3860      4550305F 
 3860      57414954 
 3860      494E475F 
 3860      53545300 
 3861              	.LASF21:
 3862 0259 72656365 		.ascii	"receiving\000"
 3862      6976696E 
 3862      6700
 3863              	.LASF33:
 3864 0263 5553425F 		.ascii	"USB_STOP\000"
 3864      53544F50 
 3864      00
 3865              	.LASF1:
 3866 026c 756E7369 		.ascii	"unsigned char\000"
 3866      676E6564 
 3866      20636861 
 3866      7200
 3867              	.LASF66:
 3868 027a 55534249 		.ascii	"USBInEndpointState\000"
 3868      6E456E64 
 3868      706F696E 
 3868      74537461 
 3868      746500
 3869              	.LASF67:
 3870 028d 7278706B 		.ascii	"rxpkts\000"
 3870      747300
 3871              	.LASF25:
 3872 0294 65703065 		.ascii	"ep0endcb\000"
 3872      6E646362 
 3872      00
 3873              	.LASF0:
 3874 029d 7369676E 		.ascii	"signed char\000"
 3874      65642063 
 3874      68617200 
 3875              	.LASF28:
 3876 02a9 61646472 		.ascii	"address\000"
 3876      65737300 
 3877              	.LASF14:
 3878 02b1 75696E74 		.ascii	"uint32_t\000"
 3878      33325F74 
 3878      00
 3879              	.LASF29:
 3880 02ba 636F6E66 		.ascii	"configuration\000"
 3880      69677572 
 3880      6174696F 
 3880      6E00
 3881              	.LASF59:
 3882 02c8 75736265 		.ascii	"usbepcallback_t\000"
 3882      7063616C 
 3882      6C626163 
 3882      6B5F7400 
ARM GAS  /tmp/ccfjwwPm.s 			page 74


 3883              	.LASF32:
 3884 02d8 5553425F 		.ascii	"USB_UNINIT\000"
 3884      554E494E 
 3884      495400
 3885              	.LASF110:
 3886 02e3 64656661 		.ascii	"default_handler\000"
 3886      756C745F 
 3886      68616E64 
 3886      6C657200 
 3887              	.LASF60:
 3888 02f3 75736265 		.ascii	"usbeventcb_t\000"
 3888      76656E74 
 3888      63625F74 
 3888      00
 3889              	.LASF19:
 3890 0300 70617261 		.ascii	"param\000"
 3890      6D00
 3891              	.LASF48:
 3892 0306 5553425F 		.ascii	"USB_EVENT_RESET\000"
 3892      4556454E 
 3892      545F5245 
 3892      53455400 
 3893              	.LASF27:
 3894 0316 73746174 		.ascii	"status\000"
 3894      757300
 3895              	.LASF63:
 3896 031d 74786275 		.ascii	"txbuf\000"
 3896      6600
 3897              	.LASF79:
 3898 0323 6F75745F 		.ascii	"out_state\000"
 3898      73746174 
 3898      6500
 3899              	.LASF9:
 3900 032d 63686172 		.ascii	"char\000"
 3900      00
 3901              	.LASF12:
 3902 0332 75696E74 		.ascii	"uint16_t\000"
 3902      31365F74 
 3902      00
 3903              	.LASF82:
 3904 033b 6765745F 		.ascii	"get_descriptor_cb\000"
 3904      64657363 
 3904      72697074 
 3904      6F725F63 
 3904      6200
 3905              	.LASF13:
 3906 034d 696E7433 		.ascii	"int32_t\000"
 3906      325F7400 
 3907              	.LASF102:
 3908 0355 61637469 		.ascii	"active_status\000"
 3908      76655F73 
 3908      74617475 
 3908      7300
 3909              	.LASF3:
 3910 0363 73686F72 		.ascii	"short unsigned int\000"
 3910      7420756E 
 3910      7369676E 
ARM GAS  /tmp/ccfjwwPm.s 			page 75


 3910      65642069 
 3910      6E7400
 3911              	.LASF62:
 3912 0376 75736267 		.ascii	"usbgetdescriptor_t\000"
 3912      65746465 
 3912      73637269 
 3912      70746F72 
 3912      5F7400
 3913              	.LASF36:
 3914 0389 5553425F 		.ascii	"USB_ACTIVE\000"
 3914      41435449 
 3914      564500
 3915              	.LASF23:
 3916 0394 6570306E 		.ascii	"ep0next\000"
 3916      65787400 
 3917              	.LASF65:
 3918 039c 7478636E 		.ascii	"txcnt\000"
 3918      7400
 3919              	.LASF47:
 3920 03a2 75736265 		.ascii	"usbep0state_t\000"
 3920      70307374 
 3920      6174655F 
 3920      7400
 3921              	.LASF103:
 3922 03b0 68616C74 		.ascii	"halted_status\000"
 3922      65645F73 
 3922      74617475 
 3922      7300
 3923              	.LASF58:
 3924 03be 75736263 		.ascii	"usbcallback_t\000"
 3924      616C6C62 
 3924      61636B5F 
 3924      7400
 3925              	.LASF64:
 3926 03cc 74787369 		.ascii	"txsize\000"
 3926      7A6500
 3927              	.LASF69:
 3928 03d3 72787369 		.ascii	"rxsize\000"
 3928      7A6500
 3929              	.LASF8:
 3930 03da 6C6F6E67 		.ascii	"long unsigned int\000"
 3930      20756E73 
 3930      69676E65 
 3930      6420696E 
 3930      7400
 3931              	.LASF91:
 3932 03ec 65706370 		.ascii	"epcp\000"
 3932      00
 3933              	.LASF34:
 3934 03f1 5553425F 		.ascii	"USB_READY\000"
 3934      52454144 
 3934      5900
 3935              	.LASF71:
 3936 03fb 5553424F 		.ascii	"USBOutEndpointState\000"
 3936      7574456E 
 3936      64706F69 
 3936      6E745374 
ARM GAS  /tmp/ccfjwwPm.s 			page 76


 3936      61746500 
 3937              	.LASF56:
 3938 040f 75645F73 		.ascii	"ud_string\000"
 3938      7472696E 
 3938      6700
 3939              	.LASF61:
 3940 0419 75736272 		.ascii	"usbreqhandler_t\000"
 3940      65716861 
 3940      6E646C65 
 3940      725F7400 
 3941              	.LASF86:
 3942 0429 75736270 		.ascii	"usbp\000"
 3942      00
 3943              	.LASF52:
 3944 042e 5553425F 		.ascii	"USB_EVENT_WAKEUP\000"
 3944      4556454E 
 3944      545F5741 
 3944      4B455550 
 3944      00
 3945              	.LASF90:
 3946 043f 75736249 		.ascii	"usbInitEndpointI\000"
 3946      6E697445 
 3946      6E64706F 
 3946      696E7449 
 3946      00
 3947              	.LASF99:
 3948 0450 5F757362 		.ascii	"_usb_ep0in\000"
 3948      5F657030 
 3948      696E00
 3949              	.LASF37:
 3950 045b 75736273 		.ascii	"usbstate_t\000"
 3950      74617465 
 3950      5F7400
 3951              	.LASF11:
 3952 0466 75696E74 		.ascii	"uint8_t\000"
 3952      385F7400 
 3953              	.LASF73:
 3954 046e 73657475 		.ascii	"setup_cb\000"
 3954      705F6362 
 3954      00
 3955              	.LASF106:
 3956 0477 2E2E2F63 		.ascii	"../chibios/os/hal/src/usb.c\000"
 3956      68696269 
 3956      6F732F6F 
 3956      732F6861 
 3956      6C2F7372 
 3957              	.LASF41:
 3958 0493 5553425F 		.ascii	"USB_EP0_WAITING_SETUP\000"
 3958      4550305F 
 3958      57414954 
 3958      494E475F 
 3958      53455455 
 3959              	.LASF97:
 3960 04a9 5F757362 		.ascii	"_usb_reset\000"
 3960      5F726573 
 3960      657400
 3961              	.LASF93:
ARM GAS  /tmp/ccfjwwPm.s 			page 77


 3962 04b4 75736253 		.ascii	"usbStartReceiveI\000"
 3962      74617274 
 3962      52656365 
 3962      69766549 
 3962      00
 3963              	.LASF68:
 3964 04c5 72786275 		.ascii	"rxbuf\000"
 3964      6600
 3965              	.LASF51:
 3966 04cb 5553425F 		.ascii	"USB_EVENT_SUSPEND\000"
 3966      4556454E 
 3966      545F5355 
 3966      5350454E 
 3966      4400
 3967              	.LASF104:
 3968 04dd 49544D5F 		.ascii	"ITM_RxBuffer\000"
 3968      52784275 
 3968      66666572 
 3968      00
 3969              	.LASF4:
 3970 04ea 756E7369 		.ascii	"unsigned int\000"
 3970      676E6564 
 3970      20696E74 
 3970      00
 3971              	.LASF88:
 3972 04f7 75736253 		.ascii	"usbStart\000"
 3972      74617274 
 3972      00
 3973              	.LASF20:
 3974 0500 7472616E 		.ascii	"transmitting\000"
 3974      736D6974 
 3974      74696E67 
 3974      00
 3975              	.LASF75:
 3976 050d 6F75745F 		.ascii	"out_cb\000"
 3976      636200
 3977              	.LASF92:
 3978 0514 75736244 		.ascii	"usbDisableEndpointsI\000"
 3978      69736162 
 3978      6C65456E 
 3978      64706F69 
 3978      6E747349 
 3979              	.LASF105:
 3980 0529 474E5520 		.ascii	"GNU C 4.5.2\000"
 3980      4320342E 
 3980      352E3200 
 3981              	.LASF87:
 3982 0535 7573624F 		.ascii	"usbObjectInit\000"
 3982      626A6563 
 3982      74496E69 
 3982      7400
 3983              	.LASF53:
 3984 0543 5553425F 		.ascii	"USB_EVENT_STALLED\000"
 3984      4556454E 
 3984      545F5354 
 3984      414C4C45 
 3984      4400
ARM GAS  /tmp/ccfjwwPm.s 			page 78


 3985              	.LASF16:
 3986 0555 55534244 		.ascii	"USBDriver\000"
 3986      72697665 
 3986      7200
 3987              	.LASF96:
 3988 055f 75736253 		.ascii	"usbStallTransmitI\000"
 3988      74616C6C 
 3988      5472616E 
 3988      736D6974 
 3988      4900
 3989              		.ident	"GCC: (Sourcery G++ Lite 2011.03-42) 4.5.2"
ARM GAS  /tmp/ccfjwwPm.s 			page 79


DEFINED SYMBOLS
                            *ABS*:00000000 usb.c
     /tmp/ccfjwwPm.s:24     .text.set_address:00000000 $t
     /tmp/ccfjwwPm.s:28     .text.set_address:00000000 set_address
     /tmp/ccfjwwPm.s:68     .text.usbInit:00000000 $t
     /tmp/ccfjwwPm.s:73     .text.usbInit:00000000 usbInit
     /tmp/ccfjwwPm.s:87     .text.usbObjectInit:00000000 $t
     /tmp/ccfjwwPm.s:92     .text.usbObjectInit:00000000 usbObjectInit
     /tmp/ccfjwwPm.s:118    .text.usbStart:00000000 $t
     /tmp/ccfjwwPm.s:123    .text.usbStart:00000000 usbStart
     /tmp/ccfjwwPm.s:198    .text.usbStart:00000050 $d
     /tmp/ccfjwwPm.s:204    .text.usbStop:00000000 $t
     /tmp/ccfjwwPm.s:209    .text.usbStop:00000000 usbStop
     /tmp/ccfjwwPm.s:262    .text.usbStop:00000038 $d
     /tmp/ccfjwwPm.s:268    .text.usbInitEndpointI:00000000 $t
     /tmp/ccfjwwPm.s:273    .text.usbInitEndpointI:00000000 usbInitEndpointI
     /tmp/ccfjwwPm.s:350    .text.usbInitEndpointI:00000060 $d
     /tmp/ccfjwwPm.s:357    .text.usbDisableEndpointsI:00000000 $t
     /tmp/ccfjwwPm.s:362    .text.usbDisableEndpointsI:00000000 usbDisableEndpointsI
     /tmp/ccfjwwPm.s:428    .text.usbDisableEndpointsI:00000048 $d
     /tmp/ccfjwwPm.s:434    .text.usbStartReceiveI:00000000 $t
     /tmp/ccfjwwPm.s:439    .text.usbStartReceiveI:00000000 usbStartReceiveI
     /tmp/ccfjwwPm.s:487    .text.usbStartReceiveI:00000034 $d
     /tmp/ccfjwwPm.s:492    .text.usbStartTransmitI:00000000 $t
     /tmp/ccfjwwPm.s:497    .text.usbStartTransmitI:00000000 usbStartTransmitI
     /tmp/ccfjwwPm.s:545    .text.usbStartTransmitI:00000034 $d
     /tmp/ccfjwwPm.s:550    .text.usbStallReceiveI:00000000 $t
     /tmp/ccfjwwPm.s:555    .text.usbStallReceiveI:00000000 usbStallReceiveI
     /tmp/ccfjwwPm.s:601    .text.usbStallReceiveI:0000002c $d
     /tmp/ccfjwwPm.s:606    .text.usbStallTransmitI:00000000 $t
     /tmp/ccfjwwPm.s:611    .text.usbStallTransmitI:00000000 usbStallTransmitI
     /tmp/ccfjwwPm.s:657    .text.usbStallTransmitI:0000002c $d
     /tmp/ccfjwwPm.s:662    .text._usb_reset:00000000 $t
     /tmp/ccfjwwPm.s:667    .text._usb_reset:00000000 _usb_reset
     /tmp/ccfjwwPm.s:719    .text._usb_ep0setup:00000000 $t
     /tmp/ccfjwwPm.s:724    .text._usb_ep0setup:00000000 _usb_ep0setup
     /tmp/ccfjwwPm.s:1097   .text._usb_ep0setup:0000026c $d
     /tmp/ccfjwwPm.s:1105   .text._usb_ep0in:00000000 $t
     /tmp/ccfjwwPm.s:1110   .text._usb_ep0in:00000000 _usb_ep0in
     /tmp/ccfjwwPm.s:1227   .text._usb_ep0out:00000000 $t
     /tmp/ccfjwwPm.s:1232   .text._usb_ep0out:00000000 _usb_ep0out
     /tmp/ccfjwwPm.s:1322   .rodata.zero_status:00000000 zero_status
     /tmp/ccfjwwPm.s:1323   .rodata.zero_status:00000000 $d
     /tmp/ccfjwwPm.s:1355   .rodata.active_status:00000000 active_status
     /tmp/ccfjwwPm.s:1356   .rodata.active_status:00000000 $d
     /tmp/ccfjwwPm.s:1361   .rodata.halted_status:00000000 halted_status
                     .debug_frame:00000010 $d

UNDEFINED SYMBOLS
usb_lld_set_address
usb_lld_init
chDbgPanic
_port_lock
dbg_check_lock
usb_lld_start
dbg_check_unlock
_port_unlock
ARM GAS  /tmp/ccfjwwPm.s 			page 80


usb_lld_stop
chDbgCheckClassI
memset
usb_lld_init_endpoint
usb_lld_disable_endpoints
usb_lld_start_out
usb_lld_start_in
usb_lld_stall_out
usb_lld_stall_in
usb_lld_reset
usb_lld_read_setup
usb_lld_get_status_in
usb_lld_get_status_out
usb_lld_clear_in
usb_lld_clear_out
usb_lld_prepare_transmit
usb_lld_prepare_receive
