ARM GAS  /tmp/cc2ttOjV.s 			page 1


   1              		.syntax unified
   2              		.cpu cortex-m3
   3              		.fpu softvfp
   4              		.eabi_attribute 20, 1
   5              		.eabi_attribute 21, 1
   6              		.eabi_attribute 23, 3
   7              		.eabi_attribute 24, 1
   8              		.eabi_attribute 25, 1
   9              		.eabi_attribute 26, 1
  10              		.eabi_attribute 30, 4
  11              		.eabi_attribute 18, 4
  12              		.thumb
  13              		.file	"usb_ctrl.c"
  20 0000 17040000 		.text
  20      02007002 
  20      00000201 
  20      FB0E0D00 
  20      01010101 
  21              	.Ltext0:
  22              		.cfi_sections	.debug_frame
  23              		.section	.text.get_descriptor,"ax",%progbits
  24              		.align	1
  25              		.thumb
  26              		.thumb_func
  27              		.type	get_descriptor, %function
  28              	get_descriptor:
  29              	.LFB55:
  30              		.file 1 "usb_ctrl.c"
  31              		.loc 1 195 0
  32              		.cfi_startproc
  33              		@ args = 0, pretend = 0, frame = 0
  34              		@ frame_needed = 0, uses_anonymous_args = 0
  35              		@ link register save eliminated.
  36              	.LVL0:
  37              		.loc 1 199 0
  38 0000 0229     		cmp	r1, #2
  39 0002 0CD0     		beq	.L6
  40 0004 0329     		cmp	r1, #3
  41 0006 04D0     		beq	.L5
  42              		.loc 1 208 0
  43 0008 0748     		ldr	r0, .L8
  44              	.LVL1:
  45 000a 0129     		cmp	r1, #1
  46 000c 18BF     		it	ne
  47 000e 0020     		movne	r0, #0
  48 0010 7047     		bx	lr
  49              	.LVL2:
  50              	.L5:
  51              		.loc 1 205 0
  52 0012 032A     		cmp	r2, #3
  53 0014 05D8     		bhi	.L7
ARM GAS  /tmp/cc2ttOjV.s 			page 2


  54              		.loc 1 206 0
  55 0016 0548     		ldr	r0, .L8+4
  56              	.LVL3:
  57 0018 00EBC200 		add	r0, r0, r2, lsl #3
  58 001c 7047     		bx	lr
  59              	.LVL4:
  60              	.L6:
  61              		.loc 1 203 0
  62 001e 0448     		ldr	r0, .L8+8
  63              	.LVL5:
  64 0020 7047     		bx	lr
  65              	.LVL6:
  66              	.L7:
  67              		.loc 1 208 0
  68 0022 0020     		movs	r0, #0
  69              	.LVL7:
  70              		.loc 1 209 0
  71 0024 7047     		bx	lr
  72              	.L9:
  73 0026 00BF     		.align	2
  74              	.L8:
  75 0028 00000000 		.word	.LANCHOR0
  76 002c 00000000 		.word	.LANCHOR2
  77 0030 00000000 		.word	.LANCHOR1
  78              		.cfi_endproc
  79              	.LFE55:
  80              		.size	get_descriptor, .-get_descriptor
  81              		.section	.text.cmd_pawnError,"ax",%progbits
  82              		.align	1
  83              		.thumb
  84              		.thumb_func
  85              		.type	cmd_pawnError, %function
  86              	cmd_pawnError:
  87              	.LFB66:
  88              		.loc 1 445 0
  89              		.cfi_startproc
  90              		@ args = 0, pretend = 0, frame = 0
  91              		@ frame_needed = 0, uses_anonymous_args = 0
  92              	.LVL8:
  93 0000 10B5     		push	{r4, lr}
  94              	.LCFI0:
  95              		.cfi_def_cfa_offset 8
  96              		.loc 1 445 0
  97 0002 0446     		mov	r4, r0
  98              		.cfi_offset 14, -4
  99              		.cfi_offset 4, -8
 100              		.loc 1 448 0
 101 0004 FFF7FEFF 		bl	pawnError
 102              	.LVL9:
 103              		.loc 1 449 0
 104 0008 0349     		ldr	r1, .L11
 105              		.loc 1 448 0
 106 000a 0246     		mov	r2, r0
 107              	.LVL10:
 108              		.loc 1 449 0
 109 000c 2046     		mov	r0, r4
 110              	.LVL11:
ARM GAS  /tmp/cc2ttOjV.s 			page 3


 111              		.loc 1 450 0
 112 000e BDE81040 		pop	{r4, lr}
 113              		.loc 1 449 0
 114 0012 FFF7FEBF 		b	chprintf
 115              	.LVL12:
 116              	.L12:
 117 0016 00BF     		.align	2
 118              	.L11:
 119 0018 00000000 		.word	.LC0
 120              		.cfi_endproc
 121              	.LFE66:
 122              		.size	cmd_pawnError, .-cmd_pawnError
 123              		.section	.text.cmd_pawnResult,"ax",%progbits
 124              		.align	1
 125              		.thumb
 126              		.thumb_func
 127              		.type	cmd_pawnResult, %function
 128              	cmd_pawnResult:
 129              	.LFB65:
 130              		.loc 1 437 0
 131              		.cfi_startproc
 132              		@ args = 0, pretend = 0, frame = 0
 133              		@ frame_needed = 0, uses_anonymous_args = 0
 134              	.LVL13:
 135 0000 10B5     		push	{r4, lr}
 136              	.LCFI1:
 137              		.cfi_def_cfa_offset 8
 138              		.loc 1 437 0
 139 0002 0446     		mov	r4, r0
 140              		.cfi_offset 14, -4
 141              		.cfi_offset 4, -8
 142              		.loc 1 440 0
 143 0004 FFF7FEFF 		bl	pawnResult
 144              	.LVL14:
 145              		.loc 1 441 0
 146 0008 0349     		ldr	r1, .L14
 147              		.loc 1 440 0
 148 000a 0246     		mov	r2, r0
 149              	.LVL15:
 150              		.loc 1 441 0
 151 000c 2046     		mov	r0, r4
 152              	.LVL16:
 153              		.loc 1 442 0
 154 000e BDE81040 		pop	{r4, lr}
 155              		.loc 1 441 0
 156 0012 FFF7FEBF 		b	chprintf
 157              	.LVL17:
 158              	.L15:
 159 0016 00BF     		.align	2
 160              	.L14:
 161 0018 00000000 		.word	.LC0
 162              		.cfi_endproc
 163              	.LFE65:
 164              		.size	cmd_pawnResult, .-cmd_pawnResult
 165              		.section	.text.cmd_pawnStop,"ax",%progbits
 166              		.align	1
 167              		.thumb
ARM GAS  /tmp/cc2ttOjV.s 			page 4


 168              		.thumb_func
 169              		.type	cmd_pawnStop, %function
 170              	cmd_pawnStop:
 171              	.LFB64:
 172              		.loc 1 429 0
 173              		.cfi_startproc
 174              		@ args = 0, pretend = 0, frame = 0
 175              		@ frame_needed = 0, uses_anonymous_args = 0
 176              	.LVL18:
 177 0000 10B5     		push	{r4, lr}
 178              	.LCFI2:
 179              		.cfi_def_cfa_offset 8
 180              		.loc 1 429 0
 181 0002 0446     		mov	r4, r0
 182              		.cfi_offset 14, -4
 183              		.cfi_offset 4, -8
 184              		.loc 1 432 0
 185 0004 FFF7FEFF 		bl	pawnStop
 186              	.LVL19:
 187              		.loc 1 433 0
 188 0008 0249     		ldr	r1, .L17
 189 000a 2046     		mov	r0, r4
 190              		.loc 1 434 0
 191 000c BDE81040 		pop	{r4, lr}
 192              		.loc 1 433 0
 193 0010 FFF7FEBF 		b	chprintf
 194              	.L18:
 195              		.align	2
 196              	.L17:
 197 0014 05000000 		.word	.LC1
 198              		.cfi_endproc
 199              	.LFE64:
 200              		.size	cmd_pawnStop, .-cmd_pawnStop
 201              		.section	.text.cmd_pawnIsRunning,"ax",%progbits
 202              		.align	1
 203              		.thumb
 204              		.thumb_func
 205              		.type	cmd_pawnIsRunning, %function
 206              	cmd_pawnIsRunning:
 207              	.LFB63:
 208              		.loc 1 419 0
 209              		.cfi_startproc
 210              		@ args = 0, pretend = 0, frame = 0
 211              		@ frame_needed = 0, uses_anonymous_args = 0
 212              	.LVL20:
 213 0000 10B5     		push	{r4, lr}
 214              	.LCFI3:
 215              		.cfi_def_cfa_offset 8
 216              		.loc 1 419 0
 217 0002 0446     		mov	r4, r0
 218              		.cfi_offset 14, -4
 219              		.cfi_offset 4, -8
 220              		.loc 1 422 0
 221 0004 FFF7FEFF 		bl	pawnIsRunning
 222              	.LVL21:
 223 0008 10B1     		cbz	r0, .L20
 224              		.loc 1 423 0
ARM GAS  /tmp/cc2ttOjV.s 			page 5


 225 000a 2046     		mov	r0, r4
 226 000c 0349     		ldr	r1, .L22
 227 000e 01E0     		b	.L21
 228              	.L20:
 229              		.loc 1 425 0
 230 0010 0349     		ldr	r1, .L22+4
 231 0012 2046     		mov	r0, r4
 232              	.L21:
 233              		.loc 1 426 0
 234 0014 BDE81040 		pop	{r4, lr}
 235              		.loc 1 425 0
 236 0018 FFF7FEBF 		b	chprintf
 237              	.L23:
 238              		.align	2
 239              	.L22:
 240 001c 0F000000 		.word	.LC2
 241 0020 16000000 		.word	.LC3
 242              		.cfi_endproc
 243              	.LFE63:
 244              		.size	cmd_pawnIsRunning, .-cmd_pawnIsRunning
 245              		.section	.text.cmd_pawnRun,"ax",%progbits
 246              		.align	1
 247              		.thumb
 248              		.thumb_func
 249              		.type	cmd_pawnRun, %function
 250              	cmd_pawnRun:
 251              	.LFB62:
 252              		.loc 1 411 0
 253              		.cfi_startproc
 254              		@ args = 0, pretend = 0, frame = 0
 255              		@ frame_needed = 0, uses_anonymous_args = 0
 256              	.LVL22:
 257 0000 10B5     		push	{r4, lr}
 258              	.LCFI4:
 259              		.cfi_def_cfa_offset 8
 260              		.loc 1 411 0
 261 0002 0446     		mov	r4, r0
 262              		.cfi_offset 14, -4
 263              		.cfi_offset 4, -8
 264              		.loc 1 414 0
 265 0004 FFF7FEFF 		bl	pawnRun
 266              	.LVL23:
 267              		.loc 1 415 0
 268 0008 0249     		ldr	r1, .L25
 269 000a 2046     		mov	r0, r4
 270              		.loc 1 416 0
 271 000c BDE81040 		pop	{r4, lr}
 272              		.loc 1 415 0
 273 0010 FFF7FEBF 		b	chprintf
 274              	.L26:
 275              		.align	2
 276              	.L25:
 277 0014 1E000000 		.word	.LC4
 278              		.cfi_endproc
 279              	.LFE62:
 280              		.size	cmd_pawnRun, .-cmd_pawnRun
 281              		.section	.text.cmd_pawnWriteFlash,"ax",%progbits
ARM GAS  /tmp/cc2ttOjV.s 			page 6


 282              		.align	1
 283              		.thumb
 284              		.thumb_func
 285              		.type	cmd_pawnWriteFlash, %function
 286              	cmd_pawnWriteFlash:
 287              	.LFB61:
 288              		.loc 1 398 0
 289              		.cfi_startproc
 290              		@ args = 0, pretend = 0, frame = 0
 291              		@ frame_needed = 0, uses_anonymous_args = 0
 292              	.LVL24:
 293              		.loc 1 400 0
 294 0000 0029     		cmp	r1, #0
 295              		.loc 1 398 0
 296 0002 10B5     		push	{r4, lr}
 297              	.LCFI5:
 298              		.cfi_def_cfa_offset 8
 299              		.loc 1 398 0
 300 0004 0446     		mov	r4, r0
 301              		.cfi_offset 14, -4
 302              		.cfi_offset 4, -8
 303              		.loc 1 400 0
 304 0006 0CDD     		ble	.L28
 305              	.LBB2:
 306              		.loc 1 402 0
 307 0008 1068     		ldr	r0, [r2, #0]
 308              	.LVL25:
 309 000a FFF7FEFF 		bl	atoi
 310              	.LVL26:
 311              		.loc 1 403 0
 312 000e C0B2     		uxtb	r0, r0
 313              	.LVL27:
 314 0010 FFF7FEFF 		bl	pawnWriteFlash
 315              		.loc 1 404 0
 316 0014 0549     		ldr	r1, .L29
 317              		.loc 1 403 0
 318 0016 0246     		mov	r2, r0
 319              	.LVL28:
 320              		.loc 1 404 0
 321 0018 2046     		mov	r0, r4
 322              	.LVL29:
 323              	.LBE2:
 324              		.loc 1 408 0
 325 001a BDE81040 		pop	{r4, lr}
 326              	.LBB3:
 327              		.loc 1 404 0
 328 001e FFF7FEBF 		b	chprintf
 329              	.LVL30:
 330              	.L28:
 331              	.LBE3:
 332              		.loc 1 407 0
 333 0022 0349     		ldr	r1, .L29+4
 334              	.LVL31:
 335              		.loc 1 408 0
 336 0024 BDE81040 		pop	{r4, lr}
 337              		.loc 1 407 0
 338 0028 FFF7FEBF 		b	chprintf
ARM GAS  /tmp/cc2ttOjV.s 			page 7


 339              	.LVL32:
 340              	.L30:
 341              		.align	2
 342              	.L29:
 343 002c 00000000 		.word	.LC0
 344 0030 2B000000 		.word	.LC5
 345              		.cfi_endproc
 346              	.LFE61:
 347              		.size	cmd_pawnWriteFlash, .-cmd_pawnWriteFlash
 348              		.section	.text.cmd_pawnMem,"ax",%progbits
 349              		.align	1
 350              		.thumb
 351              		.thumb_func
 352              		.type	cmd_pawnMem, %function
 353              	cmd_pawnMem:
 354              	.LFB60:
 355              		.loc 1 385 0
 356              		.cfi_startproc
 357              		@ args = 0, pretend = 0, frame = 0
 358              		@ frame_needed = 0, uses_anonymous_args = 0
 359              	.LVL33:
 360              		.loc 1 387 0
 361 0000 0029     		cmp	r1, #0
 362              		.loc 1 385 0
 363 0002 10B5     		push	{r4, lr}
 364              	.LCFI6:
 365              		.cfi_def_cfa_offset 8
 366              		.loc 1 385 0
 367 0004 0446     		mov	r4, r0
 368              		.cfi_offset 14, -4
 369              		.cfi_offset 4, -8
 370              		.loc 1 387 0
 371 0006 0BDD     		ble	.L32
 372              	.LBB4:
 373              		.loc 1 389 0
 374 0008 1068     		ldr	r0, [r2, #0]
 375              	.LVL34:
 376 000a FFF7FEFF 		bl	atoi
 377              	.LVL35:
 378              		.loc 1 390 0
 379 000e FFF7FEFF 		bl	pawnMem
 380              	.LVL36:
 381              		.loc 1 391 0
 382 0012 0649     		ldr	r1, .L33
 383 0014 C2B2     		uxtb	r2, r0
 384 0016 2046     		mov	r0, r4
 385              	.LVL37:
 386              	.LBE4:
 387              		.loc 1 395 0
 388 0018 BDE81040 		pop	{r4, lr}
 389              	.LBB5:
 390              		.loc 1 391 0
 391 001c FFF7FEBF 		b	chprintf
 392              	.LVL38:
 393              	.L32:
 394              	.LBE5:
 395              		.loc 1 394 0
ARM GAS  /tmp/cc2ttOjV.s 			page 8


 396 0020 0349     		ldr	r1, .L33+4
 397              	.LVL39:
 398              		.loc 1 395 0
 399 0022 BDE81040 		pop	{r4, lr}
 400              		.loc 1 394 0
 401 0026 FFF7FEBF 		b	chprintf
 402              	.LVL40:
 403              	.L34:
 404 002a 00BF     		.align	2
 405              	.L33:
 406 002c 00000000 		.word	.LC0
 407 0030 50000000 		.word	.LC6
 408              		.cfi_endproc
 409              	.LFE60:
 410              		.size	cmd_pawnMem, .-cmd_pawnMem
 411              		.section	.text.cmd_pawnSetMem,"ax",%progbits
 412              		.align	1
 413              		.thumb
 414              		.thumb_func
 415              		.type	cmd_pawnSetMem, %function
 416              	cmd_pawnSetMem:
 417              	.LFB59:
 418              		.loc 1 368 0
 419              		.cfi_startproc
 420              		@ args = 0, pretend = 0, frame = 8
 421              		@ frame_needed = 0, uses_anonymous_args = 0
 422              	.LVL41:
 423              		.loc 1 370 0
 424 0000 0129     		cmp	r1, #1
 425              		.loc 1 368 0
 426 0002 F7B5     		push	{r0, r1, r2, r4, r5, r6, r7, lr}
 427              	.LCFI7:
 428              		.cfi_def_cfa_offset 32
 429              		.loc 1 368 0
 430 0004 0F46     		mov	r7, r1
 431              		.cfi_offset 14, -4
 432              		.cfi_offset 7, -8
 433              		.cfi_offset 6, -12
 434              		.cfi_offset 5, -16
 435              		.cfi_offset 4, -20
 436              		.cfi_offset 2, -24
 437              		.cfi_offset 1, -28
 438              		.cfi_offset 0, -32
 439 0006 1646     		mov	r6, r2
 440              		.loc 1 370 0
 441 0008 15DD     		ble	.L36
 442              	.LBB6:
 443              		.loc 1 372 0
 444 000a 1068     		ldr	r0, [r2, #0]
 445              	.LVL42:
 446 000c FFF7FEFF 		bl	atoi
 447              	.LVL43:
 448              		.loc 1 374 0
 449 0010 0124     		movs	r4, #1
 450              		.loc 1 372 0
 451 0012 85B2     		uxth	r5, r0
 452              	.LVL44:
ARM GAS  /tmp/cc2ttOjV.s 			page 9


 453              	.L37:
 454              	.LBB7:
 455              		.loc 1 376 0 discriminator 2
 456 0014 56F8040F 		ldr	r0, [r6, #4]!
 457 0018 FFF7FEFF 		bl	atoi
 458 001c 02AA     		add	r2, sp, #8
 459 001e 02F8010D 		strb	r0, [r2, #-1]!
 460              		.loc 1 377 0 discriminator 2
 461 0022 2946     		mov	r1, r5
 462 0024 0120     		movs	r0, #1
 463              	.LBE7:
 464              		.loc 1 374 0 discriminator 2
 465 0026 0134     		adds	r4, r4, #1
 466 0028 0135     		adds	r5, r5, #1
 467              	.LBB8:
 468              		.loc 1 377 0 discriminator 2
 469 002a FFF7FEFF 		bl	pawnSetMem
 470              	.LVL45:
 471              	.LBE8:
 472              		.loc 1 374 0 discriminator 2
 473 002e BC42     		cmp	r4, r7
 474 0030 ADB2     		uxth	r5, r5
 475 0032 EFD1     		bne	.L37
 476 0034 02E0     		b	.L35
 477              	.LVL46:
 478              	.L36:
 479              	.LBE6:
 480              		.loc 1 381 0
 481 0036 0249     		ldr	r1, .L39
 482 0038 FFF7FEFF 		bl	chprintf
 483              	.LVL47:
 484              	.L35:
 485              		.loc 1 382 0
 486 003c FEBD     		pop	{r1, r2, r3, r4, r5, r6, r7, pc}
 487              	.L40:
 488 003e 00BF     		.align	2
 489              	.L39:
 490 0040 50000000 		.word	.LC6
 491              		.cfi_endproc
 492              	.LFE59:
 493              		.size	cmd_pawnSetMem, .-cmd_pawnSetMem
 494              		.section	.text.cmd_pawnIo,"ax",%progbits
 495              		.align	1
 496              		.thumb
 497              		.thumb_func
 498              		.type	cmd_pawnIo, %function
 499              	cmd_pawnIo:
 500              	.LFB58:
 501              		.loc 1 354 0
 502              		.cfi_startproc
 503              		@ args = 0, pretend = 0, frame = 0
 504              		@ frame_needed = 0, uses_anonymous_args = 0
 505              	.LVL48:
 506              		.loc 1 355 0
 507 0000 0029     		cmp	r1, #0
 508              		.loc 1 354 0
 509 0002 70B5     		push	{r4, r5, r6, lr}
ARM GAS  /tmp/cc2ttOjV.s 			page 10


 510              	.LCFI8:
 511              		.cfi_def_cfa_offset 16
 512              		.loc 1 354 0
 513 0004 0646     		mov	r6, r0
 514              		.cfi_offset 14, -4
 515              		.cfi_offset 6, -8
 516              		.cfi_offset 5, -12
 517              		.cfi_offset 4, -16
 518              		.loc 1 355 0
 519 0006 13DD     		ble	.L42
 520              	.LBB9:
 521              		.loc 1 357 0
 522 0008 1068     		ldr	r0, [r2, #0]
 523              	.LVL49:
 524 000a FFF7FEFF 		bl	atoi
 525              	.LVL50:
 526              		.loc 1 358 0
 527 000e 0B49     		ldr	r1, .L47
 528              		.loc 1 357 0
 529 0010 0546     		mov	r5, r0
 530              	.LVL51:
 531              		.loc 1 358 0
 532 0012 C0B2     		uxtb	r0, r0
 533              	.LVL52:
 534 0014 FFF7FEFF 		bl	pawnIo
 535              	.LVL53:
 536              		.loc 1 360 0
 537 0018 0024     		movs	r4, #0
 538 001a 06E0     		b	.L43
 539              	.LVL54:
 540              	.L44:
 541              		.loc 1 361 0 discriminator 2
 542 001c 074B     		ldr	r3, .L47
 543 001e 3046     		mov	r0, r6
 544 0020 1A5D     		ldrb	r2, [r3, r4]	@ zero_extendqisi2
 545 0022 0749     		ldr	r1, .L47+4
 546 0024 FFF7FEFF 		bl	chprintf
 547              		.loc 1 360 0 discriminator 2
 548 0028 0134     		adds	r4, r4, #1
 549              	.LVL55:
 550              	.L43:
 551              		.loc 1 360 0 is_stmt 0 discriminator 1
 552 002a AC42     		cmp	r4, r5
 553 002c F6DB     		blt	.L44
 554 002e 70BD     		pop	{r4, r5, r6, pc}
 555              	.LVL56:
 556              	.L42:
 557              	.LBE9:
 558              		.loc 1 364 0 is_stmt 1
 559 0030 0449     		ldr	r1, .L47+8
 560              	.LVL57:
 561              		.loc 1 365 0
 562 0032 BDE87040 		pop	{r4, r5, r6, lr}
 563              		.loc 1 364 0
 564 0036 FFF7FEBF 		b	chprintf
 565              	.LVL58:
 566              	.L48:
ARM GAS  /tmp/cc2ttOjV.s 			page 11


 567 003a 00BF     		.align	2
 568              	.L47:
 569 003c 00000000 		.word	.LANCHOR3
 570 0040 00000000 		.word	.LC0
 571 0044 71000000 		.word	.LC7
 572              		.cfi_endproc
 573              	.LFE58:
 574              		.size	cmd_pawnIo, .-cmd_pawnIo
 575              		.section	.text.cmd_pawnSetIo,"ax",%progbits
 576              		.align	1
 577              		.thumb
 578              		.thumb_func
 579              		.type	cmd_pawnSetIo, %function
 580              	cmd_pawnSetIo:
 581              	.LFB57:
 582              		.loc 1 339 0
 583              		.cfi_startproc
 584              		@ args = 0, pretend = 0, frame = 0
 585              		@ frame_needed = 0, uses_anonymous_args = 0
 586              	.LVL59:
 587 0000 70B5     		push	{r4, r5, r6, lr}
 588              	.LCFI9:
 589              		.cfi_def_cfa_offset 16
 590              		.loc 1 340 0
 591 0002 0E1E     		subs	r6, r1, #0
 592              		.cfi_offset 14, -4
 593              		.cfi_offset 6, -8
 594              		.cfi_offset 5, -12
 595              		.cfi_offset 4, -16
 596 0004 0FDD     		ble	.L50
 597 0006 1546     		mov	r5, r2
 598 0008 0024     		movs	r4, #0
 599              	.LVL60:
 600              	.L51:
 601              	.LBB10:
 602              		.loc 1 345 0 discriminator 2
 603 000a 55F8040B 		ldr	r0, [r5], #4
 604 000e FFF7FEFF 		bl	atoi
 605 0012 0749     		ldr	r1, .L52
 606 0014 0855     		strb	r0, [r1, r4]
 607              		.loc 1 343 0 discriminator 2
 608 0016 0134     		adds	r4, r4, #1
 609              	.LVL61:
 610 0018 B442     		cmp	r4, r6
 611 001a F6D1     		bne	.L51
 612              		.loc 1 347 0
 613 001c E0B2     		uxtb	r0, r4
 614              	.LBE10:
 615              		.loc 1 351 0
 616 001e BDE87040 		pop	{r4, r5, r6, lr}
 617              	.LBB11:
 618              		.loc 1 347 0
 619 0022 FFF7FEBF 		b	pawnSetIo
 620              	.LVL62:
 621              	.L50:
 622              	.LBE11:
 623              		.loc 1 350 0
ARM GAS  /tmp/cc2ttOjV.s 			page 12


 624 0026 0349     		ldr	r1, .L52+4
 625              		.loc 1 351 0
 626 0028 BDE87040 		pop	{r4, r5, r6, lr}
 627              		.loc 1 350 0
 628 002c FFF7FEBF 		b	chprintf
 629              	.LVL63:
 630              	.L53:
 631              		.align	2
 632              	.L52:
 633 0030 00000000 		.word	.LANCHOR3
 634 0034 71000000 		.word	.LC7
 635              		.cfi_endproc
 636              	.LFE57:
 637              		.size	cmd_pawnSetIo, .-cmd_pawnSetIo
 638              		.section	.text.usb_event,"ax",%progbits
 639              		.align	1
 640              		.thumb
 641              		.thumb_func
 642              		.type	usb_event, %function
 643              	usb_event:
 644              	.LFB56:
 645              		.loc 1 256 0
 646              		.cfi_startproc
 647              		@ args = 0, pretend = 0, frame = 0
 648              		@ frame_needed = 0, uses_anonymous_args = 0
 649              	.LVL64:
 650              		.loc 1 258 0
 651 0000 0229     		cmp	r1, #2
 652              		.loc 1 256 0
 653 0002 38B5     		push	{r3, r4, r5, lr}
 654              	.LCFI10:
 655              		.cfi_def_cfa_offset 16
 656              		.loc 1 256 0
 657 0004 0446     		mov	r4, r0
 658              		.cfi_offset 14, -4
 659              		.cfi_offset 5, -8
 660              		.cfi_offset 4, -12
 661              		.cfi_offset 3, -16
 662 0006 0D46     		mov	r5, r1
 663              		.loc 1 258 0
 664 0008 16D1     		bne	.L54
 665              		.loc 1 267 0
 666              	@ 267 "usb_ctrl.c" 1
 667 000a FFF7FEFF 		bl      _port_lock
 668              	@ 0 "" 2
 669              		.thumb
 670 000e FFF7FEFF 		bl	dbg_check_lock_from_isr
 671              	.LVL65:
 672              		.loc 1 268 0
 673 0012 2046     		mov	r0, r4
 674 0014 0121     		movs	r1, #1
 675 0016 094A     		ldr	r2, .L57
 676 0018 FFF7FEFF 		bl	usbInitEndpointI
 677              		.loc 1 269 0
 678 001c 2046     		mov	r0, r4
 679 001e 2946     		mov	r1, r5
 680 0020 074A     		ldr	r2, .L57+4
ARM GAS  /tmp/cc2ttOjV.s 			page 13


 681 0022 FFF7FEFF 		bl	usbInitEndpointI
 682              		.loc 1 270 0
 683 0026 2046     		mov	r0, r4
 684 0028 0321     		movs	r1, #3
 685 002a 064A     		ldr	r2, .L57+8
 686 002c FFF7FEFF 		bl	usbInitEndpointI
 687              		.loc 1 271 0
 688 0030 FFF7FEFF 		bl	dbg_check_unlock_from_isr
 689              	@ 271 "usb_ctrl.c" 1
 690 0034 FFF7FEFF 		bl      _port_unlock
 691              	@ 0 "" 2
 692              		.thumb
 693              	.L54:
 694 0038 38BD     		pop	{r3, r4, r5, pc}
 695              	.L58:
 696 003a 00BF     		.align	2
 697              	.L57:
 698 003c 00000000 		.word	.LANCHOR4
 699 0040 00000000 		.word	.LANCHOR5
 700 0044 00000000 		.word	.LANCHOR6
 701              		.cfi_endproc
 702              	.LFE56:
 703              		.size	usb_event, .-usb_event
 704              		.section	.text.initUsb,"ax",%progbits
 705              		.align	1
 706              		.global	initUsb
 707              		.thumb
 708              		.thumb_func
 709              		.type	initUsb, %function
 710              	initUsb:
 711              	.LFB67:
 712              		.loc 1 513 0
 713              		.cfi_startproc
 714              		@ args = 0, pretend = 0, frame = 0
 715              		@ frame_needed = 0, uses_anonymous_args = 0
 716 0000 10B5     		push	{r4, lr}
 717              	.LCFI11:
 718              		.cfi_def_cfa_offset 8
 719              		.loc 1 519 0
 720 0002 084C     		ldr	r4, .L60
 721              		.cfi_offset 14, -4
 722              		.cfi_offset 4, -8
 723              		.loc 1 517 0
 724 0004 4FF47A70 		mov	r0, #1000
 725 0008 FFF7FEFF 		bl	chThdSleep
 726              		.loc 1 519 0
 727 000c 2046     		mov	r0, r4
 728 000e FFF7FEFF 		bl	sduObjectInit
 729              		.loc 1 520 0
 730 0012 2046     		mov	r0, r4
 731 0014 0449     		ldr	r1, .L60+4
 732 0016 FFF7FEFF 		bl	sduStart
 733              		.loc 1 525 0
 734 001a BDE81040 		pop	{r4, lr}
 735              		.loc 1 524 0
 736 001e FFF7FEBF 		b	shellInit
 737              	.L61:
ARM GAS  /tmp/cc2ttOjV.s 			page 14


 738 0022 00BF     		.align	2
 739              	.L60:
 740 0024 00000000 		.word	.LANCHOR7
 741 0028 00000000 		.word	.LANCHOR8
 742              		.cfi_endproc
 743              	.LFE67:
 744              		.size	initUsb, .-initUsb
 745              		.section	.text.finitUsb,"ax",%progbits
 746              		.align	1
 747              		.global	finitUsb
 748              		.thumb
 749              		.thumb_func
 750              		.type	finitUsb, %function
 751              	finitUsb:
 752              	.LFB68:
 753              		.loc 1 528 0
 754              		.cfi_startproc
 755              		@ args = 0, pretend = 0, frame = 0
 756              		@ frame_needed = 0, uses_anonymous_args = 0
 757              		@ link register save eliminated.
 758              		.loc 1 530 0
 759 0000 0148     		ldr	r0, .L63
 760              		.loc 1 531 0
 761              		.loc 1 530 0
 762 0002 FFF7FEBF 		b	sduStop
 763              	.L64:
 764 0006 00BF     		.align	2
 765              	.L63:
 766 0008 00000000 		.word	.LANCHOR7
 767              		.cfi_endproc
 768              	.LFE68:
 769              		.size	finitUsb, .-finitUsb
 770              		.section	.text.processShell,"ax",%progbits
 771              		.align	1
 772              		.global	processShell
 773              		.thumb
 774              		.thumb_func
 775              		.type	processShell, %function
 776              	processShell:
 777              	.LFB69:
 778              		.loc 1 534 0
 779              		.cfi_startproc
 780              		@ args = 0, pretend = 0, frame = 0
 781              		@ frame_needed = 0, uses_anonymous_args = 0
 782 0000 38B5     		push	{r3, r4, r5, lr}
 783              	.LCFI12:
 784              		.cfi_def_cfa_offset 16
 785              		.loc 1 535 0
 786 0002 0E4C     		ldr	r4, .L68
 787              		.cfi_offset 14, -4
 788              		.cfi_offset 5, -8
 789              		.cfi_offset 4, -12
 790              		.cfi_offset 3, -16
 791 0004 2068     		ldr	r0, [r4, #0]
 792 0006 2546     		mov	r5, r4
 793 0008 70B9     		cbnz	r0, .L66
 794              		.loc 1 535 0 is_stmt 0 discriminator 1
ARM GAS  /tmp/cc2ttOjV.s 			page 15


 795 000a 0D4B     		ldr	r3, .L68+4
 796 000c D3F8D030 		ldr	r3, [r3, #208]
 797 0010 1B68     		ldr	r3, [r3, #0]
 798 0012 1B78     		ldrb	r3, [r3, #0]	@ zero_extendqisi2
 799 0014 042B     		cmp	r3, #4
 800 0016 07D1     		bne	.L66
 801              		.loc 1 536 0 is_stmt 1
 802 0018 0A48     		ldr	r0, .L68+8
 803 001a 4FF44B61 		mov	r1, #3248
 804 001e 4022     		movs	r2, #64
 805 0020 FFF7FEFF 		bl	shellCreate
 806 0024 2060     		str	r0, [r4, #0]
 807 0026 38BD     		pop	{r3, r4, r5, pc}
 808              	.L66:
 809              		.loc 1 537 0
 810 0028 90F82030 		ldrb	r3, [r0, #32]	@ zero_extendqisi2
 811 002c 0E2B     		cmp	r3, #14
 812 002e 03D1     		bne	.L65
 813              		.loc 1 539 0
 814 0030 FFF7FEFF 		bl	chThdRelease
 815              		.loc 1 540 0
 816 0034 0023     		movs	r3, #0
 817 0036 2B60     		str	r3, [r5, #0]
 818              	.L65:
 819 0038 38BD     		pop	{r3, r4, r5, pc}
 820              	.L69:
 821 003a 00BF     		.align	2
 822              	.L68:
 823 003c 00000000 		.word	.LANCHOR9
 824 0040 00000000 		.word	.LANCHOR7
 825 0044 00000000 		.word	.LANCHOR10
 826              		.cfi_endproc
 827              	.LFE69:
 828              		.size	processShell, .-processShell
 829              		.section	.rodata.ep1config,"a",%progbits
 830              		.align	2
 831              		.set	.LANCHOR4,. + 0
 832              		.type	ep1config, %object
 833              		.size	ep1config, 28
 834              	ep1config:
 835 0000 12000000 		.word	18
 836 0004 00000000 		.word	0
 837 0008 00000000 		.word	sduDataTransmitted
 838 000c 00000000 		.word	0
 839 0010 4000     		.short	64
 840 0012 0000     		.short	0
 841 0014 00000000 		.word	0
 842 0018 00000000 		.word	0
 843              		.section	.rodata.vcom_configuration_descriptor_data,"a",%progbits
 844              		.type	vcom_configuration_descriptor_data, %object
 845              		.size	vcom_configuration_descriptor_data, 67
 846              	vcom_configuration_descriptor_data:
 847 0000 09       		.byte	9
 848 0001 02       		.byte	2
 849 0002 43       		.byte	67
 850 0003 00       		.byte	0
 851 0004 02       		.byte	2
ARM GAS  /tmp/cc2ttOjV.s 			page 16


 852 0005 01       		.byte	1
 853 0006 00       		.byte	0
 854 0007 C0       		.byte	-64
 855 0008 32       		.byte	50
 856 0009 09       		.byte	9
 857 000a 04       		.byte	4
 858 000b 00       		.byte	0
 859 000c 00       		.byte	0
 860 000d 01       		.byte	1
 861 000e 02       		.byte	2
 862 000f 02       		.byte	2
 863 0010 01       		.byte	1
 864 0011 00       		.byte	0
 865 0012 05       		.byte	5
 866 0013 24       		.byte	36
 867 0014 00       		.byte	0
 868 0015 10       		.byte	16
 869 0016 01       		.byte	1
 870 0017 05       		.byte	5
 871 0018 24       		.byte	36
 872 0019 01       		.byte	1
 873 001a 00       		.byte	0
 874 001b 01       		.byte	1
 875 001c 04       		.byte	4
 876 001d 24       		.byte	36
 877 001e 02       		.byte	2
 878 001f 02       		.byte	2
 879 0020 05       		.byte	5
 880 0021 24       		.byte	36
 881 0022 06       		.byte	6
 882 0023 00       		.byte	0
 883 0024 01       		.byte	1
 884 0025 07       		.byte	7
 885 0026 05       		.byte	5
 886 0027 82       		.byte	-126
 887 0028 03       		.byte	3
 888 0029 08       		.byte	8
 889 002a 00       		.byte	0
 890 002b FF       		.byte	-1
 891 002c 09       		.byte	9
 892 002d 04       		.byte	4
 893 002e 01       		.byte	1
 894 002f 00       		.byte	0
 895 0030 02       		.byte	2
 896 0031 0A       		.byte	10
 897 0032 00       		.byte	0
 898 0033 00       		.byte	0
 899 0034 00       		.byte	0
 900 0035 07       		.byte	7
 901 0036 05       		.byte	5
 902 0037 03       		.byte	3
 903 0038 02       		.byte	2
 904 0039 40       		.byte	64
 905 003a 00       		.byte	0
 906 003b 00       		.byte	0
 907 003c 07       		.byte	7
 908 003d 05       		.byte	5
ARM GAS  /tmp/cc2ttOjV.s 			page 17


 909 003e 81       		.byte	-127
 910 003f 02       		.byte	2
 911 0040 40       		.byte	64
 912 0041 00       		.byte	0
 913 0042 00       		.byte	0
 914              		.section	.bss.SDU1,"aw",%nobits
 915              		.align	2
 916              		.set	.LANCHOR7,. + 0
 917              		.type	SDU1, %object
 918              		.size	SDU1, 212
 919              	SDU1:
 920 0000 00000000 		.space	212
 920      00000000 
 920      00000000 
 920      00000000 
 920      00000000 
 921              		.section	.rodata.vcom_configuration_descriptor,"a",%progbits
 922              		.align	2
 923              		.set	.LANCHOR1,. + 0
 924              		.type	vcom_configuration_descriptor, %object
 925              		.size	vcom_configuration_descriptor, 8
 926              	vcom_configuration_descriptor:
 927 0000 43000000 		.word	67
 928 0004 00000000 		.word	vcom_configuration_descriptor_data
 929              		.section	.rodata.ep2config,"a",%progbits
 930              		.align	2
 931              		.set	.LANCHOR5,. + 0
 932              		.type	ep2config, %object
 933              		.size	ep2config, 28
 934              	ep2config:
 935 0000 13000000 		.word	19
 936 0004 00000000 		.word	0
 937 0008 00000000 		.word	sduInterruptTransmitted
 938 000c 00000000 		.word	0
 939 0010 1000     		.short	16
 940 0012 0000     		.short	0
 941 0014 00000000 		.word	0
 942 0018 00000000 		.word	0
 943              		.section	.rodata.commands,"a",%progbits
 944              		.align	2
 945              		.type	commands, %object
 946              		.size	commands, 88
 947              	commands:
 948 0000 8E000000 		.word	.LC8
 949 0004 00000000 		.word	cmd_pawnSetIo
 950 0008 98000000 		.word	.LC9
 951 000c 00000000 		.word	cmd_pawnIo
 952 0010 9F000000 		.word	.LC10
 953 0014 00000000 		.word	cmd_pawnSetMem
 954 0018 AA000000 		.word	.LC11
 955 001c 00000000 		.word	cmd_pawnMem
 956 0020 B2000000 		.word	.LC12
 957 0024 00000000 		.word	cmd_pawnWriteFlash
 958 0028 C1000000 		.word	.LC13
 959 002c 00000000 		.word	cmd_pawnRun
 960 0030 C9000000 		.word	.LC14
 961 0034 00000000 		.word	cmd_pawnIsRunning
ARM GAS  /tmp/cc2ttOjV.s 			page 18


 962 0038 D7000000 		.word	.LC15
 963 003c 00000000 		.word	cmd_pawnStop
 964 0040 E0000000 		.word	.LC16
 965 0044 00000000 		.word	cmd_pawnResult
 966 0048 EB000000 		.word	.LC17
 967 004c 00000000 		.word	cmd_pawnError
 968 0050 00000000 		.word	0
 969 0054 00000000 		.word	0
 970              		.section	.rodata.str1.1,"aMS",%progbits,1
 971              	.LC0:
 972 0000 25640D0A 		.ascii	"%d\015\012\000"
 972      00
 973              	.LC1:
 974 0005 73746F70 		.ascii	"stopped\015\012\000"
 974      7065640D 
 974      0A00
 975              	.LC2:
 976 000f 74727565 		.ascii	"true\015\012\000"
 976      0D0A00
 977              	.LC3:
 978 0016 66616C73 		.ascii	"false\015\012\000"
 978      650D0A00 
 979              	.LC4:
 980 001e 52756E6E 		.ascii	"Running...\015\012\000"
 980      696E672E 
 980      2E2E0D0A 
 980      00
 981              	.LC5:
 982 002b 4552524F 		.ascii	"ERROR: 0 based page index expected\015\012\000"
 982      523A2030 
 982      20626173 
 982      65642070 
 982      61676520 
 983              	.LC6:
 984 0050 4552524F 		.ascii	"ERROR: more arguments expected\015\012\000"
 984      523A206D 
 984      6F726520 
 984      61726775 
 984      6D656E74 
 985              	.LC7:
 986 0071 4552524F 		.ascii	"ERROR: more args expected \015\012\000"
 986      523A206D 
 986      6F726520 
 986      61726773 
 986      20657870 
 987              	.LC8:
 988 008e 7061776E 		.ascii	"pawnSetIo\000"
 988      53657449 
 988      6F00
 989              	.LC9:
 990 0098 7061776E 		.ascii	"pawnIo\000"
 990      496F00
 991              	.LC10:
 992 009f 7061776E 		.ascii	"pawnSetMem\000"
 992      5365744D 
 992      656D00
 993              	.LC11:
ARM GAS  /tmp/cc2ttOjV.s 			page 19


 994 00aa 7061776E 		.ascii	"pawnMem\000"
 994      4D656D00 
 995              	.LC12:
 996 00b2 7061776E 		.ascii	"pawnWriteFlash\000"
 996      57726974 
 996      65466C61 
 996      736800
 997              	.LC13:
 998 00c1 7061776E 		.ascii	"pawnRun\000"
 998      52756E00 
 999              	.LC14:
 1000 00c9 7061776E 		.ascii	"pawnIsRunning\000"
 1000      49735275 
 1000      6E6E696E 
 1000      6700
 1001              	.LC15:
 1002 00d7 7061776E 		.ascii	"pawnStop\000"
 1002      53746F70 
 1002      00
 1003              	.LC16:
 1004 00e0 7061776E 		.ascii	"pawnResult\000"
 1004      52657375 
 1004      6C7400
 1005              	.LC17:
 1006 00eb 7061776E 		.ascii	"pawnError\000"
 1006      4572726F 
 1006      7200
 1007              		.section	.bss.g_args,"aw",%nobits
 1008              		.set	.LANCHOR3,. + 0
 1009              		.type	g_args, %object
 1010              		.size	g_args, 16
 1011              	g_args:
 1012 0000 00000000 		.space	16
 1012      00000000 
 1012      00000000 
 1012      00000000 
 1013              		.section	.rodata.vcom_device_descriptor_data,"a",%progbits
 1014              		.type	vcom_device_descriptor_data, %object
 1015              		.size	vcom_device_descriptor_data, 18
 1016              	vcom_device_descriptor_data:
 1017 0000 12       		.byte	18
 1018 0001 01       		.byte	1
 1019 0002 10       		.byte	16
 1020 0003 01       		.byte	1
 1021 0004 02       		.byte	2
 1022 0005 00       		.byte	0
 1023 0006 00       		.byte	0
 1024 0007 40       		.byte	64
 1025 0008 83       		.byte	-125
 1026 0009 04       		.byte	4
 1027 000a 40       		.byte	64
 1028 000b 57       		.byte	87
 1029 000c 00       		.byte	0
 1030 000d 02       		.byte	2
 1031 000e 01       		.byte	1
 1032 000f 02       		.byte	2
 1033 0010 03       		.byte	3
ARM GAS  /tmp/cc2ttOjV.s 			page 20


 1034 0011 01       		.byte	1
 1035              		.section	.rodata.ep3config,"a",%progbits
 1036              		.align	2
 1037              		.set	.LANCHOR6,. + 0
 1038              		.type	ep3config, %object
 1039              		.size	ep3config, 28
 1040              	ep3config:
 1041 0000 12000000 		.word	18
 1042 0004 00000000 		.word	0
 1043 0008 00000000 		.word	0
 1044 000c 00000000 		.word	sduDataReceived
 1045 0010 0000     		.short	0
 1046 0012 4000     		.short	64
 1047 0014 00000000 		.word	0
 1048 0018 00000000 		.word	0
 1049              		.section	.rodata.shell_cfg1,"a",%progbits
 1050              		.align	2
 1051              		.set	.LANCHOR10,. + 0
 1052              		.type	shell_cfg1, %object
 1053              		.size	shell_cfg1, 8
 1054              	shell_cfg1:
 1055 0000 00000000 		.word	SDU1
 1056 0004 00000000 		.word	commands
 1057              		.section	.rodata.vcom_string0,"a",%progbits
 1058              		.type	vcom_string0, %object
 1059              		.size	vcom_string0, 4
 1060              	vcom_string0:
 1061 0000 04       		.byte	4
 1062 0001 03       		.byte	3
 1063 0002 09       		.byte	9
 1064 0003 04       		.byte	4
 1065              		.section	.rodata.vcom_string1,"a",%progbits
 1066              		.type	vcom_string1, %object
 1067              		.size	vcom_string1, 38
 1068              	vcom_string1:
 1069 0000 26       		.byte	38
 1070 0001 03       		.byte	3
 1071 0002 53       		.byte	83
 1072 0003 00       		.byte	0
 1073 0004 54       		.byte	84
 1074 0005 00       		.byte	0
 1075 0006 4D       		.byte	77
 1076 0007 00       		.byte	0
 1077 0008 69       		.byte	105
 1078 0009 00       		.byte	0
 1079 000a 63       		.byte	99
 1080 000b 00       		.byte	0
 1081 000c 72       		.byte	114
 1082 000d 00       		.byte	0
 1083 000e 6F       		.byte	111
 1084 000f 00       		.byte	0
 1085 0010 65       		.byte	101
 1086 0011 00       		.byte	0
 1087 0012 6C       		.byte	108
 1088 0013 00       		.byte	0
 1089 0014 65       		.byte	101
 1090 0015 00       		.byte	0
ARM GAS  /tmp/cc2ttOjV.s 			page 21


 1091 0016 63       		.byte	99
 1092 0017 00       		.byte	0
 1093 0018 74       		.byte	116
 1094 0019 00       		.byte	0
 1095 001a 72       		.byte	114
 1096 001b 00       		.byte	0
 1097 001c 6F       		.byte	111
 1098 001d 00       		.byte	0
 1099 001e 6E       		.byte	110
 1100 001f 00       		.byte	0
 1101 0020 69       		.byte	105
 1102 0021 00       		.byte	0
 1103 0022 63       		.byte	99
 1104 0023 00       		.byte	0
 1105 0024 73       		.byte	115
 1106 0025 00       		.byte	0
 1107              		.section	.rodata.vcom_string2,"a",%progbits
 1108              		.type	vcom_string2, %object
 1109              		.size	vcom_string2, 56
 1110              	vcom_string2:
 1111 0000 38       		.byte	56
 1112 0001 03       		.byte	3
 1113 0002 43       		.byte	67
 1114 0003 00       		.byte	0
 1115 0004 68       		.byte	104
 1116 0005 00       		.byte	0
 1117 0006 69       		.byte	105
 1118 0007 00       		.byte	0
 1119 0008 62       		.byte	98
 1120 0009 00       		.byte	0
 1121 000a 69       		.byte	105
 1122 000b 00       		.byte	0
 1123 000c 4F       		.byte	79
 1124 000d 00       		.byte	0
 1125 000e 53       		.byte	83
 1126 000f 00       		.byte	0
 1127 0010 2F       		.byte	47
 1128 0011 00       		.byte	0
 1129 0012 52       		.byte	82
 1130 0013 00       		.byte	0
 1131 0014 54       		.byte	84
 1132 0015 00       		.byte	0
 1133 0016 20       		.byte	32
 1134 0017 00       		.byte	0
 1135 0018 56       		.byte	86
 1136 0019 00       		.byte	0
 1137 001a 69       		.byte	105
 1138 001b 00       		.byte	0
 1139 001c 72       		.byte	114
 1140 001d 00       		.byte	0
 1141 001e 74       		.byte	116
 1142 001f 00       		.byte	0
 1143 0020 75       		.byte	117
 1144 0021 00       		.byte	0
 1145 0022 61       		.byte	97
 1146 0023 00       		.byte	0
 1147 0024 6C       		.byte	108
ARM GAS  /tmp/cc2ttOjV.s 			page 22


 1148 0025 00       		.byte	0
 1149 0026 20       		.byte	32
 1150 0027 00       		.byte	0
 1151 0028 43       		.byte	67
 1152 0029 00       		.byte	0
 1153 002a 4F       		.byte	79
 1154 002b 00       		.byte	0
 1155 002c 4D       		.byte	77
 1156 002d 00       		.byte	0
 1157 002e 20       		.byte	32
 1158 002f 00       		.byte	0
 1159 0030 50       		.byte	80
 1160 0031 00       		.byte	0
 1161 0032 6F       		.byte	111
 1162 0033 00       		.byte	0
 1163 0034 72       		.byte	114
 1164 0035 00       		.byte	0
 1165 0036 74       		.byte	116
 1166 0037 00       		.byte	0
 1167              		.section	.rodata.vcom_string3,"a",%progbits
 1168              		.type	vcom_string3, %object
 1169              		.size	vcom_string3, 8
 1170              	vcom_string3:
 1171 0000 08       		.byte	8
 1172 0001 03       		.byte	3
 1173 0002 32       		.byte	50
 1174 0003 00       		.byte	0
 1175 0004 34       		.byte	52
 1176 0005 00       		.byte	0
 1177 0006 32       		.byte	50
 1178 0007 00       		.byte	0
 1179              		.section	.bss.shelltp,"aw",%nobits
 1180              		.align	2
 1181              		.set	.LANCHOR9,. + 0
 1182              		.type	shelltp, %object
 1183              		.size	shelltp, 4
 1184              	shelltp:
 1185 0000 00000000 		.space	4
 1186              		.section	.rodata.vcom_strings,"a",%progbits
 1187              		.align	2
 1188              		.set	.LANCHOR2,. + 0
 1189              		.type	vcom_strings, %object
 1190              		.size	vcom_strings, 32
 1191              	vcom_strings:
 1192 0000 04000000 		.word	4
 1193 0004 00000000 		.word	vcom_string0
 1194 0008 26000000 		.word	38
 1195 000c 00000000 		.word	vcom_string1
 1196 0010 38000000 		.word	56
 1197 0014 00000000 		.word	vcom_string2
 1198 0018 08000000 		.word	8
 1199 001c 00000000 		.word	vcom_string3
 1200              		.section	.rodata.serusbcfg,"a",%progbits
 1201              		.align	2
 1202              		.set	.LANCHOR8,. + 0
 1203              		.type	serusbcfg, %object
 1204              		.size	serusbcfg, 20
ARM GAS  /tmp/cc2ttOjV.s 			page 23


 1205              	serusbcfg:
 1206 0000 00000000 		.word	USBD1
 1207 0004 00000000 		.word	usb_event
 1208 0008 00000000 		.word	get_descriptor
 1209 000c 00000000 		.word	sduRequestsHook
 1210 0010 00000000 		.word	0
 1211              		.section	.rodata.vcom_device_descriptor,"a",%progbits
 1212              		.align	2
 1213              		.set	.LANCHOR0,. + 0
 1214              		.type	vcom_device_descriptor, %object
 1215              		.size	vcom_device_descriptor, 8
 1216              	vcom_device_descriptor:
 1217 0000 12000000 		.word	18
 1218 0004 00000000 		.word	vcom_device_descriptor_data
 1219              		.text
 1220              	.Letext0: