ARM GAS  /tmp/ccuvjx1S.s 			page 1


   1              		.syntax unified
   2              		.cpu cortex-m3
   3              		.fpu softvfp
   4              		.eabi_attribute 20, 1
   5              		.eabi_attribute 21, 1
   6              		.eabi_attribute 23, 3
   7              		.eabi_attribute 24, 1
   8              		.eabi_attribute 25, 1
   9              		.eabi_attribute 26, 1
  10              		.eabi_attribute 30, 4
  11              		.eabi_attribute 18, 4
  12              		.thumb
  13              		.file	"usb_lld.c"
  20 0000 EE040000 		.text
  20      02000602 
  20      00000201 
  20      FB0E0D00 
  20      01010101 
  21              	.Ltext0:
  22              		.cfi_sections	.debug_frame
  23              		.section	.text.pm_reset.clone.0,"ax",%progbits
  24              		.align	1
  25              		.thumb
  26              		.thumb_func
  27              		.type	pm_reset.clone.0, %function
  28              	pm_reset.clone.0:
  29              	.LFB79:
  30              		.file 1 "../chibios/os/hal/platforms/STM32/USBv1/usb_lld.c"
  31              		.loc 1 97 0
  32              		.cfi_startproc
  33              		@ args = 0, pretend = 0, frame = 0
  34              		@ frame_needed = 0, uses_anonymous_args = 0
  35              		@ link register save eliminated.
  36              		.loc 1 101 0
  37 0000 4023     		movs	r3, #64
  38 0002 0360     		str	r3, [r0, #0]
  39              		.loc 1 102 0
  40 0004 7047     		bx	lr
  41              		.cfi_endproc
  42              	.LFE79:
  43              		.size	pm_reset.clone.0, .-pm_reset.clone.0
  44              		.section	.text.pm_alloc.clone.1,"ax",%progbits
  45              		.align	1
  46              		.thumb
  47              		.thumb_func
  48              		.type	pm_alloc.clone.1, %function
  49              	pm_alloc.clone.1:
  50              	.LFB80:
  51              		.loc 1 110 0
  52              		.cfi_startproc
  53              		@ args = 0, pretend = 0, frame = 0
ARM GAS  /tmp/ccuvjx1S.s 			page 2


  54              		@ frame_needed = 0, uses_anonymous_args = 0
  55              	.LVL0:
  56 0000 10B5     		push	{r4, lr}
  57              	.LCFI0:
  58              		.cfi_def_cfa_offset 8
  59              		.loc 1 113 0
  60 0002 0468     		ldr	r4, [r0, #0]
  61              		.cfi_offset 14, -4
  62              		.cfi_offset 4, -8
  63              	.LVL1:
  64              		.loc 1 114 0
  65 0004 0919     		adds	r1, r1, r4
  66              	.LVL2:
  67              		.loc 1 115 0
  68 0006 B1F5007F 		cmp	r1, #512
  69              		.loc 1 114 0
  70 000a 0160     		str	r1, [r0, #0]
  71              		.loc 1 115 0
  72 000c 02D9     		bls	.L3
  73 000e 0248     		ldr	r0, .L4
  74              	.LVL3:
  75 0010 FFF7FEFF 		bl	chDbgPanic
  76              	.L3:
  77              		.loc 1 117 0
  78 0014 2046     		mov	r0, r4
  79 0016 10BD     		pop	{r4, pc}
  80              	.L5:
  81              		.align	2
  82              	.L4:
  83 0018 00000000 		.word	.LC0
  84              		.cfi_endproc
  85              	.LFE80:
  86              		.size	pm_alloc.clone.1, .-pm_alloc.clone.1
  87              		.section	.text.Vector8C,"ax",%progbits
  88              		.align	1
  89              		.global	Vector8C
  90              		.thumb
  91              		.thumb_func
  92              		.type	Vector8C, %function
  93              	Vector8C:
  94              	.LFB57:
  95              		.loc 1 129 0
  96              		.cfi_startproc
  97              		@ args = 0, pretend = 0, frame = 0
  98              		@ frame_needed = 0, uses_anonymous_args = 0
  99 0000 10B5     		push	{r4, lr}
 100              	.LCFI1:
 101              		.cfi_def_cfa_offset 8
 102              		.loc 1 131 0
 103              		.cfi_offset 14, -4
 104              		.cfi_offset 4, -8
 105 0002 FFF7FEFF 		bl	dbg_check_enter_isr
 106              		.loc 1 133 0
 107 0006 FFF7FEFF 		bl	dbg_check_leave_isr
 108              		.loc 1 134 0
 109 000a BDE81040 		pop	{r4, lr}
 110              		.loc 1 133 0
ARM GAS  /tmp/ccuvjx1S.s 			page 3


 111 000e FFF7FEBF 		b	_port_irq_epilogue
 112              		.cfi_endproc
 113              	.LFE57:
 114              		.size	Vector8C, .-Vector8C
 115              		.section	.text.usb_lld_init,"ax",%progbits
 116              		.align	1
 117              		.global	usb_lld_init
 118              		.thumb
 119              		.thumb_func
 120              		.type	usb_lld_init, %function
 121              	usb_lld_init:
 122              	.LFB59:
 123              		.loc 1 272 0
 124              		.cfi_startproc
 125              		@ args = 0, pretend = 0, frame = 0
 126              		@ frame_needed = 0, uses_anonymous_args = 0
 127              		@ link register save eliminated.
 128              		.loc 1 275 0
 129 0000 0148     		ldr	r0, .L8
 130              		.loc 1 276 0
 131              		.loc 1 275 0
 132 0002 FFF7FEBF 		b	usbObjectInit
 133              	.L9:
 134 0006 00BF     		.align	2
 135              	.L8:
 136 0008 00000000 		.word	.LANCHOR0
 137              		.cfi_endproc
 138              	.LFE59:
 139              		.size	usb_lld_init, .-usb_lld_init
 140              		.section	.text.usb_lld_start,"ax",%progbits
 141              		.align	1
 142              		.global	usb_lld_start
 143              		.thumb
 144              		.thumb_func
 145              		.type	usb_lld_start, %function
 146              	usb_lld_start:
 147              	.LFB60:
 148              		.loc 1 285 0
 149              		.cfi_startproc
 150              		@ args = 0, pretend = 0, frame = 0
 151              		@ frame_needed = 0, uses_anonymous_args = 0
 152              	.LVL4:
 153              		.loc 1 287 0
 154 0000 0378     		ldrb	r3, [r0, #0]	@ zero_extendqisi2
 155              		.loc 1 285 0
 156 0002 70B5     		push	{r4, r5, r6, lr}
 157              	.LCFI2:
 158              		.cfi_def_cfa_offset 16
 159              		.loc 1 287 0
 160 0004 012B     		cmp	r3, #1
 161              		.loc 1 285 0
 162 0006 0446     		mov	r4, r0
 163              		.cfi_offset 14, -4
 164              		.cfi_offset 6, -8
 165              		.cfi_offset 5, -12
 166              		.cfi_offset 4, -16
 167              		.loc 1 287 0
ARM GAS  /tmp/ccuvjx1S.s 			page 4


 168 0008 18D1     		bne	.L10
 169              		.loc 1 290 0
 170 000a 0D4A     		ldr	r2, .L13
 171 000c 9042     		cmp	r0, r2
 172 000e 10D1     		bne	.L12
 173              		.loc 1 292 0
 174 0010 0C4A     		ldr	r2, .L13+4
 175              		.loc 1 294 0
 176 0012 0D4D     		ldr	r5, .L13+8
 177              		.loc 1 292 0
 178 0014 D169     		ldr	r1, [r2, #28]
 179              		.loc 1 297 0
 180 0016 1320     		movs	r0, #19
 181              	.LVL5:
 182              		.loc 1 292 0
 183 0018 41F40001 		orr	r1, r1, #8388608
 184 001c D161     		str	r1, [r2, #28]
 185              		.loc 1 294 0
 186 001e 2B64     		str	r3, [r5, #64]
 187              		.loc 1 297 0
 188 0020 6021     		movs	r1, #96
 189 0022 FFF7FEFF 		bl	nvicEnableVector
 190              		.loc 1 299 0
 191 0026 1420     		movs	r0, #20
 192 0028 E021     		movs	r1, #224
 193 002a FFF7FEFF 		bl	nvicEnableVector
 194              		.loc 1 302 0
 195 002e 0023     		movs	r3, #0
 196 0030 2B64     		str	r3, [r5, #64]
 197              	.L12:
 198              		.loc 1 306 0
 199 0032 2046     		mov	r0, r4
 200              		.loc 1 309 0
 201 0034 BDE87040 		pop	{r4, r5, r6, lr}
 202              		.loc 1 306 0
 203 0038 FFF7FEBF 		b	_usb_reset
 204              	.L10:
 205 003c 70BD     		pop	{r4, r5, r6, pc}
 206              	.L14:
 207 003e 00BF     		.align	2
 208              	.L13:
 209 0040 00000000 		.word	.LANCHOR0
 210 0044 00100240 		.word	1073876992
 211 0048 005C0040 		.word	1073765376
 212              		.cfi_endproc
 213              	.LFE60:
 214              		.size	usb_lld_start, .-usb_lld_start
 215              		.section	.text.usb_lld_stop,"ax",%progbits
 216              		.align	1
 217              		.global	usb_lld_stop
 218              		.thumb
 219              		.thumb_func
 220              		.type	usb_lld_stop, %function
 221              	usb_lld_stop:
 222              	.LFB61:
 223              		.loc 1 318 0
 224              		.cfi_startproc
ARM GAS  /tmp/ccuvjx1S.s 			page 5


 225              		@ args = 0, pretend = 0, frame = 0
 226              		@ frame_needed = 0, uses_anonymous_args = 0
 227              	.LVL6:
 228 0000 08B5     		push	{r3, lr}
 229              	.LCFI3:
 230              		.cfi_def_cfa_offset 8
 231              		.loc 1 321 0
 232 0002 0378     		ldrb	r3, [r0, #0]	@ zero_extendqisi2
 233              		.cfi_offset 14, -4
 234              		.cfi_offset 3, -8
 235 0004 012B     		cmp	r3, #1
 236 0006 10D1     		bne	.L15
 237              		.loc 1 323 0
 238 0008 084B     		ldr	r3, .L17
 239 000a 9842     		cmp	r0, r3
 240 000c 0DD1     		bne	.L15
 241              		.loc 1 324 0
 242 000e 1320     		movs	r0, #19
 243              	.LVL7:
 244 0010 FFF7FEFF 		bl	nvicDisableVector
 245              		.loc 1 325 0
 246 0014 1420     		movs	r0, #20
 247 0016 FFF7FEFF 		bl	nvicDisableVector
 248              		.loc 1 326 0
 249 001a 054B     		ldr	r3, .L17+4
 250 001c 0322     		movs	r2, #3
 251 001e 1A64     		str	r2, [r3, #64]
 252              		.loc 1 327 0
 253 0020 044B     		ldr	r3, .L17+8
 254 0022 DA69     		ldr	r2, [r3, #28]
 255 0024 22F40002 		bic	r2, r2, #8388608
 256 0028 DA61     		str	r2, [r3, #28]
 257              	.L15:
 258 002a 08BD     		pop	{r3, pc}
 259              	.L18:
 260              		.align	2
 261              	.L17:
 262 002c 00000000 		.word	.LANCHOR0
 263 0030 005C0040 		.word	1073765376
 264 0034 00100240 		.word	1073876992
 265              		.cfi_endproc
 266              	.LFE61:
 267              		.size	usb_lld_stop, .-usb_lld_stop
 268              		.section	.text.usb_lld_set_address,"ax",%progbits
 269              		.align	1
 270              		.global	usb_lld_set_address
 271              		.thumb
 272              		.thumb_func
 273              		.type	usb_lld_set_address, %function
 274              	usb_lld_set_address:
 275              	.LFB63:
 276              		.loc 1 370 0
 277              		.cfi_startproc
 278              		@ args = 0, pretend = 0, frame = 0
 279              		@ frame_needed = 0, uses_anonymous_args = 0
 280              		@ link register save eliminated.
 281              	.LVL8:
ARM GAS  /tmp/ccuvjx1S.s 			page 6


 282              		.loc 1 372 0
 283 0000 90F84A20 		ldrb	r2, [r0, #74]	@ zero_extendqisi2
 284 0004 024B     		ldr	r3, .L20
 285 0006 42F08002 		orr	r2, r2, #128
 286 000a DA64     		str	r2, [r3, #76]
 287              		.loc 1 373 0
 288 000c 7047     		bx	lr
 289              	.L21:
 290 000e 00BF     		.align	2
 291              	.L20:
 292 0010 005C0040 		.word	1073765376
 293              		.cfi_endproc
 294              	.LFE63:
 295              		.size	usb_lld_set_address, .-usb_lld_set_address
 296              		.section	.text.usb_lld_init_endpoint,"ax",%progbits
 297              		.align	1
 298              		.global	usb_lld_init_endpoint
 299              		.thumb
 300              		.thumb_func
 301              		.type	usb_lld_init_endpoint, %function
 302              	usb_lld_init_endpoint:
 303              	.LFB64:
 304              		.loc 1 383 0
 305              		.cfi_startproc
 306              		@ args = 0, pretend = 0, frame = 0
 307              		@ frame_needed = 0, uses_anonymous_args = 0
 308              	.LVL9:
 309              		.loc 1 386 0
 310 0000 0B1D     		adds	r3, r1, #4
 311              		.loc 1 383 0
 312 0002 70B5     		push	{r4, r5, r6, lr}
 313              	.LCFI4:
 314              		.cfi_def_cfa_offset 16
 315              		.loc 1 386 0
 316 0004 50F82340 		ldr	r4, [r0, r3, lsl #2]
 317              		.cfi_offset 14, -4
 318              		.cfi_offset 6, -8
 319              		.cfi_offset 5, -12
 320              		.cfi_offset 4, -16
 321              	.LVL10:
 322              		.loc 1 389 0
 323 0008 2268     		ldr	r2, [r4, #0]
 324 000a 02F00303 		and	r3, r2, #3
 325              	.LVL11:
 326 000e 013B     		subs	r3, r3, #1
 327 0010 022B     		cmp	r3, #2
 328 0012 96BF     		itet	ls
 329 0014 2C4D     		ldrls	r5, .L30
 330 0016 4FF40073 		movhi	r3, #512
 331 001a 35F81330 		ldrhls	r3, [r5, r3, lsl #1]
 332              	.LVL12:
 333              		.loc 1 404 0
 334 001e A568     		ldr	r5, [r4, #8]
 335 0020 0DB1     		cbz	r5, .L24
 336              		.loc 1 405 0
 337 0022 43F02003 		orr	r3, r3, #32
 338              	.LVL13:
ARM GAS  /tmp/ccuvjx1S.s 			page 7


 339              	.L24:
 340              		.loc 1 409 0
 341 0026 E568     		ldr	r5, [r4, #12]
 342 0028 65B1     		cbz	r5, .L25
 343              		.loc 1 410 0
 344 002a 12F0100F 		tst	r2, #16
 345 002e 07D0     		beq	.L26
 346              		.loc 1 411 0
 347 0030 0122     		movs	r2, #1
 348 0032 8A40     		lsls	r2, r2, r1
 349 0034 C589     		ldrh	r5, [r0, #14]
 350              		.loc 1 412 0
 351 0036 43F44053 		orr	r3, r3, #12288
 352              	.LVL14:
 353              		.loc 1 411 0
 354 003a 2A43     		orrs	r2, r2, r5
 355 003c C281     		strh	r2, [r0, #14]	@ movhi
 356 003e 01E0     		b	.L25
 357              	.L26:
 358              		.loc 1 415 0
 359 0040 43F40053 		orr	r3, r3, #8192
 360              	.LVL15:
 361              	.L25:
 362              		.loc 1 419 0
 363 0044 43EA0105 		orr	r5, r3, r1
 364 0048 204A     		ldr	r2, .L30+4
 365 004a 25F4F045 		bic	r5, r5, #30720
 366 004e 25F07005 		bic	r5, r5, #112
 367 0052 42F82150 		str	r5, [r2, r1, lsl #2]
 368              		.loc 1 420 0
 369 0056 47F67005 		movw	r5, #30832
 370 005a 52F82160 		ldr	r6, [r2, r1, lsl #2]
 371 005e 03EA0505 		and	r5, r3, r5
 372              		.loc 1 423 0
 373 0062 638A     		ldrh	r3, [r4, #18]
 374              	.LVL16:
 375              		.loc 1 420 0
 376 0064 7540     		eors	r5, r5, r6
 377              		.loc 1 423 0
 378 0066 3E2B     		cmp	r3, #62
 379              		.loc 1 420 0
 380 0068 42F82150 		str	r5, [r2, r1, lsl #2]
 381 006c 03F1FF33 		add	r3, r3, #-1
 382              		.loc 1 423 0
 383 0070 08D9     		bls	.L27
 384              		.loc 1 424 0
 385 0072 43F01F03 		orr	r3, r3, #31
 386 0076 0133     		adds	r3, r3, #1
 387 0078 5B11     		asrs	r3, r3, #5
 388 007a 6FEAC363 		mvn	r3, r3, lsl #27
 389 007e 6FEA5343 		mvn	r3, r3, lsr #17
 390              	.LVL17:
 391 0082 07E0     		b	.L28
 392              	.LVL18:
 393              	.L27:
 394              		.loc 1 427 0
 395 0084 43F00103 		orr	r3, r3, #1
ARM GAS  /tmp/ccuvjx1S.s 			page 8


 396 0088 0133     		adds	r3, r3, #1
 397 008a 03EBD373 		add	r3, r3, r3, lsr #31
 398 008e 5B02     		lsls	r3, r3, #9
 399 0090 03F47C43 		and	r3, r3, #64512
 400              	.LVL19:
 401              	.L28:
 402              		.loc 1 428 0
 403 0094 0D4A     		ldr	r2, .L30+4
 404              		.loc 1 742 0
 405 0096 00F14C06 		add	r6, r0, #76
 406              		.loc 1 428 0
 407 009a 156D     		ldr	r5, [r2, #80]
 408              		.loc 1 429 0
 409 009c 0022     		movs	r2, #0
 410              		.loc 1 428 0
 411 009e 05F10055 		add	r5, r5, #536870912
 412 00a2 05F54055 		add	r5, r5, #12288
 413 00a6 05EBC105 		add	r5, r5, r1, lsl #3
 414 00aa 6D00     		lsls	r5, r5, #1
 415              	.LVL20:
 416              		.loc 1 429 0
 417 00ac AA80     		strh	r2, [r5, #4]	@ movhi
 418              		.loc 1 431 0
 419 00ae 218A     		ldrh	r1, [r4, #16]
 420              	.LVL21:
 421              		.loc 1 430 0
 422 00b0 AB81     		strh	r3, [r5, #12]	@ movhi
 423              		.loc 1 431 0
 424 00b2 3046     		mov	r0, r6
 425              	.LVL22:
 426 00b4 FFF7FEFF 		bl	pm_alloc.clone.1
 427              	.LVL23:
 428              		.loc 1 432 0
 429 00b8 618A     		ldrh	r1, [r4, #18]
 430              		.loc 1 431 0
 431 00ba 2860     		str	r0, [r5, #0]
 432              		.loc 1 432 0
 433 00bc 3046     		mov	r0, r6
 434 00be FFF7FEFF 		bl	pm_alloc.clone.1
 435 00c2 A860     		str	r0, [r5, #8]
 436              		.loc 1 433 0
 437 00c4 70BD     		pop	{r4, r5, r6, pc}
 438              	.L31:
 439 00c6 00BF     		.align	2
 440              	.L30:
 441 00c8 00000000 		.word	.LANCHOR1
 442 00cc 005C0040 		.word	1073765376
 443              		.cfi_endproc
 444              	.LFE64:
 445              		.size	usb_lld_init_endpoint, .-usb_lld_init_endpoint
 446              		.section	.text.usb_lld_reset,"ax",%progbits
 447              		.align	1
 448              		.global	usb_lld_reset
 449              		.thumb
 450              		.thumb_func
 451              		.type	usb_lld_reset, %function
 452              	usb_lld_reset:
ARM GAS  /tmp/ccuvjx1S.s 			page 9


 453              	.LFB62:
 454              		.loc 1 340 0
 455              		.cfi_startproc
 456              		@ args = 0, pretend = 0, frame = 0
 457              		@ frame_needed = 0, uses_anonymous_args = 0
 458              	.LVL24:
 459              		.loc 1 344 0
 460 0000 0D4B     		ldr	r3, .L35
 461              		.loc 1 340 0
 462 0002 70B5     		push	{r4, r5, r6, lr}
 463              	.LCFI5:
 464              		.cfi_def_cfa_offset 16
 465              		.loc 1 346 0
 466 0004 8022     		movs	r2, #128
 467              		.loc 1 344 0
 468 0006 0025     		movs	r5, #0
 469              		.cfi_offset 14, -4
 470              		.cfi_offset 6, -8
 471              		.cfi_offset 5, -12
 472              		.cfi_offset 4, -16
 473 0008 1D65     		str	r5, [r3, #80]
 474              		.loc 1 345 0
 475 000a 5D64     		str	r5, [r3, #68]
 476              		.loc 1 346 0
 477 000c DA64     		str	r2, [r3, #76]
 478              	.LVL25:
 479              		.loc 1 351 0
 480 000e 4268     		ldr	r2, [r0, #4]
 481              		.loc 1 340 0
 482 0010 0446     		mov	r4, r0
 483              		.loc 1 351 0
 484 0012 D268     		ldr	r2, [r2, #12]
 485              		.loc 1 356 0
 486 0014 4C30     		adds	r0, r0, #76
 487              	.LVL26:
 488              		.loc 1 347 0
 489 0016 AA42     		cmp	r2, r5
 490 0018 14BF     		ite	ne
 491 001a 4FF41E42 		movne	r2, #40448
 492 001e 4FF41C42 		moveq	r2, #39936
 493              	.LVL27:
 494              		.loc 1 353 0
 495 0022 1A64     		str	r2, [r3, #64]
 496              		.loc 1 356 0
 497 0024 FFF7FEFF 		bl	pm_reset.clone.0
 498              	.LVL28:
 499              		.loc 1 359 0
 500 0028 044B     		ldr	r3, .L35+4
 501              		.loc 1 360 0
 502 002a 2046     		mov	r0, r4
 503 002c 2946     		mov	r1, r5
 504              		.loc 1 359 0
 505 002e 2361     		str	r3, [r4, #16]
 506              		.loc 1 361 0
 507 0030 BDE87040 		pop	{r4, r5, r6, lr}
 508              		.loc 1 360 0
 509 0034 FFF7FEBF 		b	usb_lld_init_endpoint
ARM GAS  /tmp/ccuvjx1S.s 			page 10


 510              	.L36:
 511              		.align	2
 512              	.L35:
 513 0038 005C0040 		.word	1073765376
 514 003c 00000000 		.word	.LANCHOR2
 515              		.cfi_endproc
 516              	.LFE62:
 517              		.size	usb_lld_reset, .-usb_lld_reset
 518              		.section	.text.usb_lld_disable_endpoints,"ax",%progbits
 519              		.align	1
 520              		.global	usb_lld_disable_endpoints
 521              		.thumb
 522              		.thumb_func
 523              		.type	usb_lld_disable_endpoints, %function
 524              	usb_lld_disable_endpoints:
 525              	.LFB65:
 526              		.loc 1 442 0
 527              		.cfi_startproc
 528              		@ args = 0, pretend = 0, frame = 0
 529              		@ frame_needed = 0, uses_anonymous_args = 0
 530              	.LVL29:
 531 0000 08B5     		push	{r3, lr}
 532              	.LCFI6:
 533              		.cfi_def_cfa_offset 8
 534              		.loc 1 446 0
 535 0002 4C30     		adds	r0, r0, #76
 536              	.LVL30:
 537              		.cfi_offset 14, -4
 538              		.cfi_offset 3, -8
 539 0004 FFF7FEFF 		bl	pm_reset.clone.0
 540              	.LVL31:
 541              		.loc 1 449 0
 542 0008 0123     		movs	r3, #1
 543              	.LVL32:
 544              	.L38:
 545              		.loc 1 450 0 discriminator 2
 546 000a 064A     		ldr	r2, .L39
 547 000c 52F82310 		ldr	r1, [r2, r3, lsl #2]
 548 0010 42F82310 		str	r1, [r2, r3, lsl #2]
 549              		.loc 1 451 0 discriminator 2
 550 0014 0021     		movs	r1, #0
 551 0016 42F82310 		str	r1, [r2, r3, lsl #2]
 552              		.loc 1 449 0 discriminator 2
 553 001a 0133     		adds	r3, r3, #1
 554              	.LVL33:
 555 001c 082B     		cmp	r3, #8
 556 001e F4D1     		bne	.L38
 557              		.loc 1 453 0
 558 0020 08BD     		pop	{r3, pc}
 559              	.L40:
 560 0022 00BF     		.align	2
 561              	.L39:
 562 0024 005C0040 		.word	1073765376
 563              		.cfi_endproc
 564              	.LFE65:
 565              		.size	usb_lld_disable_endpoints, .-usb_lld_disable_endpoints
 566              		.section	.text.usb_lld_get_status_out,"ax",%progbits
ARM GAS  /tmp/ccuvjx1S.s 			page 11


 567              		.align	1
 568              		.global	usb_lld_get_status_out
 569              		.thumb
 570              		.thumb_func
 571              		.type	usb_lld_get_status_out, %function
 572              	usb_lld_get_status_out:
 573              	.LFB66:
 574              		.loc 1 467 0
 575              		.cfi_startproc
 576              		@ args = 0, pretend = 0, frame = 0
 577              		@ frame_needed = 0, uses_anonymous_args = 0
 578              		@ link register save eliminated.
 579              	.LVL34:
 580              		.loc 1 470 0
 581 0000 054B     		ldr	r3, .L46
 582 0002 53F82100 		ldr	r0, [r3, r1, lsl #2]
 583              	.LVL35:
 584 0006 10F44050 		ands	r0, r0, #12288
 585 000a 04D0     		beq	.L44
 586              		.loc 1 476 0
 587 000c B0F5805F 		cmp	r0, #4096
 588 0010 0CBF     		ite	eq
 589 0012 0120     		moveq	r0, #1
 590 0014 0220     		movne	r0, #2
 591              	.L44:
 592              		.loc 1 478 0
 593 0016 7047     		bx	lr
 594              	.L47:
 595              		.align	2
 596              	.L46:
 597 0018 005C0040 		.word	1073765376
 598              		.cfi_endproc
 599              	.LFE66:
 600              		.size	usb_lld_get_status_out, .-usb_lld_get_status_out
 601              		.section	.text.usb_lld_get_status_in,"ax",%progbits
 602              		.align	1
 603              		.global	usb_lld_get_status_in
 604              		.thumb
 605              		.thumb_func
 606              		.type	usb_lld_get_status_in, %function
 607              	usb_lld_get_status_in:
 608              	.LFB67:
 609              		.loc 1 492 0
 610              		.cfi_startproc
 611              		@ args = 0, pretend = 0, frame = 0
 612              		@ frame_needed = 0, uses_anonymous_args = 0
 613              		@ link register save eliminated.
 614              	.LVL36:
 615              		.loc 1 495 0
 616 0000 054B     		ldr	r3, .L51
 617 0002 53F82130 		ldr	r3, [r3, r1, lsl #2]
 618 0006 03F03003 		and	r3, r3, #48
 619 000a 102B     		cmp	r3, #16
 620 000c 9ABF     		itte	ls
 621 000e 034A     		ldrls	r2, .L51+4
 622 0010 D05C     		ldrbls	r0, [r2, r3]	@ zero_extendqisi2
 623              	.LVL37:
ARM GAS  /tmp/ccuvjx1S.s 			page 12


 624 0012 0220     		movhi	r0, #2
 625              		.loc 1 503 0
 626 0014 7047     		bx	lr
 627              	.L52:
 628 0016 00BF     		.align	2
 629              	.L51:
 630 0018 005C0040 		.word	1073765376
 631 001c 00000000 		.word	.LANCHOR3
 632              		.cfi_endproc
 633              	.LFE67:
 634              		.size	usb_lld_get_status_in, .-usb_lld_get_status_in
 635              		.section	.text.usb_lld_read_setup,"ax",%progbits
 636              		.align	1
 637              		.global	usb_lld_read_setup
 638              		.thumb
 639              		.thumb_func
 640              		.type	usb_lld_read_setup, %function
 641              	usb_lld_read_setup:
 642              	.LFB68:
 643              		.loc 1 519 0
 644              		.cfi_startproc
 645              		@ args = 0, pretend = 0, frame = 0
 646              		@ frame_needed = 0, uses_anonymous_args = 0
 647              		@ link register save eliminated.
 648              	.LVL38:
 649              		.loc 1 525 0
 650 0000 0B4B     		ldr	r3, .L55
 651 0002 1B6D     		ldr	r3, [r3, #80]
 652 0004 03F10053 		add	r3, r3, #536870912
 653 0008 03F54053 		add	r3, r3, #12288
 654 000c 03EBC103 		add	r3, r3, r1, lsl #3
 655 0010 5B00     		lsls	r3, r3, #1
 656              	.LVL39:
 657              		.loc 1 526 0
 658 0012 9B68     		ldr	r3, [r3, #8]
 659              	.LVL40:
 660 0014 03F10053 		add	r3, r3, #536870912
 661 0018 03F54053 		add	r3, r3, #12288
 662 001c 5900     		lsls	r1, r3, #1
 663              	.LVL41:
 664 001e 0023     		movs	r3, #0
 665              	.LVL42:
 666              	.L54:
 667              		.loc 1 528 0 discriminator 2
 668 0020 585A     		ldrh	r0, [r3, r1]
 669              		.loc 1 529 0 discriminator 2
 670 0022 0433     		adds	r3, r3, #4
 671              		.loc 1 527 0 discriminator 2
 672 0024 102B     		cmp	r3, #16
 673              		.loc 1 528 0 discriminator 2
 674 0026 22F8020B 		strh	r0, [r2], #2	@ movhi
 675              	.LVL43:
 676              		.loc 1 527 0 discriminator 2
 677 002a F9D1     		bne	.L54
 678              		.loc 1 531 0
 679 002c 7047     		bx	lr
 680              	.L56:
ARM GAS  /tmp/ccuvjx1S.s 			page 13


 681 002e 00BF     		.align	2
 682              	.L55:
 683 0030 005C0040 		.word	1073765376
 684              		.cfi_endproc
 685              	.LFE68:
 686              		.size	usb_lld_read_setup, .-usb_lld_read_setup
 687              		.section	.text.usb_lld_read_packet_buffer,"ax",%progbits
 688              		.align	1
 689              		.global	usb_lld_read_packet_buffer
 690              		.thumb
 691              		.thumb_func
 692              		.type	usb_lld_read_packet_buffer, %function
 693              	usb_lld_read_packet_buffer:
 694              	.LFB69:
 695              		.loc 1 551 0
 696              		.cfi_startproc
 697              		@ args = 0, pretend = 0, frame = 0
 698              		@ frame_needed = 0, uses_anonymous_args = 0
 699              	.LVL44:
 700              		.loc 1 557 0
 701 0000 1048     		ldr	r0, .L60
 702              	.LVL45:
 703              		.loc 1 551 0
 704 0002 10B5     		push	{r4, lr}
 705              	.LCFI7:
 706              		.cfi_def_cfa_offset 8
 707              		.loc 1 557 0
 708 0004 006D     		ldr	r0, [r0, #80]
 709 0006 00F10050 		add	r0, r0, #536870912
 710 000a 00F54050 		add	r0, r0, #12288
 711 000e 00EBC100 		add	r0, r0, r1, lsl #3
 712 0012 4000     		lsls	r0, r0, #1
 713              	.LVL46:
 714              		.loc 1 558 0
 715 0014 8468     		ldr	r4, [r0, #8]
 716              		.cfi_offset 14, -4
 717              		.cfi_offset 4, -8
 718              		.loc 1 559 0
 719 0016 8089     		ldrh	r0, [r0, #12]
 720              	.LVL47:
 721              		.loc 1 558 0
 722 0018 04F10054 		add	r4, r4, #536870912
 723              		.loc 1 559 0
 724 001c 8005     		lsls	r0, r0, #22
 725 001e 800D     		lsrs	r0, r0, #22
 726              		.loc 1 562 0
 727 0020 8342     		cmp	r3, r0
 728 0022 28BF     		it	cs
 729 0024 0346     		movcs	r3, r0
 730              	.LVL48:
 731              		.loc 1 558 0
 732 0026 04F54054 		add	r4, r4, #12288
 733              		.loc 1 562 0
 734 002a 0133     		adds	r3, r3, #1
 735              		.loc 1 558 0
 736 002c 6400     		lsls	r4, r4, #1
 737              	.LVL49:
ARM GAS  /tmp/ccuvjx1S.s 			page 14


 738              		.loc 1 562 0
 739 002e 5B08     		lsrs	r3, r3, #1
 740              	.LVL50:
 741              		.loc 1 563 0
 742 0030 04E0     		b	.L58
 743              	.LVL51:
 744              	.L59:
 745              		.loc 1 564 0
 746 0032 54F8041B 		ldr	r1, [r4], #4
 747              		.loc 1 566 0
 748 0036 013B     		subs	r3, r3, #1
 749              	.LVL52:
 750              		.loc 1 564 0
 751 0038 22F8021B 		strh	r1, [r2], #2	@ movhi
 752              	.LVL53:
 753              	.L58:
 754              		.loc 1 563 0 discriminator 1
 755 003c 002B     		cmp	r3, #0
 756 003e F8D1     		bne	.L59
 757              		.loc 1 569 0
 758 0040 10BD     		pop	{r4, pc}
 759              	.L61:
 760 0042 00BF     		.align	2
 761              	.L60:
 762 0044 005C0040 		.word	1073765376
 763              		.cfi_endproc
 764              	.LFE69:
 765              		.size	usb_lld_read_packet_buffer, .-usb_lld_read_packet_buffer
 766              		.section	.text.usb_lld_write_packet_buffer,"ax",%progbits
 767              		.align	1
 768              		.global	usb_lld_write_packet_buffer
 769              		.thumb
 770              		.thumb_func
 771              		.type	usb_lld_write_packet_buffer, %function
 772              	usb_lld_write_packet_buffer:
 773              	.LFB70:
 774              		.loc 1 586 0
 775              		.cfi_startproc
 776              		@ args = 0, pretend = 0, frame = 0
 777              		@ frame_needed = 0, uses_anonymous_args = 0
 778              	.LVL54:
 779              		.loc 1 591 0
 780 0000 0D48     		ldr	r0, .L65
 781              	.LVL55:
 782              		.loc 1 586 0
 783 0002 10B5     		push	{r4, lr}
 784              	.LCFI8:
 785              		.cfi_def_cfa_offset 8
 786              		.loc 1 591 0
 787 0004 006D     		ldr	r0, [r0, #80]
 788 0006 00F10050 		add	r0, r0, #536870912
 789 000a 00F54050 		add	r0, r0, #12288
 790 000e 00EBC100 		add	r0, r0, r1, lsl #3
 791 0012 4000     		lsls	r0, r0, #1
 792              	.LVL56:
 793              		.loc 1 592 0
 794 0014 0468     		ldr	r4, [r0, #0]
ARM GAS  /tmp/ccuvjx1S.s 			page 15


 795              		.cfi_offset 14, -4
 796              		.cfi_offset 4, -8
 797              		.loc 1 593 0
 798 0016 8380     		strh	r3, [r0, #4]	@ movhi
 799              		.loc 1 592 0
 800 0018 04F10054 		add	r4, r4, #536870912
 801 001c 04F54054 		add	r4, r4, #12288
 802              		.loc 1 594 0
 803 0020 0133     		adds	r3, r3, #1
 804              	.LVL57:
 805              		.loc 1 592 0
 806 0022 6400     		lsls	r4, r4, #1
 807              	.LVL58:
 808              		.loc 1 594 0
 809 0024 5B08     		lsrs	r3, r3, #1
 810              	.LVL59:
 811              		.loc 1 595 0
 812 0026 04E0     		b	.L63
 813              	.LVL60:
 814              	.L64:
 815              		.loc 1 596 0
 816 0028 32F8021B 		ldrh	r1, [r2], #2
 817              		.loc 1 598 0
 818 002c 013B     		subs	r3, r3, #1
 819              	.LVL61:
 820              		.loc 1 596 0
 821 002e 44F8041B 		str	r1, [r4], #4
 822              	.LVL62:
 823              	.L63:
 824              		.loc 1 595 0 discriminator 1
 825 0032 002B     		cmp	r3, #0
 826 0034 F8D1     		bne	.L64
 827              		.loc 1 600 0
 828 0036 10BD     		pop	{r4, pc}
 829              	.L66:
 830              		.align	2
 831              	.L65:
 832 0038 005C0040 		.word	1073765376
 833              		.cfi_endproc
 834              	.LFE70:
 835              		.size	usb_lld_write_packet_buffer, .-usb_lld_write_packet_buffer
 836              		.section	.text.usb_lld_prepare_receive,"ax",%progbits
 837              		.align	1
 838              		.global	usb_lld_prepare_receive
 839              		.thumb
 840              		.thumb_func
 841              		.type	usb_lld_prepare_receive, %function
 842              	usb_lld_prepare_receive:
 843              	.LFB71:
 844              		.loc 1 613 0
 845              		.cfi_startproc
 846              		@ args = 0, pretend = 0, frame = 0
 847              		@ frame_needed = 0, uses_anonymous_args = 0
 848              		@ link register save eliminated.
 849              	.LVL63:
 850              		.loc 1 614 0
 851 0000 0431     		adds	r1, r1, #4
ARM GAS  /tmp/ccuvjx1S.s 			page 16


 852              	.LVL64:
 853 0002 50F82100 		ldr	r0, [r0, r1, lsl #2]
 854              	.LVL65:
 855 0006 8169     		ldr	r1, [r0, #24]
 856              	.LVL66:
 857              		.loc 1 616 0
 858 0008 4A60     		str	r2, [r1, #4]
 859              		.loc 1 618 0
 860 000a 0022     		movs	r2, #0
 861              	.LVL67:
 862              		.loc 1 617 0
 863 000c 8B60     		str	r3, [r1, #8]
 864              		.loc 1 618 0
 865 000e CA60     		str	r2, [r1, #12]
 866              		.loc 1 619 0
 867 0010 13B9     		cbnz	r3, .L68
 868              		.loc 1 620 0
 869 0012 0123     		movs	r3, #1
 870              	.LVL68:
 871 0014 0B80     		strh	r3, [r1, #0]	@ movhi
 872 0016 7047     		bx	lr
 873              	.L68:
 874              		.loc 1 622 0
 875 0018 428A     		ldrh	r2, [r0, #18]
 876 001a 501E     		subs	r0, r2, #1
 877              	.LVL69:
 878 001c C318     		adds	r3, r0, r3
 879 001e B3FBF2F2 		udiv	r2, r3, r2
 880 0022 0A80     		strh	r2, [r1, #0]	@ movhi
 881 0024 7047     		bx	lr
 882              		.cfi_endproc
 883              	.LFE71:
 884              		.size	usb_lld_prepare_receive, .-usb_lld_prepare_receive
 885              		.section	.text.usb_lld_prepare_transmit,"ax",%progbits
 886              		.align	1
 887              		.global	usb_lld_prepare_transmit
 888              		.thumb
 889              		.thumb_func
 890              		.type	usb_lld_prepare_transmit, %function
 891              	usb_lld_prepare_transmit:
 892              	.LFB72:
 893              		.loc 1 637 0
 894              		.cfi_startproc
 895              		@ args = 0, pretend = 0, frame = 0
 896              		@ frame_needed = 0, uses_anonymous_args = 0
 897              	.LVL70:
 898 0000 70B5     		push	{r4, r5, r6, lr}
 899              	.LCFI9:
 900              		.cfi_def_cfa_offset 16
 901              		.loc 1 638 0
 902 0002 0C1D     		adds	r4, r1, #4
 903              		.cfi_offset 14, -4
 904              		.cfi_offset 6, -8
 905              		.cfi_offset 5, -12
 906              		.cfi_offset 4, -16
 907 0004 50F82450 		ldr	r5, [r0, r4, lsl #2]
 908              		.loc 1 642 0
ARM GAS  /tmp/ccuvjx1S.s 			page 17


 909 0008 0026     		movs	r6, #0
 910              		.loc 1 638 0
 911 000a 6C69     		ldr	r4, [r5, #20]
 912              	.LVL71:
 913              		.loc 1 641 0
 914 000c 6360     		str	r3, [r4, #4]
 915              		.loc 1 640 0
 916 000e 2260     		str	r2, [r4, #0]
 917              		.loc 1 642 0
 918 0010 A660     		str	r6, [r4, #8]
 919              	.LVL72:
 920              		.loc 1 643 0
 921 0012 2C8A     		ldrh	r4, [r5, #16]
 922              	.LVL73:
 923              		.loc 1 645 0
 924 0014 A342     		cmp	r3, r4
 925 0016 28BF     		it	cs
 926 0018 2346     		movcs	r3, r4
 927              	.LVL74:
 928              		.loc 1 646 0
 929 001a BDE87040 		pop	{r4, r5, r6, lr}
 930              		.loc 1 645 0
 931 001e FFF7FEBF 		b	usb_lld_write_packet_buffer
 932              		.cfi_endproc
 933              	.LFE72:
 934              		.size	usb_lld_prepare_transmit, .-usb_lld_prepare_transmit
 935              		.section	.text.usb_lld_start_out,"ax",%progbits
 936              		.align	1
 937              		.global	usb_lld_start_out
 938              		.thumb
 939              		.thumb_func
 940              		.type	usb_lld_start_out, %function
 941              	usb_lld_start_out:
 942              	.LFB73:
 943              		.loc 1 656 0
 944              		.cfi_startproc
 945              		@ args = 0, pretend = 0, frame = 0
 946              		@ frame_needed = 0, uses_anonymous_args = 0
 947              		@ link register save eliminated.
 948              	.LVL75:
 949              		.loc 1 660 0
 950 0000 054A     		ldr	r2, .L72
 951 0002 52F82130 		ldr	r3, [r2, r1, lsl #2]
 952 0006 23F49043 		bic	r3, r3, #18432
 953 000a 23F07003 		bic	r3, r3, #112
 954 000e 83F44053 		eor	r3, r3, #12288
 955 0012 42F82130 		str	r3, [r2, r1, lsl #2]
 956              		.loc 1 661 0
 957 0016 7047     		bx	lr
 958              	.L73:
 959              		.align	2
 960              	.L72:
 961 0018 005C0040 		.word	1073765376
 962              		.cfi_endproc
 963              	.LFE73:
 964              		.size	usb_lld_start_out, .-usb_lld_start_out
 965              		.section	.text.usb_lld_start_in,"ax",%progbits
ARM GAS  /tmp/ccuvjx1S.s 			page 18


 966              		.align	1
 967              		.global	usb_lld_start_in
 968              		.thumb
 969              		.thumb_func
 970              		.type	usb_lld_start_in, %function
 971              	usb_lld_start_in:
 972              	.LFB74:
 973              		.loc 1 671 0
 974              		.cfi_startproc
 975              		@ args = 0, pretend = 0, frame = 0
 976              		@ frame_needed = 0, uses_anonymous_args = 0
 977              		@ link register save eliminated.
 978              	.LVL76:
 979              		.loc 1 675 0
 980 0000 054A     		ldr	r2, .L75
 981 0002 52F82130 		ldr	r3, [r2, r1, lsl #2]
 982 0006 23F4F043 		bic	r3, r3, #30720
 983 000a 23F04003 		bic	r3, r3, #64
 984 000e 83F03003 		eor	r3, r3, #48
 985 0012 42F82130 		str	r3, [r2, r1, lsl #2]
 986              		.loc 1 676 0
 987 0016 7047     		bx	lr
 988              	.L76:
 989              		.align	2
 990              	.L75:
 991 0018 005C0040 		.word	1073765376
 992              		.cfi_endproc
 993              	.LFE74:
 994              		.size	usb_lld_start_in, .-usb_lld_start_in
 995              		.section	.text.Vector90,"ax",%progbits
 996              		.align	1
 997              		.global	Vector90
 998              		.thumb
 999              		.thumb_func
 1000              		.type	Vector90, %function
 1001              	Vector90:
 1002              	.LFB58:
 1003              		.loc 1 141 0
 1004              		.cfi_startproc
 1005              		@ args = 0, pretend = 0, frame = 0
 1006              		@ frame_needed = 0, uses_anonymous_args = 0
 1007              	.LVL77:
 1008 0000 2DE9F047 		push	{r4, r5, r6, r7, r8, r9, sl, lr}
 1009              	.LCFI10:
 1010              		.cfi_def_cfa_offset 32
 1011              		.loc 1 146 0
 1012              		.cfi_offset 14, -4
 1013              		.cfi_offset 10, -8
 1014              		.cfi_offset 9, -12
 1015              		.cfi_offset 8, -16
 1016              		.cfi_offset 7, -20
 1017              		.cfi_offset 6, -24
 1018              		.cfi_offset 5, -28
 1019              		.cfi_offset 4, -32
 1020 0004 FFF7FEFF 		bl	dbg_check_enter_isr
 1021              		.loc 1 148 0
 1022 0008 7B4B     		ldr	r3, .L97
ARM GAS  /tmp/ccuvjx1S.s 			page 19


 1023 000a 5C6C     		ldr	r4, [r3, #68]
 1024              	.LVL78:
 1025              		.loc 1 151 0
 1026 000c 14F4806F 		tst	r4, #1024
 1027 0010 0DD0     		beq	.L78
 1028              		.loc 1 144 0
 1029 0012 7A4D     		ldr	r5, .L97+4
 1030              		.loc 1 152 0
 1031 0014 2846     		mov	r0, r5
 1032 0016 FFF7FEFF 		bl	_usb_reset
 1033              		.loc 1 153 0
 1034 001a 6B68     		ldr	r3, [r5, #4]
 1035 001c 1B68     		ldr	r3, [r3, #0]
 1036 001e 13B1     		cbz	r3, .L79
 1037              		.loc 1 153 0 is_stmt 0 discriminator 1
 1038 0020 2846     		mov	r0, r5
 1039 0022 0021     		movs	r1, #0
 1040 0024 9847     		blx	r3
 1041              	.L79:
 1042              		.loc 1 154 0 is_stmt 1
 1043 0026 744B     		ldr	r3, .L97
 1044 0028 6FF48062 		mvn	r2, #1024
 1045 002c 5A64     		str	r2, [r3, #68]
 1046              	.L78:
 1047              		.loc 1 158 0
 1048 002e 14F4006F 		tst	r4, #2048
 1049 0032 0DD0     		beq	.L80
 1050              		.loc 1 159 0
 1051 0034 704D     		ldr	r5, .L97
 1052              		.loc 1 160 0
 1053 0036 7148     		ldr	r0, .L97+4
 1054              		.loc 1 159 0
 1055 0038 2B6C     		ldr	r3, [r5, #64]
 1056 003a 43F00803 		orr	r3, r3, #8
 1057 003e 2B64     		str	r3, [r5, #64]
 1058              		.loc 1 160 0
 1059 0040 4368     		ldr	r3, [r0, #4]
 1060 0042 1B68     		ldr	r3, [r3, #0]
 1061 0044 0BB1     		cbz	r3, .L81
 1062              		.loc 1 160 0 is_stmt 0 discriminator 1
 1063 0046 0321     		movs	r1, #3
 1064 0048 9847     		blx	r3
 1065              	.L81:
 1066              		.loc 1 164 0 is_stmt 1
 1067 004a 6FF40063 		mvn	r3, #2048
 1068 004e 6B64     		str	r3, [r5, #68]
 1069              	.L80:
 1070              		.loc 1 168 0
 1071 0050 14F4805F 		tst	r4, #4096
 1072 0054 12D0     		beq	.L82
 1073              	.LBB2:
 1074              		.loc 1 169 0
 1075 0056 684B     		ldr	r3, .L97
 1076 0058 9A6C     		ldr	r2, [r3, #72]
 1077              	.LVL79:
 1078              		.loc 1 170 0
 1079 005a 12F4004F 		tst	r2, #32768
ARM GAS  /tmp/ccuvjx1S.s 			page 20


 1080 005e 09D1     		bne	.L83
 1081              		.loc 1 171 0
 1082 0060 1A6C     		ldr	r2, [r3, #64]
 1083              	.LVL80:
 1084              		.loc 1 172 0
 1085 0062 6648     		ldr	r0, .L97+4
 1086              		.loc 1 171 0
 1087 0064 22F00802 		bic	r2, r2, #8
 1088 0068 1A64     		str	r2, [r3, #64]
 1089              		.loc 1 172 0
 1090 006a 4368     		ldr	r3, [r0, #4]
 1091 006c 1B68     		ldr	r3, [r3, #0]
 1092 006e 0BB1     		cbz	r3, .L83
 1093              		.loc 1 172 0 is_stmt 0 discriminator 1
 1094 0070 0421     		movs	r1, #4
 1095 0072 9847     		blx	r3
 1096              	.L83:
 1097              		.loc 1 181 0 is_stmt 1
 1098 0074 604B     		ldr	r3, .L97
 1099 0076 6FF48052 		mvn	r2, #4096
 1100 007a 5A64     		str	r2, [r3, #68]
 1101              	.L82:
 1102              	.LBE2:
 1103              		.loc 1 185 0
 1104 007c 14F4007F 		tst	r4, #512
 1105 0080 00F0AF80 		beq	.L86
 1106              		.loc 1 186 0
 1107 0084 5D48     		ldr	r0, .L97+4
 1108 0086 4368     		ldr	r3, [r0, #4]
 1109 0088 DB68     		ldr	r3, [r3, #12]
 1110 008a 03B1     		cbz	r3, .L85
 1111              		.loc 1 186 0 is_stmt 0 discriminator 1
 1112 008c 9847     		blx	r3
 1113              	.L85:
 1114              		.loc 1 187 0 is_stmt 1
 1115 008e 5A4B     		ldr	r3, .L97
 1116 0090 6FF40072 		mvn	r2, #512
 1117 0094 5A64     		str	r2, [r3, #68]
 1118 0096 A4E0     		b	.L86
 1119              	.L94:
 1120              	.LBB3:
 1121              		.loc 1 193 0
 1122 0098 574B     		ldr	r3, .L97
 1123 009a 04F00F04 		and	r4, r4, #15
 1124              	.LVL81:
 1125 009e 53F82480 		ldr	r8, [r3, r4, lsl #2]
 1126              	.LVL82:
 1127              		.loc 1 194 0
 1128 00a2 564E     		ldr	r6, .L97+4
 1129 00a4 221D     		adds	r2, r4, #4
 1130              		.loc 1 196 0
 1131 00a6 18F0800F 		tst	r8, #128
 1132              		.loc 1 194 0
 1133 00aa 56F82250 		ldr	r5, [r6, r2, lsl #2]
 1134              	.LVL83:
 1135              		.loc 1 196 0
 1136 00ae 3AD0     		beq	.L87
ARM GAS  /tmp/ccuvjx1S.s 			page 21


 1137              		.loc 1 198 0
 1138 00b0 53F82420 		ldr	r2, [r3, r4, lsl #2]
 1139              	.LVL84:
 1140 00b4 22F4F042 		bic	r2, r2, #30720
 1141 00b8 22F0F002 		bic	r2, r2, #240
 1142 00bc 43F82420 		str	r2, [r3, r4, lsl #2]
 1143              		.loc 1 199 0
 1144 00c0 2A68     		ldr	r2, [r5, #0]
 1145 00c2 12F0100F 		tst	r2, #16
 1146 00c6 24D1     		bne	.L89
 1147              	.L88:
 1148              		.loc 1 205 0
 1149 00c8 1B6D     		ldr	r3, [r3, #80]
 1150              		.loc 1 206 0
 1151 00ca 6969     		ldr	r1, [r5, #20]
 1152              		.loc 1 205 0
 1153 00cc 03F10053 		add	r3, r3, #536870912
 1154 00d0 03F54053 		add	r3, r3, #12288
 1155 00d4 03EBC403 		add	r3, r3, r4, lsl #3
 1156 00d8 5B00     		lsls	r3, r3, #1
 1157 00da 9B88     		ldrh	r3, [r3, #4]
 1158              		.loc 1 207 0
 1159 00dc 8868     		ldr	r0, [r1, #8]
 1160              		.loc 1 205 0
 1161 00de 9BB2     		uxth	r3, r3
 1162              	.LVL85:
 1163              		.loc 1 207 0
 1164 00e0 C018     		adds	r0, r0, r3
 1165              		.loc 1 206 0
 1166 00e2 0A68     		ldr	r2, [r1, #0]
 1167              		.loc 1 207 0
 1168 00e4 8860     		str	r0, [r1, #8]
 1169              		.loc 1 208 0
 1170 00e6 4868     		ldr	r0, [r1, #4]
 1171              		.loc 1 206 0
 1172 00e8 D218     		adds	r2, r2, r3
 1173              		.loc 1 208 0
 1174 00ea C31A     		subs	r3, r0, r3
 1175              	.LVL86:
 1176              		.loc 1 206 0
 1177 00ec 0A60     		str	r2, [r1, #0]
 1178              		.loc 1 208 0
 1179 00ee 4B60     		str	r3, [r1, #4]
 1180              		.loc 1 209 0
 1181 00f0 7BB1     		cbz	r3, .L89
 1182              	.LVL87:
 1183              		.loc 1 211 0
 1184 00f2 B5F810E0 		ldrh	lr, [r5, #16]
 1185              		.loc 1 215 0
 1186 00f6 5FFA84F9 		uxtb	r9, r4
 1187 00fa 3046     		mov	r0, r6
 1188 00fc 4946     		mov	r1, r9
 1189 00fe 7345     		cmp	r3, lr
 1190 0100 28BF     		it	cs
 1191 0102 7346     		movcs	r3, lr
 1192              	.LVL88:
 1193 0104 FFF7FEFF 		bl	usb_lld_write_packet_buffer
ARM GAS  /tmp/ccuvjx1S.s 			page 22


 1194              	.LVL89:
 1195              		.loc 1 216 0
 1196 0108 3046     		mov	r0, r6
 1197 010a 4946     		mov	r1, r9
 1198 010c FFF7FEFF 		bl	usb_lld_start_in
 1199 0110 09E0     		b	.L87
 1200              	.L89:
 1201              		.loc 1 220 0
 1202 0112 0123     		movs	r3, #1
 1203 0114 A340     		lsls	r3, r3, r4
 1204 0116 B289     		ldrh	r2, [r6, #12]
 1205 0118 3046     		mov	r0, r6
 1206 011a 22EA0303 		bic	r3, r2, r3
 1207 011e B381     		strh	r3, [r6, #12]	@ movhi
 1208 0120 2146     		mov	r1, r4
 1209 0122 AB68     		ldr	r3, [r5, #8]
 1210 0124 9847     		blx	r3
 1211              	.L87:
 1212              		.loc 1 224 0
 1213 0126 18F4004F 		tst	r8, #32768
 1214 012a 58D0     		beq	.L90
 1215              		.loc 1 225 0
 1216 012c 324F     		ldr	r7, .L97
 1217              		.loc 1 227 0
 1218 012e 18F4006F 		tst	r8, #2048
 1219              		.loc 1 225 0
 1220 0132 57F82430 		ldr	r3, [r7, r4, lsl #2]
 1221 0136 23F47843 		bic	r3, r3, #63488
 1222 013a 23F07003 		bic	r3, r3, #112
 1223 013e 47F82430 		str	r3, [r7, r4, lsl #2]
 1224              		.loc 1 227 0
 1225 0142 04D0     		beq	.L91
 1226              		.loc 1 230 0
 1227 0144 231D     		adds	r3, r4, #4
 1228 0146 56F82330 		ldr	r3, [r6, r3, lsl #2]
 1229 014a 5B68     		ldr	r3, [r3, #4]
 1230 014c 0DE0     		b	.L96
 1231              	.L91:
 1232              		.loc 1 232 0
 1233 014e 2B68     		ldr	r3, [r5, #0]
 1234 0150 13F0100F 		tst	r3, #16
 1235 0154 0CD0     		beq	.L92
 1236              		.loc 1 234 0
 1237 0156 0123     		movs	r3, #1
 1238 0158 A340     		lsls	r3, r3, r4
 1239 015a F289     		ldrh	r2, [r6, #14]
 1240 015c 22EA0303 		bic	r3, r2, r3
 1241 0160 F381     		strh	r3, [r6, #14]	@ movhi
 1242 0162 231D     		adds	r3, r4, #4
 1243 0164 56F82330 		ldr	r3, [r6, r3, lsl #2]
 1244 0168 DB68     		ldr	r3, [r3, #12]
 1245              	.L96:
 1246 016a 2448     		ldr	r0, .L97+4
 1247 016c 2146     		mov	r1, r4
 1248 016e 35E0     		b	.L95
 1249              	.L92:
 1250              		.loc 1 239 0
ARM GAS  /tmp/ccuvjx1S.s 			page 23


 1251 0170 AB69     		ldr	r3, [r5, #24]
 1252              		.loc 1 144 0
 1253 0172 224E     		ldr	r6, .L97+4
 1254              		.loc 1 238 0
 1255 0174 5FFA84F8 		uxtb	r8, r4
 1256              	.LVL90:
 1257 0178 5A68     		ldr	r2, [r3, #4]
 1258 017a 4146     		mov	r1, r8
 1259 017c 9B68     		ldr	r3, [r3, #8]
 1260 017e 3046     		mov	r0, r6
 1261 0180 FFF7FEFF 		bl	usb_lld_read_packet_buffer
 1262              		.loc 1 241 0
 1263 0184 4146     		mov	r1, r8
 1264              		.loc 1 238 0
 1265 0186 8146     		mov	r9, r0
 1266              	.LVL91:
 1267              		.loc 1 241 0
 1268 0188 3046     		mov	r0, r6
 1269              	.LVL92:
 1270 018a FFF7FEFF 		bl	usb_lld_start_out
 1271              		.loc 1 242 0
 1272 018e AB69     		ldr	r3, [r5, #24]
 1273 0190 5A68     		ldr	r2, [r3, #4]
 1274 0192 4A44     		add	r2, r2, r9
 1275 0194 5A60     		str	r2, [r3, #4]
 1276              		.loc 1 243 0
 1277 0196 DA68     		ldr	r2, [r3, #12]
 1278 0198 4A44     		add	r2, r2, r9
 1279 019a DA60     		str	r2, [r3, #12]
 1280              		.loc 1 244 0
 1281 019c 9A68     		ldr	r2, [r3, #8]
 1282 019e C9EB0202 		rsb	r2, r9, r2
 1283 01a2 9A60     		str	r2, [r3, #8]
 1284              		.loc 1 245 0
 1285 01a4 1A88     		ldrh	r2, [r3, #0]
 1286 01a6 013A     		subs	r2, r2, #1
 1287 01a8 92B2     		uxth	r2, r2
 1288 01aa 1A80     		strh	r2, [r3, #0]	@ movhi
 1289              		.loc 1 246 0
 1290 01ac 52B1     		cbz	r2, .L93
 1291              		.loc 1 248 0
 1292 01ae 57F82430 		ldr	r3, [r7, r4, lsl #2]
 1293 01b2 23F49043 		bic	r3, r3, #18432
 1294 01b6 23F07003 		bic	r3, r3, #112
 1295 01ba 83F44053 		eor	r3, r3, #12288
 1296 01be 47F82430 		str	r3, [r7, r4, lsl #2]
 1297 01c2 0CE0     		b	.L90
 1298              	.L93:
 1299              		.loc 1 252 0
 1300 01c4 0123     		movs	r3, #1
 1301 01c6 A340     		lsls	r3, r3, r4
 1302 01c8 F289     		ldrh	r2, [r6, #14]
 1303 01ca 0434     		adds	r4, r4, #4
 1304              	.LVL93:
 1305 01cc 22EA0303 		bic	r3, r2, r3
 1306 01d0 F381     		strh	r3, [r6, #14]	@ movhi
 1307 01d2 56F82430 		ldr	r3, [r6, r4, lsl #2]
ARM GAS  /tmp/ccuvjx1S.s 			page 24


 1308 01d6 3046     		mov	r0, r6
 1309 01d8 DB68     		ldr	r3, [r3, #12]
 1310 01da 4146     		mov	r1, r8
 1311              	.LVL94:
 1312              	.L95:
 1313 01dc 9847     		blx	r3
 1314              	.L90:
 1315              		.loc 1 256 0
 1316 01de 064B     		ldr	r3, .L97
 1317 01e0 5C6C     		ldr	r4, [r3, #68]
 1318              	.LVL95:
 1319              	.L86:
 1320              	.LBE3:
 1321              		.loc 1 191 0 discriminator 1
 1322 01e2 14F4004F 		tst	r4, #32768
 1323 01e6 7FF457AF 		bne	.L94
 1324              		.loc 1 259 0
 1325 01ea FFF7FEFF 		bl	dbg_check_leave_isr
 1326              		.loc 1 260 0
 1327 01ee BDE8F047 		pop	{r4, r5, r6, r7, r8, r9, sl, lr}
 1328              		.loc 1 259 0
 1329 01f2 FFF7FEBF 		b	_port_irq_epilogue
 1330              	.L98:
 1331 01f6 00BF     		.align	2
 1332              	.L97:
 1333 01f8 005C0040 		.word	1073765376
 1334 01fc 00000000 		.word	.LANCHOR0
 1335              		.cfi_endproc
 1336              	.LFE58:
 1337              		.size	Vector90, .-Vector90
 1338              		.section	.text.usb_lld_stall_out,"ax",%progbits
 1339              		.align	1
 1340              		.global	usb_lld_stall_out
 1341              		.thumb
 1342              		.thumb_func
 1343              		.type	usb_lld_stall_out, %function
 1344              	usb_lld_stall_out:
 1345              	.LFB75:
 1346              		.loc 1 686 0
 1347              		.cfi_startproc
 1348              		@ args = 0, pretend = 0, frame = 0
 1349              		@ frame_needed = 0, uses_anonymous_args = 0
 1350              		@ link register save eliminated.
 1351              	.LVL96:
 1352              		.loc 1 690 0
 1353 0000 054A     		ldr	r2, .L100
 1354 0002 52F82130 		ldr	r3, [r2, r1, lsl #2]
 1355 0006 23F49043 		bic	r3, r3, #18432
 1356 000a 23F07003 		bic	r3, r3, #112
 1357 000e 83F48053 		eor	r3, r3, #4096
 1358 0012 42F82130 		str	r3, [r2, r1, lsl #2]
 1359              		.loc 1 691 0
 1360 0016 7047     		bx	lr
 1361              	.L101:
 1362              		.align	2
 1363              	.L100:
 1364 0018 005C0040 		.word	1073765376
ARM GAS  /tmp/ccuvjx1S.s 			page 25


 1365              		.cfi_endproc
 1366              	.LFE75:
 1367              		.size	usb_lld_stall_out, .-usb_lld_stall_out
 1368              		.section	.text.usb_lld_stall_in,"ax",%progbits
 1369              		.align	1
 1370              		.global	usb_lld_stall_in
 1371              		.thumb
 1372              		.thumb_func
 1373              		.type	usb_lld_stall_in, %function
 1374              	usb_lld_stall_in:
 1375              	.LFB76:
 1376              		.loc 1 701 0
 1377              		.cfi_startproc
 1378              		@ args = 0, pretend = 0, frame = 0
 1379              		@ frame_needed = 0, uses_anonymous_args = 0
 1380              		@ link register save eliminated.
 1381              	.LVL97:
 1382              		.loc 1 705 0
 1383 0000 054A     		ldr	r2, .L103
 1384 0002 52F82130 		ldr	r3, [r2, r1, lsl #2]
 1385 0006 23F4F043 		bic	r3, r3, #30720
 1386 000a 23F04003 		bic	r3, r3, #64
 1387 000e 83F01003 		eor	r3, r3, #16
 1388 0012 42F82130 		str	r3, [r2, r1, lsl #2]
 1389              		.loc 1 706 0
 1390 0016 7047     		bx	lr
 1391              	.L104:
 1392              		.align	2
 1393              	.L103:
 1394 0018 005C0040 		.word	1073765376
 1395              		.cfi_endproc
 1396              	.LFE76:
 1397              		.size	usb_lld_stall_in, .-usb_lld_stall_in
 1398              		.section	.text.usb_lld_clear_out,"ax",%progbits
 1399              		.align	1
 1400              		.global	usb_lld_clear_out
 1401              		.thumb
 1402              		.thumb_func
 1403              		.type	usb_lld_clear_out, %function
 1404              	usb_lld_clear_out:
 1405              	.LFB77:
 1406              		.loc 1 716 0
 1407              		.cfi_startproc
 1408              		@ args = 0, pretend = 0, frame = 0
 1409              		@ frame_needed = 0, uses_anonymous_args = 0
 1410              		@ link register save eliminated.
 1411              	.LVL98:
 1412              		.loc 1 722 0
 1413 0000 094B     		ldr	r3, .L107
 1414 0002 53F82120 		ldr	r2, [r3, r1, lsl #2]
 1415 0006 02F44052 		and	r2, r2, #12288
 1416 000a B2F5405F 		cmp	r2, #12288
 1417 000e 09D0     		beq	.L105
 1418              		.loc 1 723 0
 1419 0010 53F82120 		ldr	r2, [r3, r1, lsl #2]
 1420 0014 22F4F042 		bic	r2, r2, #30720
 1421 0018 22F04002 		bic	r2, r2, #64
ARM GAS  /tmp/ccuvjx1S.s 			page 26


 1422 001c 82F40052 		eor	r2, r2, #8192
 1423 0020 43F82120 		str	r2, [r3, r1, lsl #2]
 1424              	.L105:
 1425 0024 7047     		bx	lr
 1426              	.L108:
 1427 0026 00BF     		.align	2
 1428              	.L107:
 1429 0028 005C0040 		.word	1073765376
 1430              		.cfi_endproc
 1431              	.LFE77:
 1432              		.size	usb_lld_clear_out, .-usb_lld_clear_out
 1433              		.section	.text.usb_lld_clear_in,"ax",%progbits
 1434              		.align	1
 1435              		.global	usb_lld_clear_in
 1436              		.thumb
 1437              		.thumb_func
 1438              		.type	usb_lld_clear_in, %function
 1439              	usb_lld_clear_in:
 1440              	.LFB78:
 1441              		.loc 1 734 0
 1442              		.cfi_startproc
 1443              		@ args = 0, pretend = 0, frame = 0
 1444              		@ frame_needed = 0, uses_anonymous_args = 0
 1445              		@ link register save eliminated.
 1446              	.LVL99:
 1447              		.loc 1 740 0
 1448 0000 084B     		ldr	r3, .L111
 1449 0002 53F82120 		ldr	r2, [r3, r1, lsl #2]
 1450 0006 02F03002 		and	r2, r2, #48
 1451 000a 302A     		cmp	r2, #48
 1452 000c 09D0     		beq	.L109
 1453              		.loc 1 741 0
 1454 000e 53F82120 		ldr	r2, [r3, r1, lsl #2]
 1455 0012 22F4F042 		bic	r2, r2, #30720
 1456 0016 22F04002 		bic	r2, r2, #64
 1457 001a 82F02002 		eor	r2, r2, #32
 1458 001e 43F82120 		str	r2, [r3, r1, lsl #2]
 1459              	.L109:
 1460 0022 7047     		bx	lr
 1461              	.L112:
 1462              		.align	2
 1463              	.L111:
 1464 0024 005C0040 		.word	1073765376
 1465              		.cfi_endproc
 1466              	.LFE78:
 1467              		.size	usb_lld_clear_in, .-usb_lld_clear_in
 1468              		.global	USBD1
 1469              		.section	.rodata.CSWTCH.7,"a",%progbits
 1470              		.align	1
 1471              		.set	.LANCHOR1,. + 0
 1472              		.type	CSWTCH.7, %object
 1473              		.size	CSWTCH.7, 6
 1474              	CSWTCH.7:
 1475 0000 0004     		.short	1024
 1476 0002 0000     		.short	0
 1477 0004 0006     		.short	1536
 1478              		.section	.bss.USBD1,"aw",%nobits
ARM GAS  /tmp/ccuvjx1S.s 			page 27


 1479              		.align	2
 1480              		.set	.LANCHOR0,. + 0
 1481              		.type	USBD1, %object
 1482              		.size	USBD1, 80
 1483              	USBD1:
 1484 0000 00000000 		.space	80
 1484      00000000 
 1484      00000000 
 1484      00000000 
 1484      00000000 
 1485              		.section	.rodata.str1.1,"aMS",%progbits,1
 1486              	.LC0:
 1487 0000 706D5F61 		.ascii	"pm_alloc(), #1\000"
 1487      6C6C6F63 
 1487      28292C20 
 1487      233100
 1488              		.section	.rodata.CSWTCH.10,"a",%progbits
 1489              		.set	.LANCHOR3,. + 0
 1490              		.type	CSWTCH.10, %object
 1491              		.size	CSWTCH.10, 17
 1492              	CSWTCH.10:
 1493 0000 00       		.byte	0
 1494 0001 02       		.byte	2
 1495 0002 02       		.byte	2
 1496 0003 02       		.byte	2
 1497 0004 02       		.byte	2
 1498 0005 02       		.byte	2
 1499 0006 02       		.byte	2
 1500 0007 02       		.byte	2
 1501 0008 02       		.byte	2
 1502 0009 02       		.byte	2
 1503 000a 02       		.byte	2
 1504 000b 02       		.byte	2
 1505 000c 02       		.byte	2
 1506 000d 02       		.byte	2
 1507 000e 02       		.byte	2
 1508 000f 02       		.byte	2
 1509 0010 01       		.byte	1
 1510              		.section	.rodata.ep0config,"a",%progbits
 1511              		.align	2
 1512              		.set	.LANCHOR2,. + 0
 1513              		.type	ep0config, %object
 1514              		.size	ep0config, 28
 1515              	ep0config:
 1516 0000 00000000 		.word	0
 1517 0004 00000000 		.word	_usb_ep0setup
 1518 0008 00000000 		.word	_usb_ep0in
 1519 000c 00000000 		.word	_usb_ep0out
 1520 0010 4000     		.short	64
 1521 0012 4000     		.short	64
 1522 0014 00000000 		.word	ep0_state
 1523 0018 00000000 		.word	ep0_state
 1524              		.section	.bss.ep0_state,"aw",%nobits
 1525              		.align	2
 1526              		.type	ep0_state, %object
 1527              		.size	ep0_state, 16
 1528              	ep0_state:
ARM GAS  /tmp/ccuvjx1S.s 			page 28


 1529 0000 00000000 		.space	16
 1529      00000000 
 1529      00000000 
 1529      00000000 
 1530              		.text
 1531              	.Letext0: